	.file	"1_StoreRelThread.cpp"
	.file	1 "/home/kay/Documents/Code/toolchain-wasm" "emscripten/cache/sysroot/include/c++/v1/__atomic/cxx_atomic_impl.h"
	.file	2 "/home/kay/Documents/Code/toolchain-wasm" "emscripten/cache/sysroot/include/c++/v1/__atomic/atomic_base.h"
	.file	3 "/home/kay/Documents/Code/toolchain-wasm" "emscripten/cache/sysroot/include/c++/v1/__atomic/memory_order.h"
	.file	4 "/home/kay/Documents/Code/toolchain-wasm" "emscripten/cache/sysroot/include/c++/v1/__atomic/atomic.h"
	.file	5 "/home/kay/Documents/Code/toolchain-wasm/code/AtomicBenchCode" "1_StoreRelThread.cpp"
	.file	6 "/home/kay/Documents/Code/toolchain-wasm" "llvm-project/build_llvm/lib/clang/20/include/__stddef_size_t.h"
	.file	7 "/home/kay/Documents/Code/toolchain-wasm" "emscripten/cache/sysroot/include/c++/v1/__thread/thread.h"
	.file	8 "/home/kay/Documents/Code/toolchain-wasm" "emscripten/cache/sysroot/include/c++/v1/vector"
	.file	9 "/home/kay/Documents/Code/toolchain-wasm" "emscripten/cache/sysroot/include/c++/v1/new"
	.file	10 "/home/kay/Documents/Code/toolchain-wasm" "emscripten/cache/sysroot/include/c++/v1/limits"
	.file	11 "/home/kay/Documents/Code/toolchain-wasm" "emscripten/cache/sysroot/include/c++/v1/__type_traits/underlying_type.h"
	.file	12 "/home/kay/Documents/Code/toolchain-wasm" "emscripten/cache/sysroot/include/c++/v1/__type_traits/remove_const.h"
	.file	13 "/home/kay/Documents/Code/toolchain-wasm" "emscripten/cache/sysroot/include/bits/alltypes.h"
	.file	14 "/home/kay/Documents/Code/toolchain-wasm" "emscripten/cache/sysroot/include/c++/v1/__thread/support/pthread.h"
	.file	15 "/home/kay/Documents/Code/toolchain-wasm" "emscripten/cache/sysroot/include/c++/v1/__memory/allocator.h"
	.file	16 "/home/kay/Documents/Code/toolchain-wasm" "emscripten/cache/sysroot/include/c++/v1/__memory/allocator_traits.h"
	.file	17 "/home/kay/Documents/Code/toolchain-wasm" "emscripten/cache/sysroot/include/c++/v1/__memory/compressed_pair.h"
	.file	18 "/home/kay/Documents/Code/toolchain-wasm" "emscripten/cache/sysroot/include/c++/v1/__type_traits/type_identity.h"
	.file	19 "/home/kay/Documents/Code/toolchain-wasm" "emscripten/cache/sysroot/include/c++/v1/__iterator/wrap_iter.h"
	.file	20 "/home/kay/Documents/Code/toolchain-wasm" "emscripten/cache/sysroot/include/c++/v1/__iterator/iterator_traits.h"
	.file	21 "/home/kay/Documents/Code/toolchain-wasm" "llvm-project/build_llvm/lib/clang/20/include/__stddef_ptrdiff_t.h"
	.file	22 "/home/kay/Documents/Code/toolchain-wasm" "emscripten/cache/sysroot/include/c++/v1/__split_buffer"
	.file	23 "/home/kay/Documents/Code/toolchain-wasm" "emscripten/cache/sysroot/include/c++/v1/__type_traits/remove_reference.h"
	.file	24 "/home/kay/Documents/Code/toolchain-wasm" "emscripten/cache/sysroot/include/c++/v1/__type_traits/integral_constant.h"
	.file	25 "/home/kay/Documents/Code/toolchain-wasm" "emscripten/cache/sysroot/include/c++/v1/__memory/unique_ptr.h"
	.file	26 "/home/kay/Documents/Code/toolchain-wasm" "emscripten/cache/sysroot/include/c++/v1/stddef.h"
	.file	27 "/home/kay/Documents/Code/toolchain-wasm" "emscripten/cache/sysroot/include/c++/v1/__type_traits/add_lvalue_reference.h"
	.file	28 "/home/kay/Documents/Code/toolchain-wasm" "emscripten/cache/sysroot/include/c++/v1/initializer_list"
	.file	29 "/home/kay/Documents/Code/toolchain-wasm" "emscripten/cache/sysroot/include/c++/v1/__tuple/tuple_indices.h"
	.file	30 "/home/kay/Documents/Code/toolchain-wasm" "emscripten/cache/sysroot/include/c++/v1/tuple"
	.file	31 "/home/kay/Documents/Code/toolchain-wasm" "emscripten/cache/sysroot/include/c++/v1/ratio"
	.file	32 "/home/kay/Documents/Code/toolchain-wasm" "emscripten/cache/sysroot/include/c++/v1/__chrono/duration.h"
	.file	33 "/home/kay/Documents/Code/toolchain-wasm" "emscripten/cache/sysroot/include/c++/v1/__memory/uninitialized_algorithms.h"
	.file	34 "/home/kay/Documents/Code/toolchain-wasm" "emscripten/cache/sysroot/include/c++/v1/__utility/exception_guard.h"
	.file	35 "/home/kay/Documents/Code/toolchain-wasm" "emscripten/cache/sysroot/include/c++/v1/__iterator/reverse_iterator.h"
	.file	36 "/home/kay/Documents/Code/toolchain-wasm" "emscripten/cache/sysroot/include/c++/v1/__chrono/steady_clock.h"
	.file	37 "/home/kay/Documents/Code/toolchain-wasm" "emscripten/cache/sysroot/include/c++/v1/__chrono/time_point.h"
	.globaltype	__stack_pointer, i32
	.functype	_Z14wait_for_startv () -> ()
	.functype	_ZNSt3__213__atomic_baseIiLb1EE9fetch_addB8ne190106EiNS_12memory_orderE (i32, i32, i32) -> (i32)
	.functype	_ZNKSt3__213__atomic_baseIbLb0EE4loadB8ne190106ENS_12memory_orderE (i32, i32) -> (i32)
	.functype	_Z20benchmark_atomic_relRNSt3__26vectorIdNS_9allocatorIdEEEE (i32) -> ()
	.functype	_ZNSt3__26vectorINS_6threadENS_9allocatorIS1_EEEC2B8ne190106Ev (i32) -> (i32)
	.functype	printf (i32, i32) -> (i32)
	.functype	_ZNSt3__26vectorINS_6threadENS_9allocatorIS1_EEE12emplace_backIJZ20benchmark_atomic_relRNS0_IdNS2_IdEEEEE3$_0EEERS1_DpOT_ (i32, i32) -> (i32)
	.functype	_ZNSt3__26atomicIiEaSB8ne190106Ei (i32, i32) -> (i32)
	.functype	_ZNSt3__26atomicIbEaSB8ne190106Eb (i32, i32) -> (i32)
	.functype	_ZNSt3__26vectorINS_6threadENS_9allocatorIS1_EEE5beginB8ne190106Ev (i32) -> (i32)
	.functype	_ZNSt3__26vectorINS_6threadENS_9allocatorIS1_EEE3endB8ne190106Ev (i32) -> (i32)
	.functype	_ZNSt3__2neB8ne190106IPNS_6threadEEEbRKNS_11__wrap_iterIT_EES7_ (i32, i32) -> (i32)
	.functype	_ZNKSt3__211__wrap_iterIPNS_6threadEEdeB8ne190106Ev (i32) -> (i32)
	.functype	_ZNSt3__26thread4joinEv (i32) -> ()
	.functype	_ZNSt3__211__wrap_iterIPNS_6threadEEppB8ne190106Ev (i32) -> (i32)
	.functype	_ZNSt3__26vectorINS_6threadENS_9allocatorIS1_EEED2B8ne190106Ev (i32) -> (i32)
	.functype	__original_main () -> (i32)
	.functype	_ZNSt3__26vectorIdNS_9allocatorIdEEEC2B8ne190106EmRKd (i32, i32, i32) -> (i32)
	.functype	_ZNKSt3__26vectorIdNS_9allocatorIdEEE4sizeB8ne190106Ev (i32) -> (i32)
	.functype	_ZNSt3__26vectorIdNS_9allocatorIdEEEixB8ne190106Em (i32, i32) -> (i32)
	.functype	_ZNSt3__26vectorIdNS_9allocatorIdEEED2B8ne190106Ev (i32) -> (i32)
	.functype	_ZNSt3__2eqB8ne190106IPNS_6threadEEEbRKNS_11__wrap_iterIT_EES7_ (i32, i32) -> (i32)
	.functype	_ZNKSt3__211__wrap_iterIPNS_6threadEE4baseB8ne190106Ev (i32) -> (i32)
	.functype	_ZNSt3__222__cxx_atomic_fetch_addB8ne190106IiEET_PNS_22__cxx_atomic_base_implIS1_EES1_NS_12memory_orderE (i32, i32, i32) -> (i32)
	.functype	_ZNSt3__217__cxx_atomic_loadB8ne190106IbEET_PKNS_22__cxx_atomic_base_implIS1_EENS_12memory_orderE (i32, i32) -> (i32)
	.functype	_ZNSt3__217__compressed_pairIPNS_6threadENS_9allocatorIS1_EEEC2B8ne190106IDnNS_18__default_init_tagEEEOT_OT0_ (i32, i32, i32) -> (i32)
	.functype	_ZNSt3__222__compressed_pair_elemIPNS_6threadELi0ELb0EEC2B8ne190106IDnTnNS_9enable_ifIXntsr7is_sameIS3_u7__decayIT_EEE5valueEiE4typeELi0EEEOS6_ (i32, i32) -> (i32)
	.functype	_ZNSt3__222__compressed_pair_elemINS_9allocatorINS_6threadEEELi1ELb1EEC2B8ne190106ENS_18__default_init_tagE (i32) -> (i32)
	.functype	_ZNSt3__29allocatorINS_6threadEEC2B8ne190106Ev (i32) -> (i32)
	.functype	_ZNSt3__216__non_trivial_ifILb1ENS_9allocatorINS_6threadEEEEC2B8ne190106Ev (i32) -> (i32)
	.functype	_ZNSt3__26vectorINS_6threadENS_9allocatorIS1_EEE16__destroy_vectorC2B8ne190106ERS4_ (i32, i32) -> (i32)
	.functype	_ZNSt3__26vectorINS_6threadENS_9allocatorIS1_EEE16__destroy_vectorclB8ne190106Ev (i32) -> ()
	.functype	_ZNSt3__26vectorINS_6threadENS_9allocatorIS1_EEE7__clearB8ne190106Ev (i32) -> ()
	.functype	_ZNKSt3__26vectorINS_6threadENS_9allocatorIS1_EEE17__annotate_deleteB8ne190106Ev (i32) -> ()
	.functype	_ZNSt3__216allocator_traitsINS_9allocatorINS_6threadEEEE10deallocateB8ne190106ERS3_PS2_m (i32, i32, i32) -> ()
	.functype	_ZNSt3__26vectorINS_6threadENS_9allocatorIS1_EEE7__allocB8ne190106Ev (i32) -> (i32)
	.functype	_ZNKSt3__26vectorINS_6threadENS_9allocatorIS1_EEE8capacityB8ne190106Ev (i32) -> (i32)
	.functype	_ZNSt3__26vectorINS_6threadENS_9allocatorIS1_EEE22__base_destruct_at_endB8ne190106EPS1_ (i32, i32) -> ()
	.functype	_ZNSt3__216allocator_traitsINS_9allocatorINS_6threadEEEE7destroyB8ne190106IS2_TnNS_9enable_ifIXsr13__has_destroyIS3_PT_EE5valueEiE4typeELi0EEEvRS3_S8_ (i32, i32) -> ()
	.functype	_ZNSt3__212__to_addressB8ne190106INS_6threadEEEPT_S3_ (i32) -> (i32)
	.functype	_ZNSt3__29allocatorINS_6threadEE7destroyB8ne190106EPS1_ (i32, i32) -> ()
	.functype	_ZNSt3__26threadD1Ev (i32) -> (i32)
	.functype	_ZNSt3__29allocatorINS_6threadEE10deallocateB8ne190106EPS1_m (i32, i32, i32) -> ()
	.functype	_ZNSt3__219__libcpp_deallocateB8ne190106EPvmm (i32, i32, i32) -> ()
	.functype	_ZNSt3__224__is_overaligned_for_newB8ne190106Em (i32) -> (i32)
	.functype	_ZNSt3__227__do_deallocate_handle_sizeB8ne190106IJSt11align_val_tEEEvPvmDpT_ (i32, i32, i32) -> ()
	.functype	_ZNSt3__227__do_deallocate_handle_sizeB8ne190106IJEEEvPvmDpT_ (i32, i32) -> ()
	.functype	_ZNSt3__224__libcpp_operator_deleteB8ne190106IJPvmSt11align_val_tEEEvDpT_ (i32, i32, i32) -> ()
	.functype	_ZdlPvmSt11align_val_t (i32, i32, i32) -> ()
	.functype	_ZNSt3__224__libcpp_operator_deleteB8ne190106IJPvmEEEvDpT_ (i32, i32) -> ()
	.functype	_ZdlPvm (i32, i32) -> ()
	.functype	_ZNSt3__217__compressed_pairIPNS_6threadENS_9allocatorIS1_EEE6secondB8ne190106Ev (i32) -> (i32)
	.functype	_ZNSt3__222__compressed_pair_elemINS_9allocatorINS_6threadEEELi1ELb1EE5__getB8ne190106Ev (i32) -> (i32)
	.functype	_ZNKSt3__26vectorINS_6threadENS_9allocatorIS1_EEE9__end_capB8ne190106Ev (i32) -> (i32)
	.functype	_ZNKSt3__217__compressed_pairIPNS_6threadENS_9allocatorIS1_EEE5firstB8ne190106Ev (i32) -> (i32)
	.functype	_ZNKSt3__222__compressed_pair_elemIPNS_6threadELi0ELb0EE5__getB8ne190106Ev (i32) -> (i32)
	.functype	_ZNSt3__26vectorINS_6threadENS_9allocatorIS1_EEE9__end_capB8ne190106Ev (i32) -> (i32)
	.functype	_ZNSt3__26vectorINS_6threadENS_9allocatorIS1_EEE22__construct_one_at_endB8ne190106IJZ20benchmark_atomic_relRNS0_IdNS2_IdEEEEE3$_0EEEvDpOT_ (i32, i32) -> ()
	.functype	_ZNSt3__26vectorINS_6threadENS_9allocatorIS1_EEE24__emplace_back_slow_pathIJZ20benchmark_atomic_relRNS0_IdNS2_IdEEEEE3$_0EEEPS1_DpOT_ (i32, i32) -> (i32)
	.functype	_ZNSt3__217__compressed_pairIPNS_6threadENS_9allocatorIS1_EEE5firstB8ne190106Ev (i32) -> (i32)
	.functype	_ZNSt3__222__compressed_pair_elemIPNS_6threadELi0ELb0EE5__getB8ne190106Ev (i32) -> (i32)
	.functype	_ZNSt3__26vectorINS_6threadENS_9allocatorIS1_EEE21_ConstructTransactionC2B8ne190106ERS4_m (i32, i32, i32) -> (i32)
	.functype	_ZNSt3__216allocator_traitsINS_9allocatorINS_6threadEEEE9constructB8ne190106IS2_JZ20benchmark_atomic_relRNS_6vectorIdNS1_IdEEEEE3$_0ETnNS_9enable_ifIXsr15__has_constructIS3_PT_DpT0_EE5valueEiE4typeELi0EEEvRS3_SD_DpOSE_ (i32, i32, i32) -> ()
	.functype	_ZNSt3__26vectorINS_6threadENS_9allocatorIS1_EEE21_ConstructTransactionD2B8ne190106Ev (i32) -> (i32)
	.functype	_ZNSt3__29allocatorINS_6threadEE9constructB8ne190106IS1_JZ20benchmark_atomic_relRNS_6vectorIdNS0_IdEEEEE3$_0EEEvPT_DpOT0_ (i32, i32, i32) -> ()
	.functype	_ZNSt3__26threadC2IZ20benchmark_atomic_relRNS_6vectorIdNS_9allocatorIdEEEEE3$_0JETnNS_9enable_ifIXntsr7is_sameIu14__remove_cvrefIT_ES0_EE5valueEiE4typeELi0EEEOS9_DpOT0_ (i32, i32) -> (i32)
	.functype	_Znwm (i32) -> (i32)
	.functype	_ZNSt3__215__thread_structC1Ev (i32) -> (i32)
	.functype	_ZNSt3__210unique_ptrINS_15__thread_structENS_14default_deleteIS1_EEEC2B8ne190106ILb1EvEEPS1_ (i32, i32) -> (i32)
	.functype	_ZNSt3__25tupleIJNS_10unique_ptrINS_15__thread_structENS_14default_deleteIS2_EEEEZ20benchmark_atomic_relRNS_6vectorIdNS_9allocatorIdEEEEE3$_0EEC2B8ne190106IJS5_SB_ETnNS_9enable_ifIXsr4_AndINS_17integral_constantIbXeqsZT_sZT_EEENSC_17_EnableUTypesCtorIJDpT_EEEEE5valueEiE4typeELi0EEEDpOSI_ (i32, i32, i32) -> (i32)
	.functype	_ZNSt3__210unique_ptrINS_5tupleIJNS0_INS_15__thread_structENS_14default_deleteIS2_EEEEZ20benchmark_atomic_relRNS_6vectorIdNS_9allocatorIdEEEEE3$_0EEENS3_ISC_EEEC2B8ne190106ILb1EvEEPSC_ (i32, i32) -> (i32)
	.functype	_ZNSt3__222__libcpp_thread_createB8ne190106EPmPFPvS1_ES1_ (i32, i32, i32) -> (i32)
	.functype	_ZNSt3__214__thread_proxyB8ne190106INS_5tupleIJNS_10unique_ptrINS_15__thread_structENS_14default_deleteIS3_EEEEZ20benchmark_atomic_relRNS_6vectorIdNS_9allocatorIdEEEEE3$_0EEEEEPvSE_ (i32) -> (i32)
	.functype	_ZNKSt3__210unique_ptrINS_5tupleIJNS0_INS_15__thread_structENS_14default_deleteIS2_EEEEZ20benchmark_atomic_relRNS_6vectorIdNS_9allocatorIdEEEEE3$_0EEENS3_ISC_EEE3getB8ne190106Ev (i32) -> (i32)
	.functype	_ZNSt3__210unique_ptrINS_5tupleIJNS0_INS_15__thread_structENS_14default_deleteIS2_EEEEZ20benchmark_atomic_relRNS_6vectorIdNS_9allocatorIdEEEEE3$_0EEENS3_ISC_EEE7releaseB8ne190106Ev (i32) -> (i32)
	.functype	_ZNSt3__220__throw_system_errorEiPKc (i32, i32) -> ()
	.functype	_ZNSt3__210unique_ptrINS_5tupleIJNS0_INS_15__thread_structENS_14default_deleteIS2_EEEEZ20benchmark_atomic_relRNS_6vectorIdNS_9allocatorIdEEEEE3$_0EEENS3_ISC_EEED2B8ne190106Ev (i32) -> (i32)
	.functype	_ZNSt3__210unique_ptrINS_15__thread_structENS_14default_deleteIS1_EEED2B8ne190106Ev (i32) -> (i32)
	.functype	_ZNSt3__217__compressed_pairIPNS_15__thread_structENS_14default_deleteIS1_EEEC2B8ne190106IRS2_NS_16__value_init_tagEEEOT_OT0_ (i32, i32, i32) -> (i32)
	.functype	_ZNSt3__222__compressed_pair_elemIPNS_15__thread_structELi0ELb0EEC2B8ne190106IRS2_TnNS_9enable_ifIXntsr7is_sameIS3_u7__decayIT_EEE5valueEiE4typeELi0EEEOS7_ (i32, i32) -> (i32)
	.functype	_ZNSt3__222__compressed_pair_elemINS_14default_deleteINS_15__thread_structEEELi1ELb1EEC2B8ne190106ENS_16__value_init_tagE (i32) -> (i32)
	.functype	_ZNSt3__212__tuple_implINS_15__tuple_indicesIJLm0ELm1EEEEJNS_10unique_ptrINS_15__thread_structENS_14default_deleteIS4_EEEEZ20benchmark_atomic_relRNS_6vectorIdNS_9allocatorIdEEEEE3$_0EEC2B8ne190106IJLm0ELm1EEJS7_SD_ETpTnmJEJEJS7_SD_EEENS1_IJXspT_EEEENS_13__tuple_typesIJDpT0_EEENS1_IJXspT1_EEEENSH_IJDpT2_EEEDpOT3_ (i32, i32, i32) -> (i32)
	.functype	_ZNSt3__212__tuple_leafILm0ENS_10unique_ptrINS_15__thread_structENS_14default_deleteIS2_EEEELb0EEC2B8ne190106IS5_TnNS_9enable_ifIXsr4_AndINS_17integral_constantIbXntu9__is_sameu14__remove_cvrefIT_ES6_EEEENS_16is_constructibleIS5_JSA_EEEEE5valueEiE4typeELi0EEEOSA_ (i32, i32) -> (i32)
	.functype	_ZNSt3__212__tuple_leafILm1EZ20benchmark_atomic_relRNS_6vectorIdNS_9allocatorIdEEEEE3$_0Lb0EEC2B8ne190106IS6_TnNS_9enable_ifIXsr4_AndINS_17integral_constantIbXntu9__is_sameu14__remove_cvrefIT_ES7_EEEENS_16is_constructibleIS6_JSB_EEEEE5valueEiE4typeELi0EEEOSB_ (i32, i32) -> (i32)
	.functype	_ZNSt3__210unique_ptrINS_15__thread_structENS_14default_deleteIS1_EEEC2B8ne190106EOS4_ (i32, i32) -> (i32)
	.functype	_ZNSt3__210unique_ptrINS_15__thread_structENS_14default_deleteIS1_EEE7releaseB8ne190106Ev (i32) -> (i32)
	.functype	_ZNSt3__210unique_ptrINS_15__thread_structENS_14default_deleteIS1_EEE11get_deleterB8ne190106Ev (i32) -> (i32)
	.functype	_ZNSt3__217__compressed_pairIPNS_15__thread_structENS_14default_deleteIS1_EEEC2B8ne190106IS2_S4_EEOT_OT0_ (i32, i32, i32) -> (i32)
	.functype	_ZNSt3__217__compressed_pairIPNS_15__thread_structENS_14default_deleteIS1_EEE5firstB8ne190106Ev (i32) -> (i32)
	.functype	_ZNSt3__222__compressed_pair_elemIPNS_15__thread_structELi0ELb0EE5__getB8ne190106Ev (i32) -> (i32)
	.functype	_ZNSt3__217__compressed_pairIPNS_15__thread_structENS_14default_deleteIS1_EEE6secondB8ne190106Ev (i32) -> (i32)
	.functype	_ZNSt3__222__compressed_pair_elemINS_14default_deleteINS_15__thread_structEEELi1ELb1EE5__getB8ne190106Ev (i32) -> (i32)
	.functype	_ZNSt3__222__compressed_pair_elemIPNS_15__thread_structELi0ELb0EEC2B8ne190106IS2_TnNS_9enable_ifIXntsr7is_sameIS3_u7__decayIT_EEE5valueEiE4typeELi0EEEOS6_ (i32, i32) -> (i32)
	.functype	_ZNSt3__222__compressed_pair_elemINS_14default_deleteINS_15__thread_structEEELi1ELb1EEC2B8ne190106IS3_TnNS_9enable_ifIXntsr7is_sameIS4_u7__decayIT_EEE5valueEiE4typeELi0EEEOS7_ (i32, i32) -> (i32)
	.functype	_ZNSt3__217__compressed_pairIPNS_5tupleIJNS_10unique_ptrINS_15__thread_structENS_14default_deleteIS3_EEEEZ20benchmark_atomic_relRNS_6vectorIdNS_9allocatorIdEEEEE3$_0EEENS4_ISD_EEEC2B8ne190106IRSE_NS_16__value_init_tagEEEOT_OT0_ (i32, i32, i32) -> (i32)
	.functype	_ZNSt3__222__compressed_pair_elemIPNS_5tupleIJNS_10unique_ptrINS_15__thread_structENS_14default_deleteIS3_EEEEZ20benchmark_atomic_relRNS_6vectorIdNS_9allocatorIdEEEEE3$_0EEELi0ELb0EEC2B8ne190106IRSE_TnNS_9enable_ifIXntsr7is_sameISF_u7__decayIT_EEE5valueEiE4typeELi0EEEOSJ_ (i32, i32) -> (i32)
	.functype	_ZNSt3__222__compressed_pair_elemINS_14default_deleteINS_5tupleIJNS_10unique_ptrINS_15__thread_structENS1_IS4_EEEEZ20benchmark_atomic_relRNS_6vectorIdNS_9allocatorIdEEEEE3$_0EEEEELi1ELb1EEC2B8ne190106ENS_16__value_init_tagE (i32) -> (i32)
	.functype	pthread_create (i32, i32, i32, i32) -> (i32)
	.functype	_ZNSt3__219__thread_local_dataEv () -> (i32)
	.functype	_ZNSt3__221__thread_specific_ptrINS_15__thread_structEE11set_pointerEPS1_ (i32, i32) -> ()
	.functype	_ZNSt3__23getB8ne190106ILm0EJNS_10unique_ptrINS_15__thread_structENS_14default_deleteIS2_EEEEZ20benchmark_atomic_relRNS_6vectorIdNS_9allocatorIdEEEEE3$_0EEERNS_13tuple_elementIXT_ENS_5tupleIJDpT0_EEEE4typeERSG_ (i32) -> (i32)
	.functype	_ZNSt3__216__thread_executeB8ne190106INS_10unique_ptrINS_15__thread_structENS_14default_deleteIS2_EEEEZ20benchmark_atomic_relRNS_6vectorIdNS_9allocatorIdEEEEE3$_0JETpTnmJEEEvRNS_5tupleIJT_T0_DpT1_EEENS_15__tuple_indicesIJXspT2_EEEE (i32) -> ()
	.functype	_ZNSt3__216__libcpp_tls_setB8ne190106EjPv (i32, i32) -> (i32)
	.functype	pthread_setspecific (i32, i32) -> (i32)
	.functype	_ZNSt3__212__tuple_leafILm0ENS_10unique_ptrINS_15__thread_structENS_14default_deleteIS2_EEEELb0EE3getB8ne190106Ev (i32) -> (i32)
	.functype	_ZNSt3__28__invokeB8ne190106IZ20benchmark_atomic_relRNS_6vectorIdNS_9allocatorIdEEEEE3$_0JEEEDTclclsr3stdE7declvalIT_EEspclsr3stdE7declvalIT0_EEEEOS7_DpOS8_ (i32) -> ()
	.functype	_ZNSt3__23getB8ne190106ILm1EJNS_10unique_ptrINS_15__thread_structENS_14default_deleteIS2_EEEEZ20benchmark_atomic_relRNS_6vectorIdNS_9allocatorIdEEEEE3$_0EEERNS_13tuple_elementIXT_ENS_5tupleIJDpT0_EEEE4typeERSG_ (i32) -> (i32)
	.functype	_ZZ20benchmark_atomic_relRNSt3__26vectorIdNS_9allocatorIdEEEEENK3$_0clEv (i32) -> ()
	.functype	rand () -> (i32)
	.functype	_ZNSt3__26chrono12steady_clock3nowEv () -> (i64)
	.functype	_ZNVSt3__213__atomic_baseIiLb0EE5storeB8ne190106EiNS_12memory_orderE (i32, i32, i32) -> ()
	.functype	_ZNVKSt3__213__atomic_baseIiLb0EE4loadB8ne190106ENS_12memory_orderE (i32, i32) -> (i32)
	.functype	_ZNSt3__26chronomiB8ne190106INS0_12steady_clockENS0_8durationIxNS_5ratioILx1ELx1000000000EEEEES6_EENS_11common_typeIJT0_T1_EE4typeERKNS0_10time_pointIT_S8_EERKNSC_ISD_S9_EE (i32, i32) -> (i64)
	.functype	_ZNSt3__26chrono8durationIdNS_5ratioILx1ELx1000000000EEEEC2B8ne190106IxS3_TnNS_9enable_ifIXaasr13__no_overflowIT0_S3_EE5valueooL_ZNS_17integral_constantIbLb1EE5valueEEaaeqsr13__no_overflowIS7_S3_E4typeE3denLi1Entsr23treat_as_floating_pointIT_EE5valueEiE4typeELi0EEERKNS1_ISA_S7_EE (i32, i32) -> (i32)
	.functype	_ZNKSt3__26chrono8durationIdNS_5ratioILx1ELx1000000000EEEE5countB8ne190106Ev (i32) -> (f64)
	.functype	_ZNSt3__218__cxx_atomic_storeB8ne190106IiEEvPVNS_22__cxx_atomic_base_implIT_EES2_NS_12memory_orderE (i32, i32, i32) -> ()
	.functype	_ZNSt3__217__cxx_atomic_loadB8ne190106IiEET_PVKNS_22__cxx_atomic_base_implIS1_EENS_12memory_orderE (i32, i32) -> (i32)
	.functype	_ZNSt3__26chronomiB8ne190106IxNS_5ratioILx1ELx1000000000EEExS3_EENS_11common_typeIJNS0_8durationIT_T0_EENS5_IT1_T2_EEEE4typeERKS8_RKSB_ (i32, i32) -> (i64)
	.functype	_ZNKSt3__26chrono10time_pointINS0_12steady_clockENS0_8durationIxNS_5ratioILx1ELx1000000000EEEEEE16time_since_epochB8ne190106Ev (i32) -> (i64)
	.functype	_ZNKSt3__26chrono8durationIxNS_5ratioILx1ELx1000000000EEEE5countB8ne190106Ev (i32) -> (i64)
	.functype	_ZNSt3__26chrono8durationIxNS_5ratioILx1ELx1000000000EEEEC2B8ne190106IxTnNS_9enable_ifIXaasr14is_convertibleIRKT_xEE5valueooL_ZNS_17integral_constantIbLb0EE5valueEEntsr23treat_as_floating_pointIS7_EE5valueEiE4typeELi0EEES9_ (i32, i32) -> (i32)
	.functype	_ZNSt3__26chrono13duration_castB8ne190106INS0_8durationIdNS_5ratioILx1ELx1000000000EEEEExS4_TnNS_9enable_ifIXsr13__is_durationIT_EE5valueEiE4typeELi0EEES7_RKNS2_IT0_T1_EE (i32) -> (f64)
	.functype	_ZNKSt3__26chrono15__duration_castINS0_8durationIxNS_5ratioILx1ELx1000000000EEEEENS2_IdS4_EENS3_ILx1ELx1EEELb1ELb1EEclB8ne190106ERKS5_ (i32, i32) -> (f64)
	.functype	_ZNSt3__26chrono8durationIdNS_5ratioILx1ELx1000000000EEEEC2B8ne190106IdTnNS_9enable_ifIXaasr14is_convertibleIRKT_dEE5valueooL_ZNS_17integral_constantIbLb1EE5valueEEntsr23treat_as_floating_pointIS7_EE5valueEiE4typeELi0EEES9_ (i32, i32) -> (i32)
	.functype	_ZNSt3__212__tuple_leafILm1EZ20benchmark_atomic_relRNS_6vectorIdNS_9allocatorIdEEEEE3$_0Lb0EE3getB8ne190106Ev (i32) -> (i32)
	.functype	_ZNKSt3__217__compressed_pairIPNS_5tupleIJNS_10unique_ptrINS_15__thread_structENS_14default_deleteIS3_EEEEZ20benchmark_atomic_relRNS_6vectorIdNS_9allocatorIdEEEEE3$_0EEENS4_ISD_EEE5firstB8ne190106Ev (i32) -> (i32)
	.functype	_ZNKSt3__222__compressed_pair_elemIPNS_5tupleIJNS_10unique_ptrINS_15__thread_structENS_14default_deleteIS3_EEEEZ20benchmark_atomic_relRNS_6vectorIdNS_9allocatorIdEEEEE3$_0EEELi0ELb0EE5__getB8ne190106Ev (i32) -> (i32)
	.functype	_ZNSt3__217__compressed_pairIPNS_5tupleIJNS_10unique_ptrINS_15__thread_structENS_14default_deleteIS3_EEEEZ20benchmark_atomic_relRNS_6vectorIdNS_9allocatorIdEEEEE3$_0EEENS4_ISD_EEE5firstB8ne190106Ev (i32) -> (i32)
	.functype	_ZNSt3__222__compressed_pair_elemIPNS_5tupleIJNS_10unique_ptrINS_15__thread_structENS_14default_deleteIS3_EEEEZ20benchmark_atomic_relRNS_6vectorIdNS_9allocatorIdEEEEE3$_0EEELi0ELb0EE5__getB8ne190106Ev (i32) -> (i32)
	.functype	_ZNSt3__210unique_ptrINS_5tupleIJNS0_INS_15__thread_structENS_14default_deleteIS2_EEEEZ20benchmark_atomic_relRNS_6vectorIdNS_9allocatorIdEEEEE3$_0EEENS3_ISC_EEE5resetB8ne190106EPSC_ (i32, i32) -> ()
	.functype	_ZNSt3__217__compressed_pairIPNS_5tupleIJNS_10unique_ptrINS_15__thread_structENS_14default_deleteIS3_EEEEZ20benchmark_atomic_relRNS_6vectorIdNS_9allocatorIdEEEEE3$_0EEENS4_ISD_EEE6secondB8ne190106Ev (i32) -> (i32)
	.functype	_ZNKSt3__214default_deleteINS_5tupleIJNS_10unique_ptrINS_15__thread_structENS0_IS3_EEEEZ20benchmark_atomic_relRNS_6vectorIdNS_9allocatorIdEEEEE3$_0EEEEclB8ne190106EPSC_ (i32, i32) -> ()
	.functype	_ZNSt3__222__compressed_pair_elemINS_14default_deleteINS_5tupleIJNS_10unique_ptrINS_15__thread_structENS1_IS4_EEEEZ20benchmark_atomic_relRNS_6vectorIdNS_9allocatorIdEEEEE3$_0EEEEELi1ELb1EE5__getB8ne190106Ev (i32) -> (i32)
	.functype	_ZNSt3__25tupleIJNS_10unique_ptrINS_15__thread_structENS_14default_deleteIS2_EEEEZ20benchmark_atomic_relRNS_6vectorIdNS_9allocatorIdEEEEE3$_0EED2Ev (i32) -> (i32)
	.functype	_ZNSt3__212__tuple_implINS_15__tuple_indicesIJLm0ELm1EEEEJNS_10unique_ptrINS_15__thread_structENS_14default_deleteIS4_EEEEZ20benchmark_atomic_relRNS_6vectorIdNS_9allocatorIdEEEEE3$_0EED2Ev (i32) -> (i32)
	.functype	_ZNSt3__212__tuple_leafILm0ENS_10unique_ptrINS_15__thread_structENS_14default_deleteIS2_EEEELb0EED2Ev (i32) -> (i32)
	.functype	_ZNSt3__210unique_ptrINS_15__thread_structENS_14default_deleteIS1_EEE5resetB8ne190106EPS1_ (i32, i32) -> ()
	.functype	_ZNKSt3__214default_deleteINS_15__thread_structEEclB8ne190106EPS1_ (i32, i32) -> ()
	.functype	_ZNSt3__215__thread_structD1Ev (i32) -> (i32)
	.functype	_ZNKSt3__26vectorINS_6threadENS_9allocatorIS1_EEE11__recommendB8ne190106Em (i32, i32) -> (i32)
	.functype	_ZNKSt3__26vectorINS_6threadENS_9allocatorIS1_EEE4sizeB8ne190106Ev (i32) -> (i32)
	.functype	_ZNSt3__214__split_bufferINS_6threadERNS_9allocatorIS1_EEEC2EmmS4_ (i32, i32, i32, i32) -> (i32)
	.functype	_ZNSt3__26vectorINS_6threadENS_9allocatorIS1_EEE26__swap_out_circular_bufferERNS_14__split_bufferIS1_RS3_EE (i32, i32) -> ()
	.functype	_ZNSt3__214__split_bufferINS_6threadERNS_9allocatorIS1_EEED2Ev (i32) -> (i32)
	.functype	_ZNKSt3__26vectorINS_6threadENS_9allocatorIS1_EEE8max_sizeEv (i32) -> (i32)
	.functype	_ZNKSt3__26vectorINS_6threadENS_9allocatorIS1_EEE20__throw_length_errorB8ne190106Ev (i32) -> ()
	.functype	_ZNSt3__23maxB8ne190106ImEERKT_S3_S3_ (i32, i32) -> (i32)
	.functype	_ZNSt3__23minB8ne190106ImEERKT_S3_S3_ (i32, i32) -> (i32)
	.functype	_ZNSt3__216allocator_traitsINS_9allocatorINS_6threadEEEE8max_sizeB8ne190106IS3_TnNS_9enable_ifIXsr14__has_max_sizeIKT_EE5valueEiE4typeELi0EEEmRKS3_ (i32) -> (i32)
	.functype	_ZNKSt3__26vectorINS_6threadENS_9allocatorIS1_EEE7__allocB8ne190106Ev (i32) -> (i32)
	.functype	_ZNSt3__214numeric_limitsIlE3maxB8ne190106Ev () -> (i32)
	.functype	_ZNSt3__23minB8ne190106ImNS_6__lessIvvEEEERKT_S5_S5_T0_ (i32, i32) -> (i32)
	.functype	_ZNKSt3__26__lessIvvEclB8ne190106ImmEEbRKT_RKT0_ (i32, i32, i32) -> (i32)
	.functype	_ZNKSt3__29allocatorINS_6threadEE8max_sizeB8ne190106Ev (i32) -> (i32)
	.functype	_ZNKSt3__217__compressed_pairIPNS_6threadENS_9allocatorIS1_EEE6secondB8ne190106Ev (i32) -> (i32)
	.functype	_ZNKSt3__222__compressed_pair_elemINS_9allocatorINS_6threadEEELi1ELb1EE5__getB8ne190106Ev (i32) -> (i32)
	.functype	_ZNSt3__223__libcpp_numeric_limitsIlLb1EE3maxB8ne190106Ev () -> (i32)
	.functype	_ZNSt3__220__throw_length_errorB8ne190106EPKc (i32) -> ()
	.functype	__cxa_allocate_exception (i32) -> (i32)
	.functype	_ZNSt12length_errorC2B8ne190106EPKc (i32, i32) -> (i32)
	.functype	_ZNSt12length_errorD1Ev (i32) -> (i32)
	.functype	__cxa_throw (i32, i32, i32) -> ()
	.functype	_ZNSt11logic_errorC2EPKc (i32, i32) -> (i32)
	.functype	_ZNSt3__23maxB8ne190106ImNS_6__lessIvvEEEERKT_S5_S5_T0_ (i32, i32) -> (i32)
	.functype	_ZNSt3__217__compressed_pairIPNS_6threadERNS_9allocatorIS1_EEEC2B8ne190106IDnS5_EEOT_OT0_ (i32, i32, i32) -> (i32)
	.functype	_ZNSt3__219__allocate_at_leastB8ne190106INS_9allocatorINS_6threadEEEEENS_19__allocation_resultINS_16allocator_traitsIT_E7pointerEEERS6_m (i32, i32, i32) -> ()
	.functype	_ZNSt3__214__split_bufferINS_6threadERNS_9allocatorIS1_EEE7__allocB8ne190106Ev (i32) -> (i32)
	.functype	_ZNSt3__214__split_bufferINS_6threadERNS_9allocatorIS1_EEE9__end_capB8ne190106Ev (i32) -> (i32)
	.functype	_ZNSt3__222__compressed_pair_elemIRNS_9allocatorINS_6threadEEELi1ELb0EEC2B8ne190106IS4_TnNS_9enable_ifIXntsr7is_sameIS5_u7__decayIT_EEE5valueEiE4typeELi0EEEOS8_ (i32, i32) -> (i32)
	.functype	_ZNSt3__29allocatorINS_6threadEE8allocateB8ne190106Em (i32, i32) -> (i32)
	.functype	_ZSt28__throw_bad_array_new_lengthB8ne190106v () -> ()
	.functype	_ZNSt3__217__libcpp_allocateB8ne190106Emm (i32, i32) -> (i32)
	.functype	_ZNSt20bad_array_new_lengthC1Ev (i32) -> (i32)
	.functype	_ZNSt20bad_array_new_lengthD1Ev (i32) -> (i32)
	.functype	_ZNSt3__221__libcpp_operator_newB8ne190106IJmSt11align_val_tEEEPvDpT_ (i32, i32) -> (i32)
	.functype	_ZNSt3__221__libcpp_operator_newB8ne190106IJmEEEPvDpT_ (i32) -> (i32)
	.functype	_ZnwmSt11align_val_t (i32, i32) -> (i32)
	.functype	_ZNSt3__217__compressed_pairIPNS_6threadERNS_9allocatorIS1_EEE6secondB8ne190106Ev (i32) -> (i32)
	.functype	_ZNSt3__222__compressed_pair_elemIRNS_9allocatorINS_6threadEEELi1ELb0EE5__getB8ne190106Ev (i32) -> (i32)
	.functype	_ZNSt3__217__compressed_pairIPNS_6threadERNS_9allocatorIS1_EEE5firstB8ne190106Ev (i32) -> (i32)
	.functype	_ZNSt3__234__uninitialized_allocator_relocateB8ne190106INS_9allocatorINS_6threadEEES2_EEvRT_PT0_S7_S7_ (i32, i32, i32, i32) -> ()
	.functype	_ZNSt3__24swapB8ne190106IPNS_6threadEEENS_9enable_ifIXaasr21is_move_constructibleIT_EE5valuesr18is_move_assignableIS4_EE5valueEvE4typeERS4_S7_ (i32, i32) -> ()
	.functype	_ZNKSt3__26vectorINS_6threadENS_9allocatorIS1_EEE14__annotate_newB8ne190106Em (i32, i32) -> ()
	.functype	_ZNSt3__222__make_exception_guardB8ne190106INS_29_AllocatorDestroyRangeReverseINS_9allocatorINS_6threadEEEPS3_EEEENS_28__exception_guard_exceptionsIT_EES8_ (i32, i32) -> ()
	.functype	_ZNSt3__229_AllocatorDestroyRangeReverseINS_9allocatorINS_6threadEEEPS2_EC2B8ne190106ERS3_RS4_S7_ (i32, i32, i32, i32) -> (i32)
	.functype	_ZNSt3__216allocator_traitsINS_9allocatorINS_6threadEEEE9constructB8ne190106IS2_JS2_ETnNS_9enable_ifIXsr15__has_constructIS3_PT_DpT0_EE5valueEiE4typeELi0EEEvRS3_S8_DpOS9_ (i32, i32, i32) -> ()
	.functype	_ZNSt3__228__exception_guard_exceptionsINS_29_AllocatorDestroyRangeReverseINS_9allocatorINS_6threadEEEPS3_EEE10__completeB8ne190106Ev (i32) -> ()
	.functype	_ZNSt3__219__allocator_destroyB8ne190106INS_9allocatorINS_6threadEEEPS2_S4_EEvRT_T0_T1_ (i32, i32, i32) -> ()
	.functype	_ZNSt3__228__exception_guard_exceptionsINS_29_AllocatorDestroyRangeReverseINS_9allocatorINS_6threadEEEPS3_EEED2B8ne190106Ev (i32) -> (i32)
	.functype	_ZNSt3__228__exception_guard_exceptionsINS_29_AllocatorDestroyRangeReverseINS_9allocatorINS_6threadEEEPS3_EEEC2B8ne190106ES6_ (i32, i32) -> (i32)
	.functype	_ZNSt3__29allocatorINS_6threadEE9constructB8ne190106IS1_JS1_EEEvPT_DpOT0_ (i32, i32, i32) -> ()
	.functype	_ZNSt3__26threadC2B8ne190106EOS0_ (i32, i32) -> (i32)
	.functype	_ZNKSt3__229_AllocatorDestroyRangeReverseINS_9allocatorINS_6threadEEEPS2_EclB8ne190106Ev (i32) -> ()
	.functype	_ZNSt3__219__allocator_destroyB8ne190106INS_9allocatorINS_6threadEEENS_16reverse_iteratorIPS2_EES6_EEvRT_T0_T1_ (i32, i32, i32) -> ()
	.functype	_ZNSt3__216reverse_iteratorIPNS_6threadEEC2B8ne190106ES2_ (i32, i32) -> (i32)
	.functype	_ZNSt3__2neB8ne190106IPNS_6threadES2_EEbRKNS_16reverse_iteratorIT_EERKNS3_IT0_EE (i32, i32) -> (i32)
	.functype	_ZNSt3__212__to_addressB8ne190106INS_16reverse_iteratorIPNS_6threadEEETnNS_9enable_ifIXsr4_AndINS_8is_classIT_EENS_15_IsFancyPointerIS7_EEEE5valueEiE4typeELi0EEEu7__decayIDTclsr19__to_address_helperIS7_EE6__callclsr3stdE7declvalIRKS7_EEEEESE_ (i32) -> (i32)
	.functype	_ZNSt3__216reverse_iteratorIPNS_6threadEEppB8ne190106Ev (i32) -> (i32)
	.functype	_ZNKSt3__216reverse_iteratorIPNS_6threadEE4baseB8ne190106Ev (i32) -> (i32)
	.functype	_ZNSt3__219__to_address_helperINS_16reverse_iteratorIPNS_6threadEEEvE6__callB8ne190106ERKS4_ (i32) -> (i32)
	.functype	_ZNKSt3__216reverse_iteratorIPNS_6threadEEptB8ne190106Ev (i32) -> (i32)
	.functype	_ZNKSt3__216reverse_iteratorIPNS_6threadEEdeB8ne190106Ev (i32) -> (i32)
	.functype	_ZNSt3__214__split_bufferINS_6threadERNS_9allocatorIS1_EEE5clearB8ne190106Ev (i32) -> ()
	.functype	_ZNKSt3__214__split_bufferINS_6threadERNS_9allocatorIS1_EEE8capacityB8ne190106Ev (i32) -> (i32)
	.functype	_ZNSt3__214__split_bufferINS_6threadERNS_9allocatorIS1_EEE17__destruct_at_endB8ne190106EPS1_ (i32, i32) -> ()
	.functype	_ZNSt3__214__split_bufferINS_6threadERNS_9allocatorIS1_EEE17__destruct_at_endB8ne190106EPS1_NS_17integral_constantIbLb0EEE (i32, i32) -> ()
	.functype	_ZNKSt3__214__split_bufferINS_6threadERNS_9allocatorIS1_EEE9__end_capB8ne190106Ev (i32) -> (i32)
	.functype	_ZNKSt3__217__compressed_pairIPNS_6threadERNS_9allocatorIS1_EEE5firstB8ne190106Ev (i32) -> (i32)
	.functype	_ZNSt3__213__atomic_baseIiLb0EE5storeB8ne190106EiNS_12memory_orderE (i32, i32, i32) -> ()
	.functype	_ZNSt3__218__cxx_atomic_storeB8ne190106IiEEvPNS_22__cxx_atomic_base_implIT_EES2_NS_12memory_orderE (i32, i32, i32) -> ()
	.functype	_ZNSt3__213__atomic_baseIbLb0EE5storeB8ne190106EbNS_12memory_orderE (i32, i32, i32) -> ()
	.functype	_ZNSt3__218__cxx_atomic_storeB8ne190106IbEEvPNS_22__cxx_atomic_base_implIT_EES2_NS_12memory_orderE (i32, i32, i32) -> ()
	.functype	_ZNSt3__26vectorINS_6threadENS_9allocatorIS1_EEE11__make_iterB8ne190106EPS1_ (i32, i32) -> (i32)
	.functype	_ZNSt3__211__wrap_iterIPNS_6threadEEC2B8ne190106ES2_ (i32, i32) -> (i32)
	.functype	_ZNSt3__217__compressed_pairIPdNS_9allocatorIdEEEC2B8ne190106IDnNS_18__default_init_tagEEEOT_OT0_ (i32, i32, i32) -> (i32)
	.functype	_ZNSt3__222__make_exception_guardB8ne190106INS_6vectorIdNS_9allocatorIdEEE16__destroy_vectorEEENS_28__exception_guard_exceptionsIT_EES7_ (i32, i32) -> ()
	.functype	_ZNSt3__26vectorIdNS_9allocatorIdEEE16__destroy_vectorC2B8ne190106ERS3_ (i32, i32) -> (i32)
	.functype	_ZNSt3__26vectorIdNS_9allocatorIdEEE11__vallocateB8ne190106Em (i32, i32) -> ()
	.functype	_ZNSt3__26vectorIdNS_9allocatorIdEEE18__construct_at_endEmRKd (i32, i32, i32) -> ()
	.functype	_ZNSt3__228__exception_guard_exceptionsINS_6vectorIdNS_9allocatorIdEEE16__destroy_vectorEE10__completeB8ne190106Ev (i32) -> ()
	.functype	_ZNSt3__228__exception_guard_exceptionsINS_6vectorIdNS_9allocatorIdEEE16__destroy_vectorEED2B8ne190106Ev (i32) -> (i32)
	.functype	_ZNSt3__222__compressed_pair_elemIPdLi0ELb0EEC2B8ne190106IDnTnNS_9enable_ifIXntsr7is_sameIS2_u7__decayIT_EEE5valueEiE4typeELi0EEEOS5_ (i32, i32) -> (i32)
	.functype	_ZNSt3__222__compressed_pair_elemINS_9allocatorIdEELi1ELb1EEC2B8ne190106ENS_18__default_init_tagE (i32) -> (i32)
	.functype	_ZNSt3__29allocatorIdEC2B8ne190106Ev (i32) -> (i32)
	.functype	_ZNSt3__216__non_trivial_ifILb1ENS_9allocatorIdEEEC2B8ne190106Ev (i32) -> (i32)
	.functype	_ZNSt3__228__exception_guard_exceptionsINS_6vectorIdNS_9allocatorIdEEE16__destroy_vectorEEC2B8ne190106ES5_ (i32, i32) -> (i32)
	.functype	_ZNKSt3__26vectorIdNS_9allocatorIdEEE8max_sizeEv (i32) -> (i32)
	.functype	_ZNKSt3__26vectorIdNS_9allocatorIdEEE20__throw_length_errorB8ne190106Ev (i32) -> ()
	.functype	_ZNSt3__219__allocate_at_leastB8ne190106INS_9allocatorIdEEEENS_19__allocation_resultINS_16allocator_traitsIT_E7pointerEEERS5_m (i32, i32, i32) -> ()
	.functype	_ZNSt3__26vectorIdNS_9allocatorIdEEE7__allocB8ne190106Ev (i32) -> (i32)
	.functype	_ZNSt3__26vectorIdNS_9allocatorIdEEE9__end_capB8ne190106Ev (i32) -> (i32)
	.functype	_ZNKSt3__26vectorIdNS_9allocatorIdEEE14__annotate_newB8ne190106Em (i32, i32) -> ()
	.functype	_ZNSt3__216allocator_traitsINS_9allocatorIdEEE8max_sizeB8ne190106IS2_TnNS_9enable_ifIXsr14__has_max_sizeIKT_EE5valueEiE4typeELi0EEEmRKS2_ (i32) -> (i32)
	.functype	_ZNKSt3__26vectorIdNS_9allocatorIdEEE7__allocB8ne190106Ev (i32) -> (i32)
	.functype	_ZNKSt3__29allocatorIdE8max_sizeB8ne190106Ev (i32) -> (i32)
	.functype	_ZNKSt3__217__compressed_pairIPdNS_9allocatorIdEEE6secondB8ne190106Ev (i32) -> (i32)
	.functype	_ZNKSt3__222__compressed_pair_elemINS_9allocatorIdEELi1ELb1EE5__getB8ne190106Ev (i32) -> (i32)
	.functype	_ZNSt3__29allocatorIdE8allocateB8ne190106Em (i32, i32) -> (i32)
	.functype	_ZNSt3__217__compressed_pairIPdNS_9allocatorIdEEE6secondB8ne190106Ev (i32) -> (i32)
	.functype	_ZNSt3__222__compressed_pair_elemINS_9allocatorIdEELi1ELb1EE5__getB8ne190106Ev (i32) -> (i32)
	.functype	_ZNSt3__217__compressed_pairIPdNS_9allocatorIdEEE5firstB8ne190106Ev (i32) -> (i32)
	.functype	_ZNSt3__222__compressed_pair_elemIPdLi0ELb0EE5__getB8ne190106Ev (i32) -> (i32)
	.functype	_ZNSt3__26vectorIdNS_9allocatorIdEEE21_ConstructTransactionC2B8ne190106ERS3_m (i32, i32, i32) -> (i32)
	.functype	_ZNSt3__216allocator_traitsINS_9allocatorIdEEE9constructB8ne190106IdJRKdETnNS_9enable_ifIXsr15__has_constructIS2_PT_DpT0_EE5valueEiE4typeELi0EEEvRS2_S9_DpOSA_ (i32, i32, i32) -> ()
	.functype	_ZNSt3__212__to_addressB8ne190106IdEEPT_S2_ (i32) -> (i32)
	.functype	_ZNSt3__26vectorIdNS_9allocatorIdEEE21_ConstructTransactionD2B8ne190106Ev (i32) -> (i32)
	.functype	_ZNSt3__29allocatorIdE9constructB8ne190106IdJRKdEEEvPT_DpOT0_ (i32, i32, i32) -> ()
	.functype	_ZNSt3__26vectorIdNS_9allocatorIdEEE16__destroy_vectorclB8ne190106Ev (i32) -> ()
	.functype	_ZNSt3__26vectorIdNS_9allocatorIdEEE7__clearB8ne190106Ev (i32) -> ()
	.functype	_ZNKSt3__26vectorIdNS_9allocatorIdEEE17__annotate_deleteB8ne190106Ev (i32) -> ()
	.functype	_ZNSt3__216allocator_traitsINS_9allocatorIdEEE10deallocateB8ne190106ERS2_Pdm (i32, i32, i32) -> ()
	.functype	_ZNKSt3__26vectorIdNS_9allocatorIdEEE8capacityB8ne190106Ev (i32) -> (i32)
	.functype	_ZNSt3__26vectorIdNS_9allocatorIdEEE22__base_destruct_at_endB8ne190106EPd (i32, i32) -> ()
	.functype	_ZNSt3__216allocator_traitsINS_9allocatorIdEEE7destroyB8ne190106IdTnNS_9enable_ifIXsr13__has_destroyIS2_PT_EE5valueEiE4typeELi0EEEvRS2_S7_ (i32, i32) -> ()
	.functype	_ZNSt3__29allocatorIdE7destroyB8ne190106EPd (i32, i32) -> ()
	.functype	_ZNSt3__29allocatorIdE10deallocateB8ne190106EPdm (i32, i32, i32) -> ()
	.functype	_ZNKSt3__26vectorIdNS_9allocatorIdEEE9__end_capB8ne190106Ev (i32) -> (i32)
	.functype	_ZNKSt3__217__compressed_pairIPdNS_9allocatorIdEEE5firstB8ne190106Ev (i32) -> (i32)
	.functype	_ZNKSt3__222__compressed_pair_elemIPdLi0ELb0EE5__getB8ne190106Ev (i32) -> (i32)
	.functype	main (i32, i32) -> (i32)
	.section	.text._Z14wait_for_startv,"",@
	.hidden	_Z14wait_for_startv             # -- Begin function _Z14wait_for_startv
	.globl	_Z14wait_for_startv
	.type	_Z14wait_for_startv,@function
_Z14wait_for_startv:                    # @_Z14wait_for_startv
.Lfunc_begin0:
	.functype	_Z14wait_for_startv () -> ()
	.local  	i32, i32, i32, i32, i32, i32, i32, i32, i32, i32
# %bb.0:                                # %entry
	.loc	5 15 16 prologue_end            # 1_StoreRelThread.cpp:15:16
	i32.const	threads_ready
	local.set	0
	i32.const	1
	local.set	1
	i32.const	5
	local.set	2
	local.get	0
	local.get	1
	local.get	2
	call	_ZNSt3__213__atomic_baseIiLb1EE9fetch_addB8ne190106EiNS_12memory_orderE
	drop
.LBB0_1:                                # %while.cond
                                        # =>This Inner Loop Header: Depth=1
	.loc	5 16 21                         # 1_StoreRelThread.cpp:16:21
	block   	
	loop    	                                # label1:
	i32.const	start_flag
	local.set	3
	i32.const	5
	local.set	4
	local.get	3
	local.get	4
	call	_ZNKSt3__213__atomic_baseIbLb0EE4loadB8ne190106ENS_12memory_orderE
	local.set	5
	.loc	5 16 9 is_stmt 0                # 1_StoreRelThread.cpp:16:9
	i32.const	-1
	local.set	6
	local.get	5
	local.get	6
	i32.xor 
	local.set	7
	.loc	5 16 2                          # 1_StoreRelThread.cpp:16:2
	i32.const	1
	local.set	8
	local.get	7
	local.get	8
	i32.and 
	local.set	9
	local.get	9
	i32.eqz
	br_if   	1                               # 1: down to label0
# %bb.2:                                # %while.body
                                        #   in Loop: Header=BB0_1 Depth=1
	br      	0                               # 0: up to label1
.LBB0_3:                                # %while.end
	end_loop
	end_block                               # label0:
	.loc	5 19 1 is_stmt 1                # 1_StoreRelThread.cpp:19:1
	return
	end_function
.Ltmp0:
.Lfunc_end0:
                                        # -- End function
	.section	.text._ZNSt3__213__atomic_baseIiLb1EE9fetch_addB8ne190106EiNS_12memory_orderE,"G",@,_ZNSt3__213__atomic_baseIiLb1EE9fetch_addB8ne190106EiNS_12memory_orderE,comdat
	.hidden	_ZNSt3__213__atomic_baseIiLb1EE9fetch_addB8ne190106EiNS_12memory_orderE # -- Begin function _ZNSt3__213__atomic_baseIiLb1EE9fetch_addB8ne190106EiNS_12memory_orderE
	.weak	_ZNSt3__213__atomic_baseIiLb1EE9fetch_addB8ne190106EiNS_12memory_orderE
	.type	_ZNSt3__213__atomic_baseIiLb1EE9fetch_addB8ne190106EiNS_12memory_orderE,@function
_ZNSt3__213__atomic_baseIiLb1EE9fetch_addB8ne190106EiNS_12memory_orderE: # @_ZNSt3__213__atomic_baseIiLb1EE9fetch_addB8ne190106EiNS_12memory_orderE
.Lfunc_begin1:
	.loc	2 145 0                         # emscripten/cache/sysroot/include/c++/v1/__atomic/atomic_base.h:145:0
	.functype	_ZNSt3__213__atomic_baseIiLb1EE9fetch_addB8ne190106EiNS_12memory_orderE (i32, i32, i32) -> (i32)
	.local  	i32, i32, i32, i32, i32, i32, i32, i32, i32
# %bb.0:                                # %entry
	global.get	__stack_pointer
	local.set	3
	i32.const	16
	local.set	4
	local.get	3
	local.get	4
	i32.sub 
	local.set	5
	local.get	5
	global.set	__stack_pointer
	local.get	5
	local.get	0
	i32.store	12
	local.get	5
	local.get	1
	i32.store	8
	local.get	5
	local.get	2
	i32.store	4
	local.get	5
	i32.load	12
	local.set	6
.Ltmp1:
	.loc	2 146 68 prologue_end           # emscripten/cache/sysroot/include/c++/v1/__atomic/atomic_base.h:146:68
	local.get	5
	i32.load	8
	local.set	7
	.loc	2 146 74 is_stmt 0              # emscripten/cache/sysroot/include/c++/v1/__atomic/atomic_base.h:146:74
	local.get	5
	i32.load	4
	local.set	8
	.loc	2 146 12                        # emscripten/cache/sysroot/include/c++/v1/__atomic/atomic_base.h:146:12
	local.get	6
	local.get	7
	local.get	8
	call	_ZNSt3__222__cxx_atomic_fetch_addB8ne190106IiEET_PNS_22__cxx_atomic_base_implIS1_EES1_NS_12memory_orderE
	local.set	9
	.loc	2 146 5                         # emscripten/cache/sysroot/include/c++/v1/__atomic/atomic_base.h:146:5
	i32.const	16
	local.set	10
	local.get	5
	local.get	10
	i32.add 
	local.set	11
	local.get	11
	global.set	__stack_pointer
	local.get	9
	return
	end_function
.Ltmp2:
.Lfunc_end1:
                                        # -- End function
	.section	.text._ZNKSt3__213__atomic_baseIbLb0EE4loadB8ne190106ENS_12memory_orderE,"G",@,_ZNKSt3__213__atomic_baseIbLb0EE4loadB8ne190106ENS_12memory_orderE,comdat
	.hidden	_ZNKSt3__213__atomic_baseIbLb0EE4loadB8ne190106ENS_12memory_orderE # -- Begin function _ZNKSt3__213__atomic_baseIbLb0EE4loadB8ne190106ENS_12memory_orderE
	.weak	_ZNKSt3__213__atomic_baseIbLb0EE4loadB8ne190106ENS_12memory_orderE
	.type	_ZNKSt3__213__atomic_baseIbLb0EE4loadB8ne190106ENS_12memory_orderE,@function
_ZNKSt3__213__atomic_baseIbLb0EE4loadB8ne190106ENS_12memory_orderE: # @_ZNKSt3__213__atomic_baseIbLb0EE4loadB8ne190106ENS_12memory_orderE
.Lfunc_begin2:
	.loc	2 58 0 is_stmt 1                # emscripten/cache/sysroot/include/c++/v1/__atomic/atomic_base.h:58:0
	.functype	_ZNKSt3__213__atomic_baseIbLb0EE4loadB8ne190106ENS_12memory_orderE (i32, i32) -> (i32)
	.local  	i32, i32, i32, i32, i32, i32, i32, i32, i32, i32
# %bb.0:                                # %entry
	global.get	__stack_pointer
	local.set	2
	i32.const	16
	local.set	3
	local.get	2
	local.get	3
	i32.sub 
	local.set	4
	local.get	4
	global.set	__stack_pointer
	local.get	4
	local.get	0
	i32.store	12
	local.get	4
	local.get	1
	i32.store	8
	local.get	4
	i32.load	12
	local.set	5
.Ltmp3:
	.loc	2 59 57 prologue_end            # emscripten/cache/sysroot/include/c++/v1/__atomic/atomic_base.h:59:57
	local.get	4
	i32.load	8
	local.set	6
	.loc	2 59 12 is_stmt 0               # emscripten/cache/sysroot/include/c++/v1/__atomic/atomic_base.h:59:12
	local.get	5
	local.get	6
	call	_ZNSt3__217__cxx_atomic_loadB8ne190106IbEET_PKNS_22__cxx_atomic_base_implIS1_EENS_12memory_orderE
	local.set	7
	.loc	2 59 5                          # emscripten/cache/sysroot/include/c++/v1/__atomic/atomic_base.h:59:5
	i32.const	1
	local.set	8
	local.get	7
	local.get	8
	i32.and 
	local.set	9
	i32.const	16
	local.set	10
	local.get	4
	local.get	10
	i32.add 
	local.set	11
	local.get	11
	global.set	__stack_pointer
	local.get	9
	return
	end_function
.Ltmp4:
.Lfunc_end2:
                                        # -- End function
	.section	.text._Z20benchmark_atomic_relRNSt3__26vectorIdNS_9allocatorIdEEEE,"",@
	.hidden	_Z20benchmark_atomic_relRNSt3__26vectorIdNS_9allocatorIdEEEE # -- Begin function _Z20benchmark_atomic_relRNSt3__26vectorIdNS_9allocatorIdEEEE
	.globl	_Z20benchmark_atomic_relRNSt3__26vectorIdNS_9allocatorIdEEEE
	.type	_Z20benchmark_atomic_relRNSt3__26vectorIdNS_9allocatorIdEEEE,@function
_Z20benchmark_atomic_relRNSt3__26vectorIdNS_9allocatorIdEEEE: # @_Z20benchmark_atomic_relRNSt3__26vectorIdNS_9allocatorIdEEEE
.Lfunc_begin3:
	.loc	5 21 0 is_stmt 1                # 1_StoreRelThread.cpp:21:0
	.functype	_Z20benchmark_atomic_relRNSt3__26vectorIdNS_9allocatorIdEEEE (i32) -> ()
	.local  	i32, i32, i32, i32, i32, i32, i32, i32, i32, i32, i32, i32, i32, i32, i32, i32, i32, i32, i32, i32, i32, i32, i32, i32, i32, i32, i32, i32, i32, i32, i32, i32, i32, i32, i32, i32, i32, i32, i32, i32, i32, i32, i32, i32, i32, i32, i32, i32, i32, i32, i32, i32, i32, i32, i32, i32, i32, i32, i32, i32, i32, i32, i32, i32, i32, i32, i32, i32
# %bb.0:                                # %entry
	global.get	__stack_pointer
	local.set	1
	i32.const	64
	local.set	2
	local.get	1
	local.get	2
	i32.sub 
	local.set	3
	local.get	3
	global.set	__stack_pointer
	local.get	3
	local.get	0
	i32.store	60
.Ltmp5:
	.loc	5 22 27 prologue_end            # 1_StoreRelThread.cpp:22:27
	i32.const	48
	local.set	4
	local.get	3
	local.get	4
	i32.add 
	local.set	5
	local.get	5
	local.set	6
	local.get	6
	call	_ZNSt3__26vectorINS_6threadENS_9allocatorIS1_EEEC2B8ne190106Ev
	drop
	i32.const	0
	local.set	7
	.loc	5 23 28                         # 1_StoreRelThread.cpp:23:28
	local.get	3
	local.get	7
	i32.store	44
	.loc	5 24 2                          # 1_StoreRelThread.cpp:24:2
	i32.const	.L.str
	local.set	8
	i32.const	0
	local.set	9
	local.get	8
	local.get	9
	call	printf
	drop
.Ltmp6:
	.loc	5 25 14                         # 1_StoreRelThread.cpp:25:14
	i32.const	0
	local.set	10
	local.get	3
	local.get	10
	i32.store	40
.LBB3_1:                                # %for.cond
                                        # =>This Inner Loop Header: Depth=1
.Ltmp7:
	.loc	5 25 21 is_stmt 0               # 1_StoreRelThread.cpp:25:21
	block   	
	loop    	                                # label3:
	local.get	3
	i32.load	40
	local.set	11
	.loc	5 25 23                         # 1_StoreRelThread.cpp:25:23
	i32.const	4
	local.set	12
	local.get	11
	local.get	12
	i32.lt_u
	local.set	13
.Ltmp8:
	.loc	5 25 2                          # 1_StoreRelThread.cpp:25:2
	i32.const	1
	local.set	14
	local.get	13
	local.get	14
	i32.and 
	local.set	15
	local.get	15
	i32.eqz
	br_if   	1                               # 1: down to label2
# %bb.2:                                # %for.body
                                        #   in Loop: Header=BB3_1 Depth=1
.Ltmp9:
	.loc	5 26 27 is_stmt 1               # 1_StoreRelThread.cpp:26:27
	local.get	3
	i32.load	60
	local.set	16
	.loc	5 26 25 is_stmt 0               # 1_StoreRelThread.cpp:26:25
	local.get	3
	local.get	16
	i32.store	28
	.loc	5 26 34                         # 1_StoreRelThread.cpp:26:34
	local.get	3
	i32.load	40
	local.set	17
	.loc	5 26 25                         # 1_StoreRelThread.cpp:26:25
	local.get	3
	local.get	17
	i32.store	32
	i32.const	44
	local.set	18
	local.get	3
	local.get	18
	i32.add 
	local.set	19
	local.get	19
	local.set	20
	local.get	3
	local.get	20
	i32.store	36
	.loc	5 26 11                         # 1_StoreRelThread.cpp:26:11
	i32.const	48
	local.set	21
	local.get	3
	local.get	21
	i32.add 
	local.set	22
	local.get	22
	local.set	23
	i32.const	28
	local.set	24
	local.get	3
	local.get	24
	i32.add 
	local.set	25
	local.get	25
	local.set	26
	local.get	23
	local.get	26
	call	_ZNSt3__26vectorINS_6threadENS_9allocatorIS1_EEE12emplace_backIJZ20benchmark_atomic_relRNS0_IdNS2_IdEEEEE3$_0EEERS1_DpOT_
	drop
.Ltmp10:
# %bb.3:                                # %for.inc
                                        #   in Loop: Header=BB3_1 Depth=1
	.loc	5 25 39 is_stmt 1               # 1_StoreRelThread.cpp:25:39
	local.get	3
	i32.load	40
	local.set	27
	i32.const	1
	local.set	28
	local.get	27
	local.get	28
	i32.add 
	local.set	29
	local.get	3
	local.get	29
	i32.store	40
	.loc	5 25 2 is_stmt 0                # 1_StoreRelThread.cpp:25:2
	br      	0                               # 0: up to label3
.Ltmp11:
.LBB3_4:                                # %for.end
	.loc	5 25 2                          # 1_StoreRelThread.cpp:25:2
	end_loop
	end_block                               # label2:
.Ltmp12:
	.loc	5 67 16 is_stmt 1               # 1_StoreRelThread.cpp:67:16
	i32.const	threads_ready
	local.set	30
	i32.const	0
	local.set	31
	local.get	30
	local.get	31
	call	_ZNSt3__26atomicIiEaSB8ne190106Ei
	drop
	.loc	5 68 13                         # 1_StoreRelThread.cpp:68:13
	i32.const	start_flag
	local.set	32
	i32.const	1
	local.set	33
	i32.const	1
	local.set	34
	local.get	33
	local.get	34
	i32.and 
	local.set	35
	local.get	32
	local.get	35
	call	_ZNSt3__26atomicIbEaSB8ne190106Eb
	drop
.Ltmp13:
	.loc	5 70 22                         # 1_StoreRelThread.cpp:70:22
	i32.const	48
	local.set	36
	local.get	3
	local.get	36
	i32.add 
	local.set	37
	local.get	37
	local.set	38
	local.get	3
	local.get	38
	i32.store	24
	.loc	5 70 20 is_stmt 0               # 1_StoreRelThread.cpp:70:20
	local.get	3
	i32.load	24
	local.set	39
	local.get	39
	call	_ZNSt3__26vectorINS_6threadENS_9allocatorIS1_EEE5beginB8ne190106Ev
	local.set	40
	local.get	3
	local.get	40
	i32.store	20
	local.get	3
	i32.load	24
	local.set	41
	local.get	41
	call	_ZNSt3__26vectorINS_6threadENS_9allocatorIS1_EEE3endB8ne190106Ev
	local.set	42
	local.get	3
	local.get	42
	i32.store	16
.LBB3_5:                                # %for.cond8
                                        # =>This Inner Loop Header: Depth=1
	block   	
	loop    	                                # label5:
	i32.const	20
	local.set	43
	local.get	3
	local.get	43
	i32.add 
	local.set	44
	local.get	44
	local.set	45
	i32.const	16
	local.set	46
	local.get	3
	local.get	46
	i32.add 
	local.set	47
	local.get	47
	local.set	48
	local.get	45
	local.get	48
	call	_ZNSt3__2neB8ne190106IPNS_6threadEEEbRKNS_11__wrap_iterIT_EES7_
	local.set	49
	i32.const	1
	local.set	50
	local.get	49
	local.get	50
	i32.and 
	local.set	51
	local.get	51
	i32.eqz
	br_if   	1                               # 1: down to label4
# %bb.6:                                # %for.body10
                                        #   in Loop: Header=BB3_5 Depth=1
.Ltmp14:
	.loc	5 70 20                         # 1_StoreRelThread.cpp:70:20
	i32.const	20
	local.set	52
	local.get	3
	local.get	52
	i32.add 
	local.set	53
	local.get	53
	local.set	54
	local.get	54
	call	_ZNKSt3__211__wrap_iterIPNS_6threadEEdeB8ne190106Ev
	local.set	55
	.loc	5 70 13                         # 1_StoreRelThread.cpp:70:13
	local.get	3
	local.get	55
	i32.store	12
.Ltmp15:
	.loc	5 71 3 is_stmt 1                # 1_StoreRelThread.cpp:71:3
	local.get	3
	i32.load	12
	local.set	56
	.loc	5 71 10 is_stmt 0               # 1_StoreRelThread.cpp:71:10
	local.get	56
	call	_ZNSt3__26thread4joinEv
.Ltmp16:
# %bb.7:                                # %for.inc12
                                        #   in Loop: Header=BB3_5 Depth=1
	.loc	5 70 20 is_stmt 1               # 1_StoreRelThread.cpp:70:20
	i32.const	20
	local.set	57
	local.get	3
	local.get	57
	i32.add 
	local.set	58
	local.get	58
	local.set	59
	local.get	59
	call	_ZNSt3__211__wrap_iterIPNS_6threadEEppB8ne190106Ev
	drop
	br      	0                               # 0: up to label5
.LBB3_8:                                # %for.end14
	end_loop
	end_block                               # label4:
.Ltmp17:
	.loc	5 74 13                         # 1_StoreRelThread.cpp:74:13
	i32.const	start_flag
	local.set	60
	i32.const	0
	local.set	61
	i32.const	1
	local.set	62
	local.get	61
	local.get	62
	i32.and 
	local.set	63
	local.get	60
	local.get	63
	call	_ZNSt3__26atomicIbEaSB8ne190106Eb
	drop
	.loc	5 77 1                          # 1_StoreRelThread.cpp:77:1
	i32.const	48
	local.set	64
	local.get	3
	local.get	64
	i32.add 
	local.set	65
	local.get	65
	local.set	66
	local.get	66
	call	_ZNSt3__26vectorINS_6threadENS_9allocatorIS1_EEED2B8ne190106Ev
	drop
	i32.const	64
	local.set	67
	local.get	3
	local.get	67
	i32.add 
	local.set	68
	local.get	68
	global.set	__stack_pointer
	return
	end_function
.Ltmp18:
.Lfunc_end3:
                                        # -- End function
	.section	.text._ZNSt3__26vectorINS_6threadENS_9allocatorIS1_EEEC2B8ne190106Ev,"G",@,_ZNSt3__26vectorINS_6threadENS_9allocatorIS1_EEEC2B8ne190106Ev,comdat
	.hidden	_ZNSt3__26vectorINS_6threadENS_9allocatorIS1_EEEC2B8ne190106Ev # -- Begin function _ZNSt3__26vectorINS_6threadENS_9allocatorIS1_EEEC2B8ne190106Ev
	.weak	_ZNSt3__26vectorINS_6threadENS_9allocatorIS1_EEEC2B8ne190106Ev
	.type	_ZNSt3__26vectorINS_6threadENS_9allocatorIS1_EEEC2B8ne190106Ev,@function
_ZNSt3__26vectorINS_6threadENS_9allocatorIS1_EEEC2B8ne190106Ev: # @_ZNSt3__26vectorINS_6threadENS_9allocatorIS1_EEEC2B8ne190106Ev
.Lfunc_begin4:
	.loc	8 431 0                         # emscripten/cache/sysroot/include/c++/v1/vector:431:0
	.functype	_ZNSt3__26vectorINS_6threadENS_9allocatorIS1_EEEC2B8ne190106Ev (i32) -> (i32)
	.local  	i32, i32, i32, i32, i32, i32, i32, i32, i32, i32, i32, i32, i32, i32, i32, i32, i32
# %bb.0:                                # %entry
	global.get	__stack_pointer
	local.set	1
	i32.const	16
	local.set	2
	local.get	1
	local.get	2
	i32.sub 
	local.set	3
	local.get	3
	global.set	__stack_pointer
	local.get	3
	local.get	0
	i32.store	12
	local.get	3
	i32.load	12
	local.set	4
.Ltmp19:
	.loc	8 766 11 prologue_end           # emscripten/cache/sysroot/include/c++/v1/vector:766:11
	i32.const	0
	local.set	5
	local.get	4
	local.get	5
	i32.store	0
	.loc	8 767 11                        # emscripten/cache/sysroot/include/c++/v1/vector:767:11
	i32.const	0
	local.set	6
	local.get	4
	local.get	6
	i32.store	4
	.loc	8 768 46                        # emscripten/cache/sysroot/include/c++/v1/vector:768:46
	i32.const	8
	local.set	7
	local.get	4
	local.get	7
	i32.add 
	local.set	8
	.loc	8 769 50                        # emscripten/cache/sysroot/include/c++/v1/vector:769:50
	i32.const	0
	local.set	9
	local.get	3
	local.get	9
	i32.store	8
	.loc	8 769 7 is_stmt 0               # emscripten/cache/sysroot/include/c++/v1/vector:769:7
	i32.const	8
	local.set	10
	local.get	3
	local.get	10
	i32.add 
	local.set	11
	local.get	11
	local.set	12
	i32.const	7
	local.set	13
	local.get	3
	local.get	13
	i32.add 
	local.set	14
	local.get	14
	local.set	15
	local.get	8
	local.get	12
	local.get	15
	call	_ZNSt3__217__compressed_pairIPNS_6threadENS_9allocatorIS1_EEEC2B8ne190106IDnNS_18__default_init_tagEEEOT_OT0_
	drop
	.loc	8 431 76 is_stmt 1              # emscripten/cache/sysroot/include/c++/v1/vector:431:76
	i32.const	16
	local.set	16
	local.get	3
	local.get	16
	i32.add 
	local.set	17
	local.get	17
	global.set	__stack_pointer
	local.get	4
	return
	end_function
.Ltmp20:
.Lfunc_end4:
                                        # -- End function
	.section	".text._ZNSt3__26vectorINS_6threadENS_9allocatorIS1_EEE12emplace_backIJZ20benchmark_atomic_relRNS0_IdNS2_IdEEEEE3$_0EEERS1_DpOT_","",@
	.type	_ZNSt3__26vectorINS_6threadENS_9allocatorIS1_EEE12emplace_backIJZ20benchmark_atomic_relRNS0_IdNS2_IdEEEEE3$_0EEERS1_DpOT_,@function # -- Begin function _ZNSt3__26vectorINS_6threadENS_9allocatorIS1_EEE12emplace_backIJZ20benchmark_atomic_relRNS0_IdNS2_IdEEEEE3$_0EEERS1_DpOT_
_ZNSt3__26vectorINS_6threadENS_9allocatorIS1_EEE12emplace_backIJZ20benchmark_atomic_relRNS0_IdNS2_IdEEEEE3$_0EEERS1_DpOT_: # @"_ZNSt3__26vectorINS_6threadENS_9allocatorIS1_EEE12emplace_backIJZ20benchmark_atomic_relRNS0_IdNS2_IdEEEEE3$_0EEERS1_DpOT_"
.Lfunc_begin5:
	.loc	8 1552 0                        # emscripten/cache/sysroot/include/c++/v1/vector:1552:0
	.functype	_ZNSt3__26vectorINS_6threadENS_9allocatorIS1_EEE12emplace_backIJZ20benchmark_atomic_relRNS0_IdNS2_IdEEEEE3$_0EEERS1_DpOT_ (i32, i32) -> (i32)
	.local  	i32, i32, i32, i32, i32, i32, i32, i32, i32, i32, i32, i32, i32, i32, i32, i32, i32, i32, i32, i32, i32, i32, i32
# %bb.0:                                # %entry
	global.get	__stack_pointer
	local.set	2
	i32.const	16
	local.set	3
	local.get	2
	local.get	3
	i32.sub 
	local.set	4
	local.get	4
	global.set	__stack_pointer
	local.get	4
	local.get	0
	i32.store	12
	local.get	4
	local.get	1
	i32.store	8
	local.get	4
	i32.load	12
	local.set	5
.Ltmp21:
	.loc	8 1553 25 prologue_end          # emscripten/cache/sysroot/include/c++/v1/vector:1553:25
	local.get	5
	i32.load	4
	local.set	6
	.loc	8 1553 11 is_stmt 0             # emscripten/cache/sysroot/include/c++/v1/vector:1553:11
	local.get	4
	local.get	6
	i32.store	4
.Ltmp22:
	.loc	8 1554 7 is_stmt 1              # emscripten/cache/sysroot/include/c++/v1/vector:1554:7
	local.get	4
	i32.load	4
	local.set	7
	.loc	8 1554 21 is_stmt 0             # emscripten/cache/sysroot/include/c++/v1/vector:1554:21
	local.get	5
	call	_ZNSt3__26vectorINS_6threadENS_9allocatorIS1_EEE9__end_capB8ne190106Ev
	local.set	8
	local.get	8
	i32.load	0
	local.set	9
	.loc	8 1554 13                       # emscripten/cache/sysroot/include/c++/v1/vector:1554:13
	local.get	7
	local.get	9
	i32.lt_u
	local.set	10
	i32.const	1
	local.set	11
	local.get	10
	local.get	11
	i32.and 
	local.set	12
	block   	
	block   	
	local.get	12
	i32.eqz
	br_if   	0                               # 0: down to label7
# %bb.1:                                # %if.then
.Ltmp23:
	.loc	8 1555 48 is_stmt 1             # emscripten/cache/sysroot/include/c++/v1/vector:1555:48
	local.get	4
	i32.load	8
	local.set	13
	.loc	8 1555 5 is_stmt 0              # emscripten/cache/sysroot/include/c++/v1/vector:1555:5
	local.get	5
	local.get	13
	call	_ZNSt3__26vectorINS_6threadENS_9allocatorIS1_EEE22__construct_one_at_endB8ne190106IJZ20benchmark_atomic_relRNS0_IdNS2_IdEEEEE3$_0EEEvDpOT_
	.loc	8 1556 5 is_stmt 1              # emscripten/cache/sysroot/include/c++/v1/vector:1556:5
	local.get	4
	i32.load	4
	local.set	14
	i32.const	4
	local.set	15
	local.get	14
	local.get	15
	i32.add 
	local.set	16
	local.get	4
	local.get	16
	i32.store	4
	.loc	8 1557 3                        # emscripten/cache/sysroot/include/c++/v1/vector:1557:3
	br      	1                               # 1: down to label6
.Ltmp24:
.LBB5_2:                                # %if.else
	.loc	8 0 3 is_stmt 0                 # emscripten/cache/sysroot/include/c++/v1/vector:0:3
	end_block                               # label7:
.Ltmp25:
	.loc	8 1558 58 is_stmt 1             # emscripten/cache/sysroot/include/c++/v1/vector:1558:58
	local.get	4
	i32.load	8
	local.set	17
	.loc	8 1558 13 is_stmt 0             # emscripten/cache/sysroot/include/c++/v1/vector:1558:13
	local.get	5
	local.get	17
	call	_ZNSt3__26vectorINS_6threadENS_9allocatorIS1_EEE24__emplace_back_slow_pathIJZ20benchmark_atomic_relRNS0_IdNS2_IdEEEEE3$_0EEEPS1_DpOT_
	local.set	18
	.loc	8 1558 11                       # emscripten/cache/sysroot/include/c++/v1/vector:1558:11
	local.get	4
	local.get	18
	i32.store	4
.Ltmp26:
.LBB5_3:                                # %if.end
	.loc	8 0 11                          # emscripten/cache/sysroot/include/c++/v1/vector:0:11
	end_block                               # label6:
	.loc	8 1560 18 is_stmt 1             # emscripten/cache/sysroot/include/c++/v1/vector:1560:18
	local.get	4
	i32.load	4
	local.set	19
	.loc	8 1560 16 is_stmt 0             # emscripten/cache/sysroot/include/c++/v1/vector:1560:16
	local.get	5
	local.get	19
	i32.store	4
	.loc	8 1562 12 is_stmt 1             # emscripten/cache/sysroot/include/c++/v1/vector:1562:12
	local.get	4
	i32.load	4
	local.set	20
	.loc	8 1562 18 is_stmt 0             # emscripten/cache/sysroot/include/c++/v1/vector:1562:18
	i32.const	-4
	local.set	21
	local.get	20
	local.get	21
	i32.add 
	local.set	22
	.loc	8 1562 3                        # emscripten/cache/sysroot/include/c++/v1/vector:1562:3
	i32.const	16
	local.set	23
	local.get	4
	local.get	23
	i32.add 
	local.set	24
	local.get	24
	global.set	__stack_pointer
	local.get	22
	return
	end_function
.Ltmp27:
.Lfunc_end5:
                                        # -- End function
	.section	.text._ZNSt3__26atomicIiEaSB8ne190106Ei,"G",@,_ZNSt3__26atomicIiEaSB8ne190106Ei,comdat
	.hidden	_ZNSt3__26atomicIiEaSB8ne190106Ei # -- Begin function _ZNSt3__26atomicIiEaSB8ne190106Ei
	.weak	_ZNSt3__26atomicIiEaSB8ne190106Ei
	.type	_ZNSt3__26atomicIiEaSB8ne190106Ei,@function
_ZNSt3__26atomicIiEaSB8ne190106Ei:      # @_ZNSt3__26atomicIiEaSB8ne190106Ei
.Lfunc_begin6:
	.loc	4 53 0 is_stmt 1                # emscripten/cache/sysroot/include/c++/v1/__atomic/atomic.h:53:0
	.functype	_ZNSt3__26atomicIiEaSB8ne190106Ei (i32, i32) -> (i32)
	.local  	i32, i32, i32, i32, i32, i32, i32, i32, i32
# %bb.0:                                # %entry
	global.get	__stack_pointer
	local.set	2
	i32.const	16
	local.set	3
	local.get	2
	local.get	3
	i32.sub 
	local.set	4
	local.get	4
	global.set	__stack_pointer
	local.get	4
	local.get	0
	i32.store	12
	local.get	4
	local.get	1
	i32.store	8
	local.get	4
	i32.load	12
	local.set	5
.Ltmp28:
	.loc	4 54 19 prologue_end            # emscripten/cache/sysroot/include/c++/v1/__atomic/atomic.h:54:19
	local.get	4
	i32.load	8
	local.set	6
	.loc	4 54 13 is_stmt 0               # emscripten/cache/sysroot/include/c++/v1/__atomic/atomic.h:54:13
	i32.const	5
	local.set	7
	local.get	5
	local.get	6
	local.get	7
	call	_ZNSt3__213__atomic_baseIiLb0EE5storeB8ne190106EiNS_12memory_orderE
	.loc	4 55 12 is_stmt 1               # emscripten/cache/sysroot/include/c++/v1/__atomic/atomic.h:55:12
	local.get	4
	i32.load	8
	local.set	8
	.loc	4 55 5 is_stmt 0                # emscripten/cache/sysroot/include/c++/v1/__atomic/atomic.h:55:5
	i32.const	16
	local.set	9
	local.get	4
	local.get	9
	i32.add 
	local.set	10
	local.get	10
	global.set	__stack_pointer
	local.get	8
	return
	end_function
.Ltmp29:
.Lfunc_end6:
                                        # -- End function
	.section	.text._ZNSt3__26atomicIbEaSB8ne190106Eb,"G",@,_ZNSt3__26atomicIbEaSB8ne190106Eb,comdat
	.hidden	_ZNSt3__26atomicIbEaSB8ne190106Eb # -- Begin function _ZNSt3__26atomicIbEaSB8ne190106Eb
	.weak	_ZNSt3__26atomicIbEaSB8ne190106Eb
	.type	_ZNSt3__26atomicIbEaSB8ne190106Eb,@function
_ZNSt3__26atomicIbEaSB8ne190106Eb:      # @_ZNSt3__26atomicIbEaSB8ne190106Eb
.Lfunc_begin7:
	.loc	4 53 0 is_stmt 1                # emscripten/cache/sysroot/include/c++/v1/__atomic/atomic.h:53:0
	.functype	_ZNSt3__26atomicIbEaSB8ne190106Eb (i32, i32) -> (i32)
	.local  	i32, i32, i32, i32, i32, i32, i32, i32, i32, i32, i32, i32, i32, i32
# %bb.0:                                # %entry
	global.get	__stack_pointer
	local.set	2
	i32.const	16
	local.set	3
	local.get	2
	local.get	3
	i32.sub 
	local.set	4
	local.get	4
	global.set	__stack_pointer
	local.get	4
	local.get	0
	i32.store	12
	local.get	1
	local.set	5
	local.get	4
	local.get	5
	i32.store8	11
	local.get	4
	i32.load	12
	local.set	6
.Ltmp30:
	.loc	4 54 19 prologue_end            # emscripten/cache/sysroot/include/c++/v1/__atomic/atomic.h:54:19
	local.get	4
	i32.load8_u	11
	local.set	7
	.loc	4 54 13 is_stmt 0               # emscripten/cache/sysroot/include/c++/v1/__atomic/atomic.h:54:13
	i32.const	5
	local.set	8
	i32.const	1
	local.set	9
	local.get	7
	local.get	9
	i32.and 
	local.set	10
	local.get	6
	local.get	10
	local.get	8
	call	_ZNSt3__213__atomic_baseIbLb0EE5storeB8ne190106EbNS_12memory_orderE
	.loc	4 55 12 is_stmt 1               # emscripten/cache/sysroot/include/c++/v1/__atomic/atomic.h:55:12
	local.get	4
	i32.load8_u	11
	local.set	11
	.loc	4 55 5 is_stmt 0                # emscripten/cache/sysroot/include/c++/v1/__atomic/atomic.h:55:5
	i32.const	1
	local.set	12
	local.get	11
	local.get	12
	i32.and 
	local.set	13
	i32.const	16
	local.set	14
	local.get	4
	local.get	14
	i32.add 
	local.set	15
	local.get	15
	global.set	__stack_pointer
	local.get	13
	return
	end_function
.Ltmp31:
.Lfunc_end7:
                                        # -- End function
	.section	.text._ZNSt3__26vectorINS_6threadENS_9allocatorIS1_EEE5beginB8ne190106Ev,"G",@,_ZNSt3__26vectorINS_6threadENS_9allocatorIS1_EEE5beginB8ne190106Ev,comdat
	.hidden	_ZNSt3__26vectorINS_6threadENS_9allocatorIS1_EEE5beginB8ne190106Ev # -- Begin function _ZNSt3__26vectorINS_6threadENS_9allocatorIS1_EEE5beginB8ne190106Ev
	.weak	_ZNSt3__26vectorINS_6threadENS_9allocatorIS1_EEE5beginB8ne190106Ev
	.type	_ZNSt3__26vectorINS_6threadENS_9allocatorIS1_EEE5beginB8ne190106Ev,@function
_ZNSt3__26vectorINS_6threadENS_9allocatorIS1_EEE5beginB8ne190106Ev: # @_ZNSt3__26vectorINS_6threadENS_9allocatorIS1_EEE5beginB8ne190106Ev
.Lfunc_begin8:
	.loc	8 1411 0 is_stmt 1              # emscripten/cache/sysroot/include/c++/v1/vector:1411:0
	.functype	_ZNSt3__26vectorINS_6threadENS_9allocatorIS1_EEE5beginB8ne190106Ev (i32) -> (i32)
	.local  	i32, i32, i32, i32, i32, i32, i32, i32, i32
# %bb.0:                                # %entry
	global.get	__stack_pointer
	local.set	1
	i32.const	16
	local.set	2
	local.get	1
	local.get	2
	i32.sub 
	local.set	3
	local.get	3
	global.set	__stack_pointer
	local.get	3
	local.get	0
	i32.store	8
	local.get	3
	i32.load	8
	local.set	4
.Ltmp32:
	.loc	8 1412 28 prologue_end          # emscripten/cache/sysroot/include/c++/v1/vector:1412:28
	local.get	4
	i32.load	0
	local.set	5
	.loc	8 1412 10 is_stmt 0             # emscripten/cache/sysroot/include/c++/v1/vector:1412:10
	local.get	4
	local.get	5
	call	_ZNSt3__26vectorINS_6threadENS_9allocatorIS1_EEE11__make_iterB8ne190106EPS1_
	local.set	6
	local.get	3
	local.get	6
	i32.store	12
	.loc	8 1412 3                        # emscripten/cache/sysroot/include/c++/v1/vector:1412:3
	local.get	3
	i32.load	12
	local.set	7
	i32.const	16
	local.set	8
	local.get	3
	local.get	8
	i32.add 
	local.set	9
	local.get	9
	global.set	__stack_pointer
	local.get	7
	return
	end_function
.Ltmp33:
.Lfunc_end8:
                                        # -- End function
	.section	.text._ZNSt3__26vectorINS_6threadENS_9allocatorIS1_EEE3endB8ne190106Ev,"G",@,_ZNSt3__26vectorINS_6threadENS_9allocatorIS1_EEE3endB8ne190106Ev,comdat
	.hidden	_ZNSt3__26vectorINS_6threadENS_9allocatorIS1_EEE3endB8ne190106Ev # -- Begin function _ZNSt3__26vectorINS_6threadENS_9allocatorIS1_EEE3endB8ne190106Ev
	.weak	_ZNSt3__26vectorINS_6threadENS_9allocatorIS1_EEE3endB8ne190106Ev
	.type	_ZNSt3__26vectorINS_6threadENS_9allocatorIS1_EEE3endB8ne190106Ev,@function
_ZNSt3__26vectorINS_6threadENS_9allocatorIS1_EEE3endB8ne190106Ev: # @_ZNSt3__26vectorINS_6threadENS_9allocatorIS1_EEE3endB8ne190106Ev
.Lfunc_begin9:
	.loc	8 1423 0 is_stmt 1              # emscripten/cache/sysroot/include/c++/v1/vector:1423:0
	.functype	_ZNSt3__26vectorINS_6threadENS_9allocatorIS1_EEE3endB8ne190106Ev (i32) -> (i32)
	.local  	i32, i32, i32, i32, i32, i32, i32, i32, i32
# %bb.0:                                # %entry
	global.get	__stack_pointer
	local.set	1
	i32.const	16
	local.set	2
	local.get	1
	local.get	2
	i32.sub 
	local.set	3
	local.get	3
	global.set	__stack_pointer
	local.get	3
	local.get	0
	i32.store	8
	local.get	3
	i32.load	8
	local.set	4
.Ltmp34:
	.loc	8 1424 28 prologue_end          # emscripten/cache/sysroot/include/c++/v1/vector:1424:28
	local.get	4
	i32.load	4
	local.set	5
	.loc	8 1424 10 is_stmt 0             # emscripten/cache/sysroot/include/c++/v1/vector:1424:10
	local.get	4
	local.get	5
	call	_ZNSt3__26vectorINS_6threadENS_9allocatorIS1_EEE11__make_iterB8ne190106EPS1_
	local.set	6
	local.get	3
	local.get	6
	i32.store	12
	.loc	8 1424 3                        # emscripten/cache/sysroot/include/c++/v1/vector:1424:3
	local.get	3
	i32.load	12
	local.set	7
	i32.const	16
	local.set	8
	local.get	3
	local.get	8
	i32.add 
	local.set	9
	local.get	9
	global.set	__stack_pointer
	local.get	7
	return
	end_function
.Ltmp35:
.Lfunc_end9:
                                        # -- End function
	.section	.text._ZNSt3__2neB8ne190106IPNS_6threadEEEbRKNS_11__wrap_iterIT_EES7_,"G",@,_ZNSt3__2neB8ne190106IPNS_6threadEEEbRKNS_11__wrap_iterIT_EES7_,comdat
	.hidden	_ZNSt3__2neB8ne190106IPNS_6threadEEEbRKNS_11__wrap_iterIT_EES7_ # -- Begin function _ZNSt3__2neB8ne190106IPNS_6threadEEEbRKNS_11__wrap_iterIT_EES7_
	.weak	_ZNSt3__2neB8ne190106IPNS_6threadEEEbRKNS_11__wrap_iterIT_EES7_
	.type	_ZNSt3__2neB8ne190106IPNS_6threadEEEbRKNS_11__wrap_iterIT_EES7_,@function
_ZNSt3__2neB8ne190106IPNS_6threadEEEbRKNS_11__wrap_iterIT_EES7_: # @_ZNSt3__2neB8ne190106IPNS_6threadEEEbRKNS_11__wrap_iterIT_EES7_
.Lfunc_begin10:
	.loc	19 139 0 is_stmt 1              # emscripten/cache/sysroot/include/c++/v1/__iterator/wrap_iter.h:139:0
	.functype	_ZNSt3__2neB8ne190106IPNS_6threadEEEbRKNS_11__wrap_iterIT_EES7_ (i32, i32) -> (i32)
	.local  	i32, i32, i32, i32, i32, i32, i32, i32, i32, i32, i32, i32
# %bb.0:                                # %entry
	global.get	__stack_pointer
	local.set	2
	i32.const	16
	local.set	3
	local.get	2
	local.get	3
	i32.sub 
	local.set	4
	local.get	4
	global.set	__stack_pointer
	local.get	4
	local.get	0
	i32.store	12
	local.get	4
	local.get	1
	i32.store	8
.Ltmp36:
	.loc	19 140 12 prologue_end          # emscripten/cache/sysroot/include/c++/v1/__iterator/wrap_iter.h:140:12
	local.get	4
	i32.load	12
	local.set	5
	.loc	19 140 19 is_stmt 0             # emscripten/cache/sysroot/include/c++/v1/__iterator/wrap_iter.h:140:19
	local.get	4
	i32.load	8
	local.set	6
	.loc	19 140 16                       # emscripten/cache/sysroot/include/c++/v1/__iterator/wrap_iter.h:140:16
	local.get	5
	local.get	6
	call	_ZNSt3__2eqB8ne190106IPNS_6threadEEEbRKNS_11__wrap_iterIT_EES7_
	local.set	7
	.loc	19 140 10                       # emscripten/cache/sysroot/include/c++/v1/__iterator/wrap_iter.h:140:10
	i32.const	-1
	local.set	8
	local.get	7
	local.get	8
	i32.xor 
	local.set	9
	.loc	19 140 3                        # emscripten/cache/sysroot/include/c++/v1/__iterator/wrap_iter.h:140:3
	i32.const	1
	local.set	10
	local.get	9
	local.get	10
	i32.and 
	local.set	11
	i32.const	16
	local.set	12
	local.get	4
	local.get	12
	i32.add 
	local.set	13
	local.get	13
	global.set	__stack_pointer
	local.get	11
	return
	end_function
.Ltmp37:
.Lfunc_end10:
                                        # -- End function
	.section	.text._ZNKSt3__211__wrap_iterIPNS_6threadEEdeB8ne190106Ev,"G",@,_ZNKSt3__211__wrap_iterIPNS_6threadEEdeB8ne190106Ev,comdat
	.hidden	_ZNKSt3__211__wrap_iterIPNS_6threadEEdeB8ne190106Ev # -- Begin function _ZNKSt3__211__wrap_iterIPNS_6threadEEdeB8ne190106Ev
	.weak	_ZNKSt3__211__wrap_iterIPNS_6threadEEdeB8ne190106Ev
	.type	_ZNKSt3__211__wrap_iterIPNS_6threadEEdeB8ne190106Ev,@function
_ZNKSt3__211__wrap_iterIPNS_6threadEEdeB8ne190106Ev: # @_ZNKSt3__211__wrap_iterIPNS_6threadEEdeB8ne190106Ev
.Lfunc_begin11:
	.loc	19 50 0 is_stmt 1               # emscripten/cache/sysroot/include/c++/v1/__iterator/wrap_iter.h:50:0
	.functype	_ZNKSt3__211__wrap_iterIPNS_6threadEEdeB8ne190106Ev (i32) -> (i32)
	.local  	i32, i32, i32, i32, i32
# %bb.0:                                # %entry
	global.get	__stack_pointer
	local.set	1
	i32.const	16
	local.set	2
	local.get	1
	local.get	2
	i32.sub 
	local.set	3
	local.get	3
	local.get	0
	i32.store	12
	local.get	3
	i32.load	12
	local.set	4
.Ltmp38:
	.loc	19 50 103 prologue_end          # emscripten/cache/sysroot/include/c++/v1/__iterator/wrap_iter.h:50:103
	local.get	4
	i32.load	0
	local.set	5
	.loc	19 50 95 is_stmt 0              # emscripten/cache/sysroot/include/c++/v1/__iterator/wrap_iter.h:50:95
	local.get	5
	return
	end_function
.Ltmp39:
.Lfunc_end11:
                                        # -- End function
	.section	.text._ZNSt3__211__wrap_iterIPNS_6threadEEppB8ne190106Ev,"G",@,_ZNSt3__211__wrap_iterIPNS_6threadEEppB8ne190106Ev,comdat
	.hidden	_ZNSt3__211__wrap_iterIPNS_6threadEEppB8ne190106Ev # -- Begin function _ZNSt3__211__wrap_iterIPNS_6threadEEppB8ne190106Ev
	.weak	_ZNSt3__211__wrap_iterIPNS_6threadEEppB8ne190106Ev
	.type	_ZNSt3__211__wrap_iterIPNS_6threadEEppB8ne190106Ev,@function
_ZNSt3__211__wrap_iterIPNS_6threadEEppB8ne190106Ev: # @_ZNSt3__211__wrap_iterIPNS_6threadEEppB8ne190106Ev
.Lfunc_begin12:
	.loc	19 54 0 is_stmt 1               # emscripten/cache/sysroot/include/c++/v1/__iterator/wrap_iter.h:54:0
	.functype	_ZNSt3__211__wrap_iterIPNS_6threadEEppB8ne190106Ev (i32) -> (i32)
	.local  	i32, i32, i32, i32, i32, i32, i32
# %bb.0:                                # %entry
	global.get	__stack_pointer
	local.set	1
	i32.const	16
	local.set	2
	local.get	1
	local.get	2
	i32.sub 
	local.set	3
	local.get	3
	local.get	0
	i32.store	12
	local.get	3
	i32.load	12
	local.set	4
.Ltmp40:
	.loc	19 55 5 prologue_end            # emscripten/cache/sysroot/include/c++/v1/__iterator/wrap_iter.h:55:5
	local.get	4
	i32.load	0
	local.set	5
	i32.const	4
	local.set	6
	local.get	5
	local.get	6
	i32.add 
	local.set	7
	local.get	4
	local.get	7
	i32.store	0
	.loc	19 56 5                         # emscripten/cache/sysroot/include/c++/v1/__iterator/wrap_iter.h:56:5
	local.get	4
	return
	end_function
.Ltmp41:
.Lfunc_end12:
                                        # -- End function
	.section	.text._ZNSt3__26vectorINS_6threadENS_9allocatorIS1_EEED2B8ne190106Ev,"G",@,_ZNSt3__26vectorINS_6threadENS_9allocatorIS1_EEED2B8ne190106Ev,comdat
	.hidden	_ZNSt3__26vectorINS_6threadENS_9allocatorIS1_EEED2B8ne190106Ev # -- Begin function _ZNSt3__26vectorINS_6threadENS_9allocatorIS1_EEED2B8ne190106Ev
	.weak	_ZNSt3__26vectorINS_6threadENS_9allocatorIS1_EEED2B8ne190106Ev
	.type	_ZNSt3__26vectorINS_6threadENS_9allocatorIS1_EEED2B8ne190106Ev,@function
_ZNSt3__26vectorINS_6threadENS_9allocatorIS1_EEED2B8ne190106Ev: # @_ZNSt3__26vectorINS_6threadENS_9allocatorIS1_EEED2B8ne190106Ev
.Lfunc_begin13:
	.loc	8 541 0                         # emscripten/cache/sysroot/include/c++/v1/vector:541:0
	.functype	_ZNSt3__26vectorINS_6threadENS_9allocatorIS1_EEED2B8ne190106Ev (i32) -> (i32)
	.local  	i32, i32, i32, i32, i32, i32, i32, i32, i32, i32, i32, i32
# %bb.0:                                # %entry
	global.get	__stack_pointer
	local.set	1
	i32.const	16
	local.set	2
	local.get	1
	local.get	2
	i32.sub 
	local.set	3
	local.get	3
	global.set	__stack_pointer
	local.get	3
	local.get	0
	i32.store	12
	local.get	3
	i32.load	12
	local.set	4
.Ltmp42:
	.loc	8 541 67 prologue_end           # emscripten/cache/sysroot/include/c++/v1/vector:541:67
	i32.const	8
	local.set	5
	local.get	3
	local.get	5
	i32.add 
	local.set	6
	local.get	6
	local.set	7
	local.get	7
	local.get	4
	call	_ZNSt3__26vectorINS_6threadENS_9allocatorIS1_EEE16__destroy_vectorC2B8ne190106ERS4_
	drop
	i32.const	8
	local.set	8
	local.get	3
	local.get	8
	i32.add 
	local.set	9
	local.get	9
	local.set	10
	local.get	10
	call	_ZNSt3__26vectorINS_6threadENS_9allocatorIS1_EEE16__destroy_vectorclB8ne190106Ev
.Ltmp43:
	.loc	8 541 95 is_stmt 0              # emscripten/cache/sysroot/include/c++/v1/vector:541:95
	i32.const	16
	local.set	11
	local.get	3
	local.get	11
	i32.add 
	local.set	12
	local.get	12
	global.set	__stack_pointer
	local.get	4
	return
	end_function
.Ltmp44:
.Lfunc_end13:
                                        # -- End function
	.section	.text.__original_main,"",@
	.hidden	__original_main                 # -- Begin function __original_main
	.globl	__original_main
	.type	__original_main,@function
__original_main:                        # @__original_main
.Lfunc_begin14:
	.loc	5 79 0 is_stmt 1                # 1_StoreRelThread.cpp:79:0
	.functype	__original_main () -> (i32)
	.local  	i32, i32, i32, i32, i32, i32, i32, f64, i32, f64, i32, i32, i32, i32, i32, i32, i32, i32, i32, i32, i32, i32, i32, i32, i32, i32, i32, i32, i32, i32, i32, i32, i32, i32, f64, f64, f64, i32, i32, i32, i32, i32, i32, f64, i32, i32, i32, i32, i32, f64, f64, f64, i32, i32, i32, i32, i32, i32, f64, f64, f64, f64, f64, f64, f64, f64, i32, i32, i32, i32, i32, i32, i32, i32, i32, i32
# %bb.0:                                # %entry
	global.get	__stack_pointer
	local.set	0
	i32.const	96
	local.set	1
	local.get	0
	local.get	1
	i32.sub 
	local.set	2
	local.get	2
	global.set	__stack_pointer
	i32.const	0
	local.set	3
	local.get	2
	local.get	3
	i32.store	92
.Ltmp45:
	.loc	5 80 2 prologue_end             # 1_StoreRelThread.cpp:80:2
	i32.const	.L.str.1
	local.set	4
	i32.const	0
	local.set	5
	local.get	4
	local.get	5
	call	printf
	drop
	.loc	5 81 9                          # 1_StoreRelThread.cpp:81:9
	i32.const	0
	local.set	6
	local.get	6
	f64.convert_i32_s
	local.set	7
	local.get	2
	local.get	7
	f64.store	80
	.loc	5 82 41                         # 1_StoreRelThread.cpp:82:41
	i32.const	0
	local.set	8
	local.get	8
	f64.convert_i32_s
	local.set	9
	local.get	2
	local.get	9
	f64.store	56
	.loc	5 82 22 is_stmt 0               # 1_StoreRelThread.cpp:82:22
	i32.const	68
	local.set	10
	local.get	2
	local.get	10
	i32.add 
	local.set	11
	local.get	11
	local.set	12
	i32.const	4
	local.set	13
	i32.const	56
	local.set	14
	local.get	2
	local.get	14
	i32.add 
	local.set	15
	local.get	15
	local.set	16
	local.get	12
	local.get	13
	local.get	16
	call	_ZNSt3__26vectorIdNS_9allocatorIdEEEC2B8ne190106EmRKd
	drop
	.loc	5 83 2 is_stmt 1                # 1_StoreRelThread.cpp:83:2
	i32.const	68
	local.set	17
	local.get	2
	local.get	17
	i32.add 
	local.set	18
	local.get	18
	local.set	19
	local.get	19
	call	_Z20benchmark_atomic_relRNSt3__26vectorIdNS_9allocatorIdEEEE
.Ltmp46:
	.loc	5 84 10                         # 1_StoreRelThread.cpp:84:10
	i32.const	0
	local.set	20
	local.get	2
	local.get	20
	i32.store	52
.LBB14_1:                               # %for.cond
                                        # =>This Inner Loop Header: Depth=1
.Ltmp47:
	.loc	5 84 17 is_stmt 0               # 1_StoreRelThread.cpp:84:17
	block   	
	loop    	                                # label9:
	local.get	2
	i32.load	52
	local.set	21
	.loc	5 84 27                         # 1_StoreRelThread.cpp:84:27
	i32.const	68
	local.set	22
	local.get	2
	local.get	22
	i32.add 
	local.set	23
	local.get	23
	local.set	24
	local.get	24
	call	_ZNKSt3__26vectorIdNS_9allocatorIdEEE4sizeB8ne190106Ev
	local.set	25
	.loc	5 84 19                         # 1_StoreRelThread.cpp:84:19
	local.get	21
	local.get	25
	i32.lt_u
	local.set	26
.Ltmp48:
	.loc	5 84 2                          # 1_StoreRelThread.cpp:84:2
	i32.const	1
	local.set	27
	local.get	26
	local.get	27
	i32.and 
	local.set	28
	local.get	28
	i32.eqz
	br_if   	1                               # 1: down to label8
# %bb.2:                                # %for.body
                                        #   in Loop: Header=BB14_1 Depth=1
.Ltmp49:
	.loc	5 85 16 is_stmt 1               # 1_StoreRelThread.cpp:85:16
	local.get	2
	i32.load	52
	local.set	29
	.loc	5 85 10 is_stmt 0               # 1_StoreRelThread.cpp:85:10
	i32.const	68
	local.set	30
	local.get	2
	local.get	30
	i32.add 
	local.set	31
	local.get	31
	local.set	32
	local.get	32
	local.get	29
	call	_ZNSt3__26vectorIdNS_9allocatorIdEEEixB8ne190106Em
	local.set	33
	local.get	33
	f64.load	0
	local.set	34
	.loc	5 85 7                          # 1_StoreRelThread.cpp:85:7
	local.get	2
	f64.load	80
	local.set	35
	local.get	35
	local.get	34
	f64.add 
	local.set	36
	local.get	2
	local.get	36
	f64.store	80
	.loc	5 86 63 is_stmt 1               # 1_StoreRelThread.cpp:86:63
	local.get	2
	i32.load	52
	local.set	37
	.loc	5 86 72 is_stmt 0               # 1_StoreRelThread.cpp:86:72
	local.get	2
	i32.load	52
	local.set	38
	.loc	5 86 66                         # 1_StoreRelThread.cpp:86:66
	i32.const	68
	local.set	39
	local.get	2
	local.get	39
	i32.add 
	local.set	40
	local.get	40
	local.set	41
	local.get	41
	local.get	38
	call	_ZNSt3__26vectorIdNS_9allocatorIdEEEixB8ne190106Em
	local.set	42
	local.get	42
	f64.load	0
	local.set	43
	.loc	5 86 82                         # 1_StoreRelThread.cpp:86:82
	local.get	2
	i32.load	52
	local.set	44
	.loc	5 86 76                         # 1_StoreRelThread.cpp:86:76
	i32.const	68
	local.set	45
	local.get	2
	local.get	45
	i32.add 
	local.set	46
	local.get	46
	local.set	47
	local.get	47
	local.get	44
	call	_ZNSt3__26vectorIdNS_9allocatorIdEEEixB8ne190106Em
	local.set	48
	local.get	48
	f64.load	0
	local.set	49
	.loc	5 86 85                         # 1_StoreRelThread.cpp:86:85
	f64.const	0x1.e848p18
	local.set	50
	local.get	49
	local.get	50
	f64.div 
	local.set	51
	i32.const	16
	local.set	52
	.loc	5 86 3                          # 1_StoreRelThread.cpp:86:3
	local.get	2
	local.get	52
	i32.add 
	local.set	53
	local.get	53
	local.get	51
	f64.store	0
	local.get	2
	local.get	43
	f64.store	8
	local.get	2
	local.get	37
	i32.store	0
	i32.const	.L.str.2
	local.set	54
	local.get	54
	local.get	2
	call	printf
	drop
.Ltmp50:
# %bb.3:                                # %for.inc
                                        #   in Loop: Header=BB14_1 Depth=1
	.loc	5 84 36 is_stmt 1               # 1_StoreRelThread.cpp:84:36
	local.get	2
	i32.load	52
	local.set	55
	i32.const	1
	local.set	56
	local.get	55
	local.get	56
	i32.add 
	local.set	57
	local.get	2
	local.get	57
	i32.store	52
	.loc	5 84 2 is_stmt 0                # 1_StoreRelThread.cpp:84:2
	br      	0                               # 0: up to label9
.Ltmp51:
.LBB14_4:                               # %for.end
	.loc	5 84 2                          # 1_StoreRelThread.cpp:84:2
	end_loop
	end_block                               # label8:
.Ltmp52:
	.loc	5 88 86 is_stmt 1               # 1_StoreRelThread.cpp:88:86
	local.get	2
	f64.load	80
	local.set	58
	.loc	5 88 90 is_stmt 0               # 1_StoreRelThread.cpp:88:90
	f64.const	0x1p2
	local.set	59
	local.get	58
	local.get	59
	f64.div 
	local.set	60
	.loc	5 88 105                        # 1_StoreRelThread.cpp:88:105
	local.get	2
	f64.load	80
	local.set	61
	.loc	5 88 109                        # 1_StoreRelThread.cpp:88:109
	f64.const	0x1p2
	local.set	62
	local.get	61
	local.get	62
	f64.div 
	local.set	63
	.loc	5 88 123                        # 1_StoreRelThread.cpp:88:123
	f64.const	0x1.e848p18
	local.set	64
	local.get	63
	local.get	64
	f64.div 
	local.set	65
	.loc	5 88 2                          # 1_StoreRelThread.cpp:88:2
	local.get	2
	local.get	65
	f64.store	40
	local.get	2
	local.get	60
	f64.store	32
	i32.const	.L.str.3
	local.set	66
	i32.const	32
	local.set	67
	local.get	2
	local.get	67
	i32.add 
	local.set	68
	local.get	66
	local.get	68
	call	printf
	drop
	.loc	5 89 2 is_stmt 1                # 1_StoreRelThread.cpp:89:2
	i32.const	0
	local.set	69
	local.get	2
	local.get	69
	i32.store	92
	.loc	5 90 1                          # 1_StoreRelThread.cpp:90:1
	i32.const	68
	local.set	70
	local.get	2
	local.get	70
	i32.add 
	local.set	71
	local.get	71
	local.set	72
	local.get	72
	call	_ZNSt3__26vectorIdNS_9allocatorIdEEED2B8ne190106Ev
	drop
	local.get	2
	i32.load	92
	local.set	73
	i32.const	96
	local.set	74
	local.get	2
	local.get	74
	i32.add 
	local.set	75
	local.get	75
	global.set	__stack_pointer
	local.get	73
	return
	end_function
.Ltmp53:
.Lfunc_end14:
                                        # -- End function
	.section	.text._ZNSt3__26vectorIdNS_9allocatorIdEEEC2B8ne190106EmRKd,"G",@,_ZNSt3__26vectorIdNS_9allocatorIdEEEC2B8ne190106EmRKd,comdat
	.hidden	_ZNSt3__26vectorIdNS_9allocatorIdEEEC2B8ne190106EmRKd # -- Begin function _ZNSt3__26vectorIdNS_9allocatorIdEEEC2B8ne190106EmRKd
	.weak	_ZNSt3__26vectorIdNS_9allocatorIdEEEC2B8ne190106EmRKd
	.type	_ZNSt3__26vectorIdNS_9allocatorIdEEEC2B8ne190106EmRKd,@function
_ZNSt3__26vectorIdNS_9allocatorIdEEEC2B8ne190106EmRKd: # @_ZNSt3__26vectorIdNS_9allocatorIdEEEC2B8ne190106EmRKd
.Lfunc_begin15:
	.loc	8 462 0                         # emscripten/cache/sysroot/include/c++/v1/vector:462:0
	.functype	_ZNSt3__26vectorIdNS_9allocatorIdEEEC2B8ne190106EmRKd (i32, i32, i32) -> (i32)
	.local  	i32, i32, i32, i32, i32, i32, i32, i32, i32, i32, i32, i32, i32, i32, i32, i32, i32, i32, i32, i32, i32, i32, i32, i32, i32, i32, i32, i32, i32, i32, i32, i32, i32, i32, i32, i32, i32, i32, i32
# %bb.0:                                # %entry
	global.get	__stack_pointer
	local.set	3
	i32.const	48
	local.set	4
	local.get	3
	local.get	4
	i32.sub 
	local.set	5
	local.get	5
	global.set	__stack_pointer
	local.get	5
	local.get	0
	i32.store	40
	local.get	5
	local.get	1
	i32.store	36
	local.get	5
	local.get	2
	i32.store	32
	local.get	5
	i32.load	40
	local.set	6
	local.get	5
	local.get	6
	i32.store	44
.Ltmp54:
	.loc	8 766 11 prologue_end           # emscripten/cache/sysroot/include/c++/v1/vector:766:11
	i32.const	0
	local.set	7
	local.get	6
	local.get	7
	i32.store	0
	.loc	8 767 11                        # emscripten/cache/sysroot/include/c++/v1/vector:767:11
	i32.const	0
	local.set	8
	local.get	6
	local.get	8
	i32.store	4
	.loc	8 768 46                        # emscripten/cache/sysroot/include/c++/v1/vector:768:46
	i32.const	8
	local.set	9
	local.get	6
	local.get	9
	i32.add 
	local.set	10
	.loc	8 769 50                        # emscripten/cache/sysroot/include/c++/v1/vector:769:50
	i32.const	0
	local.set	11
	local.get	5
	local.get	11
	i32.store	28
	.loc	8 769 7 is_stmt 0               # emscripten/cache/sysroot/include/c++/v1/vector:769:7
	i32.const	28
	local.set	12
	local.get	5
	local.get	12
	i32.add 
	local.set	13
	local.get	13
	local.set	14
	i32.const	27
	local.set	15
	local.get	5
	local.get	15
	i32.add 
	local.set	16
	local.get	16
	local.set	17
	local.get	10
	local.get	14
	local.get	17
	call	_ZNSt3__217__compressed_pairIPdNS_9allocatorIdEEEC2B8ne190106IDnNS_18__default_init_tagEEEOT_OT0_
	drop
.Ltmp55:
	.loc	8 463 48 is_stmt 1              # emscripten/cache/sysroot/include/c++/v1/vector:463:48
	i32.const	12
	local.set	18
	local.get	5
	local.get	18
	i32.add 
	local.set	19
	local.get	19
	local.set	20
	local.get	20
	local.get	6
	call	_ZNSt3__26vectorIdNS_9allocatorIdEEE16__destroy_vectorC2B8ne190106ERS3_
	drop
	.loc	8 463 20 is_stmt 0              # emscripten/cache/sysroot/include/c++/v1/vector:463:20
	local.get	5
	i32.load	12
	local.set	21
	i32.const	16
	local.set	22
	local.get	5
	local.get	22
	i32.add 
	local.set	23
	local.get	23
	local.set	24
	local.get	24
	local.get	21
	call	_ZNSt3__222__make_exception_guardB8ne190106INS_6vectorIdNS_9allocatorIdEEE16__destroy_vectorEEENS_28__exception_guard_exceptionsIT_EES7_
.Ltmp56:
	.loc	8 464 9 is_stmt 1               # emscripten/cache/sysroot/include/c++/v1/vector:464:9
	local.get	5
	i32.load	36
	local.set	25
	.loc	8 464 13 is_stmt 0              # emscripten/cache/sysroot/include/c++/v1/vector:464:13
	i32.const	0
	local.set	26
	local.get	25
	local.get	26
	i32.gt_u
	local.set	27
	i32.const	1
	local.set	28
	local.get	27
	local.get	28
	i32.and 
	local.set	29
	block   	
	local.get	29
	i32.eqz
	br_if   	0                               # 0: down to label10
# %bb.1:                                # %if.then
.Ltmp57:
	.loc	8 465 19 is_stmt 1              # emscripten/cache/sysroot/include/c++/v1/vector:465:19
	local.get	5
	i32.load	36
	local.set	30
	.loc	8 465 7 is_stmt 0               # emscripten/cache/sysroot/include/c++/v1/vector:465:7
	local.get	6
	local.get	30
	call	_ZNSt3__26vectorIdNS_9allocatorIdEEE11__vallocateB8ne190106Em
	.loc	8 466 26 is_stmt 1              # emscripten/cache/sysroot/include/c++/v1/vector:466:26
	local.get	5
	i32.load	36
	local.set	31
	.loc	8 466 31 is_stmt 0              # emscripten/cache/sysroot/include/c++/v1/vector:466:31
	local.get	5
	i32.load	32
	local.set	32
	.loc	8 466 7                         # emscripten/cache/sysroot/include/c++/v1/vector:466:7
	local.get	6
	local.get	31
	local.get	32
	call	_ZNSt3__26vectorIdNS_9allocatorIdEEE18__construct_at_endEmRKd
.Ltmp58:
.LBB15_2:                               # %if.end
	.loc	8 0 7                           # emscripten/cache/sysroot/include/c++/v1/vector:0:7
	end_block                               # label10:
	.loc	8 468 13 is_stmt 1              # emscripten/cache/sysroot/include/c++/v1/vector:468:13
	i32.const	16
	local.set	33
	local.get	5
	local.get	33
	i32.add 
	local.set	34
	local.get	34
	local.set	35
	local.get	35
	call	_ZNSt3__228__exception_guard_exceptionsINS_6vectorIdNS_9allocatorIdEEE16__destroy_vectorEE10__completeB8ne190106Ev
.Ltmp59:
	.loc	8 469 3                         # emscripten/cache/sysroot/include/c++/v1/vector:469:3
	i32.const	16
	local.set	36
	local.get	5
	local.get	36
	i32.add 
	local.set	37
	local.get	37
	local.set	38
	local.get	38
	call	_ZNSt3__228__exception_guard_exceptionsINS_6vectorIdNS_9allocatorIdEEE16__destroy_vectorEED2B8ne190106Ev
	drop
	local.get	5
	i32.load	44
	local.set	39
	i32.const	48
	local.set	40
	local.get	5
	local.get	40
	i32.add 
	local.set	41
	local.get	41
	global.set	__stack_pointer
	local.get	39
	return
	end_function
.Ltmp60:
.Lfunc_end15:
                                        # -- End function
	.section	.text._ZNKSt3__26vectorIdNS_9allocatorIdEEE4sizeB8ne190106Ev,"G",@,_ZNKSt3__26vectorIdNS_9allocatorIdEEE4sizeB8ne190106Ev,comdat
	.hidden	_ZNKSt3__26vectorIdNS_9allocatorIdEEE4sizeB8ne190106Ev # -- Begin function _ZNKSt3__26vectorIdNS_9allocatorIdEEE4sizeB8ne190106Ev
	.weak	_ZNKSt3__26vectorIdNS_9allocatorIdEEE4sizeB8ne190106Ev
	.type	_ZNKSt3__26vectorIdNS_9allocatorIdEEE4sizeB8ne190106Ev,@function
_ZNKSt3__26vectorIdNS_9allocatorIdEEE4sizeB8ne190106Ev: # @_ZNKSt3__26vectorIdNS_9allocatorIdEEE4sizeB8ne190106Ev
.Lfunc_begin16:
	.loc	8 634 0                         # emscripten/cache/sysroot/include/c++/v1/vector:634:0
	.functype	_ZNKSt3__26vectorIdNS_9allocatorIdEEE4sizeB8ne190106Ev (i32) -> (i32)
	.local  	i32, i32, i32, i32, i32, i32, i32, i32, i32
# %bb.0:                                # %entry
	global.get	__stack_pointer
	local.set	1
	i32.const	16
	local.set	2
	local.get	1
	local.get	2
	i32.sub 
	local.set	3
	local.get	3
	local.get	0
	i32.store	12
	local.get	3
	i32.load	12
	local.set	4
.Ltmp61:
	.loc	8 635 41 prologue_end           # emscripten/cache/sysroot/include/c++/v1/vector:635:41
	local.get	4
	i32.load	4
	local.set	5
	.loc	8 635 56 is_stmt 0              # emscripten/cache/sysroot/include/c++/v1/vector:635:56
	local.get	4
	i32.load	0
	local.set	6
	.loc	8 635 48                        # emscripten/cache/sysroot/include/c++/v1/vector:635:48
	local.get	5
	local.get	6
	i32.sub 
	local.set	7
	i32.const	3
	local.set	8
	local.get	7
	local.get	8
	i32.shr_s
	local.set	9
	.loc	8 635 5                         # emscripten/cache/sysroot/include/c++/v1/vector:635:5
	local.get	9
	return
	end_function
.Ltmp62:
.Lfunc_end16:
                                        # -- End function
	.section	.text._ZNSt3__26vectorIdNS_9allocatorIdEEEixB8ne190106Em,"G",@,_ZNSt3__26vectorIdNS_9allocatorIdEEEixB8ne190106Em,comdat
	.hidden	_ZNSt3__26vectorIdNS_9allocatorIdEEEixB8ne190106Em # -- Begin function _ZNSt3__26vectorIdNS_9allocatorIdEEEixB8ne190106Em
	.weak	_ZNSt3__26vectorIdNS_9allocatorIdEEEixB8ne190106Em
	.type	_ZNSt3__26vectorIdNS_9allocatorIdEEEixB8ne190106Em,@function
_ZNSt3__26vectorIdNS_9allocatorIdEEEixB8ne190106Em: # @_ZNSt3__26vectorIdNS_9allocatorIdEEEixB8ne190106Em
.Lfunc_begin17:
	.loc	8 1435 0 is_stmt 1              # emscripten/cache/sysroot/include/c++/v1/vector:1435:0
	.functype	_ZNSt3__26vectorIdNS_9allocatorIdEEEixB8ne190106Em (i32, i32) -> (i32)
	.local  	i32, i32, i32, i32, i32, i32, i32, i32, i32
# %bb.0:                                # %entry
	global.get	__stack_pointer
	local.set	2
	i32.const	16
	local.set	3
	local.get	2
	local.get	3
	i32.sub 
	local.set	4
	local.get	4
	local.get	0
	i32.store	12
	local.get	4
	local.get	1
	i32.store	8
	local.get	4
	i32.load	12
	local.set	5
.Ltmp63:
	.loc	8 1437 16 prologue_end          # emscripten/cache/sysroot/include/c++/v1/vector:1437:16
	local.get	5
	i32.load	0
	local.set	6
	.loc	8 1437 25 is_stmt 0             # emscripten/cache/sysroot/include/c++/v1/vector:1437:25
	local.get	4
	i32.load	8
	local.set	7
	.loc	8 1437 10                       # emscripten/cache/sysroot/include/c++/v1/vector:1437:10
	i32.const	3
	local.set	8
	local.get	7
	local.get	8
	i32.shl 
	local.set	9
	local.get	6
	local.get	9
	i32.add 
	local.set	10
	.loc	8 1437 3                        # emscripten/cache/sysroot/include/c++/v1/vector:1437:3
	local.get	10
	return
	end_function
.Ltmp64:
.Lfunc_end17:
                                        # -- End function
	.section	.text._ZNSt3__26vectorIdNS_9allocatorIdEEED2B8ne190106Ev,"G",@,_ZNSt3__26vectorIdNS_9allocatorIdEEED2B8ne190106Ev,comdat
	.hidden	_ZNSt3__26vectorIdNS_9allocatorIdEEED2B8ne190106Ev # -- Begin function _ZNSt3__26vectorIdNS_9allocatorIdEEED2B8ne190106Ev
	.weak	_ZNSt3__26vectorIdNS_9allocatorIdEEED2B8ne190106Ev
	.type	_ZNSt3__26vectorIdNS_9allocatorIdEEED2B8ne190106Ev,@function
_ZNSt3__26vectorIdNS_9allocatorIdEEED2B8ne190106Ev: # @_ZNSt3__26vectorIdNS_9allocatorIdEEED2B8ne190106Ev
.Lfunc_begin18:
	.loc	8 541 0 is_stmt 1               # emscripten/cache/sysroot/include/c++/v1/vector:541:0
	.functype	_ZNSt3__26vectorIdNS_9allocatorIdEEED2B8ne190106Ev (i32) -> (i32)
	.local  	i32, i32, i32, i32, i32, i32, i32, i32, i32, i32, i32, i32
# %bb.0:                                # %entry
	global.get	__stack_pointer
	local.set	1
	i32.const	16
	local.set	2
	local.get	1
	local.get	2
	i32.sub 
	local.set	3
	local.get	3
	global.set	__stack_pointer
	local.get	3
	local.get	0
	i32.store	12
	local.get	3
	i32.load	12
	local.set	4
.Ltmp65:
	.loc	8 541 67 prologue_end           # emscripten/cache/sysroot/include/c++/v1/vector:541:67
	i32.const	8
	local.set	5
	local.get	3
	local.get	5
	i32.add 
	local.set	6
	local.get	6
	local.set	7
	local.get	7
	local.get	4
	call	_ZNSt3__26vectorIdNS_9allocatorIdEEE16__destroy_vectorC2B8ne190106ERS3_
	drop
	i32.const	8
	local.set	8
	local.get	3
	local.get	8
	i32.add 
	local.set	9
	local.get	9
	local.set	10
	local.get	10
	call	_ZNSt3__26vectorIdNS_9allocatorIdEEE16__destroy_vectorclB8ne190106Ev
.Ltmp66:
	.loc	8 541 95 is_stmt 0              # emscripten/cache/sysroot/include/c++/v1/vector:541:95
	i32.const	16
	local.set	11
	local.get	3
	local.get	11
	i32.add 
	local.set	12
	local.get	12
	global.set	__stack_pointer
	local.get	4
	return
	end_function
.Ltmp67:
.Lfunc_end18:
                                        # -- End function
	.section	.text._ZNSt3__2eqB8ne190106IPNS_6threadEEEbRKNS_11__wrap_iterIT_EES7_,"G",@,_ZNSt3__2eqB8ne190106IPNS_6threadEEEbRKNS_11__wrap_iterIT_EES7_,comdat
	.hidden	_ZNSt3__2eqB8ne190106IPNS_6threadEEEbRKNS_11__wrap_iterIT_EES7_ # -- Begin function _ZNSt3__2eqB8ne190106IPNS_6threadEEEbRKNS_11__wrap_iterIT_EES7_
	.weak	_ZNSt3__2eqB8ne190106IPNS_6threadEEEbRKNS_11__wrap_iterIT_EES7_
	.type	_ZNSt3__2eqB8ne190106IPNS_6threadEEEbRKNS_11__wrap_iterIT_EES7_,@function
_ZNSt3__2eqB8ne190106IPNS_6threadEEEbRKNS_11__wrap_iterIT_EES7_: # @_ZNSt3__2eqB8ne190106IPNS_6threadEEEbRKNS_11__wrap_iterIT_EES7_
.Lfunc_begin19:
	.loc	19 114 0 is_stmt 1              # emscripten/cache/sysroot/include/c++/v1/__iterator/wrap_iter.h:114:0
	.functype	_ZNSt3__2eqB8ne190106IPNS_6threadEEEbRKNS_11__wrap_iterIT_EES7_ (i32, i32) -> (i32)
	.local  	i32, i32, i32, i32, i32, i32, i32, i32, i32, i32, i32, i32
# %bb.0:                                # %entry
	global.get	__stack_pointer
	local.set	2
	i32.const	16
	local.set	3
	local.get	2
	local.get	3
	i32.sub 
	local.set	4
	local.get	4
	global.set	__stack_pointer
	local.get	4
	local.get	0
	i32.store	12
	local.get	4
	local.get	1
	i32.store	8
.Ltmp68:
	.loc	19 115 10 prologue_end          # emscripten/cache/sysroot/include/c++/v1/__iterator/wrap_iter.h:115:10
	local.get	4
	i32.load	12
	local.set	5
	.loc	19 115 14 is_stmt 0             # emscripten/cache/sysroot/include/c++/v1/__iterator/wrap_iter.h:115:14
	local.get	5
	call	_ZNKSt3__211__wrap_iterIPNS_6threadEE4baseB8ne190106Ev
	local.set	6
	.loc	19 115 24                       # emscripten/cache/sysroot/include/c++/v1/__iterator/wrap_iter.h:115:24
	local.get	4
	i32.load	8
	local.set	7
	.loc	19 115 28                       # emscripten/cache/sysroot/include/c++/v1/__iterator/wrap_iter.h:115:28
	local.get	7
	call	_ZNKSt3__211__wrap_iterIPNS_6threadEE4baseB8ne190106Ev
	local.set	8
	.loc	19 115 21                       # emscripten/cache/sysroot/include/c++/v1/__iterator/wrap_iter.h:115:21
	local.get	6
	local.get	8
	i32.eq  
	local.set	9
	.loc	19 115 3                        # emscripten/cache/sysroot/include/c++/v1/__iterator/wrap_iter.h:115:3
	i32.const	1
	local.set	10
	local.get	9
	local.get	10
	i32.and 
	local.set	11
	i32.const	16
	local.set	12
	local.get	4
	local.get	12
	i32.add 
	local.set	13
	local.get	13
	global.set	__stack_pointer
	local.get	11
	return
	end_function
.Ltmp69:
.Lfunc_end19:
                                        # -- End function
	.section	.text._ZNKSt3__211__wrap_iterIPNS_6threadEE4baseB8ne190106Ev,"G",@,_ZNKSt3__211__wrap_iterIPNS_6threadEE4baseB8ne190106Ev,comdat
	.hidden	_ZNKSt3__211__wrap_iterIPNS_6threadEE4baseB8ne190106Ev # -- Begin function _ZNKSt3__211__wrap_iterIPNS_6threadEE4baseB8ne190106Ev
	.weak	_ZNKSt3__211__wrap_iterIPNS_6threadEE4baseB8ne190106Ev
	.type	_ZNKSt3__211__wrap_iterIPNS_6threadEE4baseB8ne190106Ev,@function
_ZNKSt3__211__wrap_iterIPNS_6threadEE4baseB8ne190106Ev: # @_ZNKSt3__211__wrap_iterIPNS_6threadEE4baseB8ne190106Ev
.Lfunc_begin20:
	.loc	19 93 0 is_stmt 1               # emscripten/cache/sysroot/include/c++/v1/__iterator/wrap_iter.h:93:0
	.functype	_ZNKSt3__211__wrap_iterIPNS_6threadEE4baseB8ne190106Ev (i32) -> (i32)
	.local  	i32, i32, i32, i32, i32
# %bb.0:                                # %entry
	global.get	__stack_pointer
	local.set	1
	i32.const	16
	local.set	2
	local.get	1
	local.get	2
	i32.sub 
	local.set	3
	local.get	3
	local.get	0
	i32.store	12
	local.get	3
	i32.load	12
	local.set	4
.Ltmp70:
	.loc	19 93 101 prologue_end          # emscripten/cache/sysroot/include/c++/v1/__iterator/wrap_iter.h:93:101
	local.get	4
	i32.load	0
	local.set	5
	.loc	19 93 94 is_stmt 0              # emscripten/cache/sysroot/include/c++/v1/__iterator/wrap_iter.h:93:94
	local.get	5
	return
	end_function
.Ltmp71:
.Lfunc_end20:
                                        # -- End function
	.section	.text._ZNSt3__222__cxx_atomic_fetch_addB8ne190106IiEET_PNS_22__cxx_atomic_base_implIS1_EES1_NS_12memory_orderE,"G",@,_ZNSt3__222__cxx_atomic_fetch_addB8ne190106IiEET_PNS_22__cxx_atomic_base_implIS1_EES1_NS_12memory_orderE,comdat
	.hidden	_ZNSt3__222__cxx_atomic_fetch_addB8ne190106IiEET_PNS_22__cxx_atomic_base_implIS1_EES1_NS_12memory_orderE # -- Begin function _ZNSt3__222__cxx_atomic_fetch_addB8ne190106IiEET_PNS_22__cxx_atomic_base_implIS1_EES1_NS_12memory_orderE
	.weak	_ZNSt3__222__cxx_atomic_fetch_addB8ne190106IiEET_PNS_22__cxx_atomic_base_implIS1_EES1_NS_12memory_orderE
	.type	_ZNSt3__222__cxx_atomic_fetch_addB8ne190106IiEET_PNS_22__cxx_atomic_base_implIS1_EES1_NS_12memory_orderE,@function
_ZNSt3__222__cxx_atomic_fetch_addB8ne190106IiEET_PNS_22__cxx_atomic_base_implIS1_EES1_NS_12memory_orderE: # @_ZNSt3__222__cxx_atomic_fetch_addB8ne190106IiEET_PNS_22__cxx_atomic_base_implIS1_EES1_NS_12memory_orderE
.Lfunc_begin21:
	.loc	1 416 0 is_stmt 1               # emscripten/cache/sysroot/include/c++/v1/__atomic/cxx_atomic_impl.h:416:0
	.functype	_ZNSt3__222__cxx_atomic_fetch_addB8ne190106IiEET_PNS_22__cxx_atomic_base_implIS1_EES1_NS_12memory_orderE (i32, i32, i32) -> (i32)
	.local  	i32, i32, i32, i32, i32, i32, i32, i32, i32, i32, i32, i32, i32, i32, i32, i32, i32, i32, i32, i32
# %bb.0:                                # %entry
	global.get	__stack_pointer
	local.set	3
	i32.const	32
	local.set	4
	local.get	3
	local.get	4
	i32.sub 
	local.set	5
	local.get	5
	local.get	0
	i32.store	28
	local.get	5
	local.get	1
	i32.store	24
	local.get	5
	local.get	2
	i32.store	20
.Ltmp72:
	.loc	1 418 22 prologue_end           # emscripten/cache/sysroot/include/c++/v1/__atomic/cxx_atomic_impl.h:418:22
	local.get	5
	i32.load	28
	local.set	6
	.loc	1 418 89 is_stmt 0              # emscripten/cache/sysroot/include/c++/v1/__atomic/cxx_atomic_impl.h:418:89
	local.get	5
	i32.load	20
	local.set	7
	.loc	1 418 39                        # emscripten/cache/sysroot/include/c++/v1/__atomic/cxx_atomic_impl.h:418:39
	local.get	5
	i32.load	24
	local.set	8
	.loc	1 417 10 is_stmt 1              # emscripten/cache/sysroot/include/c++/v1/__atomic/cxx_atomic_impl.h:417:10
	local.get	5
	local.get	8
	i32.store	16
	i32.const	-1
	local.set	9
	local.get	7
	local.get	9
	i32.add 
	local.set	10
	i32.const	4
	local.set	11
	local.get	10
	local.get	11
	i32.gt_u
	drop
	block   	
	block   	
	block   	
	block   	
	block   	
	block   	
	local.get	10
	br_table 	{1, 1, 2, 3, 4, 0}      # 1: down to label15
                                        # 2: down to label14
                                        # 3: down to label13
                                        # 4: down to label12
                                        # 0: down to label16
.LBB21_1:                               # %monotonic
	.loc	1 0 10 is_stmt 0                # emscripten/cache/sysroot/include/c++/v1/__atomic/cxx_atomic_impl.h:0:10
	end_block                               # label16:
	.loc	1 417 10                        # emscripten/cache/sysroot/include/c++/v1/__atomic/cxx_atomic_impl.h:417:10
	local.get	5
	i32.load	16
	local.set	12
	local.get	6
	local.get	12
	i32.atomic.rmw.add	0
	local.set	13
	local.get	5
	local.get	13
	i32.store	12
	br      	4                               # 4: down to label11
.LBB21_2:                               # %acquire
	.loc	1 0 10                          # emscripten/cache/sysroot/include/c++/v1/__atomic/cxx_atomic_impl.h:0:10
	end_block                               # label15:
	.loc	1 417 10                        # emscripten/cache/sysroot/include/c++/v1/__atomic/cxx_atomic_impl.h:417:10
	local.get	5
	i32.load	16
	local.set	14
	local.get	6
	local.get	14
	i32.atomic.rmw.add	0
	local.set	15
	local.get	5
	local.get	15
	i32.store	12
	br      	3                               # 3: down to label11
.LBB21_3:                               # %release
	.loc	1 0 10                          # emscripten/cache/sysroot/include/c++/v1/__atomic/cxx_atomic_impl.h:0:10
	end_block                               # label14:
	.loc	1 417 10                        # emscripten/cache/sysroot/include/c++/v1/__atomic/cxx_atomic_impl.h:417:10
	local.get	5
	i32.load	16
	local.set	16
	local.get	6
	local.get	16
	i32.atomic.rmw.add	0
	local.set	17
	local.get	5
	local.get	17
	i32.store	12
	br      	2                               # 2: down to label11
.LBB21_4:                               # %acqrel
	.loc	1 0 10                          # emscripten/cache/sysroot/include/c++/v1/__atomic/cxx_atomic_impl.h:0:10
	end_block                               # label13:
	.loc	1 417 10                        # emscripten/cache/sysroot/include/c++/v1/__atomic/cxx_atomic_impl.h:417:10
	local.get	5
	i32.load	16
	local.set	18
	local.get	6
	local.get	18
	i32.atomic.rmw.add	0
	local.set	19
	local.get	5
	local.get	19
	i32.store	12
	br      	1                               # 1: down to label11
.LBB21_5:                               # %seqcst
	.loc	1 0 10                          # emscripten/cache/sysroot/include/c++/v1/__atomic/cxx_atomic_impl.h:0:10
	end_block                               # label12:
	.loc	1 417 10                        # emscripten/cache/sysroot/include/c++/v1/__atomic/cxx_atomic_impl.h:417:10
	local.get	5
	i32.load	16
	local.set	20
	local.get	6
	local.get	20
	i32.atomic.rmw.add	0
	local.set	21
	local.get	5
	local.get	21
	i32.store	12
.LBB21_6:                               # %atomic.continue
	.loc	1 0 10                          # emscripten/cache/sysroot/include/c++/v1/__atomic/cxx_atomic_impl.h:0:10
	end_block                               # label11:
	.loc	1 417 10                        # emscripten/cache/sysroot/include/c++/v1/__atomic/cxx_atomic_impl.h:417:10
	local.get	5
	i32.load	12
	local.set	22
	.loc	1 417 3                         # emscripten/cache/sysroot/include/c++/v1/__atomic/cxx_atomic_impl.h:417:3
	local.get	22
	return
	end_function
.Ltmp73:
.Lfunc_end21:
                                        # -- End function
	.section	.text._ZNSt3__217__cxx_atomic_loadB8ne190106IbEET_PKNS_22__cxx_atomic_base_implIS1_EENS_12memory_orderE,"G",@,_ZNSt3__217__cxx_atomic_loadB8ne190106IbEET_PKNS_22__cxx_atomic_base_implIS1_EENS_12memory_orderE,comdat
	.hidden	_ZNSt3__217__cxx_atomic_loadB8ne190106IbEET_PKNS_22__cxx_atomic_base_implIS1_EENS_12memory_orderE # -- Begin function _ZNSt3__217__cxx_atomic_loadB8ne190106IbEET_PKNS_22__cxx_atomic_base_implIS1_EENS_12memory_orderE
	.weak	_ZNSt3__217__cxx_atomic_loadB8ne190106IbEET_PKNS_22__cxx_atomic_base_implIS1_EENS_12memory_orderE
	.type	_ZNSt3__217__cxx_atomic_loadB8ne190106IbEET_PKNS_22__cxx_atomic_base_implIS1_EENS_12memory_orderE,@function
_ZNSt3__217__cxx_atomic_loadB8ne190106IbEET_PKNS_22__cxx_atomic_base_implIS1_EENS_12memory_orderE: # @_ZNSt3__217__cxx_atomic_loadB8ne190106IbEET_PKNS_22__cxx_atomic_base_implIS1_EENS_12memory_orderE
.Lfunc_begin22:
	.loc	1 315 0 is_stmt 1               # emscripten/cache/sysroot/include/c++/v1/__atomic/cxx_atomic_impl.h:315:0
	.functype	_ZNSt3__217__cxx_atomic_loadB8ne190106IbEET_PKNS_22__cxx_atomic_base_implIS1_EENS_12memory_orderE (i32, i32) -> (i32)
	.local  	i32, i32, i32, i32, i32, i32, i32, i32, i32, i32, i32, i32, i32, i32
# %bb.0:                                # %entry
	global.get	__stack_pointer
	local.set	2
	i32.const	16
	local.set	3
	local.get	2
	local.get	3
	i32.sub 
	local.set	4
	local.get	4
	local.get	0
	i32.store	12
	local.get	4
	local.get	1
	i32.store	8
.Ltmp74:
	.loc	1 318 45 prologue_end           # emscripten/cache/sysroot/include/c++/v1/__atomic/cxx_atomic_impl.h:318:45
	local.get	4
	i32.load	12
	local.set	5
	.loc	1 318 104 is_stmt 0             # emscripten/cache/sysroot/include/c++/v1/__atomic/cxx_atomic_impl.h:318:104
	local.get	4
	i32.load	8
	local.set	6
	i32.const	-1
	local.set	7
	.loc	1 317 10 is_stmt 1              # emscripten/cache/sysroot/include/c++/v1/__atomic/cxx_atomic_impl.h:317:10
	local.get	6
	local.get	7
	i32.add 
	local.set	8
	i32.const	4
	local.set	9
	local.get	8
	local.get	9
	i32.gt_u
	drop
	block   	
	block   	
	block   	
	block   	
	local.get	8
	br_table 	{1, 1, 0, 0, 2, 0}      # 1: down to label19
                                        # 0: down to label20
                                        # 2: down to label18
.LBB22_1:                               # %monotonic
	.loc	1 0 10 is_stmt 0                # emscripten/cache/sysroot/include/c++/v1/__atomic/cxx_atomic_impl.h:0:10
	end_block                               # label20:
	.loc	1 317 10                        # emscripten/cache/sysroot/include/c++/v1/__atomic/cxx_atomic_impl.h:317:10
	local.get	5
	i32.atomic.load8_u	0
	local.set	10
	local.get	4
	local.get	10
	i32.store8	7
	br      	2                               # 2: down to label17
.LBB22_2:                               # %acquire
	.loc	1 0 10                          # emscripten/cache/sysroot/include/c++/v1/__atomic/cxx_atomic_impl.h:0:10
	end_block                               # label19:
	.loc	1 317 10                        # emscripten/cache/sysroot/include/c++/v1/__atomic/cxx_atomic_impl.h:317:10
	local.get	5
	i32.atomic.load8_u	0
	local.set	11
	local.get	4
	local.get	11
	i32.store8	7
	br      	1                               # 1: down to label17
.LBB22_3:                               # %seqcst
	.loc	1 0 10                          # emscripten/cache/sysroot/include/c++/v1/__atomic/cxx_atomic_impl.h:0:10
	end_block                               # label18:
	.loc	1 317 10                        # emscripten/cache/sysroot/include/c++/v1/__atomic/cxx_atomic_impl.h:317:10
	local.get	5
	i32.atomic.load8_u	0
	local.set	12
	local.get	4
	local.get	12
	i32.store8	7
.LBB22_4:                               # %atomic.continue
	.loc	1 0 10                          # emscripten/cache/sysroot/include/c++/v1/__atomic/cxx_atomic_impl.h:0:10
	end_block                               # label17:
	.loc	1 317 10                        # emscripten/cache/sysroot/include/c++/v1/__atomic/cxx_atomic_impl.h:317:10
	local.get	4
	i32.load8_u	7
	local.set	13
	.loc	1 317 3                         # emscripten/cache/sysroot/include/c++/v1/__atomic/cxx_atomic_impl.h:317:3
	i32.const	1
	local.set	14
	local.get	13
	local.get	14
	i32.and 
	local.set	15
	local.get	15
	return
	end_function
.Ltmp75:
.Lfunc_end22:
                                        # -- End function
	.section	.text._ZNSt3__217__compressed_pairIPNS_6threadENS_9allocatorIS1_EEEC2B8ne190106IDnNS_18__default_init_tagEEEOT_OT0_,"G",@,_ZNSt3__217__compressed_pairIPNS_6threadENS_9allocatorIS1_EEEC2B8ne190106IDnNS_18__default_init_tagEEEOT_OT0_,comdat
	.hidden	_ZNSt3__217__compressed_pairIPNS_6threadENS_9allocatorIS1_EEEC2B8ne190106IDnNS_18__default_init_tagEEEOT_OT0_ # -- Begin function _ZNSt3__217__compressed_pairIPNS_6threadENS_9allocatorIS1_EEEC2B8ne190106IDnNS_18__default_init_tagEEEOT_OT0_
	.weak	_ZNSt3__217__compressed_pairIPNS_6threadENS_9allocatorIS1_EEEC2B8ne190106IDnNS_18__default_init_tagEEEOT_OT0_
	.type	_ZNSt3__217__compressed_pairIPNS_6threadENS_9allocatorIS1_EEEC2B8ne190106IDnNS_18__default_init_tagEEEOT_OT0_,@function
_ZNSt3__217__compressed_pairIPNS_6threadENS_9allocatorIS1_EEEC2B8ne190106IDnNS_18__default_init_tagEEEOT_OT0_: # @_ZNSt3__217__compressed_pairIPNS_6threadENS_9allocatorIS1_EEEC2B8ne190106IDnNS_18__default_init_tagEEEOT_OT0_
.Lfunc_begin23:
	.loc	17 119 0 is_stmt 1              # emscripten/cache/sysroot/include/c++/v1/__memory/compressed_pair.h:119:0
	.functype	_ZNSt3__217__compressed_pairIPNS_6threadENS_9allocatorIS1_EEEC2B8ne190106IDnNS_18__default_init_tagEEEOT_OT0_ (i32, i32, i32) -> (i32)
	.local  	i32, i32, i32, i32, i32, i32, i32
# %bb.0:                                # %entry
	global.get	__stack_pointer
	local.set	3
	i32.const	16
	local.set	4
	local.get	3
	local.get	4
	i32.sub 
	local.set	5
	local.get	5
	global.set	__stack_pointer
	local.get	5
	local.get	0
	i32.store	12
	local.get	5
	local.get	1
	i32.store	8
	local.get	5
	local.get	2
	i32.store	4
	local.get	5
	i32.load	12
	local.set	6
.Ltmp76:
	.loc	17 119 34 prologue_end          # emscripten/cache/sysroot/include/c++/v1/__memory/compressed_pair.h:119:34
	local.get	5
	i32.load	8
	local.set	7
	.loc	17 119 9 is_stmt 0              # emscripten/cache/sysroot/include/c++/v1/__memory/compressed_pair.h:119:9
	local.get	6
	local.get	7
	call	_ZNSt3__222__compressed_pair_elemIPNS_6threadELi0ELb0EEC2B8ne190106IDnTnNS_9enable_ifIXntsr7is_sameIS3_u7__decayIT_EEE5valueEiE4typeELi0EEEOS6_
	drop
	.loc	17 119 42                       # emscripten/cache/sysroot/include/c++/v1/__memory/compressed_pair.h:119:42
	local.get	6
	call	_ZNSt3__222__compressed_pair_elemINS_9allocatorINS_6threadEEELi1ELb1EEC2B8ne190106ENS_18__default_init_tagE
	drop
	.loc	17 119 75                       # emscripten/cache/sysroot/include/c++/v1/__memory/compressed_pair.h:119:75
	i32.const	16
	local.set	8
	local.get	5
	local.get	8
	i32.add 
	local.set	9
	local.get	9
	global.set	__stack_pointer
	local.get	6
	return
	end_function
.Ltmp77:
.Lfunc_end23:
                                        # -- End function
	.section	.text._ZNSt3__222__compressed_pair_elemIPNS_6threadELi0ELb0EEC2B8ne190106IDnTnNS_9enable_ifIXntsr7is_sameIS3_u7__decayIT_EEE5valueEiE4typeELi0EEEOS6_,"G",@,_ZNSt3__222__compressed_pair_elemIPNS_6threadELi0ELb0EEC2B8ne190106IDnTnNS_9enable_ifIXntsr7is_sameIS3_u7__decayIT_EEE5valueEiE4typeELi0EEEOS6_,comdat
	.hidden	_ZNSt3__222__compressed_pair_elemIPNS_6threadELi0ELb0EEC2B8ne190106IDnTnNS_9enable_ifIXntsr7is_sameIS3_u7__decayIT_EEE5valueEiE4typeELi0EEEOS6_ # -- Begin function _ZNSt3__222__compressed_pair_elemIPNS_6threadELi0ELb0EEC2B8ne190106IDnTnNS_9enable_ifIXntsr7is_sameIS3_u7__decayIT_EEE5valueEiE4typeELi0EEEOS6_
	.weak	_ZNSt3__222__compressed_pair_elemIPNS_6threadELi0ELb0EEC2B8ne190106IDnTnNS_9enable_ifIXntsr7is_sameIS3_u7__decayIT_EEE5valueEiE4typeELi0EEEOS6_
	.type	_ZNSt3__222__compressed_pair_elemIPNS_6threadELi0ELb0EEC2B8ne190106IDnTnNS_9enable_ifIXntsr7is_sameIS3_u7__decayIT_EEE5valueEiE4typeELi0EEEOS6_,@function
_ZNSt3__222__compressed_pair_elemIPNS_6threadELi0ELb0EEC2B8ne190106IDnTnNS_9enable_ifIXntsr7is_sameIS3_u7__decayIT_EEE5valueEiE4typeELi0EEEOS6_: # @_ZNSt3__222__compressed_pair_elemIPNS_6threadELi0ELb0EEC2B8ne190106IDnTnNS_9enable_ifIXntsr7is_sameIS3_u7__decayIT_EEE5valueEiE4typeELi0EEEOS6_
.Lfunc_begin24:
	.loc	17 53 0 is_stmt 1               # emscripten/cache/sysroot/include/c++/v1/__memory/compressed_pair.h:53:0
	.functype	_ZNSt3__222__compressed_pair_elemIPNS_6threadELi0ELb0EEC2B8ne190106IDnTnNS_9enable_ifIXntsr7is_sameIS3_u7__decayIT_EEE5valueEiE4typeELi0EEEOS6_ (i32, i32) -> (i32)
	.local  	i32, i32, i32, i32, i32
# %bb.0:                                # %entry
	global.get	__stack_pointer
	local.set	2
	i32.const	16
	local.set	3
	local.get	2
	local.get	3
	i32.sub 
	local.set	4
	local.get	4
	local.get	0
	i32.store	12
	local.get	4
	local.get	1
	i32.store	8
	local.get	4
	i32.load	12
	local.set	5
.Ltmp78:
	.loc	17 53 9 prologue_end            # emscripten/cache/sysroot/include/c++/v1/__memory/compressed_pair.h:53:9
	i32.const	0
	local.set	6
	local.get	5
	local.get	6
	i32.store	0
	.loc	17 53 43 is_stmt 0              # emscripten/cache/sysroot/include/c++/v1/__memory/compressed_pair.h:53:43
	local.get	5
	return
	end_function
.Ltmp79:
.Lfunc_end24:
                                        # -- End function
	.section	.text._ZNSt3__222__compressed_pair_elemINS_9allocatorINS_6threadEEELi1ELb1EEC2B8ne190106ENS_18__default_init_tagE,"G",@,_ZNSt3__222__compressed_pair_elemINS_9allocatorINS_6threadEEELi1ELb1EEC2B8ne190106ENS_18__default_init_tagE,comdat
	.hidden	_ZNSt3__222__compressed_pair_elemINS_9allocatorINS_6threadEEELi1ELb1EEC2B8ne190106ENS_18__default_init_tagE # -- Begin function _ZNSt3__222__compressed_pair_elemINS_9allocatorINS_6threadEEELi1ELb1EEC2B8ne190106ENS_18__default_init_tagE
	.weak	_ZNSt3__222__compressed_pair_elemINS_9allocatorINS_6threadEEELi1ELb1EEC2B8ne190106ENS_18__default_init_tagE
	.type	_ZNSt3__222__compressed_pair_elemINS_9allocatorINS_6threadEEELi1ELb1EEC2B8ne190106ENS_18__default_init_tagE,@function
_ZNSt3__222__compressed_pair_elemINS_9allocatorINS_6threadEEELi1ELb1EEC2B8ne190106ENS_18__default_init_tagE: # @_ZNSt3__222__compressed_pair_elemINS_9allocatorINS_6threadEEELi1ELb1EEC2B8ne190106ENS_18__default_init_tagE
.Lfunc_begin25:
	.loc	17 77 0 is_stmt 1               # emscripten/cache/sysroot/include/c++/v1/__memory/compressed_pair.h:77:0
	.functype	_ZNSt3__222__compressed_pair_elemINS_9allocatorINS_6threadEEELi1ELb1EEC2B8ne190106ENS_18__default_init_tagE (i32) -> (i32)
	.local  	i32, i32, i32, i32, i32, i32
# %bb.0:                                # %entry
	global.get	__stack_pointer
	local.set	1
	i32.const	16
	local.set	2
	local.get	1
	local.get	2
	i32.sub 
	local.set	3
	local.get	3
	global.set	__stack_pointer
	local.get	3
	local.get	0
	i32.store	8
	local.get	3
	i32.load	8
	local.set	4
.Ltmp80:
	.loc	17 77 52 prologue_end           # emscripten/cache/sysroot/include/c++/v1/__memory/compressed_pair.h:77:52
	local.get	4
	call	_ZNSt3__29allocatorINS_6threadEEC2B8ne190106Ev
	drop
	.loc	17 77 96 is_stmt 0              # emscripten/cache/sysroot/include/c++/v1/__memory/compressed_pair.h:77:96
	i32.const	16
	local.set	5
	local.get	3
	local.get	5
	i32.add 
	local.set	6
	local.get	6
	global.set	__stack_pointer
	local.get	4
	return
	end_function
.Ltmp81:
.Lfunc_end25:
                                        # -- End function
	.section	.text._ZNSt3__29allocatorINS_6threadEEC2B8ne190106Ev,"G",@,_ZNSt3__29allocatorINS_6threadEEC2B8ne190106Ev,comdat
	.hidden	_ZNSt3__29allocatorINS_6threadEEC2B8ne190106Ev # -- Begin function _ZNSt3__29allocatorINS_6threadEEC2B8ne190106Ev
	.weak	_ZNSt3__29allocatorINS_6threadEEC2B8ne190106Ev
	.type	_ZNSt3__29allocatorINS_6threadEEC2B8ne190106Ev,@function
_ZNSt3__29allocatorINS_6threadEEC2B8ne190106Ev: # @_ZNSt3__29allocatorINS_6threadEEC2B8ne190106Ev
.Lfunc_begin26:
	.loc	15 107 0 is_stmt 1              # emscripten/cache/sysroot/include/c++/v1/__memory/allocator.h:107:0
	.functype	_ZNSt3__29allocatorINS_6threadEEC2B8ne190106Ev (i32) -> (i32)
	.local  	i32, i32, i32, i32, i32, i32
# %bb.0:                                # %entry
	global.get	__stack_pointer
	local.set	1
	i32.const	16
	local.set	2
	local.get	1
	local.get	2
	i32.sub 
	local.set	3
	local.get	3
	global.set	__stack_pointer
	local.get	3
	local.get	0
	i32.store	12
	local.get	3
	i32.load	12
	local.set	4
.Ltmp82:
	.loc	15 107 55 prologue_end          # emscripten/cache/sysroot/include/c++/v1/__memory/allocator.h:107:55
	local.get	4
	call	_ZNSt3__216__non_trivial_ifILb1ENS_9allocatorINS_6threadEEEEC2B8ne190106Ev
	drop
	.loc	15 107 85 is_stmt 0             # emscripten/cache/sysroot/include/c++/v1/__memory/allocator.h:107:85
	i32.const	16
	local.set	5
	local.get	3
	local.get	5
	i32.add 
	local.set	6
	local.get	6
	global.set	__stack_pointer
	local.get	4
	return
	end_function
.Ltmp83:
.Lfunc_end26:
                                        # -- End function
	.section	.text._ZNSt3__216__non_trivial_ifILb1ENS_9allocatorINS_6threadEEEEC2B8ne190106Ev,"G",@,_ZNSt3__216__non_trivial_ifILb1ENS_9allocatorINS_6threadEEEEC2B8ne190106Ev,comdat
	.hidden	_ZNSt3__216__non_trivial_ifILb1ENS_9allocatorINS_6threadEEEEC2B8ne190106Ev # -- Begin function _ZNSt3__216__non_trivial_ifILb1ENS_9allocatorINS_6threadEEEEC2B8ne190106Ev
	.weak	_ZNSt3__216__non_trivial_ifILb1ENS_9allocatorINS_6threadEEEEC2B8ne190106Ev
	.type	_ZNSt3__216__non_trivial_ifILb1ENS_9allocatorINS_6threadEEEEC2B8ne190106Ev,@function
_ZNSt3__216__non_trivial_ifILb1ENS_9allocatorINS_6threadEEEEC2B8ne190106Ev: # @_ZNSt3__216__non_trivial_ifILb1ENS_9allocatorINS_6threadEEEEC2B8ne190106Ev
.Lfunc_begin27:
	.loc	15 85 0 is_stmt 1               # emscripten/cache/sysroot/include/c++/v1/__memory/allocator.h:85:0
	.functype	_ZNSt3__216__non_trivial_ifILb1ENS_9allocatorINS_6threadEEEEC2B8ne190106Ev (i32) -> (i32)
	.local  	i32, i32, i32, i32
# %bb.0:                                # %entry
	global.get	__stack_pointer
	local.set	1
	i32.const	16
	local.set	2
	local.get	1
	local.get	2
	i32.sub 
	local.set	3
	local.get	3
	local.get	0
	i32.store	12
	local.get	3
	i32.load	12
	local.set	4
.Ltmp84:
	.loc	15 85 73 prologue_end           # emscripten/cache/sysroot/include/c++/v1/__memory/allocator.h:85:73
	local.get	4
	return
	end_function
.Ltmp85:
.Lfunc_end27:
                                        # -- End function
	.section	.text._ZNSt3__26vectorINS_6threadENS_9allocatorIS1_EEE16__destroy_vectorC2B8ne190106ERS4_,"G",@,_ZNSt3__26vectorINS_6threadENS_9allocatorIS1_EEE16__destroy_vectorC2B8ne190106ERS4_,comdat
	.hidden	_ZNSt3__26vectorINS_6threadENS_9allocatorIS1_EEE16__destroy_vectorC2B8ne190106ERS4_ # -- Begin function _ZNSt3__26vectorINS_6threadENS_9allocatorIS1_EEE16__destroy_vectorC2B8ne190106ERS4_
	.weak	_ZNSt3__26vectorINS_6threadENS_9allocatorIS1_EEE16__destroy_vectorC2B8ne190106ERS4_
	.type	_ZNSt3__26vectorINS_6threadENS_9allocatorIS1_EEE16__destroy_vectorC2B8ne190106ERS4_,@function
_ZNSt3__26vectorINS_6threadENS_9allocatorIS1_EEE16__destroy_vectorC2B8ne190106ERS4_: # @_ZNSt3__26vectorINS_6threadENS_9allocatorIS1_EEE16__destroy_vectorC2B8ne190106ERS4_
.Lfunc_begin28:
	.loc	8 526 0                         # emscripten/cache/sysroot/include/c++/v1/vector:526:0
	.functype	_ZNSt3__26vectorINS_6threadENS_9allocatorIS1_EEE16__destroy_vectorC2B8ne190106ERS4_ (i32, i32) -> (i32)
	.local  	i32, i32, i32, i32, i32
# %bb.0:                                # %entry
	global.get	__stack_pointer
	local.set	2
	i32.const	16
	local.set	3
	local.get	2
	local.get	3
	i32.sub 
	local.set	4
	local.get	4
	local.get	0
	i32.store	12
	local.get	4
	local.get	1
	i32.store	8
	local.get	4
	i32.load	12
	local.set	5
.Ltmp86:
	.loc	8 526 86 prologue_end           # emscripten/cache/sysroot/include/c++/v1/vector:526:86
	local.get	4
	i32.load	8
	local.set	6
	.loc	8 526 79 is_stmt 0              # emscripten/cache/sysroot/include/c++/v1/vector:526:79
	local.get	5
	local.get	6
	i32.store	0
	.loc	8 526 94                        # emscripten/cache/sysroot/include/c++/v1/vector:526:94
	local.get	5
	return
	end_function
.Ltmp87:
.Lfunc_end28:
                                        # -- End function
	.section	.text._ZNSt3__26vectorINS_6threadENS_9allocatorIS1_EEE16__destroy_vectorclB8ne190106Ev,"G",@,_ZNSt3__26vectorINS_6threadENS_9allocatorIS1_EEE16__destroy_vectorclB8ne190106Ev,comdat
	.hidden	_ZNSt3__26vectorINS_6threadENS_9allocatorIS1_EEE16__destroy_vectorclB8ne190106Ev # -- Begin function _ZNSt3__26vectorINS_6threadENS_9allocatorIS1_EEE16__destroy_vectorclB8ne190106Ev
	.weak	_ZNSt3__26vectorINS_6threadENS_9allocatorIS1_EEE16__destroy_vectorclB8ne190106Ev
	.type	_ZNSt3__26vectorINS_6threadENS_9allocatorIS1_EEE16__destroy_vectorclB8ne190106Ev,@function
_ZNSt3__26vectorINS_6threadENS_9allocatorIS1_EEE16__destroy_vectorclB8ne190106Ev: # @_ZNSt3__26vectorINS_6threadENS_9allocatorIS1_EEE16__destroy_vectorclB8ne190106Ev
.Lfunc_begin29:
	.loc	8 528 0 is_stmt 1               # emscripten/cache/sysroot/include/c++/v1/vector:528:0
	.functype	_ZNSt3__26vectorINS_6threadENS_9allocatorIS1_EEE16__destroy_vectorclB8ne190106Ev (i32) -> ()
	.local  	i32, i32, i32, i32, i32, i32, i32, i32, i32, i32, i32, i32, i32, i32, i32, i32, i32, i32, i32, i32
# %bb.0:                                # %entry
	global.get	__stack_pointer
	local.set	1
	i32.const	16
	local.set	2
	local.get	1
	local.get	2
	i32.sub 
	local.set	3
	local.get	3
	global.set	__stack_pointer
	local.get	3
	local.get	0
	i32.store	12
	local.get	3
	i32.load	12
	local.set	4
.Ltmp88:
	.loc	8 529 11 prologue_end           # emscripten/cache/sysroot/include/c++/v1/vector:529:11
	local.get	4
	i32.load	0
	local.set	5
	.loc	8 529 18 is_stmt 0              # emscripten/cache/sysroot/include/c++/v1/vector:529:18
	local.get	5
	i32.load	0
	local.set	6
	.loc	8 529 27                        # emscripten/cache/sysroot/include/c++/v1/vector:529:27
	i32.const	0
	local.set	7
	local.get	6
	local.get	7
	i32.ne  
	local.set	8
	i32.const	1
	local.set	9
	local.get	8
	local.get	9
	i32.and 
	local.set	10
	block   	
	local.get	10
	i32.eqz
	br_if   	0                               # 0: down to label21
# %bb.1:                                # %if.then
.Ltmp89:
	.loc	8 530 9 is_stmt 1               # emscripten/cache/sysroot/include/c++/v1/vector:530:9
	local.get	4
	i32.load	0
	local.set	11
	.loc	8 530 16 is_stmt 0              # emscripten/cache/sysroot/include/c++/v1/vector:530:16
	local.get	11
	call	_ZNSt3__26vectorINS_6threadENS_9allocatorIS1_EEE7__clearB8ne190106Ev
	.loc	8 531 9 is_stmt 1               # emscripten/cache/sysroot/include/c++/v1/vector:531:9
	local.get	4
	i32.load	0
	local.set	12
	.loc	8 531 16 is_stmt 0              # emscripten/cache/sysroot/include/c++/v1/vector:531:16
	local.get	12
	call	_ZNKSt3__26vectorINS_6threadENS_9allocatorIS1_EEE17__annotate_deleteB8ne190106Ev
	.loc	8 532 36 is_stmt 1              # emscripten/cache/sysroot/include/c++/v1/vector:532:36
	local.get	4
	i32.load	0
	local.set	13
	.loc	8 532 43 is_stmt 0              # emscripten/cache/sysroot/include/c++/v1/vector:532:43
	local.get	13
	call	_ZNSt3__26vectorINS_6threadENS_9allocatorIS1_EEE7__allocB8ne190106Ev
	local.set	14
	.loc	8 532 54                        # emscripten/cache/sysroot/include/c++/v1/vector:532:54
	local.get	4
	i32.load	0
	local.set	15
	.loc	8 532 61                        # emscripten/cache/sysroot/include/c++/v1/vector:532:61
	local.get	15
	i32.load	0
	local.set	16
	.loc	8 532 71                        # emscripten/cache/sysroot/include/c++/v1/vector:532:71
	local.get	4
	i32.load	0
	local.set	17
	.loc	8 532 78                        # emscripten/cache/sysroot/include/c++/v1/vector:532:78
	local.get	17
	call	_ZNKSt3__26vectorINS_6threadENS_9allocatorIS1_EEE8capacityB8ne190106Ev
	local.set	18
	.loc	8 532 9                         # emscripten/cache/sysroot/include/c++/v1/vector:532:9
	local.get	14
	local.get	16
	local.get	18
	call	_ZNSt3__216allocator_traitsINS_9allocatorINS_6threadEEEE10deallocateB8ne190106ERS3_PS2_m
.Ltmp90:
.LBB29_2:                               # %if.end
	.loc	8 0 9                           # emscripten/cache/sysroot/include/c++/v1/vector:0:9
	end_block                               # label21:
	.loc	8 534 5 is_stmt 1               # emscripten/cache/sysroot/include/c++/v1/vector:534:5
	i32.const	16
	local.set	19
	local.get	3
	local.get	19
	i32.add 
	local.set	20
	local.get	20
	global.set	__stack_pointer
	return
	end_function
.Ltmp91:
.Lfunc_end29:
                                        # -- End function
	.section	.text._ZNSt3__26vectorINS_6threadENS_9allocatorIS1_EEE7__clearB8ne190106Ev,"G",@,_ZNSt3__26vectorINS_6threadENS_9allocatorIS1_EEE7__clearB8ne190106Ev,comdat
	.hidden	_ZNSt3__26vectorINS_6threadENS_9allocatorIS1_EEE7__clearB8ne190106Ev # -- Begin function _ZNSt3__26vectorINS_6threadENS_9allocatorIS1_EEE7__clearB8ne190106Ev
	.weak	_ZNSt3__26vectorINS_6threadENS_9allocatorIS1_EEE7__clearB8ne190106Ev
	.type	_ZNSt3__26vectorINS_6threadENS_9allocatorIS1_EEE7__clearB8ne190106Ev,@function
_ZNSt3__26vectorINS_6threadENS_9allocatorIS1_EEE7__clearB8ne190106Ev: # @_ZNSt3__26vectorINS_6threadENS_9allocatorIS1_EEE7__clearB8ne190106Ev
.Lfunc_begin30:
	.loc	8 978 0                         # emscripten/cache/sysroot/include/c++/v1/vector:978:0
	.functype	_ZNSt3__26vectorINS_6threadENS_9allocatorIS1_EEE7__clearB8ne190106Ev (i32) -> ()
	.local  	i32, i32, i32, i32, i32, i32, i32
# %bb.0:                                # %entry
	global.get	__stack_pointer
	local.set	1
	i32.const	16
	local.set	2
	local.get	1
	local.get	2
	i32.sub 
	local.set	3
	local.get	3
	global.set	__stack_pointer
	local.get	3
	local.get	0
	i32.store	12
	local.get	3
	i32.load	12
	local.set	4
.Ltmp92:
	.loc	8 979 34 prologue_end           # emscripten/cache/sysroot/include/c++/v1/vector:979:34
	local.get	4
	i32.load	0
	local.set	5
	.loc	8 979 5 is_stmt 0               # emscripten/cache/sysroot/include/c++/v1/vector:979:5
	local.get	4
	local.get	5
	call	_ZNSt3__26vectorINS_6threadENS_9allocatorIS1_EEE22__base_destruct_at_endB8ne190106EPS1_
	.loc	8 980 3 is_stmt 1               # emscripten/cache/sysroot/include/c++/v1/vector:980:3
	i32.const	16
	local.set	6
	local.get	3
	local.get	6
	i32.add 
	local.set	7
	local.get	7
	global.set	__stack_pointer
	return
	end_function
.Ltmp93:
.Lfunc_end30:
                                        # -- End function
	.section	.text._ZNKSt3__26vectorINS_6threadENS_9allocatorIS1_EEE17__annotate_deleteB8ne190106Ev,"G",@,_ZNKSt3__26vectorINS_6threadENS_9allocatorIS1_EEE17__annotate_deleteB8ne190106Ev,comdat
	.hidden	_ZNKSt3__26vectorINS_6threadENS_9allocatorIS1_EEE17__annotate_deleteB8ne190106Ev # -- Begin function _ZNKSt3__26vectorINS_6threadENS_9allocatorIS1_EEE17__annotate_deleteB8ne190106Ev
	.weak	_ZNKSt3__26vectorINS_6threadENS_9allocatorIS1_EEE17__annotate_deleteB8ne190106Ev
	.type	_ZNKSt3__26vectorINS_6threadENS_9allocatorIS1_EEE17__annotate_deleteB8ne190106Ev,@function
_ZNKSt3__26vectorINS_6threadENS_9allocatorIS1_EEE17__annotate_deleteB8ne190106Ev: # @_ZNKSt3__26vectorINS_6threadENS_9allocatorIS1_EEE17__annotate_deleteB8ne190106Ev
.Lfunc_begin31:
	.loc	8 913 0                         # emscripten/cache/sysroot/include/c++/v1/vector:913:0
	.functype	_ZNKSt3__26vectorINS_6threadENS_9allocatorIS1_EEE17__annotate_deleteB8ne190106Ev (i32) -> ()
	.local  	i32, i32, i32
# %bb.0:                                # %entry
	global.get	__stack_pointer
	local.set	1
	i32.const	16
	local.set	2
	local.get	1
	local.get	2
	i32.sub 
	local.set	3
	local.get	3
	local.get	0
	i32.store	12
.Ltmp94:
	.loc	8 917 3 prologue_end            # emscripten/cache/sysroot/include/c++/v1/vector:917:3
	return
	end_function
.Ltmp95:
.Lfunc_end31:
                                        # -- End function
	.section	.text._ZNSt3__216allocator_traitsINS_9allocatorINS_6threadEEEE10deallocateB8ne190106ERS3_PS2_m,"G",@,_ZNSt3__216allocator_traitsINS_9allocatorINS_6threadEEEE10deallocateB8ne190106ERS3_PS2_m,comdat
	.hidden	_ZNSt3__216allocator_traitsINS_9allocatorINS_6threadEEEE10deallocateB8ne190106ERS3_PS2_m # -- Begin function _ZNSt3__216allocator_traitsINS_9allocatorINS_6threadEEEE10deallocateB8ne190106ERS3_PS2_m
	.weak	_ZNSt3__216allocator_traitsINS_9allocatorINS_6threadEEEE10deallocateB8ne190106ERS3_PS2_m
	.type	_ZNSt3__216allocator_traitsINS_9allocatorINS_6threadEEEE10deallocateB8ne190106ERS3_PS2_m,@function
_ZNSt3__216allocator_traitsINS_9allocatorINS_6threadEEEE10deallocateB8ne190106ERS3_PS2_m: # @_ZNSt3__216allocator_traitsINS_9allocatorINS_6threadEEEE10deallocateB8ne190106ERS3_PS2_m
.Lfunc_begin32:
	.loc	16 311 0                        # emscripten/cache/sysroot/include/c++/v1/__memory/allocator_traits.h:311:0
	.functype	_ZNSt3__216allocator_traitsINS_9allocatorINS_6threadEEEE10deallocateB8ne190106ERS3_PS2_m (i32, i32, i32) -> ()
	.local  	i32, i32, i32, i32, i32, i32, i32, i32
# %bb.0:                                # %entry
	global.get	__stack_pointer
	local.set	3
	i32.const	16
	local.set	4
	local.get	3
	local.get	4
	i32.sub 
	local.set	5
	local.get	5
	global.set	__stack_pointer
	local.get	5
	local.get	0
	i32.store	12
	local.get	5
	local.get	1
	i32.store	8
	local.get	5
	local.get	2
	i32.store	4
.Ltmp96:
	.loc	16 312 5 prologue_end           # emscripten/cache/sysroot/include/c++/v1/__memory/allocator_traits.h:312:5
	local.get	5
	i32.load	12
	local.set	6
	.loc	16 312 20 is_stmt 0             # emscripten/cache/sysroot/include/c++/v1/__memory/allocator_traits.h:312:20
	local.get	5
	i32.load	8
	local.set	7
	.loc	16 312 25                       # emscripten/cache/sysroot/include/c++/v1/__memory/allocator_traits.h:312:25
	local.get	5
	i32.load	4
	local.set	8
	.loc	16 312 9                        # emscripten/cache/sysroot/include/c++/v1/__memory/allocator_traits.h:312:9
	local.get	6
	local.get	7
	local.get	8
	call	_ZNSt3__29allocatorINS_6threadEE10deallocateB8ne190106EPS1_m
	.loc	16 313 3 is_stmt 1              # emscripten/cache/sysroot/include/c++/v1/__memory/allocator_traits.h:313:3
	i32.const	16
	local.set	9
	local.get	5
	local.get	9
	i32.add 
	local.set	10
	local.get	10
	global.set	__stack_pointer
	return
	end_function
.Ltmp97:
.Lfunc_end32:
                                        # -- End function
	.section	.text._ZNSt3__26vectorINS_6threadENS_9allocatorIS1_EEE7__allocB8ne190106Ev,"G",@,_ZNSt3__26vectorINS_6threadENS_9allocatorIS1_EEE7__allocB8ne190106Ev,comdat
	.hidden	_ZNSt3__26vectorINS_6threadENS_9allocatorIS1_EEE7__allocB8ne190106Ev # -- Begin function _ZNSt3__26vectorINS_6threadENS_9allocatorIS1_EEE7__allocB8ne190106Ev
	.weak	_ZNSt3__26vectorINS_6threadENS_9allocatorIS1_EEE7__allocB8ne190106Ev
	.type	_ZNSt3__26vectorINS_6threadENS_9allocatorIS1_EEE7__allocB8ne190106Ev,@function
_ZNSt3__26vectorINS_6threadENS_9allocatorIS1_EEE7__allocB8ne190106Ev: # @_ZNSt3__26vectorINS_6threadENS_9allocatorIS1_EEE7__allocB8ne190106Ev
.Lfunc_begin33:
	.loc	8 965 0                         # emscripten/cache/sysroot/include/c++/v1/vector:965:0
	.functype	_ZNSt3__26vectorINS_6threadENS_9allocatorIS1_EEE7__allocB8ne190106Ev (i32) -> (i32)
	.local  	i32, i32, i32, i32, i32, i32, i32, i32, i32
# %bb.0:                                # %entry
	global.get	__stack_pointer
	local.set	1
	i32.const	16
	local.set	2
	local.get	1
	local.get	2
	i32.sub 
	local.set	3
	local.get	3
	global.set	__stack_pointer
	local.get	3
	local.get	0
	i32.store	12
	local.get	3
	i32.load	12
	local.set	4
.Ltmp98:
	.loc	8 966 18 prologue_end           # emscripten/cache/sysroot/include/c++/v1/vector:966:18
	i32.const	8
	local.set	5
	local.get	4
	local.get	5
	i32.add 
	local.set	6
	.loc	8 966 29 is_stmt 0              # emscripten/cache/sysroot/include/c++/v1/vector:966:29
	local.get	6
	call	_ZNSt3__217__compressed_pairIPNS_6threadENS_9allocatorIS1_EEE6secondB8ne190106Ev
	local.set	7
	.loc	8 966 5                         # emscripten/cache/sysroot/include/c++/v1/vector:966:5
	i32.const	16
	local.set	8
	local.get	3
	local.get	8
	i32.add 
	local.set	9
	local.get	9
	global.set	__stack_pointer
	local.get	7
	return
	end_function
.Ltmp99:
.Lfunc_end33:
                                        # -- End function
	.section	.text._ZNKSt3__26vectorINS_6threadENS_9allocatorIS1_EEE8capacityB8ne190106Ev,"G",@,_ZNKSt3__26vectorINS_6threadENS_9allocatorIS1_EEE8capacityB8ne190106Ev,comdat
	.hidden	_ZNKSt3__26vectorINS_6threadENS_9allocatorIS1_EEE8capacityB8ne190106Ev # -- Begin function _ZNKSt3__26vectorINS_6threadENS_9allocatorIS1_EEE8capacityB8ne190106Ev
	.weak	_ZNKSt3__26vectorINS_6threadENS_9allocatorIS1_EEE8capacityB8ne190106Ev
	.type	_ZNKSt3__26vectorINS_6threadENS_9allocatorIS1_EEE8capacityB8ne190106Ev,@function
_ZNKSt3__26vectorINS_6threadENS_9allocatorIS1_EEE8capacityB8ne190106Ev: # @_ZNKSt3__26vectorINS_6threadENS_9allocatorIS1_EEE8capacityB8ne190106Ev
.Lfunc_begin34:
	.loc	8 637 0 is_stmt 1               # emscripten/cache/sysroot/include/c++/v1/vector:637:0
	.functype	_ZNKSt3__26vectorINS_6threadENS_9allocatorIS1_EEE8capacityB8ne190106Ev (i32) -> (i32)
	.local  	i32, i32, i32, i32, i32, i32, i32, i32, i32, i32, i32, i32
# %bb.0:                                # %entry
	global.get	__stack_pointer
	local.set	1
	i32.const	16
	local.set	2
	local.get	1
	local.get	2
	i32.sub 
	local.set	3
	local.get	3
	global.set	__stack_pointer
	local.get	3
	local.get	0
	i32.store	12
	local.get	3
	i32.load	12
	local.set	4
.Ltmp100:
	.loc	8 638 35 prologue_end           # emscripten/cache/sysroot/include/c++/v1/vector:638:35
	local.get	4
	call	_ZNKSt3__26vectorINS_6threadENS_9allocatorIS1_EEE9__end_capB8ne190106Ev
	local.set	5
	local.get	5
	i32.load	0
	local.set	6
	.loc	8 638 55 is_stmt 0              # emscripten/cache/sysroot/include/c++/v1/vector:638:55
	local.get	4
	i32.load	0
	local.set	7
	.loc	8 638 47                        # emscripten/cache/sysroot/include/c++/v1/vector:638:47
	local.get	6
	local.get	7
	i32.sub 
	local.set	8
	i32.const	2
	local.set	9
	local.get	8
	local.get	9
	i32.shr_s
	local.set	10
	.loc	8 638 5                         # emscripten/cache/sysroot/include/c++/v1/vector:638:5
	i32.const	16
	local.set	11
	local.get	3
	local.get	11
	i32.add 
	local.set	12
	local.get	12
	global.set	__stack_pointer
	local.get	10
	return
	end_function
.Ltmp101:
.Lfunc_end34:
                                        # -- End function
	.section	.text._ZNSt3__26vectorINS_6threadENS_9allocatorIS1_EEE22__base_destruct_at_endB8ne190106EPS1_,"G",@,_ZNSt3__26vectorINS_6threadENS_9allocatorIS1_EEE22__base_destruct_at_endB8ne190106EPS1_,comdat
	.hidden	_ZNSt3__26vectorINS_6threadENS_9allocatorIS1_EEE22__base_destruct_at_endB8ne190106EPS1_ # -- Begin function _ZNSt3__26vectorINS_6threadENS_9allocatorIS1_EEE22__base_destruct_at_endB8ne190106EPS1_
	.weak	_ZNSt3__26vectorINS_6threadENS_9allocatorIS1_EEE22__base_destruct_at_endB8ne190106EPS1_
	.type	_ZNSt3__26vectorINS_6threadENS_9allocatorIS1_EEE22__base_destruct_at_endB8ne190106EPS1_,@function
_ZNSt3__26vectorINS_6threadENS_9allocatorIS1_EEE22__base_destruct_at_endB8ne190106EPS1_: # @_ZNSt3__26vectorINS_6threadENS_9allocatorIS1_EEE22__base_destruct_at_endB8ne190106EPS1_
.Lfunc_begin35:
	.loc	8 982 0 is_stmt 1               # emscripten/cache/sysroot/include/c++/v1/vector:982:0
	.functype	_ZNSt3__26vectorINS_6threadENS_9allocatorIS1_EEE22__base_destruct_at_endB8ne190106EPS1_ (i32, i32) -> ()
	.local  	i32, i32, i32, i32, i32, i32, i32, i32, i32, i32, i32, i32, i32, i32, i32, i32, i32, i32
# %bb.0:                                # %entry
	global.get	__stack_pointer
	local.set	2
	i32.const	16
	local.set	3
	local.get	2
	local.get	3
	i32.sub 
	local.set	4
	local.get	4
	global.set	__stack_pointer
	local.get	4
	local.get	0
	i32.store	12
	local.get	4
	local.get	1
	i32.store	8
	local.get	4
	i32.load	12
	local.set	5
.Ltmp102:
	.loc	8 983 38 prologue_end           # emscripten/cache/sysroot/include/c++/v1/vector:983:38
	local.get	5
	i32.load	4
	local.set	6
	.loc	8 983 13 is_stmt 0              # emscripten/cache/sysroot/include/c++/v1/vector:983:13
	local.get	4
	local.get	6
	i32.store	4
.LBB35_1:                               # %while.cond
                                        # =>This Inner Loop Header: Depth=1
	.loc	8 984 12 is_stmt 1              # emscripten/cache/sysroot/include/c++/v1/vector:984:12
	block   	
	loop    	                                # label23:
	local.get	4
	i32.load	8
	local.set	7
	.loc	8 984 26 is_stmt 0              # emscripten/cache/sysroot/include/c++/v1/vector:984:26
	local.get	4
	i32.load	4
	local.set	8
	.loc	8 984 23                        # emscripten/cache/sysroot/include/c++/v1/vector:984:23
	local.get	7
	local.get	8
	i32.ne  
	local.set	9
	.loc	8 984 5                         # emscripten/cache/sysroot/include/c++/v1/vector:984:5
	i32.const	1
	local.set	10
	local.get	9
	local.get	10
	i32.and 
	local.set	11
	local.get	11
	i32.eqz
	br_if   	1                               # 1: down to label22
# %bb.2:                                # %while.body
                                        #   in Loop: Header=BB35_1 Depth=1
	.loc	8 985 31 is_stmt 1              # emscripten/cache/sysroot/include/c++/v1/vector:985:31
	local.get	5
	call	_ZNSt3__26vectorINS_6threadENS_9allocatorIS1_EEE7__allocB8ne190106Ev
	local.set	12
	.loc	8 985 60 is_stmt 0              # emscripten/cache/sysroot/include/c++/v1/vector:985:60
	local.get	4
	i32.load	4
	local.set	13
	i32.const	-4
	local.set	14
	local.get	13
	local.get	14
	i32.add 
	local.set	15
	local.get	4
	local.get	15
	i32.store	4
	.loc	8 985 42                        # emscripten/cache/sysroot/include/c++/v1/vector:985:42
	local.get	15
	call	_ZNSt3__212__to_addressB8ne190106INS_6threadEEEPT_S3_
	local.set	16
	.loc	8 985 7                         # emscripten/cache/sysroot/include/c++/v1/vector:985:7
	local.get	12
	local.get	16
	call	_ZNSt3__216allocator_traitsINS_9allocatorINS_6threadEEEE7destroyB8ne190106IS2_TnNS_9enable_ifIXsr13__has_destroyIS3_PT_EE5valueEiE4typeELi0EEEvRS3_S8_
	.loc	8 984 5 is_stmt 1               # emscripten/cache/sysroot/include/c++/v1/vector:984:5
	br      	0                               # 0: up to label23
.LBB35_3:                               # %while.end
	end_loop
	end_block                               # label22:
	.loc	8 986 20                        # emscripten/cache/sysroot/include/c++/v1/vector:986:20
	local.get	4
	i32.load	8
	local.set	17
	.loc	8 986 18 is_stmt 0              # emscripten/cache/sysroot/include/c++/v1/vector:986:18
	local.get	5
	local.get	17
	i32.store	4
	.loc	8 987 3 is_stmt 1               # emscripten/cache/sysroot/include/c++/v1/vector:987:3
	i32.const	16
	local.set	18
	local.get	4
	local.get	18
	i32.add 
	local.set	19
	local.get	19
	global.set	__stack_pointer
	return
	end_function
.Ltmp103:
.Lfunc_end35:
                                        # -- End function
	.section	.text._ZNSt3__216allocator_traitsINS_9allocatorINS_6threadEEEE7destroyB8ne190106IS2_TnNS_9enable_ifIXsr13__has_destroyIS3_PT_EE5valueEiE4typeELi0EEEvRS3_S8_,"G",@,_ZNSt3__216allocator_traitsINS_9allocatorINS_6threadEEEE7destroyB8ne190106IS2_TnNS_9enable_ifIXsr13__has_destroyIS3_PT_EE5valueEiE4typeELi0EEEvRS3_S8_,comdat
	.hidden	_ZNSt3__216allocator_traitsINS_9allocatorINS_6threadEEEE7destroyB8ne190106IS2_TnNS_9enable_ifIXsr13__has_destroyIS3_PT_EE5valueEiE4typeELi0EEEvRS3_S8_ # -- Begin function _ZNSt3__216allocator_traitsINS_9allocatorINS_6threadEEEE7destroyB8ne190106IS2_TnNS_9enable_ifIXsr13__has_destroyIS3_PT_EE5valueEiE4typeELi0EEEvRS3_S8_
	.weak	_ZNSt3__216allocator_traitsINS_9allocatorINS_6threadEEEE7destroyB8ne190106IS2_TnNS_9enable_ifIXsr13__has_destroyIS3_PT_EE5valueEiE4typeELi0EEEvRS3_S8_
	.type	_ZNSt3__216allocator_traitsINS_9allocatorINS_6threadEEEE7destroyB8ne190106IS2_TnNS_9enable_ifIXsr13__has_destroyIS3_PT_EE5valueEiE4typeELi0EEEvRS3_S8_,@function
_ZNSt3__216allocator_traitsINS_9allocatorINS_6threadEEEE7destroyB8ne190106IS2_TnNS_9enable_ifIXsr13__has_destroyIS3_PT_EE5valueEiE4typeELi0EEEvRS3_S8_: # @_ZNSt3__216allocator_traitsINS_9allocatorINS_6threadEEEE7destroyB8ne190106IS2_TnNS_9enable_ifIXsr13__has_destroyIS3_PT_EE5valueEiE4typeELi0EEEvRS3_S8_
.Lfunc_begin36:
	.loc	16 332 0                        # emscripten/cache/sysroot/include/c++/v1/__memory/allocator_traits.h:332:0
	.functype	_ZNSt3__216allocator_traitsINS_9allocatorINS_6threadEEEE7destroyB8ne190106IS2_TnNS_9enable_ifIXsr13__has_destroyIS3_PT_EE5valueEiE4typeELi0EEEvRS3_S8_ (i32, i32) -> ()
	.local  	i32, i32, i32, i32, i32, i32, i32
# %bb.0:                                # %entry
	global.get	__stack_pointer
	local.set	2
	i32.const	16
	local.set	3
	local.get	2
	local.get	3
	i32.sub 
	local.set	4
	local.get	4
	global.set	__stack_pointer
	local.get	4
	local.get	0
	i32.store	12
	local.get	4
	local.get	1
	i32.store	8
.Ltmp104:
	.loc	16 334 5 prologue_end           # emscripten/cache/sysroot/include/c++/v1/__memory/allocator_traits.h:334:5
	local.get	4
	i32.load	12
	local.set	5
	.loc	16 334 17 is_stmt 0             # emscripten/cache/sysroot/include/c++/v1/__memory/allocator_traits.h:334:17
	local.get	4
	i32.load	8
	local.set	6
	.loc	16 334 9                        # emscripten/cache/sysroot/include/c++/v1/__memory/allocator_traits.h:334:9
	local.get	5
	local.get	6
	call	_ZNSt3__29allocatorINS_6threadEE7destroyB8ne190106EPS1_
	.loc	16 336 3 is_stmt 1              # emscripten/cache/sysroot/include/c++/v1/__memory/allocator_traits.h:336:3
	i32.const	16
	local.set	7
	local.get	4
	local.get	7
	i32.add 
	local.set	8
	local.get	8
	global.set	__stack_pointer
	return
	end_function
.Ltmp105:
.Lfunc_end36:
                                        # -- End function
	.section	.text._ZNSt3__212__to_addressB8ne190106INS_6threadEEEPT_S3_,"G",@,_ZNSt3__212__to_addressB8ne190106INS_6threadEEEPT_S3_,comdat
	.hidden	_ZNSt3__212__to_addressB8ne190106INS_6threadEEEPT_S3_ # -- Begin function _ZNSt3__212__to_addressB8ne190106INS_6threadEEEPT_S3_
	.weak	_ZNSt3__212__to_addressB8ne190106INS_6threadEEEPT_S3_
	.type	_ZNSt3__212__to_addressB8ne190106INS_6threadEEEPT_S3_,@function
_ZNSt3__212__to_addressB8ne190106INS_6threadEEEPT_S3_: # @_ZNSt3__212__to_addressB8ne190106INS_6threadEEEPT_S3_
.Lfunc_begin37:
	.file	38 "/home/kay/Documents/Code/toolchain-wasm" "emscripten/cache/sysroot/include/c++/v1/__memory/pointer_traits.h"
	.loc	38 189 0                        # emscripten/cache/sysroot/include/c++/v1/__memory/pointer_traits.h:189:0
	.functype	_ZNSt3__212__to_addressB8ne190106INS_6threadEEEPT_S3_ (i32) -> (i32)
	.local  	i32, i32, i32, i32
# %bb.0:                                # %entry
	global.get	__stack_pointer
	local.set	1
	i32.const	16
	local.set	2
	local.get	1
	local.get	2
	i32.sub 
	local.set	3
	local.get	3
	local.get	0
	i32.store	12
.Ltmp106:
	.loc	38 191 10 prologue_end          # emscripten/cache/sysroot/include/c++/v1/__memory/pointer_traits.h:191:10
	local.get	3
	i32.load	12
	local.set	4
	.loc	38 191 3 is_stmt 0              # emscripten/cache/sysroot/include/c++/v1/__memory/pointer_traits.h:191:3
	local.get	4
	return
	end_function
.Ltmp107:
.Lfunc_end37:
                                        # -- End function
	.section	.text._ZNSt3__29allocatorINS_6threadEE7destroyB8ne190106EPS1_,"G",@,_ZNSt3__29allocatorINS_6threadEE7destroyB8ne190106EPS1_,comdat
	.hidden	_ZNSt3__29allocatorINS_6threadEE7destroyB8ne190106EPS1_ # -- Begin function _ZNSt3__29allocatorINS_6threadEE7destroyB8ne190106EPS1_
	.weak	_ZNSt3__29allocatorINS_6threadEE7destroyB8ne190106EPS1_
	.type	_ZNSt3__29allocatorINS_6threadEE7destroyB8ne190106EPS1_,@function
_ZNSt3__29allocatorINS_6threadEE7destroyB8ne190106EPS1_: # @_ZNSt3__29allocatorINS_6threadEE7destroyB8ne190106EPS1_
.Lfunc_begin38:
	.loc	15 168 0 is_stmt 1              # emscripten/cache/sysroot/include/c++/v1/__memory/allocator.h:168:0
	.functype	_ZNSt3__29allocatorINS_6threadEE7destroyB8ne190106EPS1_ (i32, i32) -> ()
	.local  	i32, i32, i32, i32, i32, i32
# %bb.0:                                # %entry
	global.get	__stack_pointer
	local.set	2
	i32.const	16
	local.set	3
	local.get	2
	local.get	3
	i32.sub 
	local.set	4
	local.get	4
	global.set	__stack_pointer
	local.get	4
	local.get	0
	i32.store	12
	local.get	4
	local.get	1
	i32.store	8
.Ltmp108:
	.loc	15 168 81 prologue_end          # emscripten/cache/sysroot/include/c++/v1/__memory/allocator.h:168:81
	local.get	4
	i32.load	8
	local.set	5
	.loc	15 168 87 is_stmt 0             # emscripten/cache/sysroot/include/c++/v1/__memory/allocator.h:168:87
	local.get	5
	call	_ZNSt3__26threadD1Ev
	drop
	.loc	15 168 94                       # emscripten/cache/sysroot/include/c++/v1/__memory/allocator.h:168:94
	i32.const	16
	local.set	6
	local.get	4
	local.get	6
	i32.add 
	local.set	7
	local.get	7
	global.set	__stack_pointer
	return
	end_function
.Ltmp109:
.Lfunc_end38:
                                        # -- End function
	.section	.text._ZNSt3__29allocatorINS_6threadEE10deallocateB8ne190106EPS1_m,"G",@,_ZNSt3__29allocatorINS_6threadEE10deallocateB8ne190106EPS1_m,comdat
	.hidden	_ZNSt3__29allocatorINS_6threadEE10deallocateB8ne190106EPS1_m # -- Begin function _ZNSt3__29allocatorINS_6threadEE10deallocateB8ne190106EPS1_m
	.weak	_ZNSt3__29allocatorINS_6threadEE10deallocateB8ne190106EPS1_m
	.type	_ZNSt3__29allocatorINS_6threadEE10deallocateB8ne190106EPS1_m,@function
_ZNSt3__29allocatorINS_6threadEE10deallocateB8ne190106EPS1_m: # @_ZNSt3__29allocatorINS_6threadEE10deallocateB8ne190106EPS1_m
.Lfunc_begin39:
	.loc	15 128 0 is_stmt 1              # emscripten/cache/sysroot/include/c++/v1/__memory/allocator.h:128:0
	.functype	_ZNSt3__29allocatorINS_6threadEE10deallocateB8ne190106EPS1_m (i32, i32, i32) -> ()
	.local  	i32, i32, i32, i32, i32, i32, i32, i32, i32, i32
# %bb.0:                                # %entry
	global.get	__stack_pointer
	local.set	3
	i32.const	16
	local.set	4
	local.get	3
	local.get	4
	i32.sub 
	local.set	5
	local.get	5
	global.set	__stack_pointer
	local.get	5
	local.get	0
	i32.store	12
	local.get	5
	local.get	1
	i32.store	8
	local.get	5
	local.get	2
	i32.store	4
.Ltmp110:
	.loc	15 132 39 prologue_end          # emscripten/cache/sysroot/include/c++/v1/__memory/allocator.h:132:39
	local.get	5
	i32.load	8
	local.set	6
	.loc	15 132 44 is_stmt 0             # emscripten/cache/sysroot/include/c++/v1/__memory/allocator.h:132:44
	local.get	5
	i32.load	4
	local.set	7
	.loc	15 132 48                       # emscripten/cache/sysroot/include/c++/v1/__memory/allocator.h:132:48
	i32.const	2
	local.set	8
	local.get	7
	local.get	8
	i32.shl 
	local.set	9
	.loc	15 132 7                        # emscripten/cache/sysroot/include/c++/v1/__memory/allocator.h:132:7
	i32.const	4
	local.set	10
	local.get	6
	local.get	9
	local.get	10
	call	_ZNSt3__219__libcpp_deallocateB8ne190106EPvmm
.Ltmp111:
	.loc	15 134 3 is_stmt 1              # emscripten/cache/sysroot/include/c++/v1/__memory/allocator.h:134:3
	i32.const	16
	local.set	11
	local.get	5
	local.get	11
	i32.add 
	local.set	12
	local.get	12
	global.set	__stack_pointer
	return
	end_function
.Ltmp112:
.Lfunc_end39:
                                        # -- End function
	.section	.text._ZNSt3__219__libcpp_deallocateB8ne190106EPvmm,"G",@,_ZNSt3__219__libcpp_deallocateB8ne190106EPvmm,comdat
	.hidden	_ZNSt3__219__libcpp_deallocateB8ne190106EPvmm # -- Begin function _ZNSt3__219__libcpp_deallocateB8ne190106EPvmm
	.weak	_ZNSt3__219__libcpp_deallocateB8ne190106EPvmm
	.type	_ZNSt3__219__libcpp_deallocateB8ne190106EPvmm,@function
_ZNSt3__219__libcpp_deallocateB8ne190106EPvmm: # @_ZNSt3__219__libcpp_deallocateB8ne190106EPvmm
.Lfunc_begin40:
	.loc	9 302 0                         # emscripten/cache/sysroot/include/c++/v1/new:302:0
	.functype	_ZNSt3__219__libcpp_deallocateB8ne190106EPvmm (i32, i32, i32) -> ()
	.local  	i32, i32, i32, i32, i32, i32, i32, i32, i32, i32, i32, i32, i32, i32, i32
# %bb.0:                                # %entry
	global.get	__stack_pointer
	local.set	3
	i32.const	16
	local.set	4
	local.get	3
	local.get	4
	i32.sub 
	local.set	5
	local.get	5
	global.set	__stack_pointer
	local.get	5
	local.get	0
	i32.store	12
	local.get	5
	local.get	1
	i32.store	8
	local.get	5
	local.get	2
	i32.store	4
.Ltmp113:
	.loc	9 307 32 prologue_end           # emscripten/cache/sysroot/include/c++/v1/new:307:32
	local.get	5
	i32.load	4
	local.set	6
	.loc	9 307 7 is_stmt 0               # emscripten/cache/sysroot/include/c++/v1/new:307:7
	local.get	6
	call	_ZNSt3__224__is_overaligned_for_newB8ne190106Em
	local.set	7
	i32.const	1
	local.set	8
	local.get	7
	local.get	8
	i32.and 
	local.set	9
	block   	
	block   	
	local.get	9
	i32.eqz
	br_if   	0                               # 0: down to label25
# %bb.1:                                # %if.then
.Ltmp114:
	.loc	9 308 62 is_stmt 1              # emscripten/cache/sysroot/include/c++/v1/new:308:62
	local.get	5
	i32.load	4
	local.set	10
	.loc	9 308 23 is_stmt 0              # emscripten/cache/sysroot/include/c++/v1/new:308:23
	local.get	5
	local.get	10
	i32.store	0
	.loc	9 309 40 is_stmt 1              # emscripten/cache/sysroot/include/c++/v1/new:309:40
	local.get	5
	i32.load	12
	local.set	11
	.loc	9 309 47 is_stmt 0              # emscripten/cache/sysroot/include/c++/v1/new:309:47
	local.get	5
	i32.load	8
	local.set	12
	.loc	9 309 55                        # emscripten/cache/sysroot/include/c++/v1/new:309:55
	local.get	5
	i32.load	0
	local.set	13
	.loc	9 309 12                        # emscripten/cache/sysroot/include/c++/v1/new:309:12
	local.get	11
	local.get	12
	local.get	13
	call	_ZNSt3__227__do_deallocate_handle_sizeB8ne190106IJSt11align_val_tEEEvPvmDpT_
	.loc	9 309 5                         # emscripten/cache/sysroot/include/c++/v1/new:309:5
	br      	1                               # 1: down to label24
.Ltmp115:
.LBB40_2:                               # %if.else
	.loc	9 0 5                           # emscripten/cache/sysroot/include/c++/v1/new:0:5
	end_block                               # label25:
.Ltmp116:
	.loc	9 311 40 is_stmt 1              # emscripten/cache/sysroot/include/c++/v1/new:311:40
	local.get	5
	i32.load	12
	local.set	14
	.loc	9 311 47 is_stmt 0              # emscripten/cache/sysroot/include/c++/v1/new:311:47
	local.get	5
	i32.load	8
	local.set	15
	.loc	9 311 12                        # emscripten/cache/sysroot/include/c++/v1/new:311:12
	local.get	14
	local.get	15
	call	_ZNSt3__227__do_deallocate_handle_sizeB8ne190106IJEEEvPvmDpT_
.Ltmp117:
.LBB40_3:                               # %return
	.loc	9 0 12                          # emscripten/cache/sysroot/include/c++/v1/new:0:12
	end_block                               # label24:
	.loc	9 314 1 is_stmt 1               # emscripten/cache/sysroot/include/c++/v1/new:314:1
	i32.const	16
	local.set	16
	local.get	5
	local.get	16
	i32.add 
	local.set	17
	local.get	17
	global.set	__stack_pointer
	return
	end_function
.Ltmp118:
.Lfunc_end40:
                                        # -- End function
	.section	.text._ZNSt3__224__is_overaligned_for_newB8ne190106Em,"G",@,_ZNSt3__224__is_overaligned_for_newB8ne190106Em,comdat
	.hidden	_ZNSt3__224__is_overaligned_for_newB8ne190106Em # -- Begin function _ZNSt3__224__is_overaligned_for_newB8ne190106Em
	.weak	_ZNSt3__224__is_overaligned_for_newB8ne190106Em
	.type	_ZNSt3__224__is_overaligned_for_newB8ne190106Em,@function
_ZNSt3__224__is_overaligned_for_newB8ne190106Em: # @_ZNSt3__224__is_overaligned_for_newB8ne190106Em
.Lfunc_begin41:
	.loc	9 254 0                         # emscripten/cache/sysroot/include/c++/v1/new:254:0
	.functype	_ZNSt3__224__is_overaligned_for_newB8ne190106Em (i32) -> (i32)
	.local  	i32, i32, i32, i32, i32, i32, i32, i32
# %bb.0:                                # %entry
	global.get	__stack_pointer
	local.set	1
	i32.const	16
	local.set	2
	local.get	1
	local.get	2
	i32.sub 
	local.set	3
	local.get	3
	local.get	0
	i32.store	12
.Ltmp119:
	.loc	9 256 10 prologue_end           # emscripten/cache/sysroot/include/c++/v1/new:256:10
	local.get	3
	i32.load	12
	local.set	4
	.loc	9 256 18 is_stmt 0              # emscripten/cache/sysroot/include/c++/v1/new:256:18
	i32.const	8
	local.set	5
	local.get	4
	local.get	5
	i32.gt_u
	local.set	6
	.loc	9 256 3                         # emscripten/cache/sysroot/include/c++/v1/new:256:3
	i32.const	1
	local.set	7
	local.get	6
	local.get	7
	i32.and 
	local.set	8
	local.get	8
	return
	end_function
.Ltmp120:
.Lfunc_end41:
                                        # -- End function
	.section	.text._ZNSt3__227__do_deallocate_handle_sizeB8ne190106IJSt11align_val_tEEEvPvmDpT_,"G",@,_ZNSt3__227__do_deallocate_handle_sizeB8ne190106IJSt11align_val_tEEEvPvmDpT_,comdat
	.hidden	_ZNSt3__227__do_deallocate_handle_sizeB8ne190106IJSt11align_val_tEEEvPvmDpT_ # -- Begin function _ZNSt3__227__do_deallocate_handle_sizeB8ne190106IJSt11align_val_tEEEvPvmDpT_
	.weak	_ZNSt3__227__do_deallocate_handle_sizeB8ne190106IJSt11align_val_tEEEvPvmDpT_
	.type	_ZNSt3__227__do_deallocate_handle_sizeB8ne190106IJSt11align_val_tEEEvPvmDpT_,@function
_ZNSt3__227__do_deallocate_handle_sizeB8ne190106IJSt11align_val_tEEEvPvmDpT_: # @_ZNSt3__227__do_deallocate_handle_sizeB8ne190106IJSt11align_val_tEEEvPvmDpT_
.Lfunc_begin42:
	.loc	9 293 0 is_stmt 1               # emscripten/cache/sysroot/include/c++/v1/new:293:0
	.functype	_ZNSt3__227__do_deallocate_handle_sizeB8ne190106IJSt11align_val_tEEEvPvmDpT_ (i32, i32, i32) -> ()
	.local  	i32, i32, i32, i32, i32, i32, i32, i32
# %bb.0:                                # %entry
	global.get	__stack_pointer
	local.set	3
	i32.const	16
	local.set	4
	local.get	3
	local.get	4
	i32.sub 
	local.set	5
	local.get	5
	global.set	__stack_pointer
	local.get	5
	local.get	0
	i32.store	12
	local.get	5
	local.get	1
	i32.store	8
	local.get	5
	local.get	2
	i32.store	4
.Ltmp121:
	.loc	9 298 40 prologue_end           # emscripten/cache/sysroot/include/c++/v1/new:298:40
	local.get	5
	i32.load	12
	local.set	6
	.loc	9 298 47 is_stmt 0              # emscripten/cache/sysroot/include/c++/v1/new:298:47
	local.get	5
	i32.load	8
	local.set	7
	.loc	9 298 55                        # emscripten/cache/sysroot/include/c++/v1/new:298:55
	local.get	5
	i32.load	4
	local.set	8
	.loc	9 298 10                        # emscripten/cache/sysroot/include/c++/v1/new:298:10
	local.get	6
	local.get	7
	local.get	8
	call	_ZNSt3__224__libcpp_operator_deleteB8ne190106IJPvmSt11align_val_tEEEvDpT_
	.loc	9 298 3                         # emscripten/cache/sysroot/include/c++/v1/new:298:3
	i32.const	16
	local.set	9
	local.get	5
	local.get	9
	i32.add 
	local.set	10
	local.get	10
	global.set	__stack_pointer
	return
	end_function
.Ltmp122:
.Lfunc_end42:
                                        # -- End function
	.section	.text._ZNSt3__227__do_deallocate_handle_sizeB8ne190106IJEEEvPvmDpT_,"G",@,_ZNSt3__227__do_deallocate_handle_sizeB8ne190106IJEEEvPvmDpT_,comdat
	.hidden	_ZNSt3__227__do_deallocate_handle_sizeB8ne190106IJEEEvPvmDpT_ # -- Begin function _ZNSt3__227__do_deallocate_handle_sizeB8ne190106IJEEEvPvmDpT_
	.weak	_ZNSt3__227__do_deallocate_handle_sizeB8ne190106IJEEEvPvmDpT_
	.type	_ZNSt3__227__do_deallocate_handle_sizeB8ne190106IJEEEvPvmDpT_,@function
_ZNSt3__227__do_deallocate_handle_sizeB8ne190106IJEEEvPvmDpT_: # @_ZNSt3__227__do_deallocate_handle_sizeB8ne190106IJEEEvPvmDpT_
.Lfunc_begin43:
	.loc	9 293 0 is_stmt 1               # emscripten/cache/sysroot/include/c++/v1/new:293:0
	.functype	_ZNSt3__227__do_deallocate_handle_sizeB8ne190106IJEEEvPvmDpT_ (i32, i32) -> ()
	.local  	i32, i32, i32, i32, i32, i32, i32
# %bb.0:                                # %entry
	global.get	__stack_pointer
	local.set	2
	i32.const	16
	local.set	3
	local.get	2
	local.get	3
	i32.sub 
	local.set	4
	local.get	4
	global.set	__stack_pointer
	local.get	4
	local.get	0
	i32.store	12
	local.get	4
	local.get	1
	i32.store	8
.Ltmp123:
	.loc	9 298 40 prologue_end           # emscripten/cache/sysroot/include/c++/v1/new:298:40
	local.get	4
	i32.load	12
	local.set	5
	.loc	9 298 47 is_stmt 0              # emscripten/cache/sysroot/include/c++/v1/new:298:47
	local.get	4
	i32.load	8
	local.set	6
	.loc	9 298 10                        # emscripten/cache/sysroot/include/c++/v1/new:298:10
	local.get	5
	local.get	6
	call	_ZNSt3__224__libcpp_operator_deleteB8ne190106IJPvmEEEvDpT_
	.loc	9 298 3                         # emscripten/cache/sysroot/include/c++/v1/new:298:3
	i32.const	16
	local.set	7
	local.get	4
	local.get	7
	i32.add 
	local.set	8
	local.get	8
	global.set	__stack_pointer
	return
	end_function
.Ltmp124:
.Lfunc_end43:
                                        # -- End function
	.section	.text._ZNSt3__224__libcpp_operator_deleteB8ne190106IJPvmSt11align_val_tEEEvDpT_,"G",@,_ZNSt3__224__libcpp_operator_deleteB8ne190106IJPvmSt11align_val_tEEEvDpT_,comdat
	.hidden	_ZNSt3__224__libcpp_operator_deleteB8ne190106IJPvmSt11align_val_tEEEvDpT_ # -- Begin function _ZNSt3__224__libcpp_operator_deleteB8ne190106IJPvmSt11align_val_tEEEvDpT_
	.weak	_ZNSt3__224__libcpp_operator_deleteB8ne190106IJPvmSt11align_val_tEEEvDpT_
	.type	_ZNSt3__224__libcpp_operator_deleteB8ne190106IJPvmSt11align_val_tEEEvDpT_,@function
_ZNSt3__224__libcpp_operator_deleteB8ne190106IJPvmSt11align_val_tEEEvDpT_: # @_ZNSt3__224__libcpp_operator_deleteB8ne190106IJPvmSt11align_val_tEEEvDpT_
.Lfunc_begin44:
	.loc	9 272 0 is_stmt 1               # emscripten/cache/sysroot/include/c++/v1/new:272:0
	.functype	_ZNSt3__224__libcpp_operator_deleteB8ne190106IJPvmSt11align_val_tEEEvDpT_ (i32, i32, i32) -> ()
	.local  	i32, i32, i32, i32, i32, i32, i32, i32
# %bb.0:                                # %entry
	global.get	__stack_pointer
	local.set	3
	i32.const	16
	local.set	4
	local.get	3
	local.get	4
	i32.sub 
	local.set	5
	local.get	5
	global.set	__stack_pointer
	local.get	5
	local.get	0
	i32.store	12
	local.get	5
	local.get	1
	i32.store	8
	local.get	5
	local.get	2
	i32.store	4
.Ltmp125:
	.loc	9 274 29 prologue_end           # emscripten/cache/sysroot/include/c++/v1/new:274:29
	local.get	5
	i32.load	12
	local.set	6
	local.get	5
	i32.load	8
	local.set	7
	local.get	5
	i32.load	4
	local.set	8
	.loc	9 274 3 is_stmt 0               # emscripten/cache/sysroot/include/c++/v1/new:274:3
	local.get	6
	local.get	7
	local.get	8
	call	_ZdlPvmSt11align_val_t
	.loc	9 278 1 is_stmt 1               # emscripten/cache/sysroot/include/c++/v1/new:278:1
	i32.const	16
	local.set	9
	local.get	5
	local.get	9
	i32.add 
	local.set	10
	local.get	10
	global.set	__stack_pointer
	return
	end_function
.Ltmp126:
.Lfunc_end44:
                                        # -- End function
	.section	.text._ZNSt3__224__libcpp_operator_deleteB8ne190106IJPvmEEEvDpT_,"G",@,_ZNSt3__224__libcpp_operator_deleteB8ne190106IJPvmEEEvDpT_,comdat
	.hidden	_ZNSt3__224__libcpp_operator_deleteB8ne190106IJPvmEEEvDpT_ # -- Begin function _ZNSt3__224__libcpp_operator_deleteB8ne190106IJPvmEEEvDpT_
	.weak	_ZNSt3__224__libcpp_operator_deleteB8ne190106IJPvmEEEvDpT_
	.type	_ZNSt3__224__libcpp_operator_deleteB8ne190106IJPvmEEEvDpT_,@function
_ZNSt3__224__libcpp_operator_deleteB8ne190106IJPvmEEEvDpT_: # @_ZNSt3__224__libcpp_operator_deleteB8ne190106IJPvmEEEvDpT_
.Lfunc_begin45:
	.loc	9 272 0                         # emscripten/cache/sysroot/include/c++/v1/new:272:0
	.functype	_ZNSt3__224__libcpp_operator_deleteB8ne190106IJPvmEEEvDpT_ (i32, i32) -> ()
	.local  	i32, i32, i32, i32, i32, i32, i32
# %bb.0:                                # %entry
	global.get	__stack_pointer
	local.set	2
	i32.const	16
	local.set	3
	local.get	2
	local.get	3
	i32.sub 
	local.set	4
	local.get	4
	global.set	__stack_pointer
	local.get	4
	local.get	0
	i32.store	12
	local.get	4
	local.get	1
	i32.store	8
.Ltmp127:
	.loc	9 274 29 prologue_end           # emscripten/cache/sysroot/include/c++/v1/new:274:29
	local.get	4
	i32.load	12
	local.set	5
	local.get	4
	i32.load	8
	local.set	6
	.loc	9 274 3 is_stmt 0               # emscripten/cache/sysroot/include/c++/v1/new:274:3
	local.get	5
	local.get	6
	call	_ZdlPvm
	.loc	9 278 1 is_stmt 1               # emscripten/cache/sysroot/include/c++/v1/new:278:1
	i32.const	16
	local.set	7
	local.get	4
	local.get	7
	i32.add 
	local.set	8
	local.get	8
	global.set	__stack_pointer
	return
	end_function
.Ltmp128:
.Lfunc_end45:
                                        # -- End function
	.section	.text._ZNSt3__217__compressed_pairIPNS_6threadENS_9allocatorIS1_EEE6secondB8ne190106Ev,"G",@,_ZNSt3__217__compressed_pairIPNS_6threadENS_9allocatorIS1_EEE6secondB8ne190106Ev,comdat
	.hidden	_ZNSt3__217__compressed_pairIPNS_6threadENS_9allocatorIS1_EEE6secondB8ne190106Ev # -- Begin function _ZNSt3__217__compressed_pairIPNS_6threadENS_9allocatorIS1_EEE6secondB8ne190106Ev
	.weak	_ZNSt3__217__compressed_pairIPNS_6threadENS_9allocatorIS1_EEE6secondB8ne190106Ev
	.type	_ZNSt3__217__compressed_pairIPNS_6threadENS_9allocatorIS1_EEE6secondB8ne190106Ev,@function
_ZNSt3__217__compressed_pairIPNS_6threadENS_9allocatorIS1_EEE6secondB8ne190106Ev: # @_ZNSt3__217__compressed_pairIPNS_6threadENS_9allocatorIS1_EEE6secondB8ne190106Ev
.Lfunc_begin46:
	.loc	17 137 0                        # emscripten/cache/sysroot/include/c++/v1/__memory/compressed_pair.h:137:0
	.functype	_ZNSt3__217__compressed_pairIPNS_6threadENS_9allocatorIS1_EEE6secondB8ne190106Ev (i32) -> (i32)
	.local  	i32, i32, i32, i32, i32, i32, i32
# %bb.0:                                # %entry
	global.get	__stack_pointer
	local.set	1
	i32.const	16
	local.set	2
	local.get	1
	local.get	2
	i32.sub 
	local.set	3
	local.get	3
	global.set	__stack_pointer
	local.get	3
	local.get	0
	i32.store	12
	local.get	3
	i32.load	12
	local.set	4
.Ltmp129:
	.loc	17 138 40 prologue_end          # emscripten/cache/sysroot/include/c++/v1/__memory/compressed_pair.h:138:40
	local.get	4
	call	_ZNSt3__222__compressed_pair_elemINS_9allocatorINS_6threadEEELi1ELb1EE5__getB8ne190106Ev
	local.set	5
	.loc	17 138 5 is_stmt 0              # emscripten/cache/sysroot/include/c++/v1/__memory/compressed_pair.h:138:5
	i32.const	16
	local.set	6
	local.get	3
	local.get	6
	i32.add 
	local.set	7
	local.get	7
	global.set	__stack_pointer
	local.get	5
	return
	end_function
.Ltmp130:
.Lfunc_end46:
                                        # -- End function
	.section	.text._ZNSt3__222__compressed_pair_elemINS_9allocatorINS_6threadEEELi1ELb1EE5__getB8ne190106Ev,"G",@,_ZNSt3__222__compressed_pair_elemINS_9allocatorINS_6threadEEELi1ELb1EE5__getB8ne190106Ev,comdat
	.hidden	_ZNSt3__222__compressed_pair_elemINS_9allocatorINS_6threadEEELi1ELb1EE5__getB8ne190106Ev # -- Begin function _ZNSt3__222__compressed_pair_elemINS_9allocatorINS_6threadEEELi1ELb1EE5__getB8ne190106Ev
	.weak	_ZNSt3__222__compressed_pair_elemINS_9allocatorINS_6threadEEELi1ELb1EE5__getB8ne190106Ev
	.type	_ZNSt3__222__compressed_pair_elemINS_9allocatorINS_6threadEEELi1ELb1EE5__getB8ne190106Ev,@function
_ZNSt3__222__compressed_pair_elemINS_9allocatorINS_6threadEEELi1ELb1EE5__getB8ne190106Ev: # @_ZNSt3__222__compressed_pair_elemINS_9allocatorINS_6threadEEELi1ELb1EE5__getB8ne190106Ev
.Lfunc_begin47:
	.loc	17 91 0 is_stmt 1               # emscripten/cache/sysroot/include/c++/v1/__memory/compressed_pair.h:91:0
	.functype	_ZNSt3__222__compressed_pair_elemINS_9allocatorINS_6threadEEELi1ELb1EE5__getB8ne190106Ev (i32) -> (i32)
	.local  	i32, i32, i32, i32
# %bb.0:                                # %entry
	global.get	__stack_pointer
	local.set	1
	i32.const	16
	local.set	2
	local.get	1
	local.get	2
	i32.sub 
	local.set	3
	local.get	3
	local.get	0
	i32.store	12
	local.get	3
	i32.load	12
	local.set	4
.Ltmp131:
	.loc	17 91 85 prologue_end           # emscripten/cache/sysroot/include/c++/v1/__memory/compressed_pair.h:91:85
	local.get	4
	return
	end_function
.Ltmp132:
.Lfunc_end47:
                                        # -- End function
	.section	.text._ZNKSt3__26vectorINS_6threadENS_9allocatorIS1_EEE9__end_capB8ne190106Ev,"G",@,_ZNKSt3__26vectorINS_6threadENS_9allocatorIS1_EEE9__end_capB8ne190106Ev,comdat
	.hidden	_ZNKSt3__26vectorINS_6threadENS_9allocatorIS1_EEE9__end_capB8ne190106Ev # -- Begin function _ZNKSt3__26vectorINS_6threadENS_9allocatorIS1_EEE9__end_capB8ne190106Ev
	.weak	_ZNKSt3__26vectorINS_6threadENS_9allocatorIS1_EEE9__end_capB8ne190106Ev
	.type	_ZNKSt3__26vectorINS_6threadENS_9allocatorIS1_EEE9__end_capB8ne190106Ev,@function
_ZNKSt3__26vectorINS_6threadENS_9allocatorIS1_EEE9__end_capB8ne190106Ev: # @_ZNKSt3__26vectorINS_6threadENS_9allocatorIS1_EEE9__end_capB8ne190106Ev
.Lfunc_begin48:
	.loc	8 974 0                         # emscripten/cache/sysroot/include/c++/v1/vector:974:0
	.functype	_ZNKSt3__26vectorINS_6threadENS_9allocatorIS1_EEE9__end_capB8ne190106Ev (i32) -> (i32)
	.local  	i32, i32, i32, i32, i32, i32, i32, i32, i32
# %bb.0:                                # %entry
	global.get	__stack_pointer
	local.set	1
	i32.const	16
	local.set	2
	local.get	1
	local.get	2
	i32.sub 
	local.set	3
	local.get	3
	global.set	__stack_pointer
	local.get	3
	local.get	0
	i32.store	12
	local.get	3
	i32.load	12
	local.set	4
.Ltmp133:
	.loc	8 975 18 prologue_end           # emscripten/cache/sysroot/include/c++/v1/vector:975:18
	i32.const	8
	local.set	5
	local.get	4
	local.get	5
	i32.add 
	local.set	6
	.loc	8 975 29 is_stmt 0              # emscripten/cache/sysroot/include/c++/v1/vector:975:29
	local.get	6
	call	_ZNKSt3__217__compressed_pairIPNS_6threadENS_9allocatorIS1_EEE5firstB8ne190106Ev
	local.set	7
	.loc	8 975 5                         # emscripten/cache/sysroot/include/c++/v1/vector:975:5
	i32.const	16
	local.set	8
	local.get	3
	local.get	8
	i32.add 
	local.set	9
	local.get	9
	global.set	__stack_pointer
	local.get	7
	return
	end_function
.Ltmp134:
.Lfunc_end48:
                                        # -- End function
	.section	.text._ZNKSt3__217__compressed_pairIPNS_6threadENS_9allocatorIS1_EEE5firstB8ne190106Ev,"G",@,_ZNKSt3__217__compressed_pairIPNS_6threadENS_9allocatorIS1_EEE5firstB8ne190106Ev,comdat
	.hidden	_ZNKSt3__217__compressed_pairIPNS_6threadENS_9allocatorIS1_EEE5firstB8ne190106Ev # -- Begin function _ZNKSt3__217__compressed_pairIPNS_6threadENS_9allocatorIS1_EEE5firstB8ne190106Ev
	.weak	_ZNKSt3__217__compressed_pairIPNS_6threadENS_9allocatorIS1_EEE5firstB8ne190106Ev
	.type	_ZNKSt3__217__compressed_pairIPNS_6threadENS_9allocatorIS1_EEE5firstB8ne190106Ev,@function
_ZNKSt3__217__compressed_pairIPNS_6threadENS_9allocatorIS1_EEE5firstB8ne190106Ev: # @_ZNKSt3__217__compressed_pairIPNS_6threadENS_9allocatorIS1_EEE5firstB8ne190106Ev
.Lfunc_begin49:
	.loc	17 133 0 is_stmt 1              # emscripten/cache/sysroot/include/c++/v1/__memory/compressed_pair.h:133:0
	.functype	_ZNKSt3__217__compressed_pairIPNS_6threadENS_9allocatorIS1_EEE5firstB8ne190106Ev (i32) -> (i32)
	.local  	i32, i32, i32, i32, i32, i32, i32
# %bb.0:                                # %entry
	global.get	__stack_pointer
	local.set	1
	i32.const	16
	local.set	2
	local.get	1
	local.get	2
	i32.sub 
	local.set	3
	local.get	3
	global.set	__stack_pointer
	local.get	3
	local.get	0
	i32.store	12
	local.get	3
	i32.load	12
	local.set	4
.Ltmp135:
	.loc	17 134 46 prologue_end          # emscripten/cache/sysroot/include/c++/v1/__memory/compressed_pair.h:134:46
	local.get	4
	call	_ZNKSt3__222__compressed_pair_elemIPNS_6threadELi0ELb0EE5__getB8ne190106Ev
	local.set	5
	.loc	17 134 5 is_stmt 0              # emscripten/cache/sysroot/include/c++/v1/__memory/compressed_pair.h:134:5
	i32.const	16
	local.set	6
	local.get	3
	local.get	6
	i32.add 
	local.set	7
	local.get	7
	global.set	__stack_pointer
	local.get	5
	return
	end_function
.Ltmp136:
.Lfunc_end49:
                                        # -- End function
	.section	.text._ZNKSt3__222__compressed_pair_elemIPNS_6threadELi0ELb0EE5__getB8ne190106Ev,"G",@,_ZNKSt3__222__compressed_pair_elemIPNS_6threadELi0ELb0EE5__getB8ne190106Ev,comdat
	.hidden	_ZNKSt3__222__compressed_pair_elemIPNS_6threadELi0ELb0EE5__getB8ne190106Ev # -- Begin function _ZNKSt3__222__compressed_pair_elemIPNS_6threadELi0ELb0EE5__getB8ne190106Ev
	.weak	_ZNKSt3__222__compressed_pair_elemIPNS_6threadELi0ELb0EE5__getB8ne190106Ev
	.type	_ZNKSt3__222__compressed_pair_elemIPNS_6threadELi0ELb0EE5__getB8ne190106Ev,@function
_ZNKSt3__222__compressed_pair_elemIPNS_6threadELi0ELb0EE5__getB8ne190106Ev: # @_ZNKSt3__222__compressed_pair_elemIPNS_6threadELi0ELb0EE5__getB8ne190106Ev
.Lfunc_begin50:
	.loc	17 63 0 is_stmt 1               # emscripten/cache/sysroot/include/c++/v1/__memory/compressed_pair.h:63:0
	.functype	_ZNKSt3__222__compressed_pair_elemIPNS_6threadELi0ELb0EE5__getB8ne190106Ev (i32) -> (i32)
	.local  	i32, i32, i32, i32
# %bb.0:                                # %entry
	global.get	__stack_pointer
	local.set	1
	i32.const	16
	local.set	2
	local.get	1
	local.get	2
	i32.sub 
	local.set	3
	local.get	3
	local.get	0
	i32.store	12
	local.get	3
	i32.load	12
	local.set	4
.Ltmp137:
	.loc	17 63 85 prologue_end           # emscripten/cache/sysroot/include/c++/v1/__memory/compressed_pair.h:63:85
	local.get	4
	return
	end_function
.Ltmp138:
.Lfunc_end50:
                                        # -- End function
	.section	.text._ZNSt3__26vectorINS_6threadENS_9allocatorIS1_EEE9__end_capB8ne190106Ev,"G",@,_ZNSt3__26vectorINS_6threadENS_9allocatorIS1_EEE9__end_capB8ne190106Ev,comdat
	.hidden	_ZNSt3__26vectorINS_6threadENS_9allocatorIS1_EEE9__end_capB8ne190106Ev # -- Begin function _ZNSt3__26vectorINS_6threadENS_9allocatorIS1_EEE9__end_capB8ne190106Ev
	.weak	_ZNSt3__26vectorINS_6threadENS_9allocatorIS1_EEE9__end_capB8ne190106Ev
	.type	_ZNSt3__26vectorINS_6threadENS_9allocatorIS1_EEE9__end_capB8ne190106Ev,@function
_ZNSt3__26vectorINS_6threadENS_9allocatorIS1_EEE9__end_capB8ne190106Ev: # @_ZNSt3__26vectorINS_6threadENS_9allocatorIS1_EEE9__end_capB8ne190106Ev
.Lfunc_begin51:
	.loc	8 971 0                         # emscripten/cache/sysroot/include/c++/v1/vector:971:0
	.functype	_ZNSt3__26vectorINS_6threadENS_9allocatorIS1_EEE9__end_capB8ne190106Ev (i32) -> (i32)
	.local  	i32, i32, i32, i32, i32, i32, i32, i32, i32
# %bb.0:                                # %entry
	global.get	__stack_pointer
	local.set	1
	i32.const	16
	local.set	2
	local.get	1
	local.get	2
	i32.sub 
	local.set	3
	local.get	3
	global.set	__stack_pointer
	local.get	3
	local.get	0
	i32.store	12
	local.get	3
	i32.load	12
	local.set	4
.Ltmp139:
	.loc	8 972 18 prologue_end           # emscripten/cache/sysroot/include/c++/v1/vector:972:18
	i32.const	8
	local.set	5
	local.get	4
	local.get	5
	i32.add 
	local.set	6
	.loc	8 972 29 is_stmt 0              # emscripten/cache/sysroot/include/c++/v1/vector:972:29
	local.get	6
	call	_ZNSt3__217__compressed_pairIPNS_6threadENS_9allocatorIS1_EEE5firstB8ne190106Ev
	local.set	7
	.loc	8 972 5                         # emscripten/cache/sysroot/include/c++/v1/vector:972:5
	i32.const	16
	local.set	8
	local.get	3
	local.get	8
	i32.add 
	local.set	9
	local.get	9
	global.set	__stack_pointer
	local.get	7
	return
	end_function
.Ltmp140:
.Lfunc_end51:
                                        # -- End function
	.section	".text._ZNSt3__26vectorINS_6threadENS_9allocatorIS1_EEE22__construct_one_at_endB8ne190106IJZ20benchmark_atomic_relRNS0_IdNS2_IdEEEEE3$_0EEEvDpOT_","",@
	.type	_ZNSt3__26vectorINS_6threadENS_9allocatorIS1_EEE22__construct_one_at_endB8ne190106IJZ20benchmark_atomic_relRNS0_IdNS2_IdEEEEE3$_0EEEvDpOT_,@function # -- Begin function _ZNSt3__26vectorINS_6threadENS_9allocatorIS1_EEE22__construct_one_at_endB8ne190106IJZ20benchmark_atomic_relRNS0_IdNS2_IdEEEEE3$_0EEEvDpOT_
_ZNSt3__26vectorINS_6threadENS_9allocatorIS1_EEE22__construct_one_at_endB8ne190106IJZ20benchmark_atomic_relRNS0_IdNS2_IdEEEEE3$_0EEEvDpOT_: # @"_ZNSt3__26vectorINS_6threadENS_9allocatorIS1_EEE22__construct_one_at_endB8ne190106IJZ20benchmark_atomic_relRNS0_IdNS2_IdEEEEE3$_0EEEvDpOT_"
.Lfunc_begin52:
	.loc	8 959 0 is_stmt 1               # emscripten/cache/sysroot/include/c++/v1/vector:959:0
	.functype	_ZNSt3__26vectorINS_6threadENS_9allocatorIS1_EEE22__construct_one_at_endB8ne190106IJZ20benchmark_atomic_relRNS0_IdNS2_IdEEEEE3$_0EEEvDpOT_ (i32, i32) -> ()
	.local  	i32, i32, i32, i32, i32, i32, i32, i32, i32, i32, i32, i32, i32, i32, i32, i32, i32, i32, i32, i32
# %bb.0:                                # %entry
	global.get	__stack_pointer
	local.set	2
	i32.const	32
	local.set	3
	local.get	2
	local.get	3
	i32.sub 
	local.set	4
	local.get	4
	global.set	__stack_pointer
	local.get	4
	local.get	0
	i32.store	28
	local.get	4
	local.get	1
	i32.store	24
	local.get	4
	i32.load	28
	local.set	5
.Ltmp141:
	.loc	8 960 27 prologue_end           # emscripten/cache/sysroot/include/c++/v1/vector:960:27
	i32.const	12
	local.set	6
	local.get	4
	local.get	6
	i32.add 
	local.set	7
	local.get	7
	local.set	8
	i32.const	1
	local.set	9
	local.get	8
	local.get	5
	local.get	9
	call	_ZNSt3__26vectorINS_6threadENS_9allocatorIS1_EEE21_ConstructTransactionC2B8ne190106ERS4_m
	drop
	.loc	8 961 37                        # emscripten/cache/sysroot/include/c++/v1/vector:961:37
	local.get	5
	call	_ZNSt3__26vectorINS_6threadENS_9allocatorIS1_EEE7__allocB8ne190106Ev
	local.set	10
	.loc	8 961 71 is_stmt 0              # emscripten/cache/sysroot/include/c++/v1/vector:961:71
	local.get	4
	i32.load	16
	local.set	11
	.loc	8 961 48                        # emscripten/cache/sysroot/include/c++/v1/vector:961:48
	local.get	11
	call	_ZNSt3__212__to_addressB8ne190106INS_6threadEEEPT_S3_
	local.set	12
	.loc	8 961 100                       # emscripten/cache/sysroot/include/c++/v1/vector:961:100
	local.get	4
	i32.load	24
	local.set	13
	.loc	8 961 5                         # emscripten/cache/sysroot/include/c++/v1/vector:961:5
	local.get	10
	local.get	12
	local.get	13
	call	_ZNSt3__216allocator_traitsINS_9allocatorINS_6threadEEEE9constructB8ne190106IS2_JZ20benchmark_atomic_relRNS_6vectorIdNS1_IdEEEEE3$_0ETnNS_9enable_ifIXsr15__has_constructIS3_PT_DpT0_EE5valueEiE4typeELi0EEEvRS3_SD_DpOSE_
	.loc	8 962 5 is_stmt 1               # emscripten/cache/sysroot/include/c++/v1/vector:962:5
	local.get	4
	i32.load	16
	local.set	14
	i32.const	4
	local.set	15
	local.get	14
	local.get	15
	i32.add 
	local.set	16
	local.get	4
	local.get	16
	i32.store	16
	.loc	8 963 3                         # emscripten/cache/sysroot/include/c++/v1/vector:963:3
	i32.const	12
	local.set	17
	local.get	4
	local.get	17
	i32.add 
	local.set	18
	local.get	18
	local.set	19
	local.get	19
	call	_ZNSt3__26vectorINS_6threadENS_9allocatorIS1_EEE21_ConstructTransactionD2B8ne190106Ev
	drop
	i32.const	32
	local.set	20
	local.get	4
	local.get	20
	i32.add 
	local.set	21
	local.get	21
	global.set	__stack_pointer
	return
	end_function
.Ltmp142:
.Lfunc_end52:
                                        # -- End function
	.section	".text._ZNSt3__26vectorINS_6threadENS_9allocatorIS1_EEE24__emplace_back_slow_pathIJZ20benchmark_atomic_relRNS0_IdNS2_IdEEEEE3$_0EEEPS1_DpOT_","",@
	.type	_ZNSt3__26vectorINS_6threadENS_9allocatorIS1_EEE24__emplace_back_slow_pathIJZ20benchmark_atomic_relRNS0_IdNS2_IdEEEEE3$_0EEEPS1_DpOT_,@function # -- Begin function _ZNSt3__26vectorINS_6threadENS_9allocatorIS1_EEE24__emplace_back_slow_pathIJZ20benchmark_atomic_relRNS0_IdNS2_IdEEEEE3$_0EEEPS1_DpOT_
_ZNSt3__26vectorINS_6threadENS_9allocatorIS1_EEE24__emplace_back_slow_pathIJZ20benchmark_atomic_relRNS0_IdNS2_IdEEEEE3$_0EEEPS1_DpOT_: # @"_ZNSt3__26vectorINS_6threadENS_9allocatorIS1_EEE24__emplace_back_slow_pathIJZ20benchmark_atomic_relRNS0_IdNS2_IdEEEEE3$_0EEEPS1_DpOT_"
.Lfunc_begin53:
	.loc	8 1534 0                        # emscripten/cache/sysroot/include/c++/v1/vector:1534:0
	.functype	_ZNSt3__26vectorINS_6threadENS_9allocatorIS1_EEE24__emplace_back_slow_pathIJZ20benchmark_atomic_relRNS0_IdNS2_IdEEEEE3$_0EEEPS1_DpOT_ (i32, i32) -> (i32)
	.local  	i32, i32, i32, i32, i32, i32, i32, i32, i32, i32, i32, i32, i32, i32, i32, i32, i32, i32, i32, i32, i32, i32, i32, i32
# %bb.0:                                # %entry
	global.get	__stack_pointer
	local.set	2
	i32.const	32
	local.set	3
	local.get	2
	local.get	3
	i32.sub 
	local.set	4
	local.get	4
	global.set	__stack_pointer
	local.get	4
	local.get	0
	i32.store	28
	local.get	4
	local.get	1
	i32.store	24
	local.get	4
	i32.load	28
	local.set	5
.Ltmp143:
	.loc	8 1535 31 prologue_end          # emscripten/cache/sysroot/include/c++/v1/vector:1535:31
	local.get	5
	call	_ZNSt3__26vectorINS_6threadENS_9allocatorIS1_EEE7__allocB8ne190106Ev
	local.set	6
	.loc	8 1535 19 is_stmt 0             # emscripten/cache/sysroot/include/c++/v1/vector:1535:19
	local.get	4
	local.get	6
	i32.store	20
	.loc	8 1536 63 is_stmt 1             # emscripten/cache/sysroot/include/c++/v1/vector:1536:63
	local.get	5
	call	_ZNKSt3__26vectorINS_6threadENS_9allocatorIS1_EEE4sizeB8ne190106Ev
	local.set	7
	.loc	8 1536 70 is_stmt 0             # emscripten/cache/sysroot/include/c++/v1/vector:1536:70
	i32.const	1
	local.set	8
	local.get	7
	local.get	8
	i32.add 
	local.set	9
	.loc	8 1536 51                       # emscripten/cache/sysroot/include/c++/v1/vector:1536:51
	local.get	5
	local.get	9
	call	_ZNKSt3__26vectorINS_6threadENS_9allocatorIS1_EEE11__recommendB8ne190106Em
	local.set	10
	.loc	8 1536 76                       # emscripten/cache/sysroot/include/c++/v1/vector:1536:76
	local.get	5
	call	_ZNKSt3__26vectorINS_6threadENS_9allocatorIS1_EEE4sizeB8ne190106Ev
	local.set	11
	.loc	8 1536 84                       # emscripten/cache/sysroot/include/c++/v1/vector:1536:84
	local.get	4
	i32.load	20
	local.set	12
	.loc	8 1536 47                       # emscripten/cache/sysroot/include/c++/v1/vector:1536:47
	local.get	4
	local.set	13
	local.get	13
	local.get	10
	local.get	11
	local.get	12
	call	_ZNSt3__214__split_bufferINS_6threadERNS_9allocatorIS1_EEEC2EmmS4_
	drop
	.loc	8 1538 29 is_stmt 1             # emscripten/cache/sysroot/include/c++/v1/vector:1538:29
	local.get	4
	i32.load	20
	local.set	14
	.loc	8 1538 56 is_stmt 0             # emscripten/cache/sysroot/include/c++/v1/vector:1538:56
	local.get	4
	i32.load	8
	local.set	15
	.loc	8 1538 34                       # emscripten/cache/sysroot/include/c++/v1/vector:1538:34
	local.get	15
	call	_ZNSt3__212__to_addressB8ne190106INS_6threadEEEPT_S3_
	local.set	16
	.loc	8 1538 85                       # emscripten/cache/sysroot/include/c++/v1/vector:1538:85
	local.get	4
	i32.load	24
	local.set	17
	.loc	8 1538 3                        # emscripten/cache/sysroot/include/c++/v1/vector:1538:3
	local.get	14
	local.get	16
	local.get	17
	call	_ZNSt3__216allocator_traitsINS_9allocatorINS_6threadEEEE9constructB8ne190106IS2_JZ20benchmark_atomic_relRNS_6vectorIdNS1_IdEEEEE3$_0ETnNS_9enable_ifIXsr15__has_constructIS3_PT_DpT0_EE5valueEiE4typeELi0EEEvRS3_SD_DpOSE_
	.loc	8 1539 13 is_stmt 1             # emscripten/cache/sysroot/include/c++/v1/vector:1539:13
	local.get	4
	i32.load	8
	local.set	18
	i32.const	4
	local.set	19
	local.get	18
	local.get	19
	i32.add 
	local.set	20
	local.get	4
	local.get	20
	i32.store	8
	.loc	8 1540 3                        # emscripten/cache/sysroot/include/c++/v1/vector:1540:3
	local.get	4
	local.set	21
	local.get	5
	local.get	21
	call	_ZNSt3__26vectorINS_6threadENS_9allocatorIS1_EEE26__swap_out_circular_bufferERNS_14__split_bufferIS1_RS3_EE
	.loc	8 1541 16                       # emscripten/cache/sysroot/include/c++/v1/vector:1541:16
	local.get	5
	i32.load	4
	local.set	22
	.loc	8 1542 1                        # emscripten/cache/sysroot/include/c++/v1/vector:1542:1
	local.get	4
	local.set	23
	local.get	23
	call	_ZNSt3__214__split_bufferINS_6threadERNS_9allocatorIS1_EEED2Ev
	drop
	i32.const	32
	local.set	24
	local.get	4
	local.get	24
	i32.add 
	local.set	25
	local.get	25
	global.set	__stack_pointer
	local.get	22
	return
	end_function
.Ltmp144:
.Lfunc_end53:
                                        # -- End function
	.section	.text._ZNSt3__217__compressed_pairIPNS_6threadENS_9allocatorIS1_EEE5firstB8ne190106Ev,"G",@,_ZNSt3__217__compressed_pairIPNS_6threadENS_9allocatorIS1_EEE5firstB8ne190106Ev,comdat
	.hidden	_ZNSt3__217__compressed_pairIPNS_6threadENS_9allocatorIS1_EEE5firstB8ne190106Ev # -- Begin function _ZNSt3__217__compressed_pairIPNS_6threadENS_9allocatorIS1_EEE5firstB8ne190106Ev
	.weak	_ZNSt3__217__compressed_pairIPNS_6threadENS_9allocatorIS1_EEE5firstB8ne190106Ev
	.type	_ZNSt3__217__compressed_pairIPNS_6threadENS_9allocatorIS1_EEE5firstB8ne190106Ev,@function
_ZNSt3__217__compressed_pairIPNS_6threadENS_9allocatorIS1_EEE5firstB8ne190106Ev: # @_ZNSt3__217__compressed_pairIPNS_6threadENS_9allocatorIS1_EEE5firstB8ne190106Ev
.Lfunc_begin54:
	.loc	17 129 0                        # emscripten/cache/sysroot/include/c++/v1/__memory/compressed_pair.h:129:0
	.functype	_ZNSt3__217__compressed_pairIPNS_6threadENS_9allocatorIS1_EEE5firstB8ne190106Ev (i32) -> (i32)
	.local  	i32, i32, i32, i32, i32, i32, i32
# %bb.0:                                # %entry
	global.get	__stack_pointer
	local.set	1
	i32.const	16
	local.set	2
	local.get	1
	local.get	2
	i32.sub 
	local.set	3
	local.get	3
	global.set	__stack_pointer
	local.get	3
	local.get	0
	i32.store	12
	local.get	3
	i32.load	12
	local.set	4
.Ltmp145:
	.loc	17 130 40 prologue_end          # emscripten/cache/sysroot/include/c++/v1/__memory/compressed_pair.h:130:40
	local.get	4
	call	_ZNSt3__222__compressed_pair_elemIPNS_6threadELi0ELb0EE5__getB8ne190106Ev
	local.set	5
	.loc	17 130 5 is_stmt 0              # emscripten/cache/sysroot/include/c++/v1/__memory/compressed_pair.h:130:5
	i32.const	16
	local.set	6
	local.get	3
	local.get	6
	i32.add 
	local.set	7
	local.get	7
	global.set	__stack_pointer
	local.get	5
	return
	end_function
.Ltmp146:
.Lfunc_end54:
                                        # -- End function
	.section	.text._ZNSt3__222__compressed_pair_elemIPNS_6threadELi0ELb0EE5__getB8ne190106Ev,"G",@,_ZNSt3__222__compressed_pair_elemIPNS_6threadELi0ELb0EE5__getB8ne190106Ev,comdat
	.hidden	_ZNSt3__222__compressed_pair_elemIPNS_6threadELi0ELb0EE5__getB8ne190106Ev # -- Begin function _ZNSt3__222__compressed_pair_elemIPNS_6threadELi0ELb0EE5__getB8ne190106Ev
	.weak	_ZNSt3__222__compressed_pair_elemIPNS_6threadELi0ELb0EE5__getB8ne190106Ev
	.type	_ZNSt3__222__compressed_pair_elemIPNS_6threadELi0ELb0EE5__getB8ne190106Ev,@function
_ZNSt3__222__compressed_pair_elemIPNS_6threadELi0ELb0EE5__getB8ne190106Ev: # @_ZNSt3__222__compressed_pair_elemIPNS_6threadELi0ELb0EE5__getB8ne190106Ev
.Lfunc_begin55:
	.loc	17 62 0 is_stmt 1               # emscripten/cache/sysroot/include/c++/v1/__memory/compressed_pair.h:62:0
	.functype	_ZNSt3__222__compressed_pair_elemIPNS_6threadELi0ELb0EE5__getB8ne190106Ev (i32) -> (i32)
	.local  	i32, i32, i32, i32
# %bb.0:                                # %entry
	global.get	__stack_pointer
	local.set	1
	i32.const	16
	local.set	2
	local.get	1
	local.get	2
	i32.sub 
	local.set	3
	local.get	3
	local.get	0
	i32.store	12
	local.get	3
	i32.load	12
	local.set	4
.Ltmp147:
	.loc	17 62 85 prologue_end           # emscripten/cache/sysroot/include/c++/v1/__memory/compressed_pair.h:62:85
	local.get	4
	return
	end_function
.Ltmp148:
.Lfunc_end55:
                                        # -- End function
	.section	.text._ZNSt3__26vectorINS_6threadENS_9allocatorIS1_EEE21_ConstructTransactionC2B8ne190106ERS4_m,"G",@,_ZNSt3__26vectorINS_6threadENS_9allocatorIS1_EEE21_ConstructTransactionC2B8ne190106ERS4_m,comdat
	.hidden	_ZNSt3__26vectorINS_6threadENS_9allocatorIS1_EEE21_ConstructTransactionC2B8ne190106ERS4_m # -- Begin function _ZNSt3__26vectorINS_6threadENS_9allocatorIS1_EEE21_ConstructTransactionC2B8ne190106ERS4_m
	.weak	_ZNSt3__26vectorINS_6threadENS_9allocatorIS1_EEE21_ConstructTransactionC2B8ne190106ERS4_m
	.type	_ZNSt3__26vectorINS_6threadENS_9allocatorIS1_EEE21_ConstructTransactionC2B8ne190106ERS4_m,@function
_ZNSt3__26vectorINS_6threadENS_9allocatorIS1_EEE21_ConstructTransactionC2B8ne190106ERS4_m: # @_ZNSt3__26vectorINS_6threadENS_9allocatorIS1_EEE21_ConstructTransactionC2B8ne190106ERS4_m
.Lfunc_begin56:
	.loc	8 935 0                         # emscripten/cache/sysroot/include/c++/v1/vector:935:0
	.functype	_ZNSt3__26vectorINS_6threadENS_9allocatorIS1_EEE21_ConstructTransactionC2B8ne190106ERS4_m (i32, i32, i32) -> (i32)
	.local  	i32, i32, i32, i32, i32, i32, i32, i32, i32, i32, i32, i32, i32
# %bb.0:                                # %entry
	global.get	__stack_pointer
	local.set	3
	i32.const	16
	local.set	4
	local.get	3
	local.get	4
	i32.sub 
	local.set	5
	local.get	5
	local.get	0
	i32.store	12
	local.get	5
	local.get	1
	i32.store	8
	local.get	5
	local.get	2
	i32.store	4
	local.get	5
	i32.load	12
	local.set	6
.Ltmp149:
	.loc	8 935 16 prologue_end           # emscripten/cache/sysroot/include/c++/v1/vector:935:16
	local.get	5
	i32.load	8
	local.set	7
	.loc	8 935 11 is_stmt 0              # emscripten/cache/sysroot/include/c++/v1/vector:935:11
	local.get	6
	local.get	7
	i32.store	0
	.loc	8 935 29                        # emscripten/cache/sysroot/include/c++/v1/vector:935:29
	local.get	5
	i32.load	8
	local.set	8
	.loc	8 935 33                        # emscripten/cache/sysroot/include/c++/v1/vector:935:33
	local.get	8
	i32.load	4
	local.set	9
	.loc	8 935 22                        # emscripten/cache/sysroot/include/c++/v1/vector:935:22
	local.get	6
	local.get	9
	i32.store	4
	.loc	8 935 53                        # emscripten/cache/sysroot/include/c++/v1/vector:935:53
	local.get	5
	i32.load	8
	local.set	10
	.loc	8 935 57                        # emscripten/cache/sysroot/include/c++/v1/vector:935:57
	local.get	10
	i32.load	4
	local.set	11
	.loc	8 935 66                        # emscripten/cache/sysroot/include/c++/v1/vector:935:66
	local.get	5
	i32.load	4
	local.set	12
	.loc	8 935 64                        # emscripten/cache/sysroot/include/c++/v1/vector:935:64
	i32.const	2
	local.set	13
	local.get	12
	local.get	13
	i32.shl 
	local.set	14
	local.get	11
	local.get	14
	i32.add 
	local.set	15
	.loc	8 935 42                        # emscripten/cache/sysroot/include/c++/v1/vector:935:42
	local.get	6
	local.get	15
	i32.store	8
	.loc	8 939 5 is_stmt 1               # emscripten/cache/sysroot/include/c++/v1/vector:939:5
	local.get	6
	return
	end_function
.Ltmp150:
.Lfunc_end56:
                                        # -- End function
	.section	".text._ZNSt3__216allocator_traitsINS_9allocatorINS_6threadEEEE9constructB8ne190106IS2_JZ20benchmark_atomic_relRNS_6vectorIdNS1_IdEEEEE3$_0ETnNS_9enable_ifIXsr15__has_constructIS3_PT_DpT0_EE5valueEiE4typeELi0EEEvRS3_SD_DpOSE_","",@
	.type	_ZNSt3__216allocator_traitsINS_9allocatorINS_6threadEEEE9constructB8ne190106IS2_JZ20benchmark_atomic_relRNS_6vectorIdNS1_IdEEEEE3$_0ETnNS_9enable_ifIXsr15__has_constructIS3_PT_DpT0_EE5valueEiE4typeELi0EEEvRS3_SD_DpOSE_,@function # -- Begin function _ZNSt3__216allocator_traitsINS_9allocatorINS_6threadEEEE9constructB8ne190106IS2_JZ20benchmark_atomic_relRNS_6vectorIdNS1_IdEEEEE3$_0ETnNS_9enable_ifIXsr15__has_constructIS3_PT_DpT0_EE5valueEiE4typeELi0EEEvRS3_SD_DpOSE_
_ZNSt3__216allocator_traitsINS_9allocatorINS_6threadEEEE9constructB8ne190106IS2_JZ20benchmark_atomic_relRNS_6vectorIdNS1_IdEEEEE3$_0ETnNS_9enable_ifIXsr15__has_constructIS3_PT_DpT0_EE5valueEiE4typeELi0EEEvRS3_SD_DpOSE_: # @"_ZNSt3__216allocator_traitsINS_9allocatorINS_6threadEEEE9constructB8ne190106IS2_JZ20benchmark_atomic_relRNS_6vectorIdNS1_IdEEEEE3$_0ETnNS_9enable_ifIXsr15__has_constructIS3_PT_DpT0_EE5valueEiE4typeELi0EEEvRS3_SD_DpOSE_"
.Lfunc_begin57:
	.loc	16 317 0                        # emscripten/cache/sysroot/include/c++/v1/__memory/allocator_traits.h:317:0
	.functype	_ZNSt3__216allocator_traitsINS_9allocatorINS_6threadEEEE9constructB8ne190106IS2_JZ20benchmark_atomic_relRNS_6vectorIdNS1_IdEEEEE3$_0ETnNS_9enable_ifIXsr15__has_constructIS3_PT_DpT0_EE5valueEiE4typeELi0EEEvRS3_SD_DpOSE_ (i32, i32, i32) -> ()
	.local  	i32, i32, i32, i32, i32, i32, i32, i32
# %bb.0:                                # %entry
	global.get	__stack_pointer
	local.set	3
	i32.const	16
	local.set	4
	local.get	3
	local.get	4
	i32.sub 
	local.set	5
	local.get	5
	global.set	__stack_pointer
	local.get	5
	local.get	0
	i32.store	12
	local.get	5
	local.get	1
	i32.store	8
	local.get	5
	local.get	2
	i32.store	4
.Ltmp151:
	.loc	16 319 5 prologue_end           # emscripten/cache/sysroot/include/c++/v1/__memory/allocator_traits.h:319:5
	local.get	5
	i32.load	12
	local.set	6
	.loc	16 319 19 is_stmt 0             # emscripten/cache/sysroot/include/c++/v1/__memory/allocator_traits.h:319:19
	local.get	5
	i32.load	8
	local.set	7
	.loc	16 319 44                       # emscripten/cache/sysroot/include/c++/v1/__memory/allocator_traits.h:319:44
	local.get	5
	i32.load	4
	local.set	8
	.loc	16 319 9                        # emscripten/cache/sysroot/include/c++/v1/__memory/allocator_traits.h:319:9
	local.get	6
	local.get	7
	local.get	8
	call	_ZNSt3__29allocatorINS_6threadEE9constructB8ne190106IS1_JZ20benchmark_atomic_relRNS_6vectorIdNS0_IdEEEEE3$_0EEEvPT_DpOT0_
	.loc	16 321 3 is_stmt 1              # emscripten/cache/sysroot/include/c++/v1/__memory/allocator_traits.h:321:3
	i32.const	16
	local.set	9
	local.get	5
	local.get	9
	i32.add 
	local.set	10
	local.get	10
	global.set	__stack_pointer
	return
	end_function
.Ltmp152:
.Lfunc_end57:
                                        # -- End function
	.section	.text._ZNSt3__26vectorINS_6threadENS_9allocatorIS1_EEE21_ConstructTransactionD2B8ne190106Ev,"G",@,_ZNSt3__26vectorINS_6threadENS_9allocatorIS1_EEE21_ConstructTransactionD2B8ne190106Ev,comdat
	.hidden	_ZNSt3__26vectorINS_6threadENS_9allocatorIS1_EEE21_ConstructTransactionD2B8ne190106Ev # -- Begin function _ZNSt3__26vectorINS_6threadENS_9allocatorIS1_EEE21_ConstructTransactionD2B8ne190106Ev
	.weak	_ZNSt3__26vectorINS_6threadENS_9allocatorIS1_EEE21_ConstructTransactionD2B8ne190106Ev
	.type	_ZNSt3__26vectorINS_6threadENS_9allocatorIS1_EEE21_ConstructTransactionD2B8ne190106Ev,@function
_ZNSt3__26vectorINS_6threadENS_9allocatorIS1_EEE21_ConstructTransactionD2B8ne190106Ev: # @_ZNSt3__26vectorINS_6threadENS_9allocatorIS1_EEE21_ConstructTransactionD2B8ne190106Ev
.Lfunc_begin58:
	.loc	8 941 0                         # emscripten/cache/sysroot/include/c++/v1/vector:941:0
	.functype	_ZNSt3__26vectorINS_6threadENS_9allocatorIS1_EEE21_ConstructTransactionD2B8ne190106Ev (i32) -> (i32)
	.local  	i32, i32, i32, i32, i32, i32
# %bb.0:                                # %entry
	global.get	__stack_pointer
	local.set	1
	i32.const	16
	local.set	2
	local.get	1
	local.get	2
	i32.sub 
	local.set	3
	local.get	3
	local.get	0
	i32.store	12
	local.get	3
	i32.load	12
	local.set	4
.Ltmp153:
	.loc	8 942 21 prologue_end           # emscripten/cache/sysroot/include/c++/v1/vector:942:21
	local.get	4
	i32.load	4
	local.set	5
	.loc	8 942 7 is_stmt 0               # emscripten/cache/sysroot/include/c++/v1/vector:942:7
	local.get	4
	i32.load	0
	local.set	6
	.loc	8 942 19                        # emscripten/cache/sysroot/include/c++/v1/vector:942:19
	local.get	6
	local.get	5
	i32.store	4
.Ltmp154:
	.loc	8 948 5 is_stmt 1               # emscripten/cache/sysroot/include/c++/v1/vector:948:5
	local.get	4
	return
	end_function
.Ltmp155:
.Lfunc_end58:
                                        # -- End function
	.section	".text._ZNSt3__29allocatorINS_6threadEE9constructB8ne190106IS1_JZ20benchmark_atomic_relRNS_6vectorIdNS0_IdEEEEE3$_0EEEvPT_DpOT0_","",@
	.type	_ZNSt3__29allocatorINS_6threadEE9constructB8ne190106IS1_JZ20benchmark_atomic_relRNS_6vectorIdNS0_IdEEEEE3$_0EEEvPT_DpOT0_,@function # -- Begin function _ZNSt3__29allocatorINS_6threadEE9constructB8ne190106IS1_JZ20benchmark_atomic_relRNS_6vectorIdNS0_IdEEEEE3$_0EEEvPT_DpOT0_
_ZNSt3__29allocatorINS_6threadEE9constructB8ne190106IS1_JZ20benchmark_atomic_relRNS_6vectorIdNS0_IdEEEEE3$_0EEEvPT_DpOT0_: # @"_ZNSt3__29allocatorINS_6threadEE9constructB8ne190106IS1_JZ20benchmark_atomic_relRNS_6vectorIdNS0_IdEEEEE3$_0EEEvPT_DpOT0_"
.Lfunc_begin59:
	.loc	15 164 0                        # emscripten/cache/sysroot/include/c++/v1/__memory/allocator.h:164:0
	.functype	_ZNSt3__29allocatorINS_6threadEE9constructB8ne190106IS1_JZ20benchmark_atomic_relRNS_6vectorIdNS0_IdEEEEE3$_0EEEvPT_DpOT0_ (i32, i32, i32) -> ()
	.local  	i32, i32, i32, i32, i32, i32, i32
# %bb.0:                                # %entry
	global.get	__stack_pointer
	local.set	3
	i32.const	16
	local.set	4
	local.get	3
	local.get	4
	i32.sub 
	local.set	5
	local.get	5
	global.set	__stack_pointer
	local.get	5
	local.get	0
	i32.store	12
	local.get	5
	local.get	1
	i32.store	8
	local.get	5
	local.get	2
	i32.store	4
.Ltmp156:
	.loc	15 165 19 prologue_end          # emscripten/cache/sysroot/include/c++/v1/__memory/allocator.h:165:19
	local.get	5
	i32.load	8
	local.set	6
	.loc	15 165 48 is_stmt 0             # emscripten/cache/sysroot/include/c++/v1/__memory/allocator.h:165:48
	local.get	5
	i32.load	4
	local.set	7
	.loc	15 165 24                       # emscripten/cache/sysroot/include/c++/v1/__memory/allocator.h:165:24
	local.get	6
	local.get	7
	call	_ZNSt3__26threadC2IZ20benchmark_atomic_relRNS_6vectorIdNS_9allocatorIdEEEEE3$_0JETnNS_9enable_ifIXntsr7is_sameIu14__remove_cvrefIT_ES0_EE5valueEiE4typeELi0EEEOS9_DpOT0_
	drop
	.loc	15 166 3 is_stmt 1              # emscripten/cache/sysroot/include/c++/v1/__memory/allocator.h:166:3
	i32.const	16
	local.set	8
	local.get	5
	local.get	8
	i32.add 
	local.set	9
	local.get	9
	global.set	__stack_pointer
	return
	end_function
.Ltmp157:
.Lfunc_end59:
                                        # -- End function
	.section	".text._ZNSt3__26threadC2IZ20benchmark_atomic_relRNS_6vectorIdNS_9allocatorIdEEEEE3$_0JETnNS_9enable_ifIXntsr7is_sameIu14__remove_cvrefIT_ES0_EE5valueEiE4typeELi0EEEOS9_DpOT0_","",@
	.type	_ZNSt3__26threadC2IZ20benchmark_atomic_relRNS_6vectorIdNS_9allocatorIdEEEEE3$_0JETnNS_9enable_ifIXntsr7is_sameIu14__remove_cvrefIT_ES0_EE5valueEiE4typeELi0EEEOS9_DpOT0_,@function # -- Begin function _ZNSt3__26threadC2IZ20benchmark_atomic_relRNS_6vectorIdNS_9allocatorIdEEEEE3$_0JETnNS_9enable_ifIXntsr7is_sameIu14__remove_cvrefIT_ES0_EE5valueEiE4typeELi0EEEOS9_DpOT0_
_ZNSt3__26threadC2IZ20benchmark_atomic_relRNS_6vectorIdNS_9allocatorIdEEEEE3$_0JETnNS_9enable_ifIXntsr7is_sameIu14__remove_cvrefIT_ES0_EE5valueEiE4typeELi0EEEOS9_DpOT0_: # @"_ZNSt3__26threadC2IZ20benchmark_atomic_relRNS_6vectorIdNS_9allocatorIdEEEEE3$_0JETnNS_9enable_ifIXntsr7is_sameIu14__remove_cvrefIT_ES0_EE5valueEiE4typeELi0EEEOS9_DpOT0_"
.Lfunc_begin60:
	.loc	7 206 0                         # emscripten/cache/sysroot/include/c++/v1/__thread/thread.h:206:0
	.functype	_ZNSt3__26threadC2IZ20benchmark_atomic_relRNS_6vectorIdNS_9allocatorIdEEEEE3$_0JETnNS_9enable_ifIXntsr7is_sameIu14__remove_cvrefIT_ES0_EE5valueEiE4typeELi0EEEOS9_DpOT0_ (i32, i32) -> (i32)
	.local  	i32, i32, i32, i32, i32, i32, i32, i32, i32, i32, i32, i32, i32, i32, i32, i32, i32, i32, i32, i32, i32, i32, i32, i32, i32, i32, i32, i32, i32, i32, i32, i32, i32, i32, i32, i32, i32, i32
# %bb.0:                                # %entry
	global.get	__stack_pointer
	local.set	2
	i32.const	32
	local.set	3
	local.get	2
	local.get	3
	i32.sub 
	local.set	4
	local.get	4
	global.set	__stack_pointer
	local.get	4
	local.get	0
	i32.store	28
	local.get	4
	local.get	1
	i32.store	24
	local.get	4
	i32.load	28
	local.set	5
.Ltmp158:
	.loc	7 208 16 prologue_end           # emscripten/cache/sysroot/include/c++/v1/__thread/thread.h:208:16
	i32.const	4
	local.set	6
	local.get	6
	call	_Znwm
	local.set	7
	.loc	7 208 20 is_stmt 0              # emscripten/cache/sysroot/include/c++/v1/__thread/thread.h:208:20
	local.get	7
	call	_ZNSt3__215__thread_structC1Ev
	drop
	.loc	7 208 10                        # emscripten/cache/sysroot/include/c++/v1/__thread/thread.h:208:10
	i32.const	20
	local.set	8
	local.get	4
	local.get	8
	i32.add 
	local.set	9
	local.get	9
	local.set	10
	local.get	10
	local.get	7
	call	_ZNSt3__210unique_ptrINS_15__thread_structENS_14default_deleteIS1_EEEC2B8ne190106ILb1EvEEPS1_
	drop
	.loc	7 210 23 is_stmt 1              # emscripten/cache/sysroot/include/c++/v1/__thread/thread.h:210:23
	i32.const	16
	local.set	11
	local.get	11
	call	_Znwm
	local.set	12
	.loc	7 210 67 is_stmt 0              # emscripten/cache/sysroot/include/c++/v1/__thread/thread.h:210:67
	local.get	4
	i32.load	24
	local.set	13
	.loc	7 210 27                        # emscripten/cache/sysroot/include/c++/v1/__thread/thread.h:210:27
	i32.const	20
	local.set	14
	local.get	4
	local.get	14
	i32.add 
	local.set	15
	local.get	15
	local.set	16
	local.get	12
	local.get	16
	local.get	13
	call	_ZNSt3__25tupleIJNS_10unique_ptrINS_15__thread_structENS_14default_deleteIS2_EEEEZ20benchmark_atomic_relRNS_6vectorIdNS_9allocatorIdEEEEE3$_0EEC2B8ne190106IJS5_SB_ETnNS_9enable_ifIXsr4_AndINS_17integral_constantIbXeqsZT_sZT_EEENSC_17_EnableUTypesCtorIJDpT_EEEEE5valueEiE4typeELi0EEEDpOSI_
	drop
	.loc	7 210 19                        # emscripten/cache/sysroot/include/c++/v1/__thread/thread.h:210:19
	i32.const	16
	local.set	17
	local.get	4
	local.get	17
	i32.add 
	local.set	18
	local.get	18
	local.set	19
	local.get	19
	local.get	12
	call	_ZNSt3__210unique_ptrINS_5tupleIJNS0_INS_15__thread_structENS_14default_deleteIS2_EEEEZ20benchmark_atomic_relRNS_6vectorIdNS_9allocatorIdEEEEE3$_0EEENS3_ISC_EEEC2B8ne190106ILb1EvEEPSC_
	drop
	.loc	7 211 75 is_stmt 1              # emscripten/cache/sysroot/include/c++/v1/__thread/thread.h:211:75
	i32.const	16
	local.set	20
	local.get	4
	local.get	20
	i32.add 
	local.set	21
	local.get	21
	local.set	22
	local.get	22
	call	_ZNKSt3__210unique_ptrINS_5tupleIJNS0_INS_15__thread_structENS_14default_deleteIS2_EEEEZ20benchmark_atomic_relRNS_6vectorIdNS_9allocatorIdEEEEE3$_0EEENS3_ISC_EEE3getB8ne190106Ev
	local.set	23
	.loc	7 211 14 is_stmt 0              # emscripten/cache/sysroot/include/c++/v1/__thread/thread.h:211:14
	i32.const	_ZNSt3__214__thread_proxyB8ne190106INS_5tupleIJNS_10unique_ptrINS_15__thread_structENS_14default_deleteIS3_EEEEZ20benchmark_atomic_relRNS_6vectorIdNS_9allocatorIdEEEEE3$_0EEEEEPvSE_
	local.set	24
	local.get	5
	local.get	24
	local.get	23
	call	_ZNSt3__222__libcpp_thread_createB8ne190106EPmPFPvS1_ES1_
	local.set	25
	.loc	7 211 7                         # emscripten/cache/sysroot/include/c++/v1/__thread/thread.h:211:7
	local.get	4
	local.get	25
	i32.store	12
.Ltmp159:
	.loc	7 212 7 is_stmt 1               # emscripten/cache/sysroot/include/c++/v1/__thread/thread.h:212:7
	local.get	4
	i32.load	12
	local.set	26
	.loc	7 212 12 is_stmt 0              # emscripten/cache/sysroot/include/c++/v1/__thread/thread.h:212:12
	block   	
	block   	
	local.get	26
	br_if   	0                               # 0: down to label27
# %bb.1:                                # %if.then
	.loc	7 213 9 is_stmt 1               # emscripten/cache/sysroot/include/c++/v1/__thread/thread.h:213:9
	i32.const	16
	local.set	27
	local.get	4
	local.get	27
	i32.add 
	local.set	28
	local.get	28
	local.set	29
	local.get	29
	call	_ZNSt3__210unique_ptrINS_5tupleIJNS0_INS_15__thread_structENS_14default_deleteIS2_EEEEZ20benchmark_atomic_relRNS_6vectorIdNS_9allocatorIdEEEEE3$_0EEENS3_ISC_EEE7releaseB8ne190106Ev
	drop
	.loc	7 213 5 is_stmt 0               # emscripten/cache/sysroot/include/c++/v1/__thread/thread.h:213:5
	br      	1                               # 1: down to label26
.LBB60_2:                               # %if.else
	.loc	7 0 5                           # emscripten/cache/sysroot/include/c++/v1/__thread/thread.h:0:5
	end_block                               # label27:
	.loc	7 215 26 is_stmt 1              # emscripten/cache/sysroot/include/c++/v1/__thread/thread.h:215:26
	local.get	4
	i32.load	12
	local.set	30
	.loc	7 215 5 is_stmt 0               # emscripten/cache/sysroot/include/c++/v1/__thread/thread.h:215:5
	i32.const	.L.str.4
	local.set	31
	local.get	30
	local.get	31
	call	_ZNSt3__220__throw_system_errorEiPKc
	unreachable
.Ltmp160:
.LBB60_3:                               # %if.end
	.loc	7 0 5                           # emscripten/cache/sysroot/include/c++/v1/__thread/thread.h:0:5
	end_block                               # label26:
	.loc	7 216 1 is_stmt 1               # emscripten/cache/sysroot/include/c++/v1/__thread/thread.h:216:1
	i32.const	16
	local.set	32
	local.get	4
	local.get	32
	i32.add 
	local.set	33
	local.get	33
	local.set	34
	local.get	34
	call	_ZNSt3__210unique_ptrINS_5tupleIJNS0_INS_15__thread_structENS_14default_deleteIS2_EEEEZ20benchmark_atomic_relRNS_6vectorIdNS_9allocatorIdEEEEE3$_0EEENS3_ISC_EEED2B8ne190106Ev
	drop
	i32.const	20
	local.set	35
	local.get	4
	local.get	35
	i32.add 
	local.set	36
	local.get	36
	local.set	37
	local.get	37
	call	_ZNSt3__210unique_ptrINS_15__thread_structENS_14default_deleteIS1_EEED2B8ne190106Ev
	drop
	i32.const	32
	local.set	38
	local.get	4
	local.get	38
	i32.add 
	local.set	39
	local.get	39
	global.set	__stack_pointer
	local.get	5
	return
	end_function
.Ltmp161:
.Lfunc_end60:
                                        # -- End function
	.section	.text._ZNSt3__210unique_ptrINS_15__thread_structENS_14default_deleteIS1_EEEC2B8ne190106ILb1EvEEPS1_,"G",@,_ZNSt3__210unique_ptrINS_15__thread_structENS_14default_deleteIS1_EEEC2B8ne190106ILb1EvEEPS1_,comdat
	.hidden	_ZNSt3__210unique_ptrINS_15__thread_structENS_14default_deleteIS1_EEEC2B8ne190106ILb1EvEEPS1_ # -- Begin function _ZNSt3__210unique_ptrINS_15__thread_structENS_14default_deleteIS1_EEEC2B8ne190106ILb1EvEEPS1_
	.weak	_ZNSt3__210unique_ptrINS_15__thread_structENS_14default_deleteIS1_EEEC2B8ne190106ILb1EvEEPS1_
	.type	_ZNSt3__210unique_ptrINS_15__thread_structENS_14default_deleteIS1_EEEC2B8ne190106ILb1EvEEPS1_,@function
_ZNSt3__210unique_ptrINS_15__thread_structENS_14default_deleteIS1_EEEC2B8ne190106ILb1EvEEPS1_: # @_ZNSt3__210unique_ptrINS_15__thread_structENS_14default_deleteIS1_EEEC2B8ne190106ILb1EvEEPS1_
.Lfunc_begin61:
	.loc	25 200 0                        # emscripten/cache/sysroot/include/c++/v1/__memory/unique_ptr.h:200:0
	.functype	_ZNSt3__210unique_ptrINS_15__thread_structENS_14default_deleteIS1_EEEC2B8ne190106ILb1EvEEPS1_ (i32, i32) -> (i32)
	.local  	i32, i32, i32, i32, i32, i32, i32, i32, i32, i32, i32, i32
# %bb.0:                                # %entry
	global.get	__stack_pointer
	local.set	2
	i32.const	16
	local.set	3
	local.get	2
	local.get	3
	i32.sub 
	local.set	4
	local.get	4
	global.set	__stack_pointer
	local.get	4
	local.get	0
	i32.store	12
	local.get	4
	local.get	1
	i32.store	8
	local.get	4
	i32.load	12
	local.set	5
.Ltmp162:
	.loc	25 200 78 prologue_end          # emscripten/cache/sysroot/include/c++/v1/__memory/unique_ptr.h:200:78
	i32.const	8
	local.set	6
	local.get	4
	local.get	6
	i32.add 
	local.set	7
	local.get	7
	local.set	8
	i32.const	7
	local.set	9
	local.get	4
	local.get	9
	i32.add 
	local.set	10
	local.get	10
	local.set	11
	local.get	5
	local.get	8
	local.get	11
	call	_ZNSt3__217__compressed_pairIPNS_15__thread_structENS_14default_deleteIS1_EEEC2B8ne190106IRS2_NS_16__value_init_tagEEEOT_OT0_
	drop
	.loc	25 200 111 is_stmt 0            # emscripten/cache/sysroot/include/c++/v1/__memory/unique_ptr.h:200:111
	i32.const	16
	local.set	12
	local.get	4
	local.get	12
	i32.add 
	local.set	13
	local.get	13
	global.set	__stack_pointer
	local.get	5
	return
	end_function
.Ltmp163:
.Lfunc_end61:
                                        # -- End function
	.section	".text._ZNSt3__25tupleIJNS_10unique_ptrINS_15__thread_structENS_14default_deleteIS2_EEEEZ20benchmark_atomic_relRNS_6vectorIdNS_9allocatorIdEEEEE3$_0EEC2B8ne190106IJS5_SB_ETnNS_9enable_ifIXsr4_AndINS_17integral_constantIbXeqsZT_sZT_EEENSC_17_EnableUTypesCtorIJDpT_EEEEE5valueEiE4typeELi0EEEDpOSI_","",@
	.type	_ZNSt3__25tupleIJNS_10unique_ptrINS_15__thread_structENS_14default_deleteIS2_EEEEZ20benchmark_atomic_relRNS_6vectorIdNS_9allocatorIdEEEEE3$_0EEC2B8ne190106IJS5_SB_ETnNS_9enable_ifIXsr4_AndINS_17integral_constantIbXeqsZT_sZT_EEENSC_17_EnableUTypesCtorIJDpT_EEEEE5valueEiE4typeELi0EEEDpOSI_,@function # -- Begin function _ZNSt3__25tupleIJNS_10unique_ptrINS_15__thread_structENS_14default_deleteIS2_EEEEZ20benchmark_atomic_relRNS_6vectorIdNS_9allocatorIdEEEEE3$_0EEC2B8ne190106IJS5_SB_ETnNS_9enable_ifIXsr4_AndINS_17integral_constantIbXeqsZT_sZT_EEENSC_17_EnableUTypesCtorIJDpT_EEEEE5valueEiE4typeELi0EEEDpOSI_
_ZNSt3__25tupleIJNS_10unique_ptrINS_15__thread_structENS_14default_deleteIS2_EEEEZ20benchmark_atomic_relRNS_6vectorIdNS_9allocatorIdEEEEE3$_0EEC2B8ne190106IJS5_SB_ETnNS_9enable_ifIXsr4_AndINS_17integral_constantIbXeqsZT_sZT_EEENSC_17_EnableUTypesCtorIJDpT_EEEEE5valueEiE4typeELi0EEEDpOSI_: # @"_ZNSt3__25tupleIJNS_10unique_ptrINS_15__thread_structENS_14default_deleteIS2_EEEEZ20benchmark_atomic_relRNS_6vectorIdNS_9allocatorIdEEEEE3$_0EEC2B8ne190106IJS5_SB_ETnNS_9enable_ifIXsr4_AndINS_17integral_constantIbXeqsZT_sZT_EEENSC_17_EnableUTypesCtorIJDpT_EEEEE5valueEiE4typeELi0EEEDpOSI_"
.Lfunc_begin62:
	.loc	30 620 0 is_stmt 1              # emscripten/cache/sysroot/include/c++/v1/tuple:620:0
	.functype	_ZNSt3__25tupleIJNS_10unique_ptrINS_15__thread_structENS_14default_deleteIS2_EEEEZ20benchmark_atomic_relRNS_6vectorIdNS_9allocatorIdEEEEE3$_0EEC2B8ne190106IJS5_SB_ETnNS_9enable_ifIXsr4_AndINS_17integral_constantIbXeqsZT_sZT_EEENSC_17_EnableUTypesCtorIJDpT_EEEEE5valueEiE4typeELi0EEEDpOSI_ (i32, i32, i32) -> (i32)
	.local  	i32, i32, i32, i32, i32, i32, i32, i32
# %bb.0:                                # %entry
	global.get	__stack_pointer
	local.set	3
	i32.const	16
	local.set	4
	local.get	3
	local.get	4
	i32.sub 
	local.set	5
	local.get	5
	global.set	__stack_pointer
	local.get	5
	local.get	0
	i32.store	12
	local.get	5
	local.get	1
	i32.store	8
	local.get	5
	local.get	2
	i32.store	4
	local.get	5
	i32.load	12
	local.set	6
.Ltmp164:
	.loc	30 620 35 prologue_end          # emscripten/cache/sysroot/include/c++/v1/tuple:620:35
	local.get	5
	i32.load	8
	local.set	7
	local.get	5
	i32.load	4
	local.set	8
	.loc	30 616 9                        # emscripten/cache/sysroot/include/c++/v1/tuple:616:9
	local.get	6
	local.get	7
	local.get	8
	call	_ZNSt3__212__tuple_implINS_15__tuple_indicesIJLm0ELm1EEEEJNS_10unique_ptrINS_15__thread_structENS_14default_deleteIS4_EEEEZ20benchmark_atomic_relRNS_6vectorIdNS_9allocatorIdEEEEE3$_0EEC2B8ne190106IJLm0ELm1EEJS7_SD_ETpTnmJEJEJS7_SD_EEENS1_IJXspT_EEEENS_13__tuple_typesIJDpT0_EEENS1_IJXspT1_EEEENSH_IJDpT2_EEEDpOT3_
	drop
	.loc	30 620 45                       # emscripten/cache/sysroot/include/c++/v1/tuple:620:45
	i32.const	16
	local.set	9
	local.get	5
	local.get	9
	i32.add 
	local.set	10
	local.get	10
	global.set	__stack_pointer
	local.get	6
	return
	end_function
.Ltmp165:
.Lfunc_end62:
                                        # -- End function
	.section	".text._ZNSt3__210unique_ptrINS_5tupleIJNS0_INS_15__thread_structENS_14default_deleteIS2_EEEEZ20benchmark_atomic_relRNS_6vectorIdNS_9allocatorIdEEEEE3$_0EEENS3_ISC_EEEC2B8ne190106ILb1EvEEPSC_","",@
	.type	_ZNSt3__210unique_ptrINS_5tupleIJNS0_INS_15__thread_structENS_14default_deleteIS2_EEEEZ20benchmark_atomic_relRNS_6vectorIdNS_9allocatorIdEEEEE3$_0EEENS3_ISC_EEEC2B8ne190106ILb1EvEEPSC_,@function # -- Begin function _ZNSt3__210unique_ptrINS_5tupleIJNS0_INS_15__thread_structENS_14default_deleteIS2_EEEEZ20benchmark_atomic_relRNS_6vectorIdNS_9allocatorIdEEEEE3$_0EEENS3_ISC_EEEC2B8ne190106ILb1EvEEPSC_
_ZNSt3__210unique_ptrINS_5tupleIJNS0_INS_15__thread_structENS_14default_deleteIS2_EEEEZ20benchmark_atomic_relRNS_6vectorIdNS_9allocatorIdEEEEE3$_0EEENS3_ISC_EEEC2B8ne190106ILb1EvEEPSC_: # @"_ZNSt3__210unique_ptrINS_5tupleIJNS0_INS_15__thread_structENS_14default_deleteIS2_EEEEZ20benchmark_atomic_relRNS_6vectorIdNS_9allocatorIdEEEEE3$_0EEENS3_ISC_EEEC2B8ne190106ILb1EvEEPSC_"
.Lfunc_begin63:
	.loc	25 200 0                        # emscripten/cache/sysroot/include/c++/v1/__memory/unique_ptr.h:200:0
	.functype	_ZNSt3__210unique_ptrINS_5tupleIJNS0_INS_15__thread_structENS_14default_deleteIS2_EEEEZ20benchmark_atomic_relRNS_6vectorIdNS_9allocatorIdEEEEE3$_0EEENS3_ISC_EEEC2B8ne190106ILb1EvEEPSC_ (i32, i32) -> (i32)
	.local  	i32, i32, i32, i32, i32, i32, i32, i32, i32, i32, i32, i32
# %bb.0:                                # %entry
	global.get	__stack_pointer
	local.set	2
	i32.const	16
	local.set	3
	local.get	2
	local.get	3
	i32.sub 
	local.set	4
	local.get	4
	global.set	__stack_pointer
	local.get	4
	local.get	0
	i32.store	12
	local.get	4
	local.get	1
	i32.store	8
	local.get	4
	i32.load	12
	local.set	5
.Ltmp166:
	.loc	25 200 78 prologue_end          # emscripten/cache/sysroot/include/c++/v1/__memory/unique_ptr.h:200:78
	i32.const	8
	local.set	6
	local.get	4
	local.get	6
	i32.add 
	local.set	7
	local.get	7
	local.set	8
	i32.const	7
	local.set	9
	local.get	4
	local.get	9
	i32.add 
	local.set	10
	local.get	10
	local.set	11
	local.get	5
	local.get	8
	local.get	11
	call	_ZNSt3__217__compressed_pairIPNS_5tupleIJNS_10unique_ptrINS_15__thread_structENS_14default_deleteIS3_EEEEZ20benchmark_atomic_relRNS_6vectorIdNS_9allocatorIdEEEEE3$_0EEENS4_ISD_EEEC2B8ne190106IRSE_NS_16__value_init_tagEEEOT_OT0_
	drop
	.loc	25 200 111 is_stmt 0            # emscripten/cache/sysroot/include/c++/v1/__memory/unique_ptr.h:200:111
	i32.const	16
	local.set	12
	local.get	4
	local.get	12
	i32.add 
	local.set	13
	local.get	13
	global.set	__stack_pointer
	local.get	5
	return
	end_function
.Ltmp167:
.Lfunc_end63:
                                        # -- End function
	.section	.text._ZNSt3__222__libcpp_thread_createB8ne190106EPmPFPvS1_ES1_,"G",@,_ZNSt3__222__libcpp_thread_createB8ne190106EPmPFPvS1_ES1_,comdat
	.hidden	_ZNSt3__222__libcpp_thread_createB8ne190106EPmPFPvS1_ES1_ # -- Begin function _ZNSt3__222__libcpp_thread_createB8ne190106EPmPFPvS1_ES1_
	.weak	_ZNSt3__222__libcpp_thread_createB8ne190106EPmPFPvS1_ES1_
	.type	_ZNSt3__222__libcpp_thread_createB8ne190106EPmPFPvS1_ES1_,@function
_ZNSt3__222__libcpp_thread_createB8ne190106EPmPFPvS1_ES1_: # @_ZNSt3__222__libcpp_thread_createB8ne190106EPmPFPvS1_ES1_
.Lfunc_begin64:
	.loc	14 181 0 is_stmt 1              # emscripten/cache/sysroot/include/c++/v1/__thread/support/pthread.h:181:0
	.functype	_ZNSt3__222__libcpp_thread_createB8ne190106EPmPFPvS1_ES1_ (i32, i32, i32) -> (i32)
	.local  	i32, i32, i32, i32, i32, i32, i32, i32, i32, i32
# %bb.0:                                # %entry
	global.get	__stack_pointer
	local.set	3
	i32.const	16
	local.set	4
	local.get	3
	local.get	4
	i32.sub 
	local.set	5
	local.get	5
	global.set	__stack_pointer
	local.get	5
	local.get	0
	i32.store	12
	local.get	5
	local.get	1
	i32.store	8
	local.get	5
	local.get	2
	i32.store	4
.Ltmp168:
	.loc	14 182 25 prologue_end          # emscripten/cache/sysroot/include/c++/v1/__thread/support/pthread.h:182:25
	local.get	5
	i32.load	12
	local.set	6
	.loc	14 182 39 is_stmt 0             # emscripten/cache/sysroot/include/c++/v1/__thread/support/pthread.h:182:39
	local.get	5
	i32.load	8
	local.set	7
	.loc	14 182 47                       # emscripten/cache/sysroot/include/c++/v1/__thread/support/pthread.h:182:47
	local.get	5
	i32.load	4
	local.set	8
	.loc	14 182 10                       # emscripten/cache/sysroot/include/c++/v1/__thread/support/pthread.h:182:10
	i32.const	0
	local.set	9
	local.get	6
	local.get	9
	local.get	7
	local.get	8
	call	pthread_create
	local.set	10
	.loc	14 182 3                        # emscripten/cache/sysroot/include/c++/v1/__thread/support/pthread.h:182:3
	i32.const	16
	local.set	11
	local.get	5
	local.get	11
	i32.add 
	local.set	12
	local.get	12
	global.set	__stack_pointer
	local.get	10
	return
	end_function
.Ltmp169:
.Lfunc_end64:
                                        # -- End function
	.section	".text._ZNSt3__214__thread_proxyB8ne190106INS_5tupleIJNS_10unique_ptrINS_15__thread_structENS_14default_deleteIS3_EEEEZ20benchmark_atomic_relRNS_6vectorIdNS_9allocatorIdEEEEE3$_0EEEEEPvSE_","",@
	.type	_ZNSt3__214__thread_proxyB8ne190106INS_5tupleIJNS_10unique_ptrINS_15__thread_structENS_14default_deleteIS3_EEEEZ20benchmark_atomic_relRNS_6vectorIdNS_9allocatorIdEEEEE3$_0EEEEEPvSE_,@function # -- Begin function _ZNSt3__214__thread_proxyB8ne190106INS_5tupleIJNS_10unique_ptrINS_15__thread_structENS_14default_deleteIS3_EEEEZ20benchmark_atomic_relRNS_6vectorIdNS_9allocatorIdEEEEE3$_0EEEEEPvSE_
_ZNSt3__214__thread_proxyB8ne190106INS_5tupleIJNS_10unique_ptrINS_15__thread_structENS_14default_deleteIS3_EEEEZ20benchmark_atomic_relRNS_6vectorIdNS_9allocatorIdEEEEE3$_0EEEEEPvSE_: # @"_ZNSt3__214__thread_proxyB8ne190106INS_5tupleIJNS_10unique_ptrINS_15__thread_structENS_14default_deleteIS3_EEEEZ20benchmark_atomic_relRNS_6vectorIdNS_9allocatorIdEEEEE3$_0EEEEEPvSE_"
.Lfunc_begin65:
	.loc	7 196 0 is_stmt 1               # emscripten/cache/sysroot/include/c++/v1/__thread/thread.h:196:0
	.functype	_ZNSt3__214__thread_proxyB8ne190106INS_5tupleIJNS_10unique_ptrINS_15__thread_structENS_14default_deleteIS3_EEEEZ20benchmark_atomic_relRNS_6vectorIdNS_9allocatorIdEEEEE3$_0EEEEEPvSE_ (i32) -> (i32)
	.local  	i32, i32, i32, i32, i32, i32, i32, i32, i32, i32, i32, i32, i32, i32, i32, i32, i32, i32, i32, i32, i32, i32, i32, i32
# %bb.0:                                # %entry
	global.get	__stack_pointer
	local.set	1
	i32.const	16
	local.set	2
	local.get	1
	local.get	2
	i32.sub 
	local.set	3
	local.get	3
	global.set	__stack_pointer
	local.get	3
	local.get	0
	i32.store	12
.Ltmp170:
	.loc	7 198 41 prologue_end           # emscripten/cache/sysroot/include/c++/v1/__thread/thread.h:198:41
	local.get	3
	i32.load	12
	local.set	4
	.loc	7 198 19 is_stmt 0              # emscripten/cache/sysroot/include/c++/v1/__thread/thread.h:198:19
	i32.const	8
	local.set	5
	local.get	3
	local.get	5
	i32.add 
	local.set	6
	local.get	6
	local.set	7
	local.get	7
	local.get	4
	call	_ZNSt3__210unique_ptrINS_5tupleIJNS0_INS_15__thread_structENS_14default_deleteIS2_EEEEZ20benchmark_atomic_relRNS_6vectorIdNS_9allocatorIdEEEEE3$_0EEENS3_ISC_EEEC2B8ne190106ILb1EvEEPSC_
	drop
	.loc	7 199 3 is_stmt 1               # emscripten/cache/sysroot/include/c++/v1/__thread/thread.h:199:3
	call	_ZNSt3__219__thread_local_dataEv
	local.set	8
	.loc	7 199 54 is_stmt 0              # emscripten/cache/sysroot/include/c++/v1/__thread/thread.h:199:54
	i32.const	8
	local.set	9
	local.get	3
	local.get	9
	i32.add 
	local.set	10
	local.get	10
	local.set	11
	local.get	11
	call	_ZNKSt3__210unique_ptrINS_5tupleIJNS0_INS_15__thread_structENS_14default_deleteIS2_EEEEZ20benchmark_atomic_relRNS_6vectorIdNS_9allocatorIdEEEEE3$_0EEENS3_ISC_EEE3getB8ne190106Ev
	local.set	12
	.loc	7 199 37                        # emscripten/cache/sysroot/include/c++/v1/__thread/thread.h:199:37
	local.get	12
	call	_ZNSt3__23getB8ne190106ILm0EJNS_10unique_ptrINS_15__thread_structENS_14default_deleteIS2_EEEEZ20benchmark_atomic_relRNS_6vectorIdNS_9allocatorIdEEEEE3$_0EEERNS_13tuple_elementIXT_ENS_5tupleIJDpT0_EEEE4typeERSG_
	local.set	13
	.loc	7 199 61                        # emscripten/cache/sysroot/include/c++/v1/__thread/thread.h:199:61
	local.get	13
	call	_ZNSt3__210unique_ptrINS_15__thread_structENS_14default_deleteIS1_EEE7releaseB8ne190106Ev
	local.set	14
	.loc	7 199 25                        # emscripten/cache/sysroot/include/c++/v1/__thread/thread.h:199:25
	local.get	8
	local.get	14
	call	_ZNSt3__221__thread_specific_ptrINS_15__thread_structEE11set_pointerEPS1_
	.loc	7 201 30 is_stmt 1              # emscripten/cache/sysroot/include/c++/v1/__thread/thread.h:201:30
	i32.const	8
	local.set	15
	local.get	3
	local.get	15
	i32.add 
	local.set	16
	local.get	16
	local.set	17
	local.get	17
	call	_ZNKSt3__210unique_ptrINS_5tupleIJNS0_INS_15__thread_structENS_14default_deleteIS2_EEEEZ20benchmark_atomic_relRNS_6vectorIdNS_9allocatorIdEEEEE3$_0EEENS3_ISC_EEE3getB8ne190106Ev
	local.set	18
	.loc	7 201 3 is_stmt 0               # emscripten/cache/sysroot/include/c++/v1/__thread/thread.h:201:3
	local.get	18
	call	_ZNSt3__216__thread_executeB8ne190106INS_10unique_ptrINS_15__thread_structENS_14default_deleteIS2_EEEEZ20benchmark_atomic_relRNS_6vectorIdNS_9allocatorIdEEEEE3$_0JETpTnmJEEEvRNS_5tupleIJT_T0_DpT1_EEENS_15__tuple_indicesIJXspT2_EEEE
	.loc	7 203 1 is_stmt 1               # emscripten/cache/sysroot/include/c++/v1/__thread/thread.h:203:1
	i32.const	8
	local.set	19
	local.get	3
	local.get	19
	i32.add 
	local.set	20
	local.get	20
	local.set	21
	local.get	21
	call	_ZNSt3__210unique_ptrINS_5tupleIJNS0_INS_15__thread_structENS_14default_deleteIS2_EEEEZ20benchmark_atomic_relRNS_6vectorIdNS_9allocatorIdEEEEE3$_0EEENS3_ISC_EEED2B8ne190106Ev
	drop
	i32.const	0
	local.set	22
	i32.const	16
	local.set	23
	local.get	3
	local.get	23
	i32.add 
	local.set	24
	local.get	24
	global.set	__stack_pointer
	local.get	22
	return
	end_function
.Ltmp171:
.Lfunc_end65:
                                        # -- End function
	.section	".text._ZNKSt3__210unique_ptrINS_5tupleIJNS0_INS_15__thread_structENS_14default_deleteIS2_EEEEZ20benchmark_atomic_relRNS_6vectorIdNS_9allocatorIdEEEEE3$_0EEENS3_ISC_EEE3getB8ne190106Ev","",@
	.type	_ZNKSt3__210unique_ptrINS_5tupleIJNS0_INS_15__thread_structENS_14default_deleteIS2_EEEEZ20benchmark_atomic_relRNS_6vectorIdNS_9allocatorIdEEEEE3$_0EEENS3_ISC_EEE3getB8ne190106Ev,@function # -- Begin function _ZNKSt3__210unique_ptrINS_5tupleIJNS0_INS_15__thread_structENS_14default_deleteIS2_EEEEZ20benchmark_atomic_relRNS_6vectorIdNS_9allocatorIdEEEEE3$_0EEENS3_ISC_EEE3getB8ne190106Ev
_ZNKSt3__210unique_ptrINS_5tupleIJNS0_INS_15__thread_structENS_14default_deleteIS2_EEEEZ20benchmark_atomic_relRNS_6vectorIdNS_9allocatorIdEEEEE3$_0EEENS3_ISC_EEE3getB8ne190106Ev: # @"_ZNKSt3__210unique_ptrINS_5tupleIJNS0_INS_15__thread_structENS_14default_deleteIS2_EEEEZ20benchmark_atomic_relRNS_6vectorIdNS_9allocatorIdEEEEE3$_0EEENS3_ISC_EEE3getB8ne190106Ev"
.Lfunc_begin66:
	.loc	25 273 0                        # emscripten/cache/sysroot/include/c++/v1/__memory/unique_ptr.h:273:0
	.functype	_ZNKSt3__210unique_ptrINS_5tupleIJNS0_INS_15__thread_structENS_14default_deleteIS2_EEEEZ20benchmark_atomic_relRNS_6vectorIdNS_9allocatorIdEEEEE3$_0EEENS3_ISC_EEE3getB8ne190106Ev (i32) -> (i32)
	.local  	i32, i32, i32, i32, i32, i32, i32, i32
# %bb.0:                                # %entry
	global.get	__stack_pointer
	local.set	1
	i32.const	16
	local.set	2
	local.get	1
	local.get	2
	i32.sub 
	local.set	3
	local.get	3
	global.set	__stack_pointer
	local.get	3
	local.get	0
	i32.store	12
	local.get	3
	i32.load	12
	local.set	4
.Ltmp172:
	.loc	25 273 101 prologue_end         # emscripten/cache/sysroot/include/c++/v1/__memory/unique_ptr.h:273:101
	local.get	4
	call	_ZNKSt3__217__compressed_pairIPNS_5tupleIJNS_10unique_ptrINS_15__thread_structENS_14default_deleteIS3_EEEEZ20benchmark_atomic_relRNS_6vectorIdNS_9allocatorIdEEEEE3$_0EEENS4_ISD_EEE5firstB8ne190106Ev
	local.set	5
	local.get	5
	i32.load	0
	local.set	6
	.loc	25 273 87 is_stmt 0             # emscripten/cache/sysroot/include/c++/v1/__memory/unique_ptr.h:273:87
	i32.const	16
	local.set	7
	local.get	3
	local.get	7
	i32.add 
	local.set	8
	local.get	8
	global.set	__stack_pointer
	local.get	6
	return
	end_function
.Ltmp173:
.Lfunc_end66:
                                        # -- End function
	.section	".text._ZNSt3__210unique_ptrINS_5tupleIJNS0_INS_15__thread_structENS_14default_deleteIS2_EEEEZ20benchmark_atomic_relRNS_6vectorIdNS_9allocatorIdEEEEE3$_0EEENS3_ISC_EEE7releaseB8ne190106Ev","",@
	.type	_ZNSt3__210unique_ptrINS_5tupleIJNS0_INS_15__thread_structENS_14default_deleteIS2_EEEEZ20benchmark_atomic_relRNS_6vectorIdNS_9allocatorIdEEEEE3$_0EEENS3_ISC_EEE7releaseB8ne190106Ev,@function # -- Begin function _ZNSt3__210unique_ptrINS_5tupleIJNS0_INS_15__thread_structENS_14default_deleteIS2_EEEEZ20benchmark_atomic_relRNS_6vectorIdNS_9allocatorIdEEEEE3$_0EEENS3_ISC_EEE7releaseB8ne190106Ev
_ZNSt3__210unique_ptrINS_5tupleIJNS0_INS_15__thread_structENS_14default_deleteIS2_EEEEZ20benchmark_atomic_relRNS_6vectorIdNS_9allocatorIdEEEEE3$_0EEENS3_ISC_EEE7releaseB8ne190106Ev: # @"_ZNSt3__210unique_ptrINS_5tupleIJNS0_INS_15__thread_structENS_14default_deleteIS2_EEEEZ20benchmark_atomic_relRNS_6vectorIdNS_9allocatorIdEEEEE3$_0EEENS3_ISC_EEE7releaseB8ne190106Ev"
.Lfunc_begin67:
	.loc	25 282 0 is_stmt 1              # emscripten/cache/sysroot/include/c++/v1/__memory/unique_ptr.h:282:0
	.functype	_ZNSt3__210unique_ptrINS_5tupleIJNS0_INS_15__thread_structENS_14default_deleteIS2_EEEEZ20benchmark_atomic_relRNS_6vectorIdNS_9allocatorIdEEEEE3$_0EEENS3_ISC_EEE7releaseB8ne190106Ev (i32) -> (i32)
	.local  	i32, i32, i32, i32, i32, i32, i32, i32, i32, i32, i32
# %bb.0:                                # %entry
	global.get	__stack_pointer
	local.set	1
	i32.const	16
	local.set	2
	local.get	1
	local.get	2
	i32.sub 
	local.set	3
	local.get	3
	global.set	__stack_pointer
	local.get	3
	local.get	0
	i32.store	12
	local.get	3
	i32.load	12
	local.set	4
.Ltmp174:
	.loc	25 283 29 prologue_end          # emscripten/cache/sysroot/include/c++/v1/__memory/unique_ptr.h:283:29
	local.get	4
	call	_ZNSt3__217__compressed_pairIPNS_5tupleIJNS_10unique_ptrINS_15__thread_structENS_14default_deleteIS3_EEEEZ20benchmark_atomic_relRNS_6vectorIdNS_9allocatorIdEEEEE3$_0EEENS4_ISD_EEE5firstB8ne190106Ev
	local.set	5
	local.get	5
	i32.load	0
	local.set	6
	.loc	25 283 13 is_stmt 0             # emscripten/cache/sysroot/include/c++/v1/__memory/unique_ptr.h:283:13
	local.get	3
	local.get	6
	i32.store	8
	.loc	25 284 12 is_stmt 1             # emscripten/cache/sysroot/include/c++/v1/__memory/unique_ptr.h:284:12
	local.get	4
	call	_ZNSt3__217__compressed_pairIPNS_5tupleIJNS_10unique_ptrINS_15__thread_structENS_14default_deleteIS3_EEEEZ20benchmark_atomic_relRNS_6vectorIdNS_9allocatorIdEEEEE3$_0EEENS4_ISD_EEE5firstB8ne190106Ev
	local.set	7
	.loc	25 284 20 is_stmt 0             # emscripten/cache/sysroot/include/c++/v1/__memory/unique_ptr.h:284:20
	i32.const	0
	local.set	8
	local.get	7
	local.get	8
	i32.store	0
	.loc	25 285 12 is_stmt 1             # emscripten/cache/sysroot/include/c++/v1/__memory/unique_ptr.h:285:12
	local.get	3
	i32.load	8
	local.set	9
	.loc	25 285 5 is_stmt 0              # emscripten/cache/sysroot/include/c++/v1/__memory/unique_ptr.h:285:5
	i32.const	16
	local.set	10
	local.get	3
	local.get	10
	i32.add 
	local.set	11
	local.get	11
	global.set	__stack_pointer
	local.get	9
	return
	end_function
.Ltmp175:
.Lfunc_end67:
                                        # -- End function
	.section	".text._ZNSt3__210unique_ptrINS_5tupleIJNS0_INS_15__thread_structENS_14default_deleteIS2_EEEEZ20benchmark_atomic_relRNS_6vectorIdNS_9allocatorIdEEEEE3$_0EEENS3_ISC_EEED2B8ne190106Ev","",@
	.type	_ZNSt3__210unique_ptrINS_5tupleIJNS0_INS_15__thread_structENS_14default_deleteIS2_EEEEZ20benchmark_atomic_relRNS_6vectorIdNS_9allocatorIdEEEEE3$_0EEENS3_ISC_EEED2B8ne190106Ev,@function # -- Begin function _ZNSt3__210unique_ptrINS_5tupleIJNS0_INS_15__thread_structENS_14default_deleteIS2_EEEEZ20benchmark_atomic_relRNS_6vectorIdNS_9allocatorIdEEEEE3$_0EEENS3_ISC_EEED2B8ne190106Ev
_ZNSt3__210unique_ptrINS_5tupleIJNS0_INS_15__thread_structENS_14default_deleteIS2_EEEEZ20benchmark_atomic_relRNS_6vectorIdNS_9allocatorIdEEEEE3$_0EEENS3_ISC_EEED2B8ne190106Ev: # @"_ZNSt3__210unique_ptrINS_5tupleIJNS0_INS_15__thread_structENS_14default_deleteIS2_EEEEZ20benchmark_atomic_relRNS_6vectorIdNS_9allocatorIdEEEEE3$_0EEENS3_ISC_EEED2B8ne190106Ev"
.Lfunc_begin68:
	.loc	25 261 0 is_stmt 1              # emscripten/cache/sysroot/include/c++/v1/__memory/unique_ptr.h:261:0
	.functype	_ZNSt3__210unique_ptrINS_5tupleIJNS0_INS_15__thread_structENS_14default_deleteIS2_EEEEZ20benchmark_atomic_relRNS_6vectorIdNS_9allocatorIdEEEEE3$_0EEENS3_ISC_EEED2B8ne190106Ev (i32) -> (i32)
	.local  	i32, i32, i32, i32, i32, i32, i32
# %bb.0:                                # %entry
	global.get	__stack_pointer
	local.set	1
	i32.const	16
	local.set	2
	local.get	1
	local.get	2
	i32.sub 
	local.set	3
	local.get	3
	global.set	__stack_pointer
	local.get	3
	local.get	0
	i32.store	12
	local.get	3
	i32.load	12
	local.set	4
.Ltmp176:
	.loc	25 261 71 prologue_end          # emscripten/cache/sysroot/include/c++/v1/__memory/unique_ptr.h:261:71
	i32.const	0
	local.set	5
	local.get	4
	local.get	5
	call	_ZNSt3__210unique_ptrINS_5tupleIJNS0_INS_15__thread_structENS_14default_deleteIS2_EEEEZ20benchmark_atomic_relRNS_6vectorIdNS_9allocatorIdEEEEE3$_0EEENS3_ISC_EEE5resetB8ne190106EPSC_
.Ltmp177:
	.loc	25 261 80 is_stmt 0             # emscripten/cache/sysroot/include/c++/v1/__memory/unique_ptr.h:261:80
	i32.const	16
	local.set	6
	local.get	3
	local.get	6
	i32.add 
	local.set	7
	local.get	7
	global.set	__stack_pointer
	local.get	4
	return
	end_function
.Ltmp178:
.Lfunc_end68:
                                        # -- End function
	.section	.text._ZNSt3__210unique_ptrINS_15__thread_structENS_14default_deleteIS1_EEED2B8ne190106Ev,"G",@,_ZNSt3__210unique_ptrINS_15__thread_structENS_14default_deleteIS1_EEED2B8ne190106Ev,comdat
	.hidden	_ZNSt3__210unique_ptrINS_15__thread_structENS_14default_deleteIS1_EEED2B8ne190106Ev # -- Begin function _ZNSt3__210unique_ptrINS_15__thread_structENS_14default_deleteIS1_EEED2B8ne190106Ev
	.weak	_ZNSt3__210unique_ptrINS_15__thread_structENS_14default_deleteIS1_EEED2B8ne190106Ev
	.type	_ZNSt3__210unique_ptrINS_15__thread_structENS_14default_deleteIS1_EEED2B8ne190106Ev,@function
_ZNSt3__210unique_ptrINS_15__thread_structENS_14default_deleteIS1_EEED2B8ne190106Ev: # @_ZNSt3__210unique_ptrINS_15__thread_structENS_14default_deleteIS1_EEED2B8ne190106Ev
.Lfunc_begin69:
	.loc	25 261 0 is_stmt 1              # emscripten/cache/sysroot/include/c++/v1/__memory/unique_ptr.h:261:0
	.functype	_ZNSt3__210unique_ptrINS_15__thread_structENS_14default_deleteIS1_EEED2B8ne190106Ev (i32) -> (i32)
	.local  	i32, i32, i32, i32, i32, i32, i32
# %bb.0:                                # %entry
	global.get	__stack_pointer
	local.set	1
	i32.const	16
	local.set	2
	local.get	1
	local.get	2
	i32.sub 
	local.set	3
	local.get	3
	global.set	__stack_pointer
	local.get	3
	local.get	0
	i32.store	12
	local.get	3
	i32.load	12
	local.set	4
.Ltmp179:
	.loc	25 261 71 prologue_end          # emscripten/cache/sysroot/include/c++/v1/__memory/unique_ptr.h:261:71
	i32.const	0
	local.set	5
	local.get	4
	local.get	5
	call	_ZNSt3__210unique_ptrINS_15__thread_structENS_14default_deleteIS1_EEE5resetB8ne190106EPS1_
.Ltmp180:
	.loc	25 261 80 is_stmt 0             # emscripten/cache/sysroot/include/c++/v1/__memory/unique_ptr.h:261:80
	i32.const	16
	local.set	6
	local.get	3
	local.get	6
	i32.add 
	local.set	7
	local.get	7
	global.set	__stack_pointer
	local.get	4
	return
	end_function
.Ltmp181:
.Lfunc_end69:
                                        # -- End function
	.section	.text._ZNSt3__217__compressed_pairIPNS_15__thread_structENS_14default_deleteIS1_EEEC2B8ne190106IRS2_NS_16__value_init_tagEEEOT_OT0_,"G",@,_ZNSt3__217__compressed_pairIPNS_15__thread_structENS_14default_deleteIS1_EEEC2B8ne190106IRS2_NS_16__value_init_tagEEEOT_OT0_,comdat
	.hidden	_ZNSt3__217__compressed_pairIPNS_15__thread_structENS_14default_deleteIS1_EEEC2B8ne190106IRS2_NS_16__value_init_tagEEEOT_OT0_ # -- Begin function _ZNSt3__217__compressed_pairIPNS_15__thread_structENS_14default_deleteIS1_EEEC2B8ne190106IRS2_NS_16__value_init_tagEEEOT_OT0_
	.weak	_ZNSt3__217__compressed_pairIPNS_15__thread_structENS_14default_deleteIS1_EEEC2B8ne190106IRS2_NS_16__value_init_tagEEEOT_OT0_
	.type	_ZNSt3__217__compressed_pairIPNS_15__thread_structENS_14default_deleteIS1_EEEC2B8ne190106IRS2_NS_16__value_init_tagEEEOT_OT0_,@function
_ZNSt3__217__compressed_pairIPNS_15__thread_structENS_14default_deleteIS1_EEEC2B8ne190106IRS2_NS_16__value_init_tagEEEOT_OT0_: # @_ZNSt3__217__compressed_pairIPNS_15__thread_structENS_14default_deleteIS1_EEEC2B8ne190106IRS2_NS_16__value_init_tagEEEOT_OT0_
.Lfunc_begin70:
	.loc	17 119 0 is_stmt 1              # emscripten/cache/sysroot/include/c++/v1/__memory/compressed_pair.h:119:0
	.functype	_ZNSt3__217__compressed_pairIPNS_15__thread_structENS_14default_deleteIS1_EEEC2B8ne190106IRS2_NS_16__value_init_tagEEEOT_OT0_ (i32, i32, i32) -> (i32)
	.local  	i32, i32, i32, i32, i32, i32, i32
# %bb.0:                                # %entry
	global.get	__stack_pointer
	local.set	3
	i32.const	16
	local.set	4
	local.get	3
	local.get	4
	i32.sub 
	local.set	5
	local.get	5
	global.set	__stack_pointer
	local.get	5
	local.get	0
	i32.store	12
	local.get	5
	local.get	1
	i32.store	8
	local.get	5
	local.get	2
	i32.store	4
	local.get	5
	i32.load	12
	local.set	6
.Ltmp182:
	.loc	17 119 34 prologue_end          # emscripten/cache/sysroot/include/c++/v1/__memory/compressed_pair.h:119:34
	local.get	5
	i32.load	8
	local.set	7
	.loc	17 119 9 is_stmt 0              # emscripten/cache/sysroot/include/c++/v1/__memory/compressed_pair.h:119:9
	local.get	6
	local.get	7
	call	_ZNSt3__222__compressed_pair_elemIPNS_15__thread_structELi0ELb0EEC2B8ne190106IRS2_TnNS_9enable_ifIXntsr7is_sameIS3_u7__decayIT_EEE5valueEiE4typeELi0EEEOS7_
	drop
	.loc	17 119 42                       # emscripten/cache/sysroot/include/c++/v1/__memory/compressed_pair.h:119:42
	local.get	6
	call	_ZNSt3__222__compressed_pair_elemINS_14default_deleteINS_15__thread_structEEELi1ELb1EEC2B8ne190106ENS_16__value_init_tagE
	drop
	.loc	17 119 75                       # emscripten/cache/sysroot/include/c++/v1/__memory/compressed_pair.h:119:75
	i32.const	16
	local.set	8
	local.get	5
	local.get	8
	i32.add 
	local.set	9
	local.get	9
	global.set	__stack_pointer
	local.get	6
	return
	end_function
.Ltmp183:
.Lfunc_end70:
                                        # -- End function
	.section	.text._ZNSt3__222__compressed_pair_elemIPNS_15__thread_structELi0ELb0EEC2B8ne190106IRS2_TnNS_9enable_ifIXntsr7is_sameIS3_u7__decayIT_EEE5valueEiE4typeELi0EEEOS7_,"G",@,_ZNSt3__222__compressed_pair_elemIPNS_15__thread_structELi0ELb0EEC2B8ne190106IRS2_TnNS_9enable_ifIXntsr7is_sameIS3_u7__decayIT_EEE5valueEiE4typeELi0EEEOS7_,comdat
	.hidden	_ZNSt3__222__compressed_pair_elemIPNS_15__thread_structELi0ELb0EEC2B8ne190106IRS2_TnNS_9enable_ifIXntsr7is_sameIS3_u7__decayIT_EEE5valueEiE4typeELi0EEEOS7_ # -- Begin function _ZNSt3__222__compressed_pair_elemIPNS_15__thread_structELi0ELb0EEC2B8ne190106IRS2_TnNS_9enable_ifIXntsr7is_sameIS3_u7__decayIT_EEE5valueEiE4typeELi0EEEOS7_
	.weak	_ZNSt3__222__compressed_pair_elemIPNS_15__thread_structELi0ELb0EEC2B8ne190106IRS2_TnNS_9enable_ifIXntsr7is_sameIS3_u7__decayIT_EEE5valueEiE4typeELi0EEEOS7_
	.type	_ZNSt3__222__compressed_pair_elemIPNS_15__thread_structELi0ELb0EEC2B8ne190106IRS2_TnNS_9enable_ifIXntsr7is_sameIS3_u7__decayIT_EEE5valueEiE4typeELi0EEEOS7_,@function
_ZNSt3__222__compressed_pair_elemIPNS_15__thread_structELi0ELb0EEC2B8ne190106IRS2_TnNS_9enable_ifIXntsr7is_sameIS3_u7__decayIT_EEE5valueEiE4typeELi0EEEOS7_: # @_ZNSt3__222__compressed_pair_elemIPNS_15__thread_structELi0ELb0EEC2B8ne190106IRS2_TnNS_9enable_ifIXntsr7is_sameIS3_u7__decayIT_EEE5valueEiE4typeELi0EEEOS7_
.Lfunc_begin71:
	.loc	17 53 0 is_stmt 1               # emscripten/cache/sysroot/include/c++/v1/__memory/compressed_pair.h:53:0
	.functype	_ZNSt3__222__compressed_pair_elemIPNS_15__thread_structELi0ELb0EEC2B8ne190106IRS2_TnNS_9enable_ifIXntsr7is_sameIS3_u7__decayIT_EEE5valueEiE4typeELi0EEEOS7_ (i32, i32) -> (i32)
	.local  	i32, i32, i32, i32, i32, i32
# %bb.0:                                # %entry
	global.get	__stack_pointer
	local.set	2
	i32.const	16
	local.set	3
	local.get	2
	local.get	3
	i32.sub 
	local.set	4
	local.get	4
	local.get	0
	i32.store	12
	local.get	4
	local.get	1
	i32.store	8
	local.get	4
	i32.load	12
	local.set	5
.Ltmp184:
	.loc	17 53 36 prologue_end           # emscripten/cache/sysroot/include/c++/v1/__memory/compressed_pair.h:53:36
	local.get	4
	i32.load	8
	local.set	6
	.loc	17 53 18 is_stmt 0              # emscripten/cache/sysroot/include/c++/v1/__memory/compressed_pair.h:53:18
	local.get	6
	i32.load	0
	local.set	7
	.loc	17 53 9                         # emscripten/cache/sysroot/include/c++/v1/__memory/compressed_pair.h:53:9
	local.get	5
	local.get	7
	i32.store	0
	.loc	17 53 43                        # emscripten/cache/sysroot/include/c++/v1/__memory/compressed_pair.h:53:43
	local.get	5
	return
	end_function
.Ltmp185:
.Lfunc_end71:
                                        # -- End function
	.section	.text._ZNSt3__222__compressed_pair_elemINS_14default_deleteINS_15__thread_structEEELi1ELb1EEC2B8ne190106ENS_16__value_init_tagE,"G",@,_ZNSt3__222__compressed_pair_elemINS_14default_deleteINS_15__thread_structEEELi1ELb1EEC2B8ne190106ENS_16__value_init_tagE,comdat
	.hidden	_ZNSt3__222__compressed_pair_elemINS_14default_deleteINS_15__thread_structEEELi1ELb1EEC2B8ne190106ENS_16__value_init_tagE # -- Begin function _ZNSt3__222__compressed_pair_elemINS_14default_deleteINS_15__thread_structEEELi1ELb1EEC2B8ne190106ENS_16__value_init_tagE
	.weak	_ZNSt3__222__compressed_pair_elemINS_14default_deleteINS_15__thread_structEEELi1ELb1EEC2B8ne190106ENS_16__value_init_tagE
	.type	_ZNSt3__222__compressed_pair_elemINS_14default_deleteINS_15__thread_structEEELi1ELb1EEC2B8ne190106ENS_16__value_init_tagE,@function
_ZNSt3__222__compressed_pair_elemINS_14default_deleteINS_15__thread_structEEELi1ELb1EEC2B8ne190106ENS_16__value_init_tagE: # @_ZNSt3__222__compressed_pair_elemINS_14default_deleteINS_15__thread_structEEELi1ELb1EEC2B8ne190106ENS_16__value_init_tagE
.Lfunc_begin72:
	.loc	17 78 0 is_stmt 1               # emscripten/cache/sysroot/include/c++/v1/__memory/compressed_pair.h:78:0
	.functype	_ZNSt3__222__compressed_pair_elemINS_14default_deleteINS_15__thread_structEEELi1ELb1EEC2B8ne190106ENS_16__value_init_tagE (i32) -> (i32)
	.local  	i32, i32, i32, i32
# %bb.0:                                # %entry
	global.get	__stack_pointer
	local.set	1
	i32.const	16
	local.set	2
	local.get	1
	local.get	2
	i32.sub 
	local.set	3
	local.get	3
	local.get	0
	i32.store	8
	local.get	3
	i32.load	8
	local.set	4
.Ltmp186:
	.loc	17 78 111 prologue_end          # emscripten/cache/sysroot/include/c++/v1/__memory/compressed_pair.h:78:111
	local.get	4
	return
	end_function
.Ltmp187:
.Lfunc_end72:
                                        # -- End function
	.section	".text._ZNSt3__212__tuple_implINS_15__tuple_indicesIJLm0ELm1EEEEJNS_10unique_ptrINS_15__thread_structENS_14default_deleteIS4_EEEEZ20benchmark_atomic_relRNS_6vectorIdNS_9allocatorIdEEEEE3$_0EEC2B8ne190106IJLm0ELm1EEJS7_SD_ETpTnmJEJEJS7_SD_EEENS1_IJXspT_EEEENS_13__tuple_typesIJDpT0_EEENS1_IJXspT1_EEEENSH_IJDpT2_EEEDpOT3_","",@
	.type	_ZNSt3__212__tuple_implINS_15__tuple_indicesIJLm0ELm1EEEEJNS_10unique_ptrINS_15__thread_structENS_14default_deleteIS4_EEEEZ20benchmark_atomic_relRNS_6vectorIdNS_9allocatorIdEEEEE3$_0EEC2B8ne190106IJLm0ELm1EEJS7_SD_ETpTnmJEJEJS7_SD_EEENS1_IJXspT_EEEENS_13__tuple_typesIJDpT0_EEENS1_IJXspT1_EEEENSH_IJDpT2_EEEDpOT3_,@function # -- Begin function _ZNSt3__212__tuple_implINS_15__tuple_indicesIJLm0ELm1EEEEJNS_10unique_ptrINS_15__thread_structENS_14default_deleteIS4_EEEEZ20benchmark_atomic_relRNS_6vectorIdNS_9allocatorIdEEEEE3$_0EEC2B8ne190106IJLm0ELm1EEJS7_SD_ETpTnmJEJEJS7_SD_EEENS1_IJXspT_EEEENS_13__tuple_typesIJDpT0_EEENS1_IJXspT1_EEEENSH_IJDpT2_EEEDpOT3_
_ZNSt3__212__tuple_implINS_15__tuple_indicesIJLm0ELm1EEEEJNS_10unique_ptrINS_15__thread_structENS_14default_deleteIS4_EEEEZ20benchmark_atomic_relRNS_6vectorIdNS_9allocatorIdEEEEE3$_0EEC2B8ne190106IJLm0ELm1EEJS7_SD_ETpTnmJEJEJS7_SD_EEENS1_IJXspT_EEEENS_13__tuple_typesIJDpT0_EEENS1_IJXspT1_EEEENSH_IJDpT2_EEEDpOT3_: # @"_ZNSt3__212__tuple_implINS_15__tuple_indicesIJLm0ELm1EEEEJNS_10unique_ptrINS_15__thread_structENS_14default_deleteIS4_EEEEZ20benchmark_atomic_relRNS_6vectorIdNS_9allocatorIdEEEEE3$_0EEC2B8ne190106IJLm0ELm1EEJS7_SD_ETpTnmJEJEJS7_SD_EEENS1_IJXspT_EEEENS_13__tuple_typesIJDpT0_EEENS1_IJXspT1_EEEENSH_IJDpT2_EEEDpOT3_"
.Lfunc_begin73:
	.loc	30 471 0                        # emscripten/cache/sysroot/include/c++/v1/tuple:471:0
	.functype	_ZNSt3__212__tuple_implINS_15__tuple_indicesIJLm0ELm1EEEEJNS_10unique_ptrINS_15__thread_structENS_14default_deleteIS4_EEEEZ20benchmark_atomic_relRNS_6vectorIdNS_9allocatorIdEEEEE3$_0EEC2B8ne190106IJLm0ELm1EEJS7_SD_ETpTnmJEJEJS7_SD_EEENS1_IJXspT_EEEENS_13__tuple_typesIJDpT0_EEENS1_IJXspT1_EEEENSH_IJDpT2_EEEDpOT3_ (i32, i32, i32) -> (i32)
	.local  	i32, i32, i32, i32, i32, i32, i32, i32, i32, i32
# %bb.0:                                # %entry
	global.get	__stack_pointer
	local.set	3
	i32.const	16
	local.set	4
	local.get	3
	local.get	4
	i32.sub 
	local.set	5
	local.get	5
	global.set	__stack_pointer
	local.get	5
	local.get	0
	i32.store	8
	local.get	5
	local.get	1
	i32.store	4
	local.get	5
	local.get	2
	i32.store	0
	local.get	5
	i32.load	8
	local.set	6
.Ltmp188:
	.loc	30 471 50 prologue_end          # emscripten/cache/sysroot/include/c++/v1/tuple:471:50
	local.get	5
	i32.load	4
	local.set	7
	.loc	30 471 9 is_stmt 0              # emscripten/cache/sysroot/include/c++/v1/tuple:471:9
	local.get	6
	local.get	7
	call	_ZNSt3__212__tuple_leafILm0ENS_10unique_ptrINS_15__thread_structENS_14default_deleteIS2_EEEELb0EEC2B8ne190106IS5_TnNS_9enable_ifIXsr4_AndINS_17integral_constantIbXntu9__is_sameu14__remove_cvrefIT_ES6_EEEENS_16is_constructibleIS5_JSA_EEEEE5valueEiE4typeELi0EEEOSA_
	drop
	.loc	30 471 88                       # emscripten/cache/sysroot/include/c++/v1/tuple:471:88
	i32.const	4
	local.set	8
	local.get	6
	local.get	8
	i32.add 
	local.set	9
	.loc	30 471 50                       # emscripten/cache/sysroot/include/c++/v1/tuple:471:50
	local.get	5
	i32.load	0
	local.set	10
	.loc	30 471 9                        # emscripten/cache/sysroot/include/c++/v1/tuple:471:9
	local.get	9
	local.get	10
	call	_ZNSt3__212__tuple_leafILm1EZ20benchmark_atomic_relRNS_6vectorIdNS_9allocatorIdEEEEE3$_0Lb0EEC2B8ne190106IS6_TnNS_9enable_ifIXsr4_AndINS_17integral_constantIbXntu9__is_sameu14__remove_cvrefIT_ES7_EEEENS_16is_constructibleIS6_JSB_EEEEE5valueEiE4typeELi0EEEOSB_
	drop
	.loc	30 471 89                       # emscripten/cache/sysroot/include/c++/v1/tuple:471:89
	i32.const	16
	local.set	11
	local.get	5
	local.get	11
	i32.add 
	local.set	12
	local.get	12
	global.set	__stack_pointer
	local.get	6
	return
	end_function
.Ltmp189:
.Lfunc_end73:
	.file	39 "/home/kay/Documents/Code/toolchain-wasm" "emscripten/cache/sysroot/include/c++/v1/__tuple/tuple_types.h"
                                        # -- End function
	.section	.text._ZNSt3__212__tuple_leafILm0ENS_10unique_ptrINS_15__thread_structENS_14default_deleteIS2_EEEELb0EEC2B8ne190106IS5_TnNS_9enable_ifIXsr4_AndINS_17integral_constantIbXntu9__is_sameu14__remove_cvrefIT_ES6_EEEENS_16is_constructibleIS5_JSA_EEEEE5valueEiE4typeELi0EEEOSA_,"G",@,_ZNSt3__212__tuple_leafILm0ENS_10unique_ptrINS_15__thread_structENS_14default_deleteIS2_EEEELb0EEC2B8ne190106IS5_TnNS_9enable_ifIXsr4_AndINS_17integral_constantIbXntu9__is_sameu14__remove_cvrefIT_ES6_EEEENS_16is_constructibleIS5_JSA_EEEEE5valueEiE4typeELi0EEEOSA_,comdat
	.hidden	_ZNSt3__212__tuple_leafILm0ENS_10unique_ptrINS_15__thread_structENS_14default_deleteIS2_EEEELb0EEC2B8ne190106IS5_TnNS_9enable_ifIXsr4_AndINS_17integral_constantIbXntu9__is_sameu14__remove_cvrefIT_ES6_EEEENS_16is_constructibleIS5_JSA_EEEEE5valueEiE4typeELi0EEEOSA_ # -- Begin function _ZNSt3__212__tuple_leafILm0ENS_10unique_ptrINS_15__thread_structENS_14default_deleteIS2_EEEELb0EEC2B8ne190106IS5_TnNS_9enable_ifIXsr4_AndINS_17integral_constantIbXntu9__is_sameu14__remove_cvrefIT_ES6_EEEENS_16is_constructibleIS5_JSA_EEEEE5valueEiE4typeELi0EEEOSA_
	.weak	_ZNSt3__212__tuple_leafILm0ENS_10unique_ptrINS_15__thread_structENS_14default_deleteIS2_EEEELb0EEC2B8ne190106IS5_TnNS_9enable_ifIXsr4_AndINS_17integral_constantIbXntu9__is_sameu14__remove_cvrefIT_ES6_EEEENS_16is_constructibleIS5_JSA_EEEEE5valueEiE4typeELi0EEEOSA_
	.type	_ZNSt3__212__tuple_leafILm0ENS_10unique_ptrINS_15__thread_structENS_14default_deleteIS2_EEEELb0EEC2B8ne190106IS5_TnNS_9enable_ifIXsr4_AndINS_17integral_constantIbXntu9__is_sameu14__remove_cvrefIT_ES6_EEEENS_16is_constructibleIS5_JSA_EEEEE5valueEiE4typeELi0EEEOSA_,@function
_ZNSt3__212__tuple_leafILm0ENS_10unique_ptrINS_15__thread_structENS_14default_deleteIS2_EEEELb0EEC2B8ne190106IS5_TnNS_9enable_ifIXsr4_AndINS_17integral_constantIbXntu9__is_sameu14__remove_cvrefIT_ES6_EEEENS_16is_constructibleIS5_JSA_EEEEE5valueEiE4typeELi0EEEOSA_: # @_ZNSt3__212__tuple_leafILm0ENS_10unique_ptrINS_15__thread_structENS_14default_deleteIS2_EEEELb0EEC2B8ne190106IS5_TnNS_9enable_ifIXsr4_AndINS_17integral_constantIbXntu9__is_sameu14__remove_cvrefIT_ES6_EEEENS_16is_constructibleIS5_JSA_EEEEE5valueEiE4typeELi0EEEOSA_
.Lfunc_begin74:
	.loc	30 340 0 is_stmt 1              # emscripten/cache/sysroot/include/c++/v1/tuple:340:0
	.functype	_ZNSt3__212__tuple_leafILm0ENS_10unique_ptrINS_15__thread_structENS_14default_deleteIS2_EEEELb0EEC2B8ne190106IS5_TnNS_9enable_ifIXsr4_AndINS_17integral_constantIbXntu9__is_sameu14__remove_cvrefIT_ES6_EEEENS_16is_constructibleIS5_JSA_EEEEE5valueEiE4typeELi0EEEOSA_ (i32, i32) -> (i32)
	.local  	i32, i32, i32, i32, i32, i32, i32
# %bb.0:                                # %entry
	global.get	__stack_pointer
	local.set	2
	i32.const	16
	local.set	3
	local.get	2
	local.get	3
	i32.sub 
	local.set	4
	local.get	4
	global.set	__stack_pointer
	local.get	4
	local.get	0
	i32.store	12
	local.get	4
	local.get	1
	i32.store	8
	local.get	4
	i32.load	12
	local.set	5
.Ltmp190:
	.loc	30 340 36 prologue_end          # emscripten/cache/sysroot/include/c++/v1/tuple:340:36
	local.get	4
	i32.load	8
	local.set	6
	.loc	30 340 9 is_stmt 0              # emscripten/cache/sysroot/include/c++/v1/tuple:340:9
	local.get	5
	local.get	6
	call	_ZNSt3__210unique_ptrINS_15__thread_structENS_14default_deleteIS1_EEEC2B8ne190106EOS4_
	drop
	.loc	30 343 3 is_stmt 1              # emscripten/cache/sysroot/include/c++/v1/tuple:343:3
	i32.const	16
	local.set	7
	local.get	4
	local.get	7
	i32.add 
	local.set	8
	local.get	8
	global.set	__stack_pointer
	local.get	5
	return
	end_function
.Ltmp191:
.Lfunc_end74:
                                        # -- End function
	.section	".text._ZNSt3__212__tuple_leafILm1EZ20benchmark_atomic_relRNS_6vectorIdNS_9allocatorIdEEEEE3$_0Lb0EEC2B8ne190106IS6_TnNS_9enable_ifIXsr4_AndINS_17integral_constantIbXntu9__is_sameu14__remove_cvrefIT_ES7_EEEENS_16is_constructibleIS6_JSB_EEEEE5valueEiE4typeELi0EEEOSB_","",@
	.type	_ZNSt3__212__tuple_leafILm1EZ20benchmark_atomic_relRNS_6vectorIdNS_9allocatorIdEEEEE3$_0Lb0EEC2B8ne190106IS6_TnNS_9enable_ifIXsr4_AndINS_17integral_constantIbXntu9__is_sameu14__remove_cvrefIT_ES7_EEEENS_16is_constructibleIS6_JSB_EEEEE5valueEiE4typeELi0EEEOSB_,@function # -- Begin function _ZNSt3__212__tuple_leafILm1EZ20benchmark_atomic_relRNS_6vectorIdNS_9allocatorIdEEEEE3$_0Lb0EEC2B8ne190106IS6_TnNS_9enable_ifIXsr4_AndINS_17integral_constantIbXntu9__is_sameu14__remove_cvrefIT_ES7_EEEENS_16is_constructibleIS6_JSB_EEEEE5valueEiE4typeELi0EEEOSB_
_ZNSt3__212__tuple_leafILm1EZ20benchmark_atomic_relRNS_6vectorIdNS_9allocatorIdEEEEE3$_0Lb0EEC2B8ne190106IS6_TnNS_9enable_ifIXsr4_AndINS_17integral_constantIbXntu9__is_sameu14__remove_cvrefIT_ES7_EEEENS_16is_constructibleIS6_JSB_EEEEE5valueEiE4typeELi0EEEOSB_: # @"_ZNSt3__212__tuple_leafILm1EZ20benchmark_atomic_relRNS_6vectorIdNS_9allocatorIdEEEEE3$_0Lb0EEC2B8ne190106IS6_TnNS_9enable_ifIXsr4_AndINS_17integral_constantIbXntu9__is_sameu14__remove_cvrefIT_ES7_EEEENS_16is_constructibleIS6_JSB_EEEEE5valueEiE4typeELi0EEEOSB_"
.Lfunc_begin75:
	.loc	30 340 0                        # emscripten/cache/sysroot/include/c++/v1/tuple:340:0
	.functype	_ZNSt3__212__tuple_leafILm1EZ20benchmark_atomic_relRNS_6vectorIdNS_9allocatorIdEEEEE3$_0Lb0EEC2B8ne190106IS6_TnNS_9enable_ifIXsr4_AndINS_17integral_constantIbXntu9__is_sameu14__remove_cvrefIT_ES7_EEEENS_16is_constructibleIS6_JSB_EEEEE5valueEiE4typeELi0EEEOSB_ (i32, i32) -> (i32)
	.local  	i32, i32, i32, i32, i32, i64, i32, i32, i32, i32
# %bb.0:                                # %entry
	global.get	__stack_pointer
	local.set	2
	i32.const	16
	local.set	3
	local.get	2
	local.get	3
	i32.sub 
	local.set	4
	local.get	4
	local.get	0
	i32.store	12
	local.get	4
	local.get	1
	i32.store	8
	local.get	4
	i32.load	12
	local.set	5
.Ltmp192:
	.loc	30 340 36 prologue_end          # emscripten/cache/sysroot/include/c++/v1/tuple:340:36
	local.get	4
	i32.load	8
	local.set	6
	.loc	30 340 9 is_stmt 0              # emscripten/cache/sysroot/include/c++/v1/tuple:340:9
	local.get	6
	i64.load	0:p2align=2
	local.set	7
	local.get	5
	local.get	7
	i64.store	0:p2align=2
	i32.const	8
	local.set	8
	local.get	5
	local.get	8
	i32.add 
	local.set	9
	local.get	6
	local.get	8
	i32.add 
	local.set	10
	local.get	10
	i32.load	0
	local.set	11
	local.get	9
	local.get	11
	i32.store	0
	.loc	30 343 3 is_stmt 1              # emscripten/cache/sysroot/include/c++/v1/tuple:343:3
	local.get	5
	return
	end_function
.Ltmp193:
.Lfunc_end75:
                                        # -- End function
	.section	.text._ZNSt3__210unique_ptrINS_15__thread_structENS_14default_deleteIS1_EEEC2B8ne190106EOS4_,"G",@,_ZNSt3__210unique_ptrINS_15__thread_structENS_14default_deleteIS1_EEEC2B8ne190106EOS4_,comdat
	.hidden	_ZNSt3__210unique_ptrINS_15__thread_structENS_14default_deleteIS1_EEEC2B8ne190106EOS4_ # -- Begin function _ZNSt3__210unique_ptrINS_15__thread_structENS_14default_deleteIS1_EEEC2B8ne190106EOS4_
	.weak	_ZNSt3__210unique_ptrINS_15__thread_structENS_14default_deleteIS1_EEEC2B8ne190106EOS4_
	.type	_ZNSt3__210unique_ptrINS_15__thread_structENS_14default_deleteIS1_EEEC2B8ne190106EOS4_,@function
_ZNSt3__210unique_ptrINS_15__thread_structENS_14default_deleteIS1_EEEC2B8ne190106EOS4_: # @_ZNSt3__210unique_ptrINS_15__thread_structENS_14default_deleteIS1_EEEC2B8ne190106EOS4_
.Lfunc_begin76:
	.loc	25 216 0                        # emscripten/cache/sysroot/include/c++/v1/__memory/unique_ptr.h:216:0
	.functype	_ZNSt3__210unique_ptrINS_15__thread_structENS_14default_deleteIS1_EEEC2B8ne190106EOS4_ (i32, i32) -> (i32)
	.local  	i32, i32, i32, i32, i32, i32, i32, i32, i32, i32, i32, i32, i32
# %bb.0:                                # %entry
	global.get	__stack_pointer
	local.set	2
	i32.const	16
	local.set	3
	local.get	2
	local.get	3
	i32.sub 
	local.set	4
	local.get	4
	global.set	__stack_pointer
	local.get	4
	local.get	0
	i32.store	12
	local.get	4
	local.get	1
	i32.store	8
	local.get	4
	i32.load	12
	local.set	5
.Ltmp194:
	.loc	25 216 16 prologue_end          # emscripten/cache/sysroot/include/c++/v1/__memory/unique_ptr.h:216:16
	local.get	4
	i32.load	8
	local.set	6
	.loc	25 216 20 is_stmt 0             # emscripten/cache/sysroot/include/c++/v1/__memory/unique_ptr.h:216:20
	local.get	6
	call	_ZNSt3__210unique_ptrINS_15__thread_structENS_14default_deleteIS1_EEE7releaseB8ne190106Ev
	local.set	7
	.loc	25 216 16                       # emscripten/cache/sysroot/include/c++/v1/__memory/unique_ptr.h:216:16
	local.get	4
	local.get	7
	i32.store	4
	.loc	25 216 58                       # emscripten/cache/sysroot/include/c++/v1/__memory/unique_ptr.h:216:58
	local.get	4
	i32.load	8
	local.set	8
	.loc	25 216 62                       # emscripten/cache/sysroot/include/c++/v1/__memory/unique_ptr.h:216:62
	local.get	8
	call	_ZNSt3__210unique_ptrINS_15__thread_structENS_14default_deleteIS1_EEE11get_deleterB8ne190106Ev
	local.set	9
	.loc	25 216 9                        # emscripten/cache/sysroot/include/c++/v1/__memory/unique_ptr.h:216:9
	i32.const	4
	local.set	10
	local.get	4
	local.get	10
	i32.add 
	local.set	11
	local.get	11
	local.set	12
	local.get	5
	local.get	12
	local.get	9
	call	_ZNSt3__217__compressed_pairIPNS_15__thread_structENS_14default_deleteIS1_EEEC2B8ne190106IS2_S4_EEOT_OT0_
	drop
	.loc	25 216 79                       # emscripten/cache/sysroot/include/c++/v1/__memory/unique_ptr.h:216:79
	i32.const	16
	local.set	13
	local.get	4
	local.get	13
	i32.add 
	local.set	14
	local.get	14
	global.set	__stack_pointer
	local.get	5
	return
	end_function
.Ltmp195:
.Lfunc_end76:
                                        # -- End function
	.section	.text._ZNSt3__210unique_ptrINS_15__thread_structENS_14default_deleteIS1_EEE7releaseB8ne190106Ev,"G",@,_ZNSt3__210unique_ptrINS_15__thread_structENS_14default_deleteIS1_EEE7releaseB8ne190106Ev,comdat
	.hidden	_ZNSt3__210unique_ptrINS_15__thread_structENS_14default_deleteIS1_EEE7releaseB8ne190106Ev # -- Begin function _ZNSt3__210unique_ptrINS_15__thread_structENS_14default_deleteIS1_EEE7releaseB8ne190106Ev
	.weak	_ZNSt3__210unique_ptrINS_15__thread_structENS_14default_deleteIS1_EEE7releaseB8ne190106Ev
	.type	_ZNSt3__210unique_ptrINS_15__thread_structENS_14default_deleteIS1_EEE7releaseB8ne190106Ev,@function
_ZNSt3__210unique_ptrINS_15__thread_structENS_14default_deleteIS1_EEE7releaseB8ne190106Ev: # @_ZNSt3__210unique_ptrINS_15__thread_structENS_14default_deleteIS1_EEE7releaseB8ne190106Ev
.Lfunc_begin77:
	.loc	25 282 0 is_stmt 1              # emscripten/cache/sysroot/include/c++/v1/__memory/unique_ptr.h:282:0
	.functype	_ZNSt3__210unique_ptrINS_15__thread_structENS_14default_deleteIS1_EEE7releaseB8ne190106Ev (i32) -> (i32)
	.local  	i32, i32, i32, i32, i32, i32, i32, i32, i32, i32, i32
# %bb.0:                                # %entry
	global.get	__stack_pointer
	local.set	1
	i32.const	16
	local.set	2
	local.get	1
	local.get	2
	i32.sub 
	local.set	3
	local.get	3
	global.set	__stack_pointer
	local.get	3
	local.get	0
	i32.store	12
	local.get	3
	i32.load	12
	local.set	4
.Ltmp196:
	.loc	25 283 29 prologue_end          # emscripten/cache/sysroot/include/c++/v1/__memory/unique_ptr.h:283:29
	local.get	4
	call	_ZNSt3__217__compressed_pairIPNS_15__thread_structENS_14default_deleteIS1_EEE5firstB8ne190106Ev
	local.set	5
	local.get	5
	i32.load	0
	local.set	6
	.loc	25 283 13 is_stmt 0             # emscripten/cache/sysroot/include/c++/v1/__memory/unique_ptr.h:283:13
	local.get	3
	local.get	6
	i32.store	8
	.loc	25 284 12 is_stmt 1             # emscripten/cache/sysroot/include/c++/v1/__memory/unique_ptr.h:284:12
	local.get	4
	call	_ZNSt3__217__compressed_pairIPNS_15__thread_structENS_14default_deleteIS1_EEE5firstB8ne190106Ev
	local.set	7
	.loc	25 284 20 is_stmt 0             # emscripten/cache/sysroot/include/c++/v1/__memory/unique_ptr.h:284:20
	i32.const	0
	local.set	8
	local.get	7
	local.get	8
	i32.store	0
	.loc	25 285 12 is_stmt 1             # emscripten/cache/sysroot/include/c++/v1/__memory/unique_ptr.h:285:12
	local.get	3
	i32.load	8
	local.set	9
	.loc	25 285 5 is_stmt 0              # emscripten/cache/sysroot/include/c++/v1/__memory/unique_ptr.h:285:5
	i32.const	16
	local.set	10
	local.get	3
	local.get	10
	i32.add 
	local.set	11
	local.get	11
	global.set	__stack_pointer
	local.get	9
	return
	end_function
.Ltmp197:
.Lfunc_end77:
                                        # -- End function
	.section	.text._ZNSt3__210unique_ptrINS_15__thread_structENS_14default_deleteIS1_EEE11get_deleterB8ne190106Ev,"G",@,_ZNSt3__210unique_ptrINS_15__thread_structENS_14default_deleteIS1_EEE11get_deleterB8ne190106Ev,comdat
	.hidden	_ZNSt3__210unique_ptrINS_15__thread_structENS_14default_deleteIS1_EEE11get_deleterB8ne190106Ev # -- Begin function _ZNSt3__210unique_ptrINS_15__thread_structENS_14default_deleteIS1_EEE11get_deleterB8ne190106Ev
	.weak	_ZNSt3__210unique_ptrINS_15__thread_structENS_14default_deleteIS1_EEE11get_deleterB8ne190106Ev
	.type	_ZNSt3__210unique_ptrINS_15__thread_structENS_14default_deleteIS1_EEE11get_deleterB8ne190106Ev,@function
_ZNSt3__210unique_ptrINS_15__thread_structENS_14default_deleteIS1_EEE11get_deleterB8ne190106Ev: # @_ZNSt3__210unique_ptrINS_15__thread_structENS_14default_deleteIS1_EEE11get_deleterB8ne190106Ev
.Lfunc_begin78:
	.loc	25 274 0 is_stmt 1              # emscripten/cache/sysroot/include/c++/v1/__memory/unique_ptr.h:274:0
	.functype	_ZNSt3__210unique_ptrINS_15__thread_structENS_14default_deleteIS1_EEE11get_deleterB8ne190106Ev (i32) -> (i32)
	.local  	i32, i32, i32, i32, i32, i32, i32
# %bb.0:                                # %entry
	global.get	__stack_pointer
	local.set	1
	i32.const	16
	local.set	2
	local.get	1
	local.get	2
	i32.sub 
	local.set	3
	local.get	3
	global.set	__stack_pointer
	local.get	3
	local.get	0
	i32.store	12
	local.get	3
	i32.load	12
	local.set	4
.Ltmp198:
	.loc	25 274 109 prologue_end         # emscripten/cache/sysroot/include/c++/v1/__memory/unique_ptr.h:274:109
	local.get	4
	call	_ZNSt3__217__compressed_pairIPNS_15__thread_structENS_14default_deleteIS1_EEE6secondB8ne190106Ev
	local.set	5
	.loc	25 274 95 is_stmt 0             # emscripten/cache/sysroot/include/c++/v1/__memory/unique_ptr.h:274:95
	i32.const	16
	local.set	6
	local.get	3
	local.get	6
	i32.add 
	local.set	7
	local.get	7
	global.set	__stack_pointer
	local.get	5
	return
	end_function
.Ltmp199:
.Lfunc_end78:
                                        # -- End function
	.section	.text._ZNSt3__217__compressed_pairIPNS_15__thread_structENS_14default_deleteIS1_EEEC2B8ne190106IS2_S4_EEOT_OT0_,"G",@,_ZNSt3__217__compressed_pairIPNS_15__thread_structENS_14default_deleteIS1_EEEC2B8ne190106IS2_S4_EEOT_OT0_,comdat
	.hidden	_ZNSt3__217__compressed_pairIPNS_15__thread_structENS_14default_deleteIS1_EEEC2B8ne190106IS2_S4_EEOT_OT0_ # -- Begin function _ZNSt3__217__compressed_pairIPNS_15__thread_structENS_14default_deleteIS1_EEEC2B8ne190106IS2_S4_EEOT_OT0_
	.weak	_ZNSt3__217__compressed_pairIPNS_15__thread_structENS_14default_deleteIS1_EEEC2B8ne190106IS2_S4_EEOT_OT0_
	.type	_ZNSt3__217__compressed_pairIPNS_15__thread_structENS_14default_deleteIS1_EEEC2B8ne190106IS2_S4_EEOT_OT0_,@function
_ZNSt3__217__compressed_pairIPNS_15__thread_structENS_14default_deleteIS1_EEEC2B8ne190106IS2_S4_EEOT_OT0_: # @_ZNSt3__217__compressed_pairIPNS_15__thread_structENS_14default_deleteIS1_EEEC2B8ne190106IS2_S4_EEOT_OT0_
.Lfunc_begin79:
	.loc	17 119 0 is_stmt 1              # emscripten/cache/sysroot/include/c++/v1/__memory/compressed_pair.h:119:0
	.functype	_ZNSt3__217__compressed_pairIPNS_15__thread_structENS_14default_deleteIS1_EEEC2B8ne190106IS2_S4_EEOT_OT0_ (i32, i32, i32) -> (i32)
	.local  	i32, i32, i32, i32, i32, i32, i32, i32
# %bb.0:                                # %entry
	global.get	__stack_pointer
	local.set	3
	i32.const	16
	local.set	4
	local.get	3
	local.get	4
	i32.sub 
	local.set	5
	local.get	5
	global.set	__stack_pointer
	local.get	5
	local.get	0
	i32.store	12
	local.get	5
	local.get	1
	i32.store	8
	local.get	5
	local.get	2
	i32.store	4
	local.get	5
	i32.load	12
	local.set	6
.Ltmp200:
	.loc	17 119 34 prologue_end          # emscripten/cache/sysroot/include/c++/v1/__memory/compressed_pair.h:119:34
	local.get	5
	i32.load	8
	local.set	7
	.loc	17 119 9 is_stmt 0              # emscripten/cache/sysroot/include/c++/v1/__memory/compressed_pair.h:119:9
	local.get	6
	local.get	7
	call	_ZNSt3__222__compressed_pair_elemIPNS_15__thread_structELi0ELb0EEC2B8ne190106IS2_TnNS_9enable_ifIXntsr7is_sameIS3_u7__decayIT_EEE5valueEiE4typeELi0EEEOS6_
	drop
	.loc	17 119 67                       # emscripten/cache/sysroot/include/c++/v1/__memory/compressed_pair.h:119:67
	local.get	5
	i32.load	4
	local.set	8
	.loc	17 119 42                       # emscripten/cache/sysroot/include/c++/v1/__memory/compressed_pair.h:119:42
	local.get	6
	local.get	8
	call	_ZNSt3__222__compressed_pair_elemINS_14default_deleteINS_15__thread_structEEELi1ELb1EEC2B8ne190106IS3_TnNS_9enable_ifIXntsr7is_sameIS4_u7__decayIT_EEE5valueEiE4typeELi0EEEOS7_
	drop
	.loc	17 119 75                       # emscripten/cache/sysroot/include/c++/v1/__memory/compressed_pair.h:119:75
	i32.const	16
	local.set	9
	local.get	5
	local.get	9
	i32.add 
	local.set	10
	local.get	10
	global.set	__stack_pointer
	local.get	6
	return
	end_function
.Ltmp201:
.Lfunc_end79:
                                        # -- End function
	.section	.text._ZNSt3__217__compressed_pairIPNS_15__thread_structENS_14default_deleteIS1_EEE5firstB8ne190106Ev,"G",@,_ZNSt3__217__compressed_pairIPNS_15__thread_structENS_14default_deleteIS1_EEE5firstB8ne190106Ev,comdat
	.hidden	_ZNSt3__217__compressed_pairIPNS_15__thread_structENS_14default_deleteIS1_EEE5firstB8ne190106Ev # -- Begin function _ZNSt3__217__compressed_pairIPNS_15__thread_structENS_14default_deleteIS1_EEE5firstB8ne190106Ev
	.weak	_ZNSt3__217__compressed_pairIPNS_15__thread_structENS_14default_deleteIS1_EEE5firstB8ne190106Ev
	.type	_ZNSt3__217__compressed_pairIPNS_15__thread_structENS_14default_deleteIS1_EEE5firstB8ne190106Ev,@function
_ZNSt3__217__compressed_pairIPNS_15__thread_structENS_14default_deleteIS1_EEE5firstB8ne190106Ev: # @_ZNSt3__217__compressed_pairIPNS_15__thread_structENS_14default_deleteIS1_EEE5firstB8ne190106Ev
.Lfunc_begin80:
	.loc	17 129 0 is_stmt 1              # emscripten/cache/sysroot/include/c++/v1/__memory/compressed_pair.h:129:0
	.functype	_ZNSt3__217__compressed_pairIPNS_15__thread_structENS_14default_deleteIS1_EEE5firstB8ne190106Ev (i32) -> (i32)
	.local  	i32, i32, i32, i32, i32, i32, i32
# %bb.0:                                # %entry
	global.get	__stack_pointer
	local.set	1
	i32.const	16
	local.set	2
	local.get	1
	local.get	2
	i32.sub 
	local.set	3
	local.get	3
	global.set	__stack_pointer
	local.get	3
	local.get	0
	i32.store	12
	local.get	3
	i32.load	12
	local.set	4
.Ltmp202:
	.loc	17 130 40 prologue_end          # emscripten/cache/sysroot/include/c++/v1/__memory/compressed_pair.h:130:40
	local.get	4
	call	_ZNSt3__222__compressed_pair_elemIPNS_15__thread_structELi0ELb0EE5__getB8ne190106Ev
	local.set	5
	.loc	17 130 5 is_stmt 0              # emscripten/cache/sysroot/include/c++/v1/__memory/compressed_pair.h:130:5
	i32.const	16
	local.set	6
	local.get	3
	local.get	6
	i32.add 
	local.set	7
	local.get	7
	global.set	__stack_pointer
	local.get	5
	return
	end_function
.Ltmp203:
.Lfunc_end80:
                                        # -- End function
	.section	.text._ZNSt3__222__compressed_pair_elemIPNS_15__thread_structELi0ELb0EE5__getB8ne190106Ev,"G",@,_ZNSt3__222__compressed_pair_elemIPNS_15__thread_structELi0ELb0EE5__getB8ne190106Ev,comdat
	.hidden	_ZNSt3__222__compressed_pair_elemIPNS_15__thread_structELi0ELb0EE5__getB8ne190106Ev # -- Begin function _ZNSt3__222__compressed_pair_elemIPNS_15__thread_structELi0ELb0EE5__getB8ne190106Ev
	.weak	_ZNSt3__222__compressed_pair_elemIPNS_15__thread_structELi0ELb0EE5__getB8ne190106Ev
	.type	_ZNSt3__222__compressed_pair_elemIPNS_15__thread_structELi0ELb0EE5__getB8ne190106Ev,@function
_ZNSt3__222__compressed_pair_elemIPNS_15__thread_structELi0ELb0EE5__getB8ne190106Ev: # @_ZNSt3__222__compressed_pair_elemIPNS_15__thread_structELi0ELb0EE5__getB8ne190106Ev
.Lfunc_begin81:
	.loc	17 62 0 is_stmt 1               # emscripten/cache/sysroot/include/c++/v1/__memory/compressed_pair.h:62:0
	.functype	_ZNSt3__222__compressed_pair_elemIPNS_15__thread_structELi0ELb0EE5__getB8ne190106Ev (i32) -> (i32)
	.local  	i32, i32, i32, i32
# %bb.0:                                # %entry
	global.get	__stack_pointer
	local.set	1
	i32.const	16
	local.set	2
	local.get	1
	local.get	2
	i32.sub 
	local.set	3
	local.get	3
	local.get	0
	i32.store	12
	local.get	3
	i32.load	12
	local.set	4
.Ltmp204:
	.loc	17 62 85 prologue_end           # emscripten/cache/sysroot/include/c++/v1/__memory/compressed_pair.h:62:85
	local.get	4
	return
	end_function
.Ltmp205:
.Lfunc_end81:
                                        # -- End function
	.section	.text._ZNSt3__217__compressed_pairIPNS_15__thread_structENS_14default_deleteIS1_EEE6secondB8ne190106Ev,"G",@,_ZNSt3__217__compressed_pairIPNS_15__thread_structENS_14default_deleteIS1_EEE6secondB8ne190106Ev,comdat
	.hidden	_ZNSt3__217__compressed_pairIPNS_15__thread_structENS_14default_deleteIS1_EEE6secondB8ne190106Ev # -- Begin function _ZNSt3__217__compressed_pairIPNS_15__thread_structENS_14default_deleteIS1_EEE6secondB8ne190106Ev
	.weak	_ZNSt3__217__compressed_pairIPNS_15__thread_structENS_14default_deleteIS1_EEE6secondB8ne190106Ev
	.type	_ZNSt3__217__compressed_pairIPNS_15__thread_structENS_14default_deleteIS1_EEE6secondB8ne190106Ev,@function
_ZNSt3__217__compressed_pairIPNS_15__thread_structENS_14default_deleteIS1_EEE6secondB8ne190106Ev: # @_ZNSt3__217__compressed_pairIPNS_15__thread_structENS_14default_deleteIS1_EEE6secondB8ne190106Ev
.Lfunc_begin82:
	.loc	17 137 0                        # emscripten/cache/sysroot/include/c++/v1/__memory/compressed_pair.h:137:0
	.functype	_ZNSt3__217__compressed_pairIPNS_15__thread_structENS_14default_deleteIS1_EEE6secondB8ne190106Ev (i32) -> (i32)
	.local  	i32, i32, i32, i32, i32, i32, i32
# %bb.0:                                # %entry
	global.get	__stack_pointer
	local.set	1
	i32.const	16
	local.set	2
	local.get	1
	local.get	2
	i32.sub 
	local.set	3
	local.get	3
	global.set	__stack_pointer
	local.get	3
	local.get	0
	i32.store	12
	local.get	3
	i32.load	12
	local.set	4
.Ltmp206:
	.loc	17 138 40 prologue_end          # emscripten/cache/sysroot/include/c++/v1/__memory/compressed_pair.h:138:40
	local.get	4
	call	_ZNSt3__222__compressed_pair_elemINS_14default_deleteINS_15__thread_structEEELi1ELb1EE5__getB8ne190106Ev
	local.set	5
	.loc	17 138 5 is_stmt 0              # emscripten/cache/sysroot/include/c++/v1/__memory/compressed_pair.h:138:5
	i32.const	16
	local.set	6
	local.get	3
	local.get	6
	i32.add 
	local.set	7
	local.get	7
	global.set	__stack_pointer
	local.get	5
	return
	end_function
.Ltmp207:
.Lfunc_end82:
                                        # -- End function
	.section	.text._ZNSt3__222__compressed_pair_elemINS_14default_deleteINS_15__thread_structEEELi1ELb1EE5__getB8ne190106Ev,"G",@,_ZNSt3__222__compressed_pair_elemINS_14default_deleteINS_15__thread_structEEELi1ELb1EE5__getB8ne190106Ev,comdat
	.hidden	_ZNSt3__222__compressed_pair_elemINS_14default_deleteINS_15__thread_structEEELi1ELb1EE5__getB8ne190106Ev # -- Begin function _ZNSt3__222__compressed_pair_elemINS_14default_deleteINS_15__thread_structEEELi1ELb1EE5__getB8ne190106Ev
	.weak	_ZNSt3__222__compressed_pair_elemINS_14default_deleteINS_15__thread_structEEELi1ELb1EE5__getB8ne190106Ev
	.type	_ZNSt3__222__compressed_pair_elemINS_14default_deleteINS_15__thread_structEEELi1ELb1EE5__getB8ne190106Ev,@function
_ZNSt3__222__compressed_pair_elemINS_14default_deleteINS_15__thread_structEEELi1ELb1EE5__getB8ne190106Ev: # @_ZNSt3__222__compressed_pair_elemINS_14default_deleteINS_15__thread_structEEELi1ELb1EE5__getB8ne190106Ev
.Lfunc_begin83:
	.loc	17 91 0 is_stmt 1               # emscripten/cache/sysroot/include/c++/v1/__memory/compressed_pair.h:91:0
	.functype	_ZNSt3__222__compressed_pair_elemINS_14default_deleteINS_15__thread_structEEELi1ELb1EE5__getB8ne190106Ev (i32) -> (i32)
	.local  	i32, i32, i32, i32
# %bb.0:                                # %entry
	global.get	__stack_pointer
	local.set	1
	i32.const	16
	local.set	2
	local.get	1
	local.get	2
	i32.sub 
	local.set	3
	local.get	3
	local.get	0
	i32.store	12
	local.get	3
	i32.load	12
	local.set	4
.Ltmp208:
	.loc	17 91 85 prologue_end           # emscripten/cache/sysroot/include/c++/v1/__memory/compressed_pair.h:91:85
	local.get	4
	return
	end_function
.Ltmp209:
.Lfunc_end83:
                                        # -- End function
	.section	.text._ZNSt3__222__compressed_pair_elemIPNS_15__thread_structELi0ELb0EEC2B8ne190106IS2_TnNS_9enable_ifIXntsr7is_sameIS3_u7__decayIT_EEE5valueEiE4typeELi0EEEOS6_,"G",@,_ZNSt3__222__compressed_pair_elemIPNS_15__thread_structELi0ELb0EEC2B8ne190106IS2_TnNS_9enable_ifIXntsr7is_sameIS3_u7__decayIT_EEE5valueEiE4typeELi0EEEOS6_,comdat
	.hidden	_ZNSt3__222__compressed_pair_elemIPNS_15__thread_structELi0ELb0EEC2B8ne190106IS2_TnNS_9enable_ifIXntsr7is_sameIS3_u7__decayIT_EEE5valueEiE4typeELi0EEEOS6_ # -- Begin function _ZNSt3__222__compressed_pair_elemIPNS_15__thread_structELi0ELb0EEC2B8ne190106IS2_TnNS_9enable_ifIXntsr7is_sameIS3_u7__decayIT_EEE5valueEiE4typeELi0EEEOS6_
	.weak	_ZNSt3__222__compressed_pair_elemIPNS_15__thread_structELi0ELb0EEC2B8ne190106IS2_TnNS_9enable_ifIXntsr7is_sameIS3_u7__decayIT_EEE5valueEiE4typeELi0EEEOS6_
	.type	_ZNSt3__222__compressed_pair_elemIPNS_15__thread_structELi0ELb0EEC2B8ne190106IS2_TnNS_9enable_ifIXntsr7is_sameIS3_u7__decayIT_EEE5valueEiE4typeELi0EEEOS6_,@function
_ZNSt3__222__compressed_pair_elemIPNS_15__thread_structELi0ELb0EEC2B8ne190106IS2_TnNS_9enable_ifIXntsr7is_sameIS3_u7__decayIT_EEE5valueEiE4typeELi0EEEOS6_: # @_ZNSt3__222__compressed_pair_elemIPNS_15__thread_structELi0ELb0EEC2B8ne190106IS2_TnNS_9enable_ifIXntsr7is_sameIS3_u7__decayIT_EEE5valueEiE4typeELi0EEEOS6_
.Lfunc_begin84:
	.loc	17 53 0                         # emscripten/cache/sysroot/include/c++/v1/__memory/compressed_pair.h:53:0
	.functype	_ZNSt3__222__compressed_pair_elemIPNS_15__thread_structELi0ELb0EEC2B8ne190106IS2_TnNS_9enable_ifIXntsr7is_sameIS3_u7__decayIT_EEE5valueEiE4typeELi0EEEOS6_ (i32, i32) -> (i32)
	.local  	i32, i32, i32, i32, i32, i32
# %bb.0:                                # %entry
	global.get	__stack_pointer
	local.set	2
	i32.const	16
	local.set	3
	local.get	2
	local.get	3
	i32.sub 
	local.set	4
	local.get	4
	local.get	0
	i32.store	12
	local.get	4
	local.get	1
	i32.store	8
	local.get	4
	i32.load	12
	local.set	5
.Ltmp210:
	.loc	17 53 36 prologue_end           # emscripten/cache/sysroot/include/c++/v1/__memory/compressed_pair.h:53:36
	local.get	4
	i32.load	8
	local.set	6
	.loc	17 53 18 is_stmt 0              # emscripten/cache/sysroot/include/c++/v1/__memory/compressed_pair.h:53:18
	local.get	6
	i32.load	0
	local.set	7
	.loc	17 53 9                         # emscripten/cache/sysroot/include/c++/v1/__memory/compressed_pair.h:53:9
	local.get	5
	local.get	7
	i32.store	0
	.loc	17 53 43                        # emscripten/cache/sysroot/include/c++/v1/__memory/compressed_pair.h:53:43
	local.get	5
	return
	end_function
.Ltmp211:
.Lfunc_end84:
                                        # -- End function
	.section	.text._ZNSt3__222__compressed_pair_elemINS_14default_deleteINS_15__thread_structEEELi1ELb1EEC2B8ne190106IS3_TnNS_9enable_ifIXntsr7is_sameIS4_u7__decayIT_EEE5valueEiE4typeELi0EEEOS7_,"G",@,_ZNSt3__222__compressed_pair_elemINS_14default_deleteINS_15__thread_structEEELi1ELb1EEC2B8ne190106IS3_TnNS_9enable_ifIXntsr7is_sameIS4_u7__decayIT_EEE5valueEiE4typeELi0EEEOS7_,comdat
	.hidden	_ZNSt3__222__compressed_pair_elemINS_14default_deleteINS_15__thread_structEEELi1ELb1EEC2B8ne190106IS3_TnNS_9enable_ifIXntsr7is_sameIS4_u7__decayIT_EEE5valueEiE4typeELi0EEEOS7_ # -- Begin function _ZNSt3__222__compressed_pair_elemINS_14default_deleteINS_15__thread_structEEELi1ELb1EEC2B8ne190106IS3_TnNS_9enable_ifIXntsr7is_sameIS4_u7__decayIT_EEE5valueEiE4typeELi0EEEOS7_
	.weak	_ZNSt3__222__compressed_pair_elemINS_14default_deleteINS_15__thread_structEEELi1ELb1EEC2B8ne190106IS3_TnNS_9enable_ifIXntsr7is_sameIS4_u7__decayIT_EEE5valueEiE4typeELi0EEEOS7_
	.type	_ZNSt3__222__compressed_pair_elemINS_14default_deleteINS_15__thread_structEEELi1ELb1EEC2B8ne190106IS3_TnNS_9enable_ifIXntsr7is_sameIS4_u7__decayIT_EEE5valueEiE4typeELi0EEEOS7_,@function
_ZNSt3__222__compressed_pair_elemINS_14default_deleteINS_15__thread_structEEELi1ELb1EEC2B8ne190106IS3_TnNS_9enable_ifIXntsr7is_sameIS4_u7__decayIT_EEE5valueEiE4typeELi0EEEOS7_: # @_ZNSt3__222__compressed_pair_elemINS_14default_deleteINS_15__thread_structEEELi1ELb1EEC2B8ne190106IS3_TnNS_9enable_ifIXntsr7is_sameIS4_u7__decayIT_EEE5valueEiE4typeELi0EEEOS7_
.Lfunc_begin85:
	.loc	17 82 0 is_stmt 1               # emscripten/cache/sysroot/include/c++/v1/__memory/compressed_pair.h:82:0
	.functype	_ZNSt3__222__compressed_pair_elemINS_14default_deleteINS_15__thread_structEEELi1ELb1EEC2B8ne190106IS3_TnNS_9enable_ifIXntsr7is_sameIS4_u7__decayIT_EEE5valueEiE4typeELi0EEEOS7_ (i32, i32) -> (i32)
	.local  	i32, i32, i32, i32
# %bb.0:                                # %entry
	global.get	__stack_pointer
	local.set	2
	i32.const	16
	local.set	3
	local.get	2
	local.get	3
	i32.sub 
	local.set	4
	local.get	4
	local.get	0
	i32.store	12
	local.get	4
	local.get	1
	i32.store	8
	local.get	4
	i32.load	12
	local.set	5
.Ltmp212:
	.loc	17 82 47 prologue_end           # emscripten/cache/sysroot/include/c++/v1/__memory/compressed_pair.h:82:47
	local.get	5
	return
	end_function
.Ltmp213:
.Lfunc_end85:
                                        # -- End function
	.section	".text._ZNSt3__217__compressed_pairIPNS_5tupleIJNS_10unique_ptrINS_15__thread_structENS_14default_deleteIS3_EEEEZ20benchmark_atomic_relRNS_6vectorIdNS_9allocatorIdEEEEE3$_0EEENS4_ISD_EEEC2B8ne190106IRSE_NS_16__value_init_tagEEEOT_OT0_","",@
	.type	_ZNSt3__217__compressed_pairIPNS_5tupleIJNS_10unique_ptrINS_15__thread_structENS_14default_deleteIS3_EEEEZ20benchmark_atomic_relRNS_6vectorIdNS_9allocatorIdEEEEE3$_0EEENS4_ISD_EEEC2B8ne190106IRSE_NS_16__value_init_tagEEEOT_OT0_,@function # -- Begin function _ZNSt3__217__compressed_pairIPNS_5tupleIJNS_10unique_ptrINS_15__thread_structENS_14default_deleteIS3_EEEEZ20benchmark_atomic_relRNS_6vectorIdNS_9allocatorIdEEEEE3$_0EEENS4_ISD_EEEC2B8ne190106IRSE_NS_16__value_init_tagEEEOT_OT0_
_ZNSt3__217__compressed_pairIPNS_5tupleIJNS_10unique_ptrINS_15__thread_structENS_14default_deleteIS3_EEEEZ20benchmark_atomic_relRNS_6vectorIdNS_9allocatorIdEEEEE3$_0EEENS4_ISD_EEEC2B8ne190106IRSE_NS_16__value_init_tagEEEOT_OT0_: # @"_ZNSt3__217__compressed_pairIPNS_5tupleIJNS_10unique_ptrINS_15__thread_structENS_14default_deleteIS3_EEEEZ20benchmark_atomic_relRNS_6vectorIdNS_9allocatorIdEEEEE3$_0EEENS4_ISD_EEEC2B8ne190106IRSE_NS_16__value_init_tagEEEOT_OT0_"
.Lfunc_begin86:
	.loc	17 119 0                        # emscripten/cache/sysroot/include/c++/v1/__memory/compressed_pair.h:119:0
	.functype	_ZNSt3__217__compressed_pairIPNS_5tupleIJNS_10unique_ptrINS_15__thread_structENS_14default_deleteIS3_EEEEZ20benchmark_atomic_relRNS_6vectorIdNS_9allocatorIdEEEEE3$_0EEENS4_ISD_EEEC2B8ne190106IRSE_NS_16__value_init_tagEEEOT_OT0_ (i32, i32, i32) -> (i32)
	.local  	i32, i32, i32, i32, i32, i32, i32
# %bb.0:                                # %entry
	global.get	__stack_pointer
	local.set	3
	i32.const	16
	local.set	4
	local.get	3
	local.get	4
	i32.sub 
	local.set	5
	local.get	5
	global.set	__stack_pointer
	local.get	5
	local.get	0
	i32.store	12
	local.get	5
	local.get	1
	i32.store	8
	local.get	5
	local.get	2
	i32.store	4
	local.get	5
	i32.load	12
	local.set	6
.Ltmp214:
	.loc	17 119 34 prologue_end          # emscripten/cache/sysroot/include/c++/v1/__memory/compressed_pair.h:119:34
	local.get	5
	i32.load	8
	local.set	7
	.loc	17 119 9 is_stmt 0              # emscripten/cache/sysroot/include/c++/v1/__memory/compressed_pair.h:119:9
	local.get	6
	local.get	7
	call	_ZNSt3__222__compressed_pair_elemIPNS_5tupleIJNS_10unique_ptrINS_15__thread_structENS_14default_deleteIS3_EEEEZ20benchmark_atomic_relRNS_6vectorIdNS_9allocatorIdEEEEE3$_0EEELi0ELb0EEC2B8ne190106IRSE_TnNS_9enable_ifIXntsr7is_sameISF_u7__decayIT_EEE5valueEiE4typeELi0EEEOSJ_
	drop
	.loc	17 119 42                       # emscripten/cache/sysroot/include/c++/v1/__memory/compressed_pair.h:119:42
	local.get	6
	call	_ZNSt3__222__compressed_pair_elemINS_14default_deleteINS_5tupleIJNS_10unique_ptrINS_15__thread_structENS1_IS4_EEEEZ20benchmark_atomic_relRNS_6vectorIdNS_9allocatorIdEEEEE3$_0EEEEELi1ELb1EEC2B8ne190106ENS_16__value_init_tagE
	drop
	.loc	17 119 75                       # emscripten/cache/sysroot/include/c++/v1/__memory/compressed_pair.h:119:75
	i32.const	16
	local.set	8
	local.get	5
	local.get	8
	i32.add 
	local.set	9
	local.get	9
	global.set	__stack_pointer
	local.get	6
	return
	end_function
.Ltmp215:
.Lfunc_end86:
                                        # -- End function
	.section	".text._ZNSt3__222__compressed_pair_elemIPNS_5tupleIJNS_10unique_ptrINS_15__thread_structENS_14default_deleteIS3_EEEEZ20benchmark_atomic_relRNS_6vectorIdNS_9allocatorIdEEEEE3$_0EEELi0ELb0EEC2B8ne190106IRSE_TnNS_9enable_ifIXntsr7is_sameISF_u7__decayIT_EEE5valueEiE4typeELi0EEEOSJ_","",@
	.type	_ZNSt3__222__compressed_pair_elemIPNS_5tupleIJNS_10unique_ptrINS_15__thread_structENS_14default_deleteIS3_EEEEZ20benchmark_atomic_relRNS_6vectorIdNS_9allocatorIdEEEEE3$_0EEELi0ELb0EEC2B8ne190106IRSE_TnNS_9enable_ifIXntsr7is_sameISF_u7__decayIT_EEE5valueEiE4typeELi0EEEOSJ_,@function # -- Begin function _ZNSt3__222__compressed_pair_elemIPNS_5tupleIJNS_10unique_ptrINS_15__thread_structENS_14default_deleteIS3_EEEEZ20benchmark_atomic_relRNS_6vectorIdNS_9allocatorIdEEEEE3$_0EEELi0ELb0EEC2B8ne190106IRSE_TnNS_9enable_ifIXntsr7is_sameISF_u7__decayIT_EEE5valueEiE4typeELi0EEEOSJ_
_ZNSt3__222__compressed_pair_elemIPNS_5tupleIJNS_10unique_ptrINS_15__thread_structENS_14default_deleteIS3_EEEEZ20benchmark_atomic_relRNS_6vectorIdNS_9allocatorIdEEEEE3$_0EEELi0ELb0EEC2B8ne190106IRSE_TnNS_9enable_ifIXntsr7is_sameISF_u7__decayIT_EEE5valueEiE4typeELi0EEEOSJ_: # @"_ZNSt3__222__compressed_pair_elemIPNS_5tupleIJNS_10unique_ptrINS_15__thread_structENS_14default_deleteIS3_EEEEZ20benchmark_atomic_relRNS_6vectorIdNS_9allocatorIdEEEEE3$_0EEELi0ELb0EEC2B8ne190106IRSE_TnNS_9enable_ifIXntsr7is_sameISF_u7__decayIT_EEE5valueEiE4typeELi0EEEOSJ_"
.Lfunc_begin87:
	.loc	17 53 0 is_stmt 1               # emscripten/cache/sysroot/include/c++/v1/__memory/compressed_pair.h:53:0
	.functype	_ZNSt3__222__compressed_pair_elemIPNS_5tupleIJNS_10unique_ptrINS_15__thread_structENS_14default_deleteIS3_EEEEZ20benchmark_atomic_relRNS_6vectorIdNS_9allocatorIdEEEEE3$_0EEELi0ELb0EEC2B8ne190106IRSE_TnNS_9enable_ifIXntsr7is_sameISF_u7__decayIT_EEE5valueEiE4typeELi0EEEOSJ_ (i32, i32) -> (i32)
	.local  	i32, i32, i32, i32, i32, i32
# %bb.0:                                # %entry
	global.get	__stack_pointer
	local.set	2
	i32.const	16
	local.set	3
	local.get	2
	local.get	3
	i32.sub 
	local.set	4
	local.get	4
	local.get	0
	i32.store	12
	local.get	4
	local.get	1
	i32.store	8
	local.get	4
	i32.load	12
	local.set	5
.Ltmp216:
	.loc	17 53 36 prologue_end           # emscripten/cache/sysroot/include/c++/v1/__memory/compressed_pair.h:53:36
	local.get	4
	i32.load	8
	local.set	6
	.loc	17 53 18 is_stmt 0              # emscripten/cache/sysroot/include/c++/v1/__memory/compressed_pair.h:53:18
	local.get	6
	i32.load	0
	local.set	7
	.loc	17 53 9                         # emscripten/cache/sysroot/include/c++/v1/__memory/compressed_pair.h:53:9
	local.get	5
	local.get	7
	i32.store	0
	.loc	17 53 43                        # emscripten/cache/sysroot/include/c++/v1/__memory/compressed_pair.h:53:43
	local.get	5
	return
	end_function
.Ltmp217:
.Lfunc_end87:
                                        # -- End function
	.section	".text._ZNSt3__222__compressed_pair_elemINS_14default_deleteINS_5tupleIJNS_10unique_ptrINS_15__thread_structENS1_IS4_EEEEZ20benchmark_atomic_relRNS_6vectorIdNS_9allocatorIdEEEEE3$_0EEEEELi1ELb1EEC2B8ne190106ENS_16__value_init_tagE","",@
	.type	_ZNSt3__222__compressed_pair_elemINS_14default_deleteINS_5tupleIJNS_10unique_ptrINS_15__thread_structENS1_IS4_EEEEZ20benchmark_atomic_relRNS_6vectorIdNS_9allocatorIdEEEEE3$_0EEEEELi1ELb1EEC2B8ne190106ENS_16__value_init_tagE,@function # -- Begin function _ZNSt3__222__compressed_pair_elemINS_14default_deleteINS_5tupleIJNS_10unique_ptrINS_15__thread_structENS1_IS4_EEEEZ20benchmark_atomic_relRNS_6vectorIdNS_9allocatorIdEEEEE3$_0EEEEELi1ELb1EEC2B8ne190106ENS_16__value_init_tagE
_ZNSt3__222__compressed_pair_elemINS_14default_deleteINS_5tupleIJNS_10unique_ptrINS_15__thread_structENS1_IS4_EEEEZ20benchmark_atomic_relRNS_6vectorIdNS_9allocatorIdEEEEE3$_0EEEEELi1ELb1EEC2B8ne190106ENS_16__value_init_tagE: # @"_ZNSt3__222__compressed_pair_elemINS_14default_deleteINS_5tupleIJNS_10unique_ptrINS_15__thread_structENS1_IS4_EEEEZ20benchmark_atomic_relRNS_6vectorIdNS_9allocatorIdEEEEE3$_0EEEEELi1ELb1EEC2B8ne190106ENS_16__value_init_tagE"
.Lfunc_begin88:
	.loc	17 78 0 is_stmt 1               # emscripten/cache/sysroot/include/c++/v1/__memory/compressed_pair.h:78:0
	.functype	_ZNSt3__222__compressed_pair_elemINS_14default_deleteINS_5tupleIJNS_10unique_ptrINS_15__thread_structENS1_IS4_EEEEZ20benchmark_atomic_relRNS_6vectorIdNS_9allocatorIdEEEEE3$_0EEEEELi1ELb1EEC2B8ne190106ENS_16__value_init_tagE (i32) -> (i32)
	.local  	i32, i32, i32, i32
# %bb.0:                                # %entry
	global.get	__stack_pointer
	local.set	1
	i32.const	16
	local.set	2
	local.get	1
	local.get	2
	i32.sub 
	local.set	3
	local.get	3
	local.get	0
	i32.store	8
	local.get	3
	i32.load	8
	local.set	4
.Ltmp218:
	.loc	17 78 111 prologue_end          # emscripten/cache/sysroot/include/c++/v1/__memory/compressed_pair.h:78:111
	local.get	4
	return
	end_function
.Ltmp219:
.Lfunc_end88:
                                        # -- End function
	.section	.text._ZNSt3__221__thread_specific_ptrINS_15__thread_structEE11set_pointerEPS1_,"G",@,_ZNSt3__221__thread_specific_ptrINS_15__thread_structEE11set_pointerEPS1_,comdat
	.hidden	_ZNSt3__221__thread_specific_ptrINS_15__thread_structEE11set_pointerEPS1_ # -- Begin function _ZNSt3__221__thread_specific_ptrINS_15__thread_structEE11set_pointerEPS1_
	.weak	_ZNSt3__221__thread_specific_ptrINS_15__thread_structEE11set_pointerEPS1_
	.type	_ZNSt3__221__thread_specific_ptrINS_15__thread_structEE11set_pointerEPS1_,@function
_ZNSt3__221__thread_specific_ptrINS_15__thread_structEE11set_pointerEPS1_: # @_ZNSt3__221__thread_specific_ptrINS_15__thread_structEE11set_pointerEPS1_
.Lfunc_begin89:
	.loc	7 108 0                         # emscripten/cache/sysroot/include/c++/v1/__thread/thread.h:108:0
	.functype	_ZNSt3__221__thread_specific_ptrINS_15__thread_structEE11set_pointerEPS1_ (i32, i32) -> ()
	.local  	i32, i32, i32, i32, i32, i32, i32, i32
# %bb.0:                                # %entry
	global.get	__stack_pointer
	local.set	2
	i32.const	16
	local.set	3
	local.get	2
	local.get	3
	i32.sub 
	local.set	4
	local.get	4
	global.set	__stack_pointer
	local.get	4
	local.get	0
	i32.store	12
	local.get	4
	local.get	1
	i32.store	8
	local.get	4
	i32.load	12
	local.set	5
.Ltmp220:
	.loc	7 110 25 prologue_end           # emscripten/cache/sysroot/include/c++/v1/__thread/thread.h:110:25
	local.get	5
	i32.load	0
	local.set	6
	.loc	7 110 33 is_stmt 0              # emscripten/cache/sysroot/include/c++/v1/__thread/thread.h:110:33
	local.get	4
	i32.load	8
	local.set	7
	.loc	7 110 3                         # emscripten/cache/sysroot/include/c++/v1/__thread/thread.h:110:3
	local.get	6
	local.get	7
	call	_ZNSt3__216__libcpp_tls_setB8ne190106EjPv
	drop
	.loc	7 111 1 is_stmt 1               # emscripten/cache/sysroot/include/c++/v1/__thread/thread.h:111:1
	i32.const	16
	local.set	8
	local.get	4
	local.get	8
	i32.add 
	local.set	9
	local.get	9
	global.set	__stack_pointer
	return
	end_function
.Ltmp221:
.Lfunc_end89:
                                        # -- End function
	.section	".text._ZNSt3__23getB8ne190106ILm0EJNS_10unique_ptrINS_15__thread_structENS_14default_deleteIS2_EEEEZ20benchmark_atomic_relRNS_6vectorIdNS_9allocatorIdEEEEE3$_0EEERNS_13tuple_elementIXT_ENS_5tupleIJDpT0_EEEE4typeERSG_","",@
	.type	_ZNSt3__23getB8ne190106ILm0EJNS_10unique_ptrINS_15__thread_structENS_14default_deleteIS2_EEEEZ20benchmark_atomic_relRNS_6vectorIdNS_9allocatorIdEEEEE3$_0EEERNS_13tuple_elementIXT_ENS_5tupleIJDpT0_EEEE4typeERSG_,@function # -- Begin function _ZNSt3__23getB8ne190106ILm0EJNS_10unique_ptrINS_15__thread_structENS_14default_deleteIS2_EEEEZ20benchmark_atomic_relRNS_6vectorIdNS_9allocatorIdEEEEE3$_0EEERNS_13tuple_elementIXT_ENS_5tupleIJDpT0_EEEE4typeERSG_
_ZNSt3__23getB8ne190106ILm0EJNS_10unique_ptrINS_15__thread_structENS_14default_deleteIS2_EEEEZ20benchmark_atomic_relRNS_6vectorIdNS_9allocatorIdEEEEE3$_0EEERNS_13tuple_elementIXT_ENS_5tupleIJDpT0_EEEE4typeERSG_: # @"_ZNSt3__23getB8ne190106ILm0EJNS_10unique_ptrINS_15__thread_structENS_14default_deleteIS2_EEEEZ20benchmark_atomic_relRNS_6vectorIdNS_9allocatorIdEEEEE3$_0EEERNS_13tuple_elementIXT_ENS_5tupleIJDpT0_EEEE4typeERSG_"
.Lfunc_begin90:
	.loc	30 1064 0                       # emscripten/cache/sysroot/include/c++/v1/tuple:1064:0
	.functype	_ZNSt3__23getB8ne190106ILm0EJNS_10unique_ptrINS_15__thread_structENS_14default_deleteIS2_EEEEZ20benchmark_atomic_relRNS_6vectorIdNS_9allocatorIdEEEEE3$_0EEERNS_13tuple_elementIXT_ENS_5tupleIJDpT0_EEEE4typeERSG_ (i32) -> (i32)
	.local  	i32, i32, i32, i32, i32, i32, i32
# %bb.0:                                # %entry
	global.get	__stack_pointer
	local.set	1
	i32.const	16
	local.set	2
	local.get	1
	local.get	2
	i32.sub 
	local.set	3
	local.get	3
	global.set	__stack_pointer
	local.get	3
	local.get	0
	i32.store	12
.Ltmp222:
	.loc	30 1066 48 prologue_end         # emscripten/cache/sysroot/include/c++/v1/tuple:1066:48
	local.get	3
	i32.load	12
	local.set	4
	.loc	30 1066 61 is_stmt 0            # emscripten/cache/sysroot/include/c++/v1/tuple:1066:61
	local.get	4
	call	_ZNSt3__212__tuple_leafILm0ENS_10unique_ptrINS_15__thread_structENS_14default_deleteIS2_EEEELb0EE3getB8ne190106Ev
	local.set	5
	.loc	30 1066 3                       # emscripten/cache/sysroot/include/c++/v1/tuple:1066:3
	i32.const	16
	local.set	6
	local.get	3
	local.get	6
	i32.add 
	local.set	7
	local.get	7
	global.set	__stack_pointer
	local.get	5
	return
	end_function
.Ltmp223:
.Lfunc_end90:
                                        # -- End function
	.section	".text._ZNSt3__216__thread_executeB8ne190106INS_10unique_ptrINS_15__thread_structENS_14default_deleteIS2_EEEEZ20benchmark_atomic_relRNS_6vectorIdNS_9allocatorIdEEEEE3$_0JETpTnmJEEEvRNS_5tupleIJT_T0_DpT1_EEENS_15__tuple_indicesIJXspT2_EEEE","",@
	.type	_ZNSt3__216__thread_executeB8ne190106INS_10unique_ptrINS_15__thread_structENS_14default_deleteIS2_EEEEZ20benchmark_atomic_relRNS_6vectorIdNS_9allocatorIdEEEEE3$_0JETpTnmJEEEvRNS_5tupleIJT_T0_DpT1_EEENS_15__tuple_indicesIJXspT2_EEEE,@function # -- Begin function _ZNSt3__216__thread_executeB8ne190106INS_10unique_ptrINS_15__thread_structENS_14default_deleteIS2_EEEEZ20benchmark_atomic_relRNS_6vectorIdNS_9allocatorIdEEEEE3$_0JETpTnmJEEEvRNS_5tupleIJT_T0_DpT1_EEENS_15__tuple_indicesIJXspT2_EEEE
_ZNSt3__216__thread_executeB8ne190106INS_10unique_ptrINS_15__thread_structENS_14default_deleteIS2_EEEEZ20benchmark_atomic_relRNS_6vectorIdNS_9allocatorIdEEEEE3$_0JETpTnmJEEEvRNS_5tupleIJT_T0_DpT1_EEENS_15__tuple_indicesIJXspT2_EEEE: # @"_ZNSt3__216__thread_executeB8ne190106INS_10unique_ptrINS_15__thread_structENS_14default_deleteIS2_EEEEZ20benchmark_atomic_relRNS_6vectorIdNS_9allocatorIdEEEEE3$_0JETpTnmJEEEvRNS_5tupleIJT_T0_DpT1_EEENS_15__tuple_indicesIJXspT2_EEEE"
.Lfunc_begin91:
	.loc	7 191 0 is_stmt 1               # emscripten/cache/sysroot/include/c++/v1/__thread/thread.h:191:0
	.functype	_ZNSt3__216__thread_executeB8ne190106INS_10unique_ptrINS_15__thread_structENS_14default_deleteIS2_EEEEZ20benchmark_atomic_relRNS_6vectorIdNS_9allocatorIdEEEEE3$_0JETpTnmJEEEvRNS_5tupleIJT_T0_DpT1_EEENS_15__tuple_indicesIJXspT2_EEEE (i32) -> ()
	.local  	i32, i32, i32, i32, i32, i32, i32
# %bb.0:                                # %entry
	global.get	__stack_pointer
	local.set	1
	i32.const	16
	local.set	2
	local.get	1
	local.get	2
	i32.sub 
	local.set	3
	local.get	3
	global.set	__stack_pointer
	local.get	3
	local.get	0
	i32.store	8
.Ltmp224:
	.loc	7 192 39 prologue_end           # emscripten/cache/sysroot/include/c++/v1/__thread/thread.h:192:39
	local.get	3
	i32.load	8
	local.set	4
	.loc	7 192 27 is_stmt 0              # emscripten/cache/sysroot/include/c++/v1/__thread/thread.h:192:27
	local.get	4
	call	_ZNSt3__23getB8ne190106ILm1EJNS_10unique_ptrINS_15__thread_structENS_14default_deleteIS2_EEEEZ20benchmark_atomic_relRNS_6vectorIdNS_9allocatorIdEEEEE3$_0EEERNS_13tuple_elementIXT_ENS_5tupleIJDpT0_EEEE4typeERSG_
	local.set	5
	.loc	7 192 3                         # emscripten/cache/sysroot/include/c++/v1/__thread/thread.h:192:3
	local.get	5
	call	_ZNSt3__28__invokeB8ne190106IZ20benchmark_atomic_relRNS_6vectorIdNS_9allocatorIdEEEEE3$_0JEEEDTclclsr3stdE7declvalIT_EEspclsr3stdE7declvalIT0_EEEEOS7_DpOS8_
	.loc	7 193 1 is_stmt 1               # emscripten/cache/sysroot/include/c++/v1/__thread/thread.h:193:1
	i32.const	16
	local.set	6
	local.get	3
	local.get	6
	i32.add 
	local.set	7
	local.get	7
	global.set	__stack_pointer
	return
	end_function
.Ltmp225:
.Lfunc_end91:
                                        # -- End function
	.section	.text._ZNSt3__216__libcpp_tls_setB8ne190106EjPv,"G",@,_ZNSt3__216__libcpp_tls_setB8ne190106EjPv,comdat
	.hidden	_ZNSt3__216__libcpp_tls_setB8ne190106EjPv # -- Begin function _ZNSt3__216__libcpp_tls_setB8ne190106EjPv
	.weak	_ZNSt3__216__libcpp_tls_setB8ne190106EjPv
	.type	_ZNSt3__216__libcpp_tls_setB8ne190106EjPv,@function
_ZNSt3__216__libcpp_tls_setB8ne190106EjPv: # @_ZNSt3__216__libcpp_tls_setB8ne190106EjPv
.Lfunc_begin92:
	.loc	14 215 0                        # emscripten/cache/sysroot/include/c++/v1/__thread/support/pthread.h:215:0
	.functype	_ZNSt3__216__libcpp_tls_setB8ne190106EjPv (i32, i32) -> (i32)
	.local  	i32, i32, i32, i32, i32, i32, i32, i32
# %bb.0:                                # %entry
	global.get	__stack_pointer
	local.set	2
	i32.const	16
	local.set	3
	local.get	2
	local.get	3
	i32.sub 
	local.set	4
	local.get	4
	global.set	__stack_pointer
	local.get	4
	local.get	0
	i32.store	12
	local.get	4
	local.get	1
	i32.store	8
.Ltmp226:
	.loc	14 216 30 prologue_end          # emscripten/cache/sysroot/include/c++/v1/__thread/support/pthread.h:216:30
	local.get	4
	i32.load	12
	local.set	5
	.loc	14 216 37 is_stmt 0             # emscripten/cache/sysroot/include/c++/v1/__thread/support/pthread.h:216:37
	local.get	4
	i32.load	8
	local.set	6
	.loc	14 216 10                       # emscripten/cache/sysroot/include/c++/v1/__thread/support/pthread.h:216:10
	local.get	5
	local.get	6
	call	pthread_setspecific
	local.set	7
	.loc	14 216 3                        # emscripten/cache/sysroot/include/c++/v1/__thread/support/pthread.h:216:3
	i32.const	16
	local.set	8
	local.get	4
	local.get	8
	i32.add 
	local.set	9
	local.get	9
	global.set	__stack_pointer
	local.get	7
	return
	end_function
.Ltmp227:
.Lfunc_end92:
                                        # -- End function
	.section	.text._ZNSt3__212__tuple_leafILm0ENS_10unique_ptrINS_15__thread_structENS_14default_deleteIS2_EEEELb0EE3getB8ne190106Ev,"G",@,_ZNSt3__212__tuple_leafILm0ENS_10unique_ptrINS_15__thread_structENS_14default_deleteIS2_EEEELb0EE3getB8ne190106Ev,comdat
	.hidden	_ZNSt3__212__tuple_leafILm0ENS_10unique_ptrINS_15__thread_structENS_14default_deleteIS2_EEEELb0EE3getB8ne190106Ev # -- Begin function _ZNSt3__212__tuple_leafILm0ENS_10unique_ptrINS_15__thread_structENS_14default_deleteIS2_EEEELb0EE3getB8ne190106Ev
	.weak	_ZNSt3__212__tuple_leafILm0ENS_10unique_ptrINS_15__thread_structENS_14default_deleteIS2_EEEELb0EE3getB8ne190106Ev
	.type	_ZNSt3__212__tuple_leafILm0ENS_10unique_ptrINS_15__thread_structENS_14default_deleteIS2_EEEELb0EE3getB8ne190106Ev,@function
_ZNSt3__212__tuple_leafILm0ENS_10unique_ptrINS_15__thread_structENS_14default_deleteIS2_EEEELb0EE3getB8ne190106Ev: # @_ZNSt3__212__tuple_leafILm0ENS_10unique_ptrINS_15__thread_structENS_14default_deleteIS2_EEEELb0EE3getB8ne190106Ev
.Lfunc_begin93:
	.loc	30 382 0 is_stmt 1              # emscripten/cache/sysroot/include/c++/v1/tuple:382:0
	.functype	_ZNSt3__212__tuple_leafILm0ENS_10unique_ptrINS_15__thread_structENS_14default_deleteIS2_EEEELb0EE3getB8ne190106Ev (i32) -> (i32)
	.local  	i32, i32, i32, i32
# %bb.0:                                # %entry
	global.get	__stack_pointer
	local.set	1
	i32.const	16
	local.set	2
	local.get	1
	local.get	2
	i32.sub 
	local.set	3
	local.get	3
	local.get	0
	i32.store	12
	local.get	3
	i32.load	12
	local.set	4
.Ltmp228:
	.loc	30 382 78 prologue_end          # emscripten/cache/sysroot/include/c++/v1/tuple:382:78
	local.get	4
	return
	end_function
.Ltmp229:
.Lfunc_end93:
                                        # -- End function
	.section	".text._ZNSt3__28__invokeB8ne190106IZ20benchmark_atomic_relRNS_6vectorIdNS_9allocatorIdEEEEE3$_0JEEEDTclclsr3stdE7declvalIT_EEspclsr3stdE7declvalIT0_EEEEOS7_DpOS8_","",@
	.type	_ZNSt3__28__invokeB8ne190106IZ20benchmark_atomic_relRNS_6vectorIdNS_9allocatorIdEEEEE3$_0JEEEDTclclsr3stdE7declvalIT_EEspclsr3stdE7declvalIT0_EEEEOS7_DpOS8_,@function # -- Begin function _ZNSt3__28__invokeB8ne190106IZ20benchmark_atomic_relRNS_6vectorIdNS_9allocatorIdEEEEE3$_0JEEEDTclclsr3stdE7declvalIT_EEspclsr3stdE7declvalIT0_EEEEOS7_DpOS8_
_ZNSt3__28__invokeB8ne190106IZ20benchmark_atomic_relRNS_6vectorIdNS_9allocatorIdEEEEE3$_0JEEEDTclclsr3stdE7declvalIT_EEspclsr3stdE7declvalIT0_EEEEOS7_DpOS8_: # @"_ZNSt3__28__invokeB8ne190106IZ20benchmark_atomic_relRNS_6vectorIdNS_9allocatorIdEEEEE3$_0JEEEDTclclsr3stdE7declvalIT_EEspclsr3stdE7declvalIT0_EEEEOS7_DpOS8_"
.Lfunc_begin94:
	.file	40 "/home/kay/Documents/Code/toolchain-wasm" "emscripten/cache/sysroot/include/c++/v1/__type_traits/invoke.h"
	.loc	40 149 0                        # emscripten/cache/sysroot/include/c++/v1/__type_traits/invoke.h:149:0
	.functype	_ZNSt3__28__invokeB8ne190106IZ20benchmark_atomic_relRNS_6vectorIdNS_9allocatorIdEEEEE3$_0JEEEDTclclsr3stdE7declvalIT_EEspclsr3stdE7declvalIT0_EEEEOS7_DpOS8_ (i32) -> ()
	.local  	i32, i32, i32, i32, i32, i32
# %bb.0:                                # %entry
	global.get	__stack_pointer
	local.set	1
	i32.const	16
	local.set	2
	local.get	1
	local.get	2
	i32.sub 
	local.set	3
	local.get	3
	global.set	__stack_pointer
	local.get	3
	local.get	0
	i32.store	12
.Ltmp230:
	.loc	40 149 44 prologue_end          # emscripten/cache/sysroot/include/c++/v1/__type_traits/invoke.h:149:44
	local.get	3
	i32.load	12
	local.set	4
	.loc	40 149 25 is_stmt 0             # emscripten/cache/sysroot/include/c++/v1/__type_traits/invoke.h:149:25
	local.get	4
	call	_ZZ20benchmark_atomic_relRNSt3__26vectorIdNS_9allocatorIdEEEEENK3$_0clEv
	.loc	40 149 18                       # emscripten/cache/sysroot/include/c++/v1/__type_traits/invoke.h:149:18
	i32.const	16
	local.set	5
	local.get	3
	local.get	5
	i32.add 
	local.set	6
	local.get	6
	global.set	__stack_pointer
	return
	end_function
.Ltmp231:
.Lfunc_end94:
                                        # -- End function
	.section	".text._ZNSt3__23getB8ne190106ILm1EJNS_10unique_ptrINS_15__thread_structENS_14default_deleteIS2_EEEEZ20benchmark_atomic_relRNS_6vectorIdNS_9allocatorIdEEEEE3$_0EEERNS_13tuple_elementIXT_ENS_5tupleIJDpT0_EEEE4typeERSG_","",@
	.type	_ZNSt3__23getB8ne190106ILm1EJNS_10unique_ptrINS_15__thread_structENS_14default_deleteIS2_EEEEZ20benchmark_atomic_relRNS_6vectorIdNS_9allocatorIdEEEEE3$_0EEERNS_13tuple_elementIXT_ENS_5tupleIJDpT0_EEEE4typeERSG_,@function # -- Begin function _ZNSt3__23getB8ne190106ILm1EJNS_10unique_ptrINS_15__thread_structENS_14default_deleteIS2_EEEEZ20benchmark_atomic_relRNS_6vectorIdNS_9allocatorIdEEEEE3$_0EEERNS_13tuple_elementIXT_ENS_5tupleIJDpT0_EEEE4typeERSG_
_ZNSt3__23getB8ne190106ILm1EJNS_10unique_ptrINS_15__thread_structENS_14default_deleteIS2_EEEEZ20benchmark_atomic_relRNS_6vectorIdNS_9allocatorIdEEEEE3$_0EEERNS_13tuple_elementIXT_ENS_5tupleIJDpT0_EEEE4typeERSG_: # @"_ZNSt3__23getB8ne190106ILm1EJNS_10unique_ptrINS_15__thread_structENS_14default_deleteIS2_EEEEZ20benchmark_atomic_relRNS_6vectorIdNS_9allocatorIdEEEEE3$_0EEERNS_13tuple_elementIXT_ENS_5tupleIJDpT0_EEEE4typeERSG_"
.Lfunc_begin95:
	.loc	30 1064 0 is_stmt 1             # emscripten/cache/sysroot/include/c++/v1/tuple:1064:0
	.functype	_ZNSt3__23getB8ne190106ILm1EJNS_10unique_ptrINS_15__thread_structENS_14default_deleteIS2_EEEEZ20benchmark_atomic_relRNS_6vectorIdNS_9allocatorIdEEEEE3$_0EEERNS_13tuple_elementIXT_ENS_5tupleIJDpT0_EEEE4typeERSG_ (i32) -> (i32)
	.local  	i32, i32, i32, i32, i32, i32, i32, i32, i32
# %bb.0:                                # %entry
	global.get	__stack_pointer
	local.set	1
	i32.const	16
	local.set	2
	local.get	1
	local.get	2
	i32.sub 
	local.set	3
	local.get	3
	global.set	__stack_pointer
	local.get	3
	local.get	0
	i32.store	12
.Ltmp232:
	.loc	30 1066 48 prologue_end         # emscripten/cache/sysroot/include/c++/v1/tuple:1066:48
	local.get	3
	i32.load	12
	local.set	4
	i32.const	4
	local.set	5
	local.get	4
	local.get	5
	i32.add 
	local.set	6
	.loc	30 1066 61 is_stmt 0            # emscripten/cache/sysroot/include/c++/v1/tuple:1066:61
	local.get	6
	call	_ZNSt3__212__tuple_leafILm1EZ20benchmark_atomic_relRNS_6vectorIdNS_9allocatorIdEEEEE3$_0Lb0EE3getB8ne190106Ev
	local.set	7
	.loc	30 1066 3                       # emscripten/cache/sysroot/include/c++/v1/tuple:1066:3
	i32.const	16
	local.set	8
	local.get	3
	local.get	8
	i32.add 
	local.set	9
	local.get	9
	global.set	__stack_pointer
	local.get	7
	return
	end_function
.Ltmp233:
.Lfunc_end95:
                                        # -- End function
	.section	".text._ZZ20benchmark_atomic_relRNSt3__26vectorIdNS_9allocatorIdEEEEENK3$_0clEv","",@
	.type	_ZZ20benchmark_atomic_relRNSt3__26vectorIdNS_9allocatorIdEEEEENK3$_0clEv,@function # -- Begin function _ZZ20benchmark_atomic_relRNSt3__26vectorIdNS_9allocatorIdEEEEENK3$_0clEv
_ZZ20benchmark_atomic_relRNSt3__26vectorIdNS_9allocatorIdEEEEENK3$_0clEv: # @"_ZZ20benchmark_atomic_relRNSt3__26vectorIdNS_9allocatorIdEEEEENK3$_0clEv"
.Lfunc_begin96:
	.loc	5 26 0 is_stmt 1                # 1_StoreRelThread.cpp:26:0
	.functype	_ZZ20benchmark_atomic_relRNSt3__26vectorIdNS_9allocatorIdEEEEENK3$_0clEv (i32) -> ()
	.local  	i32, i32, i32, i32, i32, i32, i32, i32, i32, i32, i32, i64, i32, i32, i32, i32, i32, i32, i32, i32, i32, i32, i32, i32, i32, i32, i32, i32, i32, i32, i32, i32, i32, i32, i32, i32, i32, i32, i32, i32, i32, i32, i32, i32, i32, i32, i32, i32, i32, i32, i32, i32, i32, i32, i32, i32, i32, i32, i32, i32, i32, i32, i32, i32, i32, i32, i32, i32, i32, i32, i32, i32, i32, i32, i32, i32, i32, i32, i32, i32, i32, i32, i32, i32, i32, i32, i32, i32, i32, i32, i32, i32, i32, i32, i32, i32, i32, i32, i32, i32, i32, i32, i32, i32, i32, i32, i32, i32, i32, i32, i32, i32, i32, i32, i32, i32, i32, i32, i32, i32, i32, i32, i32, i32, i32, i32, i32, i32, i32, i32, i32, i32, i32, i32, i32, i32, i32, i32, i32, i32, i32, i32, i32, i32, i32, i32, i32, i32, i32, i32, i32, i32, i32, i32, i32, i32, i32, i32, i32, i32, i32, i64, i32, i32, i32, i32, i32, i32, i64, i32, i32, i32, i32, i32, i32, i32, f64, i32, i32, i32, i32, i32
# %bb.0:                                # %entry
	global.get	__stack_pointer
	local.set	1
	i32.const	48
	local.set	2
	local.get	1
	local.get	2
	i32.sub 
	local.set	3
	local.get	3
	global.set	__stack_pointer
	local.get	3
	local.get	0
	i32.store	44
	local.get	3
	i32.load	44
	local.set	4
.Ltmp234:
	.loc	5 28 16 prologue_end            # 1_StoreRelThread.cpp:28:16
	call	rand
	local.set	5
	.loc	5 28 28 is_stmt 0               # 1_StoreRelThread.cpp:28:28
	i32.const	100
	local.set	6
	local.get	5
	local.get	6
	i32.rem_s
	local.set	7
	.loc	5 28 34                         # 1_StoreRelThread.cpp:28:34
	i32.const	1
	local.set	8
	local.get	7
	local.get	8
	i32.add 
	local.set	9
	.loc	5 28 8                          # 1_StoreRelThread.cpp:28:8
	local.get	3
	local.get	9
	i32.store	40
	.loc	5 30 4 is_stmt 1                # 1_StoreRelThread.cpp:30:4
	i32.const	.L.str.5
	local.set	10
	i32.const	0
	local.set	11
	local.get	10
	local.get	11
	call	printf
	drop
	.loc	5 31 4                          # 1_StoreRelThread.cpp:31:4
	call	_Z14wait_for_startv
	.loc	5 33 17                         # 1_StoreRelThread.cpp:33:17
	call	_ZNSt3__26chrono12steady_clock3nowEv
	local.set	12
	local.get	3
	local.get	12
	i64.store	32
.Ltmp235:
	.loc	5 34 15                         # 1_StoreRelThread.cpp:34:15
	i32.const	0
	local.set	13
	local.get	3
	local.get	13
	i32.store	28
.LBB96_1:                               # %for.cond
                                        # =>This Inner Loop Header: Depth=1
.Ltmp236:
	.loc	5 34 22 is_stmt 0               # 1_StoreRelThread.cpp:34:22
	block   	
	loop    	                                # label29:
	local.get	3
	i32.load	28
	local.set	14
	.loc	5 34 24                         # 1_StoreRelThread.cpp:34:24
	i32.const	500000
	local.set	15
	local.get	14
	local.get	15
	i32.lt_u
	local.set	16
.Ltmp237:
	.loc	5 34 4                          # 1_StoreRelThread.cpp:34:4
	i32.const	1
	local.set	17
	local.get	16
	local.get	17
	i32.and 
	local.set	18
	local.get	18
	i32.eqz
	br_if   	1                               # 1: down to label28
# %bb.2:                                # %for.body
                                        #   in Loop: Header=BB96_1 Depth=1
.Ltmp238:
	.loc	5 39 5 is_stmt 1                # 1_StoreRelThread.cpp:39:5
	local.get	4
	i32.load	8
	local.set	19
	.loc	5 39 26 is_stmt 0               # 1_StoreRelThread.cpp:39:26
	local.get	4
	i32.load	8
	local.set	20
	.loc	5 39 41                         # 1_StoreRelThread.cpp:39:41
	i32.const	5
	local.set	21
	local.get	20
	local.get	21
	call	_ZNVKSt3__213__atomic_baseIiLb0EE4loadB8ne190106ENS_12memory_orderE
	local.set	22
	.loc	5 39 48                         # 1_StoreRelThread.cpp:39:48
	i32.const	1
	local.set	23
	local.get	22
	local.get	23
	i32.add 
	local.set	24
	.loc	5 39 20                         # 1_StoreRelThread.cpp:39:20
	i32.const	5
	local.set	25
	local.get	19
	local.get	24
	local.get	25
	call	_ZNVSt3__213__atomic_baseIiLb0EE5storeB8ne190106EiNS_12memory_orderE
	.loc	5 40 5 is_stmt 1                # 1_StoreRelThread.cpp:40:5
	local.get	4
	i32.load	8
	local.set	26
	.loc	5 40 26 is_stmt 0               # 1_StoreRelThread.cpp:40:26
	local.get	4
	i32.load	8
	local.set	27
	.loc	5 40 41                         # 1_StoreRelThread.cpp:40:41
	i32.const	5
	local.set	28
	local.get	27
	local.get	28
	call	_ZNVKSt3__213__atomic_baseIiLb0EE4loadB8ne190106ENS_12memory_orderE
	local.set	29
	.loc	5 40 48                         # 1_StoreRelThread.cpp:40:48
	i32.const	1
	local.set	30
	local.get	29
	local.get	30
	i32.add 
	local.set	31
	.loc	5 40 20                         # 1_StoreRelThread.cpp:40:20
	i32.const	5
	local.set	32
	local.get	26
	local.get	31
	local.get	32
	call	_ZNVSt3__213__atomic_baseIiLb0EE5storeB8ne190106EiNS_12memory_orderE
	.loc	5 41 5 is_stmt 1                # 1_StoreRelThread.cpp:41:5
	local.get	4
	i32.load	8
	local.set	33
	.loc	5 41 26 is_stmt 0               # 1_StoreRelThread.cpp:41:26
	local.get	4
	i32.load	8
	local.set	34
	.loc	5 41 41                         # 1_StoreRelThread.cpp:41:41
	i32.const	5
	local.set	35
	local.get	34
	local.get	35
	call	_ZNVKSt3__213__atomic_baseIiLb0EE4loadB8ne190106ENS_12memory_orderE
	local.set	36
	.loc	5 41 48                         # 1_StoreRelThread.cpp:41:48
	i32.const	1
	local.set	37
	local.get	36
	local.get	37
	i32.add 
	local.set	38
	.loc	5 41 20                         # 1_StoreRelThread.cpp:41:20
	i32.const	5
	local.set	39
	local.get	33
	local.get	38
	local.get	39
	call	_ZNVSt3__213__atomic_baseIiLb0EE5storeB8ne190106EiNS_12memory_orderE
	.loc	5 42 5 is_stmt 1                # 1_StoreRelThread.cpp:42:5
	local.get	4
	i32.load	8
	local.set	40
	.loc	5 42 26 is_stmt 0               # 1_StoreRelThread.cpp:42:26
	local.get	4
	i32.load	8
	local.set	41
	.loc	5 42 41                         # 1_StoreRelThread.cpp:42:41
	i32.const	5
	local.set	42
	local.get	41
	local.get	42
	call	_ZNVKSt3__213__atomic_baseIiLb0EE4loadB8ne190106ENS_12memory_orderE
	local.set	43
	.loc	5 42 48                         # 1_StoreRelThread.cpp:42:48
	i32.const	1
	local.set	44
	local.get	43
	local.get	44
	i32.add 
	local.set	45
	.loc	5 42 20                         # 1_StoreRelThread.cpp:42:20
	i32.const	5
	local.set	46
	local.get	40
	local.get	45
	local.get	46
	call	_ZNVSt3__213__atomic_baseIiLb0EE5storeB8ne190106EiNS_12memory_orderE
	.loc	5 43 5 is_stmt 1                # 1_StoreRelThread.cpp:43:5
	local.get	4
	i32.load	8
	local.set	47
	.loc	5 43 26 is_stmt 0               # 1_StoreRelThread.cpp:43:26
	local.get	4
	i32.load	8
	local.set	48
	.loc	5 43 41                         # 1_StoreRelThread.cpp:43:41
	i32.const	5
	local.set	49
	local.get	48
	local.get	49
	call	_ZNVKSt3__213__atomic_baseIiLb0EE4loadB8ne190106ENS_12memory_orderE
	local.set	50
	.loc	5 43 48                         # 1_StoreRelThread.cpp:43:48
	i32.const	1
	local.set	51
	local.get	50
	local.get	51
	i32.add 
	local.set	52
	.loc	5 43 20                         # 1_StoreRelThread.cpp:43:20
	i32.const	5
	local.set	53
	local.get	47
	local.get	52
	local.get	53
	call	_ZNVSt3__213__atomic_baseIiLb0EE5storeB8ne190106EiNS_12memory_orderE
	.loc	5 44 5 is_stmt 1                # 1_StoreRelThread.cpp:44:5
	local.get	4
	i32.load	8
	local.set	54
	.loc	5 44 26 is_stmt 0               # 1_StoreRelThread.cpp:44:26
	local.get	4
	i32.load	8
	local.set	55
	.loc	5 44 41                         # 1_StoreRelThread.cpp:44:41
	i32.const	5
	local.set	56
	local.get	55
	local.get	56
	call	_ZNVKSt3__213__atomic_baseIiLb0EE4loadB8ne190106ENS_12memory_orderE
	local.set	57
	.loc	5 44 48                         # 1_StoreRelThread.cpp:44:48
	i32.const	1
	local.set	58
	local.get	57
	local.get	58
	i32.add 
	local.set	59
	.loc	5 44 20                         # 1_StoreRelThread.cpp:44:20
	i32.const	5
	local.set	60
	local.get	54
	local.get	59
	local.get	60
	call	_ZNVSt3__213__atomic_baseIiLb0EE5storeB8ne190106EiNS_12memory_orderE
	.loc	5 45 5 is_stmt 1                # 1_StoreRelThread.cpp:45:5
	local.get	4
	i32.load	8
	local.set	61
	.loc	5 45 26 is_stmt 0               # 1_StoreRelThread.cpp:45:26
	local.get	4
	i32.load	8
	local.set	62
	.loc	5 45 41                         # 1_StoreRelThread.cpp:45:41
	i32.const	5
	local.set	63
	local.get	62
	local.get	63
	call	_ZNVKSt3__213__atomic_baseIiLb0EE4loadB8ne190106ENS_12memory_orderE
	local.set	64
	.loc	5 45 48                         # 1_StoreRelThread.cpp:45:48
	i32.const	1
	local.set	65
	local.get	64
	local.get	65
	i32.add 
	local.set	66
	.loc	5 45 20                         # 1_StoreRelThread.cpp:45:20
	i32.const	5
	local.set	67
	local.get	61
	local.get	66
	local.get	67
	call	_ZNVSt3__213__atomic_baseIiLb0EE5storeB8ne190106EiNS_12memory_orderE
	.loc	5 46 5 is_stmt 1                # 1_StoreRelThread.cpp:46:5
	local.get	4
	i32.load	8
	local.set	68
	.loc	5 46 26 is_stmt 0               # 1_StoreRelThread.cpp:46:26
	local.get	4
	i32.load	8
	local.set	69
	.loc	5 46 41                         # 1_StoreRelThread.cpp:46:41
	i32.const	5
	local.set	70
	local.get	69
	local.get	70
	call	_ZNVKSt3__213__atomic_baseIiLb0EE4loadB8ne190106ENS_12memory_orderE
	local.set	71
	.loc	5 46 48                         # 1_StoreRelThread.cpp:46:48
	i32.const	1
	local.set	72
	local.get	71
	local.get	72
	i32.add 
	local.set	73
	.loc	5 46 20                         # 1_StoreRelThread.cpp:46:20
	i32.const	5
	local.set	74
	local.get	68
	local.get	73
	local.get	74
	call	_ZNVSt3__213__atomic_baseIiLb0EE5storeB8ne190106EiNS_12memory_orderE
	.loc	5 47 5 is_stmt 1                # 1_StoreRelThread.cpp:47:5
	local.get	4
	i32.load	8
	local.set	75
	.loc	5 47 26 is_stmt 0               # 1_StoreRelThread.cpp:47:26
	local.get	4
	i32.load	8
	local.set	76
	.loc	5 47 41                         # 1_StoreRelThread.cpp:47:41
	i32.const	5
	local.set	77
	local.get	76
	local.get	77
	call	_ZNVKSt3__213__atomic_baseIiLb0EE4loadB8ne190106ENS_12memory_orderE
	local.set	78
	.loc	5 47 48                         # 1_StoreRelThread.cpp:47:48
	i32.const	1
	local.set	79
	local.get	78
	local.get	79
	i32.add 
	local.set	80
	.loc	5 47 20                         # 1_StoreRelThread.cpp:47:20
	i32.const	5
	local.set	81
	local.get	75
	local.get	80
	local.get	81
	call	_ZNVSt3__213__atomic_baseIiLb0EE5storeB8ne190106EiNS_12memory_orderE
	.loc	5 48 5 is_stmt 1                # 1_StoreRelThread.cpp:48:5
	local.get	4
	i32.load	8
	local.set	82
	.loc	5 48 26 is_stmt 0               # 1_StoreRelThread.cpp:48:26
	local.get	4
	i32.load	8
	local.set	83
	.loc	5 48 41                         # 1_StoreRelThread.cpp:48:41
	i32.const	5
	local.set	84
	local.get	83
	local.get	84
	call	_ZNVKSt3__213__atomic_baseIiLb0EE4loadB8ne190106ENS_12memory_orderE
	local.set	85
	.loc	5 48 48                         # 1_StoreRelThread.cpp:48:48
	i32.const	1
	local.set	86
	local.get	85
	local.get	86
	i32.add 
	local.set	87
	.loc	5 48 20                         # 1_StoreRelThread.cpp:48:20
	i32.const	5
	local.set	88
	local.get	82
	local.get	87
	local.get	88
	call	_ZNVSt3__213__atomic_baseIiLb0EE5storeB8ne190106EiNS_12memory_orderE
	.loc	5 50 5 is_stmt 1                # 1_StoreRelThread.cpp:50:5
	local.get	4
	i32.load	8
	local.set	89
	.loc	5 50 26 is_stmt 0               # 1_StoreRelThread.cpp:50:26
	local.get	4
	i32.load	8
	local.set	90
	.loc	5 50 41                         # 1_StoreRelThread.cpp:50:41
	i32.const	5
	local.set	91
	local.get	90
	local.get	91
	call	_ZNVKSt3__213__atomic_baseIiLb0EE4loadB8ne190106ENS_12memory_orderE
	local.set	92
	.loc	5 50 48                         # 1_StoreRelThread.cpp:50:48
	i32.const	1
	local.set	93
	local.get	92
	local.get	93
	i32.add 
	local.set	94
	.loc	5 50 20                         # 1_StoreRelThread.cpp:50:20
	i32.const	5
	local.set	95
	local.get	89
	local.get	94
	local.get	95
	call	_ZNVSt3__213__atomic_baseIiLb0EE5storeB8ne190106EiNS_12memory_orderE
	.loc	5 51 5 is_stmt 1                # 1_StoreRelThread.cpp:51:5
	local.get	4
	i32.load	8
	local.set	96
	.loc	5 51 26 is_stmt 0               # 1_StoreRelThread.cpp:51:26
	local.get	4
	i32.load	8
	local.set	97
	.loc	5 51 41                         # 1_StoreRelThread.cpp:51:41
	i32.const	5
	local.set	98
	local.get	97
	local.get	98
	call	_ZNVKSt3__213__atomic_baseIiLb0EE4loadB8ne190106ENS_12memory_orderE
	local.set	99
	.loc	5 51 48                         # 1_StoreRelThread.cpp:51:48
	i32.const	1
	local.set	100
	local.get	99
	local.get	100
	i32.add 
	local.set	101
	.loc	5 51 20                         # 1_StoreRelThread.cpp:51:20
	i32.const	5
	local.set	102
	local.get	96
	local.get	101
	local.get	102
	call	_ZNVSt3__213__atomic_baseIiLb0EE5storeB8ne190106EiNS_12memory_orderE
	.loc	5 52 5 is_stmt 1                # 1_StoreRelThread.cpp:52:5
	local.get	4
	i32.load	8
	local.set	103
	.loc	5 52 26 is_stmt 0               # 1_StoreRelThread.cpp:52:26
	local.get	4
	i32.load	8
	local.set	104
	.loc	5 52 41                         # 1_StoreRelThread.cpp:52:41
	i32.const	5
	local.set	105
	local.get	104
	local.get	105
	call	_ZNVKSt3__213__atomic_baseIiLb0EE4loadB8ne190106ENS_12memory_orderE
	local.set	106
	.loc	5 52 48                         # 1_StoreRelThread.cpp:52:48
	i32.const	1
	local.set	107
	local.get	106
	local.get	107
	i32.add 
	local.set	108
	.loc	5 52 20                         # 1_StoreRelThread.cpp:52:20
	i32.const	5
	local.set	109
	local.get	103
	local.get	108
	local.get	109
	call	_ZNVSt3__213__atomic_baseIiLb0EE5storeB8ne190106EiNS_12memory_orderE
	.loc	5 53 5 is_stmt 1                # 1_StoreRelThread.cpp:53:5
	local.get	4
	i32.load	8
	local.set	110
	.loc	5 53 26 is_stmt 0               # 1_StoreRelThread.cpp:53:26
	local.get	4
	i32.load	8
	local.set	111
	.loc	5 53 41                         # 1_StoreRelThread.cpp:53:41
	i32.const	5
	local.set	112
	local.get	111
	local.get	112
	call	_ZNVKSt3__213__atomic_baseIiLb0EE4loadB8ne190106ENS_12memory_orderE
	local.set	113
	.loc	5 53 48                         # 1_StoreRelThread.cpp:53:48
	i32.const	1
	local.set	114
	local.get	113
	local.get	114
	i32.add 
	local.set	115
	.loc	5 53 20                         # 1_StoreRelThread.cpp:53:20
	i32.const	5
	local.set	116
	local.get	110
	local.get	115
	local.get	116
	call	_ZNVSt3__213__atomic_baseIiLb0EE5storeB8ne190106EiNS_12memory_orderE
	.loc	5 54 5 is_stmt 1                # 1_StoreRelThread.cpp:54:5
	local.get	4
	i32.load	8
	local.set	117
	.loc	5 54 26 is_stmt 0               # 1_StoreRelThread.cpp:54:26
	local.get	4
	i32.load	8
	local.set	118
	.loc	5 54 41                         # 1_StoreRelThread.cpp:54:41
	i32.const	5
	local.set	119
	local.get	118
	local.get	119
	call	_ZNVKSt3__213__atomic_baseIiLb0EE4loadB8ne190106ENS_12memory_orderE
	local.set	120
	.loc	5 54 48                         # 1_StoreRelThread.cpp:54:48
	i32.const	1
	local.set	121
	local.get	120
	local.get	121
	i32.add 
	local.set	122
	.loc	5 54 20                         # 1_StoreRelThread.cpp:54:20
	i32.const	5
	local.set	123
	local.get	117
	local.get	122
	local.get	123
	call	_ZNVSt3__213__atomic_baseIiLb0EE5storeB8ne190106EiNS_12memory_orderE
	.loc	5 55 5 is_stmt 1                # 1_StoreRelThread.cpp:55:5
	local.get	4
	i32.load	8
	local.set	124
	.loc	5 55 26 is_stmt 0               # 1_StoreRelThread.cpp:55:26
	local.get	4
	i32.load	8
	local.set	125
	.loc	5 55 41                         # 1_StoreRelThread.cpp:55:41
	i32.const	5
	local.set	126
	local.get	125
	local.get	126
	call	_ZNVKSt3__213__atomic_baseIiLb0EE4loadB8ne190106ENS_12memory_orderE
	local.set	127
	.loc	5 55 48                         # 1_StoreRelThread.cpp:55:48
	i32.const	1
	local.set	128
	local.get	127
	local.get	128
	i32.add 
	local.set	129
	.loc	5 55 20                         # 1_StoreRelThread.cpp:55:20
	i32.const	5
	local.set	130
	local.get	124
	local.get	129
	local.get	130
	call	_ZNVSt3__213__atomic_baseIiLb0EE5storeB8ne190106EiNS_12memory_orderE
	.loc	5 56 5 is_stmt 1                # 1_StoreRelThread.cpp:56:5
	local.get	4
	i32.load	8
	local.set	131
	.loc	5 56 26 is_stmt 0               # 1_StoreRelThread.cpp:56:26
	local.get	4
	i32.load	8
	local.set	132
	.loc	5 56 41                         # 1_StoreRelThread.cpp:56:41
	i32.const	5
	local.set	133
	local.get	132
	local.get	133
	call	_ZNVKSt3__213__atomic_baseIiLb0EE4loadB8ne190106ENS_12memory_orderE
	local.set	134
	.loc	5 56 48                         # 1_StoreRelThread.cpp:56:48
	i32.const	1
	local.set	135
	local.get	134
	local.get	135
	i32.add 
	local.set	136
	.loc	5 56 20                         # 1_StoreRelThread.cpp:56:20
	i32.const	5
	local.set	137
	local.get	131
	local.get	136
	local.get	137
	call	_ZNVSt3__213__atomic_baseIiLb0EE5storeB8ne190106EiNS_12memory_orderE
	.loc	5 57 5 is_stmt 1                # 1_StoreRelThread.cpp:57:5
	local.get	4
	i32.load	8
	local.set	138
	.loc	5 57 26 is_stmt 0               # 1_StoreRelThread.cpp:57:26
	local.get	4
	i32.load	8
	local.set	139
	.loc	5 57 41                         # 1_StoreRelThread.cpp:57:41
	i32.const	5
	local.set	140
	local.get	139
	local.get	140
	call	_ZNVKSt3__213__atomic_baseIiLb0EE4loadB8ne190106ENS_12memory_orderE
	local.set	141
	.loc	5 57 48                         # 1_StoreRelThread.cpp:57:48
	i32.const	1
	local.set	142
	local.get	141
	local.get	142
	i32.add 
	local.set	143
	.loc	5 57 20                         # 1_StoreRelThread.cpp:57:20
	i32.const	5
	local.set	144
	local.get	138
	local.get	143
	local.get	144
	call	_ZNVSt3__213__atomic_baseIiLb0EE5storeB8ne190106EiNS_12memory_orderE
	.loc	5 58 5 is_stmt 1                # 1_StoreRelThread.cpp:58:5
	local.get	4
	i32.load	8
	local.set	145
	.loc	5 58 26 is_stmt 0               # 1_StoreRelThread.cpp:58:26
	local.get	4
	i32.load	8
	local.set	146
	.loc	5 58 41                         # 1_StoreRelThread.cpp:58:41
	i32.const	5
	local.set	147
	local.get	146
	local.get	147
	call	_ZNVKSt3__213__atomic_baseIiLb0EE4loadB8ne190106ENS_12memory_orderE
	local.set	148
	.loc	5 58 48                         # 1_StoreRelThread.cpp:58:48
	i32.const	1
	local.set	149
	local.get	148
	local.get	149
	i32.add 
	local.set	150
	.loc	5 58 20                         # 1_StoreRelThread.cpp:58:20
	i32.const	5
	local.set	151
	local.get	145
	local.get	150
	local.get	151
	call	_ZNVSt3__213__atomic_baseIiLb0EE5storeB8ne190106EiNS_12memory_orderE
	.loc	5 59 5 is_stmt 1                # 1_StoreRelThread.cpp:59:5
	local.get	4
	i32.load	8
	local.set	152
	.loc	5 59 26 is_stmt 0               # 1_StoreRelThread.cpp:59:26
	local.get	4
	i32.load	8
	local.set	153
	.loc	5 59 41                         # 1_StoreRelThread.cpp:59:41
	i32.const	5
	local.set	154
	local.get	153
	local.get	154
	call	_ZNVKSt3__213__atomic_baseIiLb0EE4loadB8ne190106ENS_12memory_orderE
	local.set	155
	.loc	5 59 48                         # 1_StoreRelThread.cpp:59:48
	i32.const	1
	local.set	156
	local.get	155
	local.get	156
	i32.add 
	local.set	157
	.loc	5 59 20                         # 1_StoreRelThread.cpp:59:20
	i32.const	5
	local.set	158
	local.get	152
	local.get	157
	local.get	158
	call	_ZNVSt3__213__atomic_baseIiLb0EE5storeB8ne190106EiNS_12memory_orderE
.Ltmp239:
# %bb.3:                                # %for.inc
                                        #   in Loop: Header=BB96_1 Depth=1
	.loc	5 34 43 is_stmt 1               # 1_StoreRelThread.cpp:34:43
	local.get	3
	i32.load	28
	local.set	159
	i32.const	1
	local.set	160
	local.get	159
	local.get	160
	i32.add 
	local.set	161
	local.get	3
	local.get	161
	i32.store	28
	.loc	5 34 4 is_stmt 0                # 1_StoreRelThread.cpp:34:4
	br      	0                               # 0: up to label29
.Ltmp240:
.LBB96_4:                               # %for.end
	.loc	5 34 4                          # 1_StoreRelThread.cpp:34:4
	end_loop
	end_block                               # label28:
.Ltmp241:
	.loc	5 61 15 is_stmt 1               # 1_StoreRelThread.cpp:61:15
	call	_ZNSt3__26chrono12steady_clock3nowEv
	local.set	162
	local.get	3
	local.get	162
	i64.store	16
	.loc	5 63 60                         # 1_StoreRelThread.cpp:63:60
	i32.const	16
	local.set	163
	local.get	3
	local.get	163
	i32.add 
	local.set	164
	local.get	164
	local.set	165
	i32.const	32
	local.set	166
	local.get	3
	local.get	166
	i32.add 
	local.set	167
	local.get	167
	local.set	168
	local.get	165
	local.get	168
	call	_ZNSt3__26chronomiB8ne190106INS0_12steady_clockENS0_8durationIxNS_5ratioILx1ELx1000000000EEEEES6_EENS_11common_typeIJT0_T1_EE4typeERKNS0_10time_pointIT_S8_EERKNSC_ISD_S9_EE
	local.set	169
	local.get	3
	local.get	169
	i64.store	0
	.loc	5 63 15 is_stmt 0               # 1_StoreRelThread.cpp:63:15
	i32.const	8
	local.set	170
	local.get	3
	local.get	170
	i32.add 
	local.set	171
	local.get	171
	local.set	172
	local.get	3
	local.set	173
	local.get	172
	local.get	173
	call	_ZNSt3__26chrono8durationIdNS_5ratioILx1ELx1000000000EEEEC2B8ne190106IxS3_TnNS_9enable_ifIXaasr13__no_overflowIT0_S3_EE5valueooL_ZNS_17integral_constantIbLb1EE5valueEEaaeqsr13__no_overflowIS7_S3_E4typeE3denLi1Entsr23treat_as_floating_pointIT_EE5valueEiE4typeELi0EEERKNS1_ISA_S7_EE
	drop
	.loc	5 63 69                         # 1_StoreRelThread.cpp:63:69
	i32.const	8
	local.set	174
	local.get	3
	local.get	174
	i32.add 
	local.set	175
	local.get	175
	local.set	176
	local.get	176
	call	_ZNKSt3__26chrono8durationIdNS_5ratioILx1ELx1000000000EEEE5countB8ne190106Ev
	local.set	177
	.loc	5 63 4                          # 1_StoreRelThread.cpp:63:4
	local.get	4
	i32.load	0
	local.set	178
	.loc	5 63 10                         # 1_StoreRelThread.cpp:63:10
	local.get	4
	i32.load	4
	local.set	179
	.loc	5 63 4                          # 1_StoreRelThread.cpp:63:4
	local.get	178
	local.get	179
	call	_ZNSt3__26vectorIdNS_9allocatorIdEEEixB8ne190106Em
	local.set	180
	.loc	5 63 13                         # 1_StoreRelThread.cpp:63:13
	local.get	180
	local.get	177
	f64.store	0
	.loc	5 64 3 is_stmt 1                # 1_StoreRelThread.cpp:64:3
	i32.const	48
	local.set	181
	local.get	3
	local.get	181
	i32.add 
	local.set	182
	local.get	182
	global.set	__stack_pointer
	return
	end_function
.Ltmp242:
.Lfunc_end96:
                                        # -- End function
	.section	.text._ZNVSt3__213__atomic_baseIiLb0EE5storeB8ne190106EiNS_12memory_orderE,"G",@,_ZNVSt3__213__atomic_baseIiLb0EE5storeB8ne190106EiNS_12memory_orderE,comdat
	.hidden	_ZNVSt3__213__atomic_baseIiLb0EE5storeB8ne190106EiNS_12memory_orderE # -- Begin function _ZNVSt3__213__atomic_baseIiLb0EE5storeB8ne190106EiNS_12memory_orderE
	.weak	_ZNVSt3__213__atomic_baseIiLb0EE5storeB8ne190106EiNS_12memory_orderE
	.type	_ZNVSt3__213__atomic_baseIiLb0EE5storeB8ne190106EiNS_12memory_orderE,@function
_ZNVSt3__213__atomic_baseIiLb0EE5storeB8ne190106EiNS_12memory_orderE: # @_ZNVSt3__213__atomic_baseIiLb0EE5storeB8ne190106EiNS_12memory_orderE
.Lfunc_begin97:
	.loc	2 46 0                          # emscripten/cache/sysroot/include/c++/v1/__atomic/atomic_base.h:46:0
	.functype	_ZNVSt3__213__atomic_baseIiLb0EE5storeB8ne190106EiNS_12memory_orderE (i32, i32, i32) -> ()
	.local  	i32, i32, i32, i32, i32, i32, i32, i32
# %bb.0:                                # %entry
	global.get	__stack_pointer
	local.set	3
	i32.const	16
	local.set	4
	local.get	3
	local.get	4
	i32.sub 
	local.set	5
	local.get	5
	global.set	__stack_pointer
	local.get	5
	local.get	0
	i32.store	12
	local.get	5
	local.get	1
	i32.store	8
	local.get	5
	local.get	2
	i32.store	4
	local.get	5
	i32.load	12
	local.set	6
.Ltmp243:
	.loc	2 47 51 prologue_end            # emscripten/cache/sysroot/include/c++/v1/__atomic/atomic_base.h:47:51
	local.get	5
	i32.load	8
	local.set	7
	.loc	2 47 56 is_stmt 0               # emscripten/cache/sysroot/include/c++/v1/__atomic/atomic_base.h:47:56
	local.get	5
	i32.load	4
	local.set	8
	.loc	2 47 5                          # emscripten/cache/sysroot/include/c++/v1/__atomic/atomic_base.h:47:5
	local.get	6
	local.get	7
	local.get	8
	call	_ZNSt3__218__cxx_atomic_storeB8ne190106IiEEvPVNS_22__cxx_atomic_base_implIT_EES2_NS_12memory_orderE
	.loc	2 48 3 is_stmt 1                # emscripten/cache/sysroot/include/c++/v1/__atomic/atomic_base.h:48:3
	i32.const	16
	local.set	9
	local.get	5
	local.get	9
	i32.add 
	local.set	10
	local.get	10
	global.set	__stack_pointer
	return
	end_function
.Ltmp244:
.Lfunc_end97:
                                        # -- End function
	.section	.text._ZNVKSt3__213__atomic_baseIiLb0EE4loadB8ne190106ENS_12memory_orderE,"G",@,_ZNVKSt3__213__atomic_baseIiLb0EE4loadB8ne190106ENS_12memory_orderE,comdat
	.hidden	_ZNVKSt3__213__atomic_baseIiLb0EE4loadB8ne190106ENS_12memory_orderE # -- Begin function _ZNVKSt3__213__atomic_baseIiLb0EE4loadB8ne190106ENS_12memory_orderE
	.weak	_ZNVKSt3__213__atomic_baseIiLb0EE4loadB8ne190106ENS_12memory_orderE
	.type	_ZNVKSt3__213__atomic_baseIiLb0EE4loadB8ne190106ENS_12memory_orderE,@function
_ZNVKSt3__213__atomic_baseIiLb0EE4loadB8ne190106ENS_12memory_orderE: # @_ZNVKSt3__213__atomic_baseIiLb0EE4loadB8ne190106ENS_12memory_orderE
.Lfunc_begin98:
	.loc	2 54 0                          # emscripten/cache/sysroot/include/c++/v1/__atomic/atomic_base.h:54:0
	.functype	_ZNVKSt3__213__atomic_baseIiLb0EE4loadB8ne190106ENS_12memory_orderE (i32, i32) -> (i32)
	.local  	i32, i32, i32, i32, i32, i32, i32, i32
# %bb.0:                                # %entry
	global.get	__stack_pointer
	local.set	2
	i32.const	16
	local.set	3
	local.get	2
	local.get	3
	i32.sub 
	local.set	4
	local.get	4
	global.set	__stack_pointer
	local.get	4
	local.get	0
	i32.store	12
	local.get	4
	local.get	1
	i32.store	8
	local.get	4
	i32.load	12
	local.set	5
.Ltmp245:
	.loc	2 55 57 prologue_end            # emscripten/cache/sysroot/include/c++/v1/__atomic/atomic_base.h:55:57
	local.get	4
	i32.load	8
	local.set	6
	.loc	2 55 12 is_stmt 0               # emscripten/cache/sysroot/include/c++/v1/__atomic/atomic_base.h:55:12
	local.get	5
	local.get	6
	call	_ZNSt3__217__cxx_atomic_loadB8ne190106IiEET_PVKNS_22__cxx_atomic_base_implIS1_EENS_12memory_orderE
	local.set	7
	.loc	2 55 5                          # emscripten/cache/sysroot/include/c++/v1/__atomic/atomic_base.h:55:5
	i32.const	16
	local.set	8
	local.get	4
	local.get	8
	i32.add 
	local.set	9
	local.get	9
	global.set	__stack_pointer
	local.get	7
	return
	end_function
.Ltmp246:
.Lfunc_end98:
                                        # -- End function
	.section	.text._ZNSt3__26chronomiB8ne190106INS0_12steady_clockENS0_8durationIxNS_5ratioILx1ELx1000000000EEEEES6_EENS_11common_typeIJT0_T1_EE4typeERKNS0_10time_pointIT_S8_EERKNSC_ISD_S9_EE,"G",@,_ZNSt3__26chronomiB8ne190106INS0_12steady_clockENS0_8durationIxNS_5ratioILx1ELx1000000000EEEEES6_EENS_11common_typeIJT0_T1_EE4typeERKNS0_10time_pointIT_S8_EERKNSC_ISD_S9_EE,comdat
	.hidden	_ZNSt3__26chronomiB8ne190106INS0_12steady_clockENS0_8durationIxNS_5ratioILx1ELx1000000000EEEEES6_EENS_11common_typeIJT0_T1_EE4typeERKNS0_10time_pointIT_S8_EERKNSC_ISD_S9_EE # -- Begin function _ZNSt3__26chronomiB8ne190106INS0_12steady_clockENS0_8durationIxNS_5ratioILx1ELx1000000000EEEEES6_EENS_11common_typeIJT0_T1_EE4typeERKNS0_10time_pointIT_S8_EERKNSC_ISD_S9_EE
	.weak	_ZNSt3__26chronomiB8ne190106INS0_12steady_clockENS0_8durationIxNS_5ratioILx1ELx1000000000EEEEES6_EENS_11common_typeIJT0_T1_EE4typeERKNS0_10time_pointIT_S8_EERKNSC_ISD_S9_EE
	.type	_ZNSt3__26chronomiB8ne190106INS0_12steady_clockENS0_8durationIxNS_5ratioILx1ELx1000000000EEEEES6_EENS_11common_typeIJT0_T1_EE4typeERKNS0_10time_pointIT_S8_EERKNSC_ISD_S9_EE,@function
_ZNSt3__26chronomiB8ne190106INS0_12steady_clockENS0_8durationIxNS_5ratioILx1ELx1000000000EEEEES6_EENS_11common_typeIJT0_T1_EE4typeERKNS0_10time_pointIT_S8_EERKNSC_ISD_S9_EE: # @_ZNSt3__26chronomiB8ne190106INS0_12steady_clockENS0_8durationIxNS_5ratioILx1ELx1000000000EEEEES6_EENS_11common_typeIJT0_T1_EE4typeERKNS0_10time_pointIT_S8_EERKNSC_ISD_S9_EE
.Lfunc_begin99:
	.loc	37 210 0 is_stmt 1              # emscripten/cache/sysroot/include/c++/v1/__chrono/time_point.h:210:0
	.functype	_ZNSt3__26chronomiB8ne190106INS0_12steady_clockENS0_8durationIxNS_5ratioILx1ELx1000000000EEEEES6_EENS_11common_typeIJT0_T1_EE4typeERKNS0_10time_pointIT_S8_EERKNSC_ISD_S9_EE (i32, i32) -> (i64)
	.local  	i32, i32, i32, i32, i64, i32, i64, i32, i32, i32, i32, i64, i64, i32, i32
# %bb.0:                                # %entry
	global.get	__stack_pointer
	local.set	2
	i32.const	32
	local.set	3
	local.get	2
	local.get	3
	i32.sub 
	local.set	4
	local.get	4
	global.set	__stack_pointer
	local.get	4
	local.get	0
	i32.store	20
	local.get	4
	local.get	1
	i32.store	16
.Ltmp247:
	.loc	37 211 10 prologue_end          # emscripten/cache/sysroot/include/c++/v1/__chrono/time_point.h:211:10
	local.get	4
	i32.load	20
	local.set	5
	.loc	37 211 16 is_stmt 0             # emscripten/cache/sysroot/include/c++/v1/__chrono/time_point.h:211:16
	local.get	5
	call	_ZNKSt3__26chrono10time_pointINS0_12steady_clockENS0_8durationIxNS_5ratioILx1ELx1000000000EEEEEE16time_since_epochB8ne190106Ev
	local.set	6
	local.get	4
	local.get	6
	i64.store	8
	.loc	37 211 37                       # emscripten/cache/sysroot/include/c++/v1/__chrono/time_point.h:211:37
	local.get	4
	i32.load	16
	local.set	7
	.loc	37 211 43                       # emscripten/cache/sysroot/include/c++/v1/__chrono/time_point.h:211:43
	local.get	7
	call	_ZNKSt3__26chrono10time_pointINS0_12steady_clockENS0_8durationIxNS_5ratioILx1ELx1000000000EEEEEE16time_since_epochB8ne190106Ev
	local.set	8
	local.get	4
	local.get	8
	i64.store	0
	.loc	37 211 35                       # emscripten/cache/sysroot/include/c++/v1/__chrono/time_point.h:211:35
	i32.const	8
	local.set	9
	local.get	4
	local.get	9
	i32.add 
	local.set	10
	local.get	10
	local.set	11
	local.get	4
	local.set	12
	local.get	11
	local.get	12
	call	_ZNSt3__26chronomiB8ne190106IxNS_5ratioILx1ELx1000000000EEExS3_EENS_11common_typeIJNS0_8durationIT_T0_EENS5_IT1_T2_EEEE4typeERKS8_RKSB_
	local.set	13
	local.get	4
	local.get	13
	i64.store	24
	.loc	37 211 3                        # emscripten/cache/sysroot/include/c++/v1/__chrono/time_point.h:211:3
	local.get	4
	i64.load	24
	local.set	14
	i32.const	32
	local.set	15
	local.get	4
	local.get	15
	i32.add 
	local.set	16
	local.get	16
	global.set	__stack_pointer
	local.get	14
	return
	end_function
.Ltmp248:
.Lfunc_end99:
                                        # -- End function
	.section	.text._ZNSt3__26chrono8durationIdNS_5ratioILx1ELx1000000000EEEEC2B8ne190106IxS3_TnNS_9enable_ifIXaasr13__no_overflowIT0_S3_EE5valueooL_ZNS_17integral_constantIbLb1EE5valueEEaaeqsr13__no_overflowIS7_S3_E4typeE3denLi1Entsr23treat_as_floating_pointIT_EE5valueEiE4typeELi0EEERKNS1_ISA_S7_EE,"G",@,_ZNSt3__26chrono8durationIdNS_5ratioILx1ELx1000000000EEEEC2B8ne190106IxS3_TnNS_9enable_ifIXaasr13__no_overflowIT0_S3_EE5valueooL_ZNS_17integral_constantIbLb1EE5valueEEaaeqsr13__no_overflowIS7_S3_E4typeE3denLi1Entsr23treat_as_floating_pointIT_EE5valueEiE4typeELi0EEERKNS1_ISA_S7_EE,comdat
	.hidden	_ZNSt3__26chrono8durationIdNS_5ratioILx1ELx1000000000EEEEC2B8ne190106IxS3_TnNS_9enable_ifIXaasr13__no_overflowIT0_S3_EE5valueooL_ZNS_17integral_constantIbLb1EE5valueEEaaeqsr13__no_overflowIS7_S3_E4typeE3denLi1Entsr23treat_as_floating_pointIT_EE5valueEiE4typeELi0EEERKNS1_ISA_S7_EE # -- Begin function _ZNSt3__26chrono8durationIdNS_5ratioILx1ELx1000000000EEEEC2B8ne190106IxS3_TnNS_9enable_ifIXaasr13__no_overflowIT0_S3_EE5valueooL_ZNS_17integral_constantIbLb1EE5valueEEaaeqsr13__no_overflowIS7_S3_E4typeE3denLi1Entsr23treat_as_floating_pointIT_EE5valueEiE4typeELi0EEERKNS1_ISA_S7_EE
	.weak	_ZNSt3__26chrono8durationIdNS_5ratioILx1ELx1000000000EEEEC2B8ne190106IxS3_TnNS_9enable_ifIXaasr13__no_overflowIT0_S3_EE5valueooL_ZNS_17integral_constantIbLb1EE5valueEEaaeqsr13__no_overflowIS7_S3_E4typeE3denLi1Entsr23treat_as_floating_pointIT_EE5valueEiE4typeELi0EEERKNS1_ISA_S7_EE
	.type	_ZNSt3__26chrono8durationIdNS_5ratioILx1ELx1000000000EEEEC2B8ne190106IxS3_TnNS_9enable_ifIXaasr13__no_overflowIT0_S3_EE5valueooL_ZNS_17integral_constantIbLb1EE5valueEEaaeqsr13__no_overflowIS7_S3_E4typeE3denLi1Entsr23treat_as_floating_pointIT_EE5valueEiE4typeELi0EEERKNS1_ISA_S7_EE,@function
_ZNSt3__26chrono8durationIdNS_5ratioILx1ELx1000000000EEEEC2B8ne190106IxS3_TnNS_9enable_ifIXaasr13__no_overflowIT0_S3_EE5valueooL_ZNS_17integral_constantIbLb1EE5valueEEaaeqsr13__no_overflowIS7_S3_E4typeE3denLi1Entsr23treat_as_floating_pointIT_EE5valueEiE4typeELi0EEERKNS1_ISA_S7_EE: # @_ZNSt3__26chrono8durationIdNS_5ratioILx1ELx1000000000EEEEC2B8ne190106IxS3_TnNS_9enable_ifIXaasr13__no_overflowIT0_S3_EE5valueooL_ZNS_17integral_constantIbLb1EE5valueEEaaeqsr13__no_overflowIS7_S3_E4typeE3denLi1Entsr23treat_as_floating_pointIT_EE5valueEiE4typeELi0EEERKNS1_ISA_S7_EE
.Lfunc_begin100:
	.loc	32 220 0 is_stmt 1              # emscripten/cache/sysroot/include/c++/v1/__chrono/duration.h:220:0
	.functype	_ZNSt3__26chrono8durationIdNS_5ratioILx1ELx1000000000EEEEC2B8ne190106IxS3_TnNS_9enable_ifIXaasr13__no_overflowIT0_S3_EE5valueooL_ZNS_17integral_constantIbLb1EE5valueEEaaeqsr13__no_overflowIS7_S3_E4typeE3denLi1Entsr23treat_as_floating_pointIT_EE5valueEiE4typeELi0EEERKNS1_ISA_S7_EE (i32, i32) -> (i32)
	.local  	i32, i32, i32, i32, i32, f64, i32, f64, i32, i32
# %bb.0:                                # %entry
	global.get	__stack_pointer
	local.set	2
	i32.const	16
	local.set	3
	local.get	2
	local.get	3
	i32.sub 
	local.set	4
	local.get	4
	global.set	__stack_pointer
	local.get	4
	local.get	0
	i32.store	12
	local.get	4
	local.get	1
	i32.store	8
	local.get	4
	i32.load	12
	local.set	5
.Ltmp249:
	.loc	32 220 48 prologue_end          # emscripten/cache/sysroot/include/c++/v1/__chrono/duration.h:220:48
	local.get	4
	i32.load	8
	local.set	6
	.loc	32 220 16 is_stmt 0             # emscripten/cache/sysroot/include/c++/v1/__chrono/duration.h:220:16
	local.get	6
	call	_ZNSt3__26chrono13duration_castB8ne190106INS0_8durationIdNS_5ratioILx1ELx1000000000EEEEExS4_TnNS_9enable_ifIXsr13__is_durationIT_EE5valueEiE4typeELi0EEES7_RKNS2_IT0_T1_EE
	local.set	7
	local.get	4
	local.get	7
	f64.store	0
	.loc	32 220 53                       # emscripten/cache/sysroot/include/c++/v1/__chrono/duration.h:220:53
	local.get	4
	local.set	8
	local.get	8
	call	_ZNKSt3__26chrono8durationIdNS_5ratioILx1ELx1000000000EEEE5countB8ne190106Ev
	local.set	9
	.loc	32 220 9                        # emscripten/cache/sysroot/include/c++/v1/__chrono/duration.h:220:9
	local.get	5
	local.get	9
	f64.store	0
	.loc	32 220 63                       # emscripten/cache/sysroot/include/c++/v1/__chrono/duration.h:220:63
	i32.const	16
	local.set	10
	local.get	4
	local.get	10
	i32.add 
	local.set	11
	local.get	11
	global.set	__stack_pointer
	local.get	5
	return
	end_function
.Ltmp250:
.Lfunc_end100:
                                        # -- End function
	.section	.text._ZNKSt3__26chrono8durationIdNS_5ratioILx1ELx1000000000EEEE5countB8ne190106Ev,"G",@,_ZNKSt3__26chrono8durationIdNS_5ratioILx1ELx1000000000EEEE5countB8ne190106Ev,comdat
	.hidden	_ZNKSt3__26chrono8durationIdNS_5ratioILx1ELx1000000000EEEE5countB8ne190106Ev # -- Begin function _ZNKSt3__26chrono8durationIdNS_5ratioILx1ELx1000000000EEEE5countB8ne190106Ev
	.weak	_ZNKSt3__26chrono8durationIdNS_5ratioILx1ELx1000000000EEEE5countB8ne190106Ev
	.type	_ZNKSt3__26chrono8durationIdNS_5ratioILx1ELx1000000000EEEE5countB8ne190106Ev,@function
_ZNKSt3__26chrono8durationIdNS_5ratioILx1ELx1000000000EEEE5countB8ne190106Ev: # @_ZNKSt3__26chrono8durationIdNS_5ratioILx1ELx1000000000EEEE5countB8ne190106Ev
.Lfunc_begin101:
	.loc	32 224 0 is_stmt 1              # emscripten/cache/sysroot/include/c++/v1/__chrono/duration.h:224:0
	.functype	_ZNKSt3__26chrono8durationIdNS_5ratioILx1ELx1000000000EEEE5countB8ne190106Ev (i32) -> (f64)
	.local  	i32, i32, i32, i32, f64
# %bb.0:                                # %entry
	global.get	__stack_pointer
	local.set	1
	i32.const	16
	local.set	2
	local.get	1
	local.get	2
	i32.sub 
	local.set	3
	local.get	3
	local.get	0
	i32.store	12
	local.get	3
	i32.load	12
	local.set	4
.Ltmp251:
	.loc	32 224 70 prologue_end          # emscripten/cache/sysroot/include/c++/v1/__chrono/duration.h:224:70
	local.get	4
	f64.load	0
	local.set	5
	.loc	32 224 63 is_stmt 0             # emscripten/cache/sysroot/include/c++/v1/__chrono/duration.h:224:63
	local.get	5
	return
	end_function
.Ltmp252:
.Lfunc_end101:
                                        # -- End function
	.section	.text._ZNSt3__218__cxx_atomic_storeB8ne190106IiEEvPVNS_22__cxx_atomic_base_implIT_EES2_NS_12memory_orderE,"G",@,_ZNSt3__218__cxx_atomic_storeB8ne190106IiEEvPVNS_22__cxx_atomic_base_implIT_EES2_NS_12memory_orderE,comdat
	.hidden	_ZNSt3__218__cxx_atomic_storeB8ne190106IiEEvPVNS_22__cxx_atomic_base_implIT_EES2_NS_12memory_orderE # -- Begin function _ZNSt3__218__cxx_atomic_storeB8ne190106IiEEvPVNS_22__cxx_atomic_base_implIT_EES2_NS_12memory_orderE
	.weak	_ZNSt3__218__cxx_atomic_storeB8ne190106IiEEvPVNS_22__cxx_atomic_base_implIT_EES2_NS_12memory_orderE
	.type	_ZNSt3__218__cxx_atomic_storeB8ne190106IiEEvPVNS_22__cxx_atomic_base_implIT_EES2_NS_12memory_orderE,@function
_ZNSt3__218__cxx_atomic_storeB8ne190106IiEEvPVNS_22__cxx_atomic_base_implIT_EES2_NS_12memory_orderE: # @_ZNSt3__218__cxx_atomic_storeB8ne190106IiEEvPVNS_22__cxx_atomic_base_implIT_EES2_NS_12memory_orderE
.Lfunc_begin102:
	.loc	1 298 0 is_stmt 1               # emscripten/cache/sysroot/include/c++/v1/__atomic/cxx_atomic_impl.h:298:0
	.functype	_ZNSt3__218__cxx_atomic_storeB8ne190106IiEEvPVNS_22__cxx_atomic_base_implIT_EES2_NS_12memory_orderE (i32, i32, i32) -> ()
	.local  	i32, i32, i32, i32, i32, i32, i32, i32, i32, i32, i32, i32
# %bb.0:                                # %entry
	global.get	__stack_pointer
	local.set	3
	i32.const	16
	local.set	4
	local.get	3
	local.get	4
	i32.sub 
	local.set	5
	local.get	5
	local.get	0
	i32.store	12
	local.get	5
	local.get	1
	i32.store	8
	local.get	5
	local.get	2
	i32.store	4
.Ltmp253:
	.loc	1 299 37 prologue_end           # emscripten/cache/sysroot/include/c++/v1/__atomic/cxx_atomic_impl.h:299:37
	local.get	5
	i32.load	12
	local.set	6
	.loc	1 299 102 is_stmt 0             # emscripten/cache/sysroot/include/c++/v1/__atomic/cxx_atomic_impl.h:299:102
	local.get	5
	i32.load	4
	local.set	7
	.loc	1 299 54                        # emscripten/cache/sysroot/include/c++/v1/__atomic/cxx_atomic_impl.h:299:54
	local.get	5
	i32.load	8
	local.set	8
	.loc	1 299 3                         # emscripten/cache/sysroot/include/c++/v1/__atomic/cxx_atomic_impl.h:299:3
	local.get	5
	local.get	8
	i32.store	0
	i32.const	-3
	local.set	9
	local.get	7
	local.get	9
	i32.add 
	local.set	10
	i32.const	2
	local.set	11
	local.get	10
	local.get	11
	i32.gt_u
	drop
	block   	
	block   	
	block   	
	block   	
	local.get	10
	br_table 	{1, 0, 2, 0}            # 0: down to label33
                                        # 2: down to label31
.LBB102_1:                              # %monotonic
	.loc	1 0 3                           # emscripten/cache/sysroot/include/c++/v1/__atomic/cxx_atomic_impl.h:0:3
	end_block                               # label33:
	.loc	1 299 3                         # emscripten/cache/sysroot/include/c++/v1/__atomic/cxx_atomic_impl.h:299:3
	local.get	5
	i32.load	0
	local.set	12
	local.get	6
	local.get	12
	i32.atomic.store	0
	br      	2                               # 2: down to label30
.LBB102_2:                              # %release
	.loc	1 0 3                           # emscripten/cache/sysroot/include/c++/v1/__atomic/cxx_atomic_impl.h:0:3
	end_block                               # label32:
	.loc	1 299 3                         # emscripten/cache/sysroot/include/c++/v1/__atomic/cxx_atomic_impl.h:299:3
	local.get	5
	i32.load	0
	local.set	13
	local.get	6
	local.get	13
	i32.atomic.store	0
	br      	1                               # 1: down to label30
.LBB102_3:                              # %seqcst
	.loc	1 0 3                           # emscripten/cache/sysroot/include/c++/v1/__atomic/cxx_atomic_impl.h:0:3
	end_block                               # label31:
	.loc	1 299 3                         # emscripten/cache/sysroot/include/c++/v1/__atomic/cxx_atomic_impl.h:299:3
	local.get	5
	i32.load	0
	local.set	14
	local.get	6
	local.get	14
	i32.atomic.store	0
.LBB102_4:                              # %atomic.continue
	.loc	1 0 3                           # emscripten/cache/sysroot/include/c++/v1/__atomic/cxx_atomic_impl.h:0:3
	end_block                               # label30:
	.loc	1 300 1 is_stmt 1               # emscripten/cache/sysroot/include/c++/v1/__atomic/cxx_atomic_impl.h:300:1
	return
	end_function
.Ltmp254:
.Lfunc_end102:
                                        # -- End function
	.section	.text._ZNSt3__217__cxx_atomic_loadB8ne190106IiEET_PVKNS_22__cxx_atomic_base_implIS1_EENS_12memory_orderE,"G",@,_ZNSt3__217__cxx_atomic_loadB8ne190106IiEET_PVKNS_22__cxx_atomic_base_implIS1_EENS_12memory_orderE,comdat
	.hidden	_ZNSt3__217__cxx_atomic_loadB8ne190106IiEET_PVKNS_22__cxx_atomic_base_implIS1_EENS_12memory_orderE # -- Begin function _ZNSt3__217__cxx_atomic_loadB8ne190106IiEET_PVKNS_22__cxx_atomic_base_implIS1_EENS_12memory_orderE
	.weak	_ZNSt3__217__cxx_atomic_loadB8ne190106IiEET_PVKNS_22__cxx_atomic_base_implIS1_EENS_12memory_orderE
	.type	_ZNSt3__217__cxx_atomic_loadB8ne190106IiEET_PVKNS_22__cxx_atomic_base_implIS1_EENS_12memory_orderE,@function
_ZNSt3__217__cxx_atomic_loadB8ne190106IiEET_PVKNS_22__cxx_atomic_base_implIS1_EENS_12memory_orderE: # @_ZNSt3__217__cxx_atomic_loadB8ne190106IiEET_PVKNS_22__cxx_atomic_base_implIS1_EENS_12memory_orderE
.Lfunc_begin103:
	.loc	1 309 0                         # emscripten/cache/sysroot/include/c++/v1/__atomic/cxx_atomic_impl.h:309:0
	.functype	_ZNSt3__217__cxx_atomic_loadB8ne190106IiEET_PVKNS_22__cxx_atomic_base_implIS1_EENS_12memory_orderE (i32, i32) -> (i32)
	.local  	i32, i32, i32, i32, i32, i32, i32, i32, i32, i32, i32, i32
# %bb.0:                                # %entry
	global.get	__stack_pointer
	local.set	2
	i32.const	16
	local.set	3
	local.get	2
	local.get	3
	i32.sub 
	local.set	4
	local.get	4
	local.get	0
	i32.store	12
	local.get	4
	local.get	1
	i32.store	8
.Ltmp255:
	.loc	1 312 45 prologue_end           # emscripten/cache/sysroot/include/c++/v1/__atomic/cxx_atomic_impl.h:312:45
	local.get	4
	i32.load	12
	local.set	5
	.loc	1 312 104 is_stmt 0             # emscripten/cache/sysroot/include/c++/v1/__atomic/cxx_atomic_impl.h:312:104
	local.get	4
	i32.load	8
	local.set	6
	i32.const	-1
	local.set	7
	.loc	1 311 10 is_stmt 1              # emscripten/cache/sysroot/include/c++/v1/__atomic/cxx_atomic_impl.h:311:10
	local.get	6
	local.get	7
	i32.add 
	local.set	8
	i32.const	4
	local.set	9
	local.get	8
	local.get	9
	i32.gt_u
	drop
	block   	
	block   	
	block   	
	block   	
	local.get	8
	br_table 	{1, 1, 0, 0, 2, 0}      # 1: down to label36
                                        # 0: down to label37
                                        # 2: down to label35
.LBB103_1:                              # %monotonic
	.loc	1 0 10 is_stmt 0                # emscripten/cache/sysroot/include/c++/v1/__atomic/cxx_atomic_impl.h:0:10
	end_block                               # label37:
	.loc	1 311 10                        # emscripten/cache/sysroot/include/c++/v1/__atomic/cxx_atomic_impl.h:311:10
	local.get	5
	i32.atomic.load	0
	local.set	10
	local.get	4
	local.get	10
	i32.store	4
	br      	2                               # 2: down to label34
.LBB103_2:                              # %acquire
	.loc	1 0 10                          # emscripten/cache/sysroot/include/c++/v1/__atomic/cxx_atomic_impl.h:0:10
	end_block                               # label36:
	.loc	1 311 10                        # emscripten/cache/sysroot/include/c++/v1/__atomic/cxx_atomic_impl.h:311:10
	local.get	5
	i32.atomic.load	0
	local.set	11
	local.get	4
	local.get	11
	i32.store	4
	br      	1                               # 1: down to label34
.LBB103_3:                              # %seqcst
	.loc	1 0 10                          # emscripten/cache/sysroot/include/c++/v1/__atomic/cxx_atomic_impl.h:0:10
	end_block                               # label35:
	.loc	1 311 10                        # emscripten/cache/sysroot/include/c++/v1/__atomic/cxx_atomic_impl.h:311:10
	local.get	5
	i32.atomic.load	0
	local.set	12
	local.get	4
	local.get	12
	i32.store	4
.LBB103_4:                              # %atomic.continue
	.loc	1 0 10                          # emscripten/cache/sysroot/include/c++/v1/__atomic/cxx_atomic_impl.h:0:10
	end_block                               # label34:
	.loc	1 311 10                        # emscripten/cache/sysroot/include/c++/v1/__atomic/cxx_atomic_impl.h:311:10
	local.get	4
	i32.load	4
	local.set	13
	.loc	1 311 3                         # emscripten/cache/sysroot/include/c++/v1/__atomic/cxx_atomic_impl.h:311:3
	local.get	13
	return
	end_function
.Ltmp256:
.Lfunc_end103:
                                        # -- End function
	.section	.text._ZNSt3__26chronomiB8ne190106IxNS_5ratioILx1ELx1000000000EEExS3_EENS_11common_typeIJNS0_8durationIT_T0_EENS5_IT1_T2_EEEE4typeERKS8_RKSB_,"G",@,_ZNSt3__26chronomiB8ne190106IxNS_5ratioILx1ELx1000000000EEExS3_EENS_11common_typeIJNS0_8durationIT_T0_EENS5_IT1_T2_EEEE4typeERKS8_RKSB_,comdat
	.hidden	_ZNSt3__26chronomiB8ne190106IxNS_5ratioILx1ELx1000000000EEExS3_EENS_11common_typeIJNS0_8durationIT_T0_EENS5_IT1_T2_EEEE4typeERKS8_RKSB_ # -- Begin function _ZNSt3__26chronomiB8ne190106IxNS_5ratioILx1ELx1000000000EEExS3_EENS_11common_typeIJNS0_8durationIT_T0_EENS5_IT1_T2_EEEE4typeERKS8_RKSB_
	.weak	_ZNSt3__26chronomiB8ne190106IxNS_5ratioILx1ELx1000000000EEExS3_EENS_11common_typeIJNS0_8durationIT_T0_EENS5_IT1_T2_EEEE4typeERKS8_RKSB_
	.type	_ZNSt3__26chronomiB8ne190106IxNS_5ratioILx1ELx1000000000EEExS3_EENS_11common_typeIJNS0_8durationIT_T0_EENS5_IT1_T2_EEEE4typeERKS8_RKSB_,@function
_ZNSt3__26chronomiB8ne190106IxNS_5ratioILx1ELx1000000000EEExS3_EENS_11common_typeIJNS0_8durationIT_T0_EENS5_IT1_T2_EEEE4typeERKS8_RKSB_: # @_ZNSt3__26chronomiB8ne190106IxNS_5ratioILx1ELx1000000000EEExS3_EENS_11common_typeIJNS0_8durationIT_T0_EENS5_IT1_T2_EEEE4typeERKS8_RKSB_
.Lfunc_begin104:
	.loc	32 405 0 is_stmt 1              # emscripten/cache/sysroot/include/c++/v1/__chrono/duration.h:405:0
	.functype	_ZNSt3__26chronomiB8ne190106IxNS_5ratioILx1ELx1000000000EEExS3_EENS_11common_typeIJNS0_8durationIT_T0_EENS5_IT1_T2_EEEE4typeERKS8_RKSB_ (i32, i32) -> (i64)
	.local  	i32, i32, i32, i32, i64, i32, i32, i32, i64, i32, i64, i32, i32, i32, i64, i64, i32, i32, i32, i32, i32, i32, i64, i32, i32
# %bb.0:                                # %entry
	global.get	__stack_pointer
	local.set	2
	i32.const	48
	local.set	3
	local.get	2
	local.get	3
	i32.sub 
	local.set	4
	local.get	4
	global.set	__stack_pointer
	local.get	4
	local.get	0
	i32.store	36
	local.get	4
	local.get	1
	i32.store	32
.Ltmp257:
	.loc	32 407 18 prologue_end          # emscripten/cache/sysroot/include/c++/v1/__chrono/duration.h:407:18
	local.get	4
	i32.load	36
	local.set	5
	.loc	32 407 14 is_stmt 0             # emscripten/cache/sysroot/include/c++/v1/__chrono/duration.h:407:14
	local.get	5
	i64.load	0
	local.set	6
	local.get	4
	local.get	6
	i64.store	16
	.loc	32 407 25                       # emscripten/cache/sysroot/include/c++/v1/__chrono/duration.h:407:25
	i32.const	16
	local.set	7
	local.get	4
	local.get	7
	i32.add 
	local.set	8
	local.get	8
	local.set	9
	local.get	9
	call	_ZNKSt3__26chrono8durationIxNS_5ratioILx1ELx1000000000EEEE5countB8ne190106Ev
	local.set	10
	.loc	32 407 39                       # emscripten/cache/sysroot/include/c++/v1/__chrono/duration.h:407:39
	local.get	4
	i32.load	32
	local.set	11
	.loc	32 407 35                       # emscripten/cache/sysroot/include/c++/v1/__chrono/duration.h:407:35
	local.get	11
	i64.load	0
	local.set	12
	local.get	4
	local.get	12
	i64.store	8
	.loc	32 407 46                       # emscripten/cache/sysroot/include/c++/v1/__chrono/duration.h:407:46
	i32.const	8
	local.set	13
	local.get	4
	local.get	13
	i32.add 
	local.set	14
	local.get	14
	local.set	15
	local.get	15
	call	_ZNKSt3__26chrono8durationIxNS_5ratioILx1ELx1000000000EEEE5countB8ne190106Ev
	local.set	16
	.loc	32 407 33                       # emscripten/cache/sysroot/include/c++/v1/__chrono/duration.h:407:33
	local.get	10
	local.get	16
	i64.sub 
	local.set	17
	.loc	32 407 14                       # emscripten/cache/sysroot/include/c++/v1/__chrono/duration.h:407:14
	local.get	4
	local.get	17
	i64.store	24
	.loc	32 407 10                       # emscripten/cache/sysroot/include/c++/v1/__chrono/duration.h:407:10
	i32.const	40
	local.set	18
	local.get	4
	local.get	18
	i32.add 
	local.set	19
	local.get	19
	local.set	20
	i32.const	24
	local.set	21
	local.get	4
	local.get	21
	i32.add 
	local.set	22
	local.get	22
	local.set	23
	local.get	20
	local.get	23
	call	_ZNSt3__26chrono8durationIxNS_5ratioILx1ELx1000000000EEEEC2B8ne190106IxTnNS_9enable_ifIXaasr14is_convertibleIRKT_xEE5valueooL_ZNS_17integral_constantIbLb0EE5valueEEntsr23treat_as_floating_pointIS7_EE5valueEiE4typeELi0EEES9_
	drop
	.loc	32 407 3                        # emscripten/cache/sysroot/include/c++/v1/__chrono/duration.h:407:3
	local.get	4
	i64.load	40
	local.set	24
	i32.const	48
	local.set	25
	local.get	4
	local.get	25
	i32.add 
	local.set	26
	local.get	26
	global.set	__stack_pointer
	local.get	24
	return
	end_function
.Ltmp258:
.Lfunc_end104:
                                        # -- End function
	.section	.text._ZNKSt3__26chrono10time_pointINS0_12steady_clockENS0_8durationIxNS_5ratioILx1ELx1000000000EEEEEE16time_since_epochB8ne190106Ev,"G",@,_ZNKSt3__26chrono10time_pointINS0_12steady_clockENS0_8durationIxNS_5ratioILx1ELx1000000000EEEEEE16time_since_epochB8ne190106Ev,comdat
	.hidden	_ZNKSt3__26chrono10time_pointINS0_12steady_clockENS0_8durationIxNS_5ratioILx1ELx1000000000EEEEEE16time_since_epochB8ne190106Ev # -- Begin function _ZNKSt3__26chrono10time_pointINS0_12steady_clockENS0_8durationIxNS_5ratioILx1ELx1000000000EEEEEE16time_since_epochB8ne190106Ev
	.weak	_ZNKSt3__26chrono10time_pointINS0_12steady_clockENS0_8durationIxNS_5ratioILx1ELx1000000000EEEEEE16time_since_epochB8ne190106Ev
	.type	_ZNKSt3__26chrono10time_pointINS0_12steady_clockENS0_8durationIxNS_5ratioILx1ELx1000000000EEEEEE16time_since_epochB8ne190106Ev,@function
_ZNKSt3__26chrono10time_pointINS0_12steady_clockENS0_8durationIxNS_5ratioILx1ELx1000000000EEEEEE16time_since_epochB8ne190106Ev: # @_ZNKSt3__26chrono10time_pointINS0_12steady_clockENS0_8durationIxNS_5ratioILx1ELx1000000000EEEEEE16time_since_epochB8ne190106Ev
.Lfunc_begin105:
	.loc	37 58 0 is_stmt 1               # emscripten/cache/sysroot/include/c++/v1/__chrono/time_point.h:58:0
	.functype	_ZNKSt3__26chrono10time_pointINS0_12steady_clockENS0_8durationIxNS_5ratioILx1ELx1000000000EEEEEE16time_since_epochB8ne190106Ev (i32) -> (i64)
	.local  	i32, i32, i32, i32, i64, i64
# %bb.0:                                # %entry
	global.get	__stack_pointer
	local.set	1
	i32.const	16
	local.set	2
	local.get	1
	local.get	2
	i32.sub 
	local.set	3
	local.get	3
	local.get	0
	i32.store	4
	local.get	3
	i32.load	4
	local.set	4
.Ltmp259:
	.loc	37 58 98 prologue_end           # emscripten/cache/sysroot/include/c++/v1/__chrono/time_point.h:58:98
	local.get	4
	i64.load	0
	local.set	5
	local.get	3
	local.get	5
	i64.store	8
	.loc	37 58 91 is_stmt 0              # emscripten/cache/sysroot/include/c++/v1/__chrono/time_point.h:58:91
	local.get	3
	i64.load	8
	local.set	6
	local.get	6
	return
	end_function
.Ltmp260:
.Lfunc_end105:
                                        # -- End function
	.section	.text._ZNKSt3__26chrono8durationIxNS_5ratioILx1ELx1000000000EEEE5countB8ne190106Ev,"G",@,_ZNKSt3__26chrono8durationIxNS_5ratioILx1ELx1000000000EEEE5countB8ne190106Ev,comdat
	.hidden	_ZNKSt3__26chrono8durationIxNS_5ratioILx1ELx1000000000EEEE5countB8ne190106Ev # -- Begin function _ZNKSt3__26chrono8durationIxNS_5ratioILx1ELx1000000000EEEE5countB8ne190106Ev
	.weak	_ZNKSt3__26chrono8durationIxNS_5ratioILx1ELx1000000000EEEE5countB8ne190106Ev
	.type	_ZNKSt3__26chrono8durationIxNS_5ratioILx1ELx1000000000EEEE5countB8ne190106Ev,@function
_ZNKSt3__26chrono8durationIxNS_5ratioILx1ELx1000000000EEEE5countB8ne190106Ev: # @_ZNKSt3__26chrono8durationIxNS_5ratioILx1ELx1000000000EEEE5countB8ne190106Ev
.Lfunc_begin106:
	.loc	32 224 0 is_stmt 1              # emscripten/cache/sysroot/include/c++/v1/__chrono/duration.h:224:0
	.functype	_ZNKSt3__26chrono8durationIxNS_5ratioILx1ELx1000000000EEEE5countB8ne190106Ev (i32) -> (i64)
	.local  	i32, i32, i32, i32, i64
# %bb.0:                                # %entry
	global.get	__stack_pointer
	local.set	1
	i32.const	16
	local.set	2
	local.get	1
	local.get	2
	i32.sub 
	local.set	3
	local.get	3
	local.get	0
	i32.store	12
	local.get	3
	i32.load	12
	local.set	4
.Ltmp261:
	.loc	32 224 70 prologue_end          # emscripten/cache/sysroot/include/c++/v1/__chrono/duration.h:224:70
	local.get	4
	i64.load	0
	local.set	5
	.loc	32 224 63 is_stmt 0             # emscripten/cache/sysroot/include/c++/v1/__chrono/duration.h:224:63
	local.get	5
	return
	end_function
.Ltmp262:
.Lfunc_end106:
                                        # -- End function
	.section	.text._ZNSt3__26chrono8durationIxNS_5ratioILx1ELx1000000000EEEEC2B8ne190106IxTnNS_9enable_ifIXaasr14is_convertibleIRKT_xEE5valueooL_ZNS_17integral_constantIbLb0EE5valueEEntsr23treat_as_floating_pointIS7_EE5valueEiE4typeELi0EEES9_,"G",@,_ZNSt3__26chrono8durationIxNS_5ratioILx1ELx1000000000EEEEC2B8ne190106IxTnNS_9enable_ifIXaasr14is_convertibleIRKT_xEE5valueooL_ZNS_17integral_constantIbLb0EE5valueEEntsr23treat_as_floating_pointIS7_EE5valueEiE4typeELi0EEES9_,comdat
	.hidden	_ZNSt3__26chrono8durationIxNS_5ratioILx1ELx1000000000EEEEC2B8ne190106IxTnNS_9enable_ifIXaasr14is_convertibleIRKT_xEE5valueooL_ZNS_17integral_constantIbLb0EE5valueEEntsr23treat_as_floating_pointIS7_EE5valueEiE4typeELi0EEES9_ # -- Begin function _ZNSt3__26chrono8durationIxNS_5ratioILx1ELx1000000000EEEEC2B8ne190106IxTnNS_9enable_ifIXaasr14is_convertibleIRKT_xEE5valueooL_ZNS_17integral_constantIbLb0EE5valueEEntsr23treat_as_floating_pointIS7_EE5valueEiE4typeELi0EEES9_
	.weak	_ZNSt3__26chrono8durationIxNS_5ratioILx1ELx1000000000EEEEC2B8ne190106IxTnNS_9enable_ifIXaasr14is_convertibleIRKT_xEE5valueooL_ZNS_17integral_constantIbLb0EE5valueEEntsr23treat_as_floating_pointIS7_EE5valueEiE4typeELi0EEES9_
	.type	_ZNSt3__26chrono8durationIxNS_5ratioILx1ELx1000000000EEEEC2B8ne190106IxTnNS_9enable_ifIXaasr14is_convertibleIRKT_xEE5valueooL_ZNS_17integral_constantIbLb0EE5valueEEntsr23treat_as_floating_pointIS7_EE5valueEiE4typeELi0EEES9_,@function
_ZNSt3__26chrono8durationIxNS_5ratioILx1ELx1000000000EEEEC2B8ne190106IxTnNS_9enable_ifIXaasr14is_convertibleIRKT_xEE5valueooL_ZNS_17integral_constantIbLb0EE5valueEEntsr23treat_as_floating_pointIS7_EE5valueEiE4typeELi0EEES9_: # @_ZNSt3__26chrono8durationIxNS_5ratioILx1ELx1000000000EEEEC2B8ne190106IxTnNS_9enable_ifIXaasr14is_convertibleIRKT_xEE5valueooL_ZNS_17integral_constantIbLb0EE5valueEEntsr23treat_as_floating_pointIS7_EE5valueEiE4typeELi0EEES9_
.Lfunc_begin107:
	.loc	32 210 0 is_stmt 1              # emscripten/cache/sysroot/include/c++/v1/__chrono/duration.h:210:0
	.functype	_ZNSt3__26chrono8durationIxNS_5ratioILx1ELx1000000000EEEEC2B8ne190106IxTnNS_9enable_ifIXaasr14is_convertibleIRKT_xEE5valueooL_ZNS_17integral_constantIbLb0EE5valueEEntsr23treat_as_floating_pointIS7_EE5valueEiE4typeELi0EEES9_ (i32, i32) -> (i32)
	.local  	i32, i32, i32, i32, i32, i64
# %bb.0:                                # %entry
	global.get	__stack_pointer
	local.set	2
	i32.const	16
	local.set	3
	local.get	2
	local.get	3
	i32.sub 
	local.set	4
	local.get	4
	local.get	0
	i32.store	12
	local.get	4
	local.get	1
	i32.store	8
	local.get	4
	i32.load	12
	local.set	5
.Ltmp263:
	.loc	32 210 88 prologue_end          # emscripten/cache/sysroot/include/c++/v1/__chrono/duration.h:210:88
	local.get	4
	i32.load	8
	local.set	6
	local.get	6
	i64.load	0
	local.set	7
	.loc	32 210 81 is_stmt 0             # emscripten/cache/sysroot/include/c++/v1/__chrono/duration.h:210:81
	local.get	5
	local.get	7
	i64.store	0
	.loc	32 210 94                       # emscripten/cache/sysroot/include/c++/v1/__chrono/duration.h:210:94
	local.get	5
	return
	end_function
.Ltmp264:
.Lfunc_end107:
                                        # -- End function
	.section	.text._ZNSt3__26chrono13duration_castB8ne190106INS0_8durationIdNS_5ratioILx1ELx1000000000EEEEExS4_TnNS_9enable_ifIXsr13__is_durationIT_EE5valueEiE4typeELi0EEES7_RKNS2_IT0_T1_EE,"G",@,_ZNSt3__26chrono13duration_castB8ne190106INS0_8durationIdNS_5ratioILx1ELx1000000000EEEEExS4_TnNS_9enable_ifIXsr13__is_durationIT_EE5valueEiE4typeELi0EEES7_RKNS2_IT0_T1_EE,comdat
	.hidden	_ZNSt3__26chrono13duration_castB8ne190106INS0_8durationIdNS_5ratioILx1ELx1000000000EEEEExS4_TnNS_9enable_ifIXsr13__is_durationIT_EE5valueEiE4typeELi0EEES7_RKNS2_IT0_T1_EE # -- Begin function _ZNSt3__26chrono13duration_castB8ne190106INS0_8durationIdNS_5ratioILx1ELx1000000000EEEEExS4_TnNS_9enable_ifIXsr13__is_durationIT_EE5valueEiE4typeELi0EEES7_RKNS2_IT0_T1_EE
	.weak	_ZNSt3__26chrono13duration_castB8ne190106INS0_8durationIdNS_5ratioILx1ELx1000000000EEEEExS4_TnNS_9enable_ifIXsr13__is_durationIT_EE5valueEiE4typeELi0EEES7_RKNS2_IT0_T1_EE
	.type	_ZNSt3__26chrono13duration_castB8ne190106INS0_8durationIdNS_5ratioILx1ELx1000000000EEEEExS4_TnNS_9enable_ifIXsr13__is_durationIT_EE5valueEiE4typeELi0EEES7_RKNS2_IT0_T1_EE,@function
_ZNSt3__26chrono13duration_castB8ne190106INS0_8durationIdNS_5ratioILx1ELx1000000000EEEEExS4_TnNS_9enable_ifIXsr13__is_durationIT_EE5valueEiE4typeELi0EEES7_RKNS2_IT0_T1_EE: # @_ZNSt3__26chrono13duration_castB8ne190106INS0_8durationIdNS_5ratioILx1ELx1000000000EEEEExS4_TnNS_9enable_ifIXsr13__is_durationIT_EE5valueEiE4typeELi0EEES7_RKNS2_IT0_T1_EE
.Lfunc_begin108:
	.loc	32 106 0 is_stmt 1              # emscripten/cache/sysroot/include/c++/v1/__chrono/duration.h:106:0
	.functype	_ZNSt3__26chrono13duration_castB8ne190106INS0_8durationIdNS_5ratioILx1ELx1000000000EEEEExS4_TnNS_9enable_ifIXsr13__is_durationIT_EE5valueEiE4typeELi0EEES7_RKNS2_IT0_T1_EE (i32) -> (f64)
	.local  	i32, i32, i32, i32, i32, i32, i32, f64, f64, i32, i32
# %bb.0:                                # %entry
	global.get	__stack_pointer
	local.set	1
	i32.const	16
	local.set	2
	local.get	1
	local.get	2
	i32.sub 
	local.set	3
	local.get	3
	global.set	__stack_pointer
	local.get	3
	local.get	0
	i32.store	4
.Ltmp265:
	.loc	32 107 66 prologue_end          # emscripten/cache/sysroot/include/c++/v1/__chrono/duration.h:107:66
	local.get	3
	i32.load	4
	local.set	4
	.loc	32 107 10 is_stmt 0             # emscripten/cache/sysroot/include/c++/v1/__chrono/duration.h:107:10
	i32.const	3
	local.set	5
	local.get	3
	local.get	5
	i32.add 
	local.set	6
	local.get	6
	local.set	7
	local.get	7
	local.get	4
	call	_ZNKSt3__26chrono15__duration_castINS0_8durationIxNS_5ratioILx1ELx1000000000EEEEENS2_IdS4_EENS3_ILx1ELx1EEELb1ELb1EEclB8ne190106ERKS5_
	local.set	8
	local.get	3
	local.get	8
	f64.store	8
	.loc	32 107 3                        # emscripten/cache/sysroot/include/c++/v1/__chrono/duration.h:107:3
	local.get	3
	f64.load	8
	local.set	9
	i32.const	16
	local.set	10
	local.get	3
	local.get	10
	i32.add 
	local.set	11
	local.get	11
	global.set	__stack_pointer
	local.get	9
	return
	end_function
.Ltmp266:
.Lfunc_end108:
                                        # -- End function
	.section	.text._ZNKSt3__26chrono15__duration_castINS0_8durationIxNS_5ratioILx1ELx1000000000EEEEENS2_IdS4_EENS3_ILx1ELx1EEELb1ELb1EEclB8ne190106ERKS5_,"G",@,_ZNKSt3__26chrono15__duration_castINS0_8durationIxNS_5ratioILx1ELx1000000000EEEEENS2_IdS4_EENS3_ILx1ELx1EEELb1ELb1EEclB8ne190106ERKS5_,comdat
	.hidden	_ZNKSt3__26chrono15__duration_castINS0_8durationIxNS_5ratioILx1ELx1000000000EEEEENS2_IdS4_EENS3_ILx1ELx1EEELb1ELb1EEclB8ne190106ERKS5_ # -- Begin function _ZNKSt3__26chrono15__duration_castINS0_8durationIxNS_5ratioILx1ELx1000000000EEEEENS2_IdS4_EENS3_ILx1ELx1EEELb1ELb1EEclB8ne190106ERKS5_
	.weak	_ZNKSt3__26chrono15__duration_castINS0_8durationIxNS_5ratioILx1ELx1000000000EEEEENS2_IdS4_EENS3_ILx1ELx1EEELb1ELb1EEclB8ne190106ERKS5_
	.type	_ZNKSt3__26chrono15__duration_castINS0_8durationIxNS_5ratioILx1ELx1000000000EEEEENS2_IdS4_EENS3_ILx1ELx1EEELb1ELb1EEclB8ne190106ERKS5_,@function
_ZNKSt3__26chrono15__duration_castINS0_8durationIxNS_5ratioILx1ELx1000000000EEEEENS2_IdS4_EENS3_ILx1ELx1EEELb1ELb1EEclB8ne190106ERKS5_: # @_ZNKSt3__26chrono15__duration_castINS0_8durationIxNS_5ratioILx1ELx1000000000EEEEENS2_IdS4_EENS3_ILx1ELx1EEELb1ELb1EEclB8ne190106ERKS5_
.Lfunc_begin109:
	.loc	32 73 0 is_stmt 1               # emscripten/cache/sysroot/include/c++/v1/__chrono/duration.h:73:0
	.functype	_ZNKSt3__26chrono15__duration_castINS0_8durationIxNS_5ratioILx1ELx1000000000EEEEENS2_IdS4_EENS3_ILx1ELx1EEELb1ELb1EEclB8ne190106ERKS5_ (i32, i32) -> (f64)
	.local  	i32, i32, i32, i32, i64, f64, i32, i32, i32, i32, i32, i32, f64, i32, i32
# %bb.0:                                # %entry
	global.get	__stack_pointer
	local.set	2
	i32.const	32
	local.set	3
	local.get	2
	local.get	3
	i32.sub 
	local.set	4
	local.get	4
	global.set	__stack_pointer
	local.get	4
	local.get	0
	i32.store	20
	local.get	4
	local.get	1
	i32.store	16
.Ltmp267:
	.loc	32 74 63 prologue_end           # emscripten/cache/sysroot/include/c++/v1/__chrono/duration.h:74:63
	local.get	4
	i32.load	16
	local.set	5
	.loc	32 74 68 is_stmt 0              # emscripten/cache/sysroot/include/c++/v1/__chrono/duration.h:74:68
	local.get	5
	call	_ZNKSt3__26chrono8durationIxNS_5ratioILx1ELx1000000000EEEE5countB8ne190106Ev
	local.set	6
	.loc	32 74 63                        # emscripten/cache/sysroot/include/c++/v1/__chrono/duration.h:74:63
	local.get	6
	f64.convert_i64_s
	local.set	7
	.loc	32 74 24                        # emscripten/cache/sysroot/include/c++/v1/__chrono/duration.h:74:24
	local.get	4
	local.get	7
	f64.store	8
	.loc	32 74 12                        # emscripten/cache/sysroot/include/c++/v1/__chrono/duration.h:74:12
	i32.const	24
	local.set	8
	local.get	4
	local.get	8
	i32.add 
	local.set	9
	local.get	9
	local.set	10
	i32.const	8
	local.set	11
	local.get	4
	local.get	11
	i32.add 
	local.set	12
	local.get	12
	local.set	13
	local.get	10
	local.get	13
	call	_ZNSt3__26chrono8durationIdNS_5ratioILx1ELx1000000000EEEEC2B8ne190106IdTnNS_9enable_ifIXaasr14is_convertibleIRKT_dEE5valueooL_ZNS_17integral_constantIbLb1EE5valueEEntsr23treat_as_floating_pointIS7_EE5valueEiE4typeELi0EEES9_
	drop
	.loc	32 74 5                         # emscripten/cache/sysroot/include/c++/v1/__chrono/duration.h:74:5
	local.get	4
	f64.load	24
	local.set	14
	i32.const	32
	local.set	15
	local.get	4
	local.get	15
	i32.add 
	local.set	16
	local.get	16
	global.set	__stack_pointer
	local.get	14
	return
	end_function
.Ltmp268:
.Lfunc_end109:
                                        # -- End function
	.section	.text._ZNSt3__26chrono8durationIdNS_5ratioILx1ELx1000000000EEEEC2B8ne190106IdTnNS_9enable_ifIXaasr14is_convertibleIRKT_dEE5valueooL_ZNS_17integral_constantIbLb1EE5valueEEntsr23treat_as_floating_pointIS7_EE5valueEiE4typeELi0EEES9_,"G",@,_ZNSt3__26chrono8durationIdNS_5ratioILx1ELx1000000000EEEEC2B8ne190106IdTnNS_9enable_ifIXaasr14is_convertibleIRKT_dEE5valueooL_ZNS_17integral_constantIbLb1EE5valueEEntsr23treat_as_floating_pointIS7_EE5valueEiE4typeELi0EEES9_,comdat
	.hidden	_ZNSt3__26chrono8durationIdNS_5ratioILx1ELx1000000000EEEEC2B8ne190106IdTnNS_9enable_ifIXaasr14is_convertibleIRKT_dEE5valueooL_ZNS_17integral_constantIbLb1EE5valueEEntsr23treat_as_floating_pointIS7_EE5valueEiE4typeELi0EEES9_ # -- Begin function _ZNSt3__26chrono8durationIdNS_5ratioILx1ELx1000000000EEEEC2B8ne190106IdTnNS_9enable_ifIXaasr14is_convertibleIRKT_dEE5valueooL_ZNS_17integral_constantIbLb1EE5valueEEntsr23treat_as_floating_pointIS7_EE5valueEiE4typeELi0EEES9_
	.weak	_ZNSt3__26chrono8durationIdNS_5ratioILx1ELx1000000000EEEEC2B8ne190106IdTnNS_9enable_ifIXaasr14is_convertibleIRKT_dEE5valueooL_ZNS_17integral_constantIbLb1EE5valueEEntsr23treat_as_floating_pointIS7_EE5valueEiE4typeELi0EEES9_
	.type	_ZNSt3__26chrono8durationIdNS_5ratioILx1ELx1000000000EEEEC2B8ne190106IdTnNS_9enable_ifIXaasr14is_convertibleIRKT_dEE5valueooL_ZNS_17integral_constantIbLb1EE5valueEEntsr23treat_as_floating_pointIS7_EE5valueEiE4typeELi0EEES9_,@function
_ZNSt3__26chrono8durationIdNS_5ratioILx1ELx1000000000EEEEC2B8ne190106IdTnNS_9enable_ifIXaasr14is_convertibleIRKT_dEE5valueooL_ZNS_17integral_constantIbLb1EE5valueEEntsr23treat_as_floating_pointIS7_EE5valueEiE4typeELi0EEES9_: # @_ZNSt3__26chrono8durationIdNS_5ratioILx1ELx1000000000EEEEC2B8ne190106IdTnNS_9enable_ifIXaasr14is_convertibleIRKT_dEE5valueooL_ZNS_17integral_constantIbLb1EE5valueEEntsr23treat_as_floating_pointIS7_EE5valueEiE4typeELi0EEES9_
.Lfunc_begin110:
	.loc	32 210 0 is_stmt 1              # emscripten/cache/sysroot/include/c++/v1/__chrono/duration.h:210:0
	.functype	_ZNSt3__26chrono8durationIdNS_5ratioILx1ELx1000000000EEEEC2B8ne190106IdTnNS_9enable_ifIXaasr14is_convertibleIRKT_dEE5valueooL_ZNS_17integral_constantIbLb1EE5valueEEntsr23treat_as_floating_pointIS7_EE5valueEiE4typeELi0EEES9_ (i32, i32) -> (i32)
	.local  	i32, i32, i32, i32, i32, f64
# %bb.0:                                # %entry
	global.get	__stack_pointer
	local.set	2
	i32.const	16
	local.set	3
	local.get	2
	local.get	3
	i32.sub 
	local.set	4
	local.get	4
	local.get	0
	i32.store	12
	local.get	4
	local.get	1
	i32.store	8
	local.get	4
	i32.load	12
	local.set	5
.Ltmp269:
	.loc	32 210 88 prologue_end          # emscripten/cache/sysroot/include/c++/v1/__chrono/duration.h:210:88
	local.get	4
	i32.load	8
	local.set	6
	local.get	6
	f64.load	0
	local.set	7
	.loc	32 210 81 is_stmt 0             # emscripten/cache/sysroot/include/c++/v1/__chrono/duration.h:210:81
	local.get	5
	local.get	7
	f64.store	0
	.loc	32 210 94                       # emscripten/cache/sysroot/include/c++/v1/__chrono/duration.h:210:94
	local.get	5
	return
	end_function
.Ltmp270:
.Lfunc_end110:
                                        # -- End function
	.section	".text._ZNSt3__212__tuple_leafILm1EZ20benchmark_atomic_relRNS_6vectorIdNS_9allocatorIdEEEEE3$_0Lb0EE3getB8ne190106Ev","",@
	.type	_ZNSt3__212__tuple_leafILm1EZ20benchmark_atomic_relRNS_6vectorIdNS_9allocatorIdEEEEE3$_0Lb0EE3getB8ne190106Ev,@function # -- Begin function _ZNSt3__212__tuple_leafILm1EZ20benchmark_atomic_relRNS_6vectorIdNS_9allocatorIdEEEEE3$_0Lb0EE3getB8ne190106Ev
_ZNSt3__212__tuple_leafILm1EZ20benchmark_atomic_relRNS_6vectorIdNS_9allocatorIdEEEEE3$_0Lb0EE3getB8ne190106Ev: # @"_ZNSt3__212__tuple_leafILm1EZ20benchmark_atomic_relRNS_6vectorIdNS_9allocatorIdEEEEE3$_0Lb0EE3getB8ne190106Ev"
.Lfunc_begin111:
	.loc	30 382 0 is_stmt 1              # emscripten/cache/sysroot/include/c++/v1/tuple:382:0
	.functype	_ZNSt3__212__tuple_leafILm1EZ20benchmark_atomic_relRNS_6vectorIdNS_9allocatorIdEEEEE3$_0Lb0EE3getB8ne190106Ev (i32) -> (i32)
	.local  	i32, i32, i32, i32
# %bb.0:                                # %entry
	global.get	__stack_pointer
	local.set	1
	i32.const	16
	local.set	2
	local.get	1
	local.get	2
	i32.sub 
	local.set	3
	local.get	3
	local.get	0
	i32.store	12
	local.get	3
	i32.load	12
	local.set	4
.Ltmp271:
	.loc	30 382 78 prologue_end          # emscripten/cache/sysroot/include/c++/v1/tuple:382:78
	local.get	4
	return
	end_function
.Ltmp272:
.Lfunc_end111:
                                        # -- End function
	.section	".text._ZNKSt3__217__compressed_pairIPNS_5tupleIJNS_10unique_ptrINS_15__thread_structENS_14default_deleteIS3_EEEEZ20benchmark_atomic_relRNS_6vectorIdNS_9allocatorIdEEEEE3$_0EEENS4_ISD_EEE5firstB8ne190106Ev","",@
	.type	_ZNKSt3__217__compressed_pairIPNS_5tupleIJNS_10unique_ptrINS_15__thread_structENS_14default_deleteIS3_EEEEZ20benchmark_atomic_relRNS_6vectorIdNS_9allocatorIdEEEEE3$_0EEENS4_ISD_EEE5firstB8ne190106Ev,@function # -- Begin function _ZNKSt3__217__compressed_pairIPNS_5tupleIJNS_10unique_ptrINS_15__thread_structENS_14default_deleteIS3_EEEEZ20benchmark_atomic_relRNS_6vectorIdNS_9allocatorIdEEEEE3$_0EEENS4_ISD_EEE5firstB8ne190106Ev
_ZNKSt3__217__compressed_pairIPNS_5tupleIJNS_10unique_ptrINS_15__thread_structENS_14default_deleteIS3_EEEEZ20benchmark_atomic_relRNS_6vectorIdNS_9allocatorIdEEEEE3$_0EEENS4_ISD_EEE5firstB8ne190106Ev: # @"_ZNKSt3__217__compressed_pairIPNS_5tupleIJNS_10unique_ptrINS_15__thread_structENS_14default_deleteIS3_EEEEZ20benchmark_atomic_relRNS_6vectorIdNS_9allocatorIdEEEEE3$_0EEENS4_ISD_EEE5firstB8ne190106Ev"
.Lfunc_begin112:
	.loc	17 133 0                        # emscripten/cache/sysroot/include/c++/v1/__memory/compressed_pair.h:133:0
	.functype	_ZNKSt3__217__compressed_pairIPNS_5tupleIJNS_10unique_ptrINS_15__thread_structENS_14default_deleteIS3_EEEEZ20benchmark_atomic_relRNS_6vectorIdNS_9allocatorIdEEEEE3$_0EEENS4_ISD_EEE5firstB8ne190106Ev (i32) -> (i32)
	.local  	i32, i32, i32, i32, i32, i32, i32
# %bb.0:                                # %entry
	global.get	__stack_pointer
	local.set	1
	i32.const	16
	local.set	2
	local.get	1
	local.get	2
	i32.sub 
	local.set	3
	local.get	3
	global.set	__stack_pointer
	local.get	3
	local.get	0
	i32.store	12
	local.get	3
	i32.load	12
	local.set	4
.Ltmp273:
	.loc	17 134 46 prologue_end          # emscripten/cache/sysroot/include/c++/v1/__memory/compressed_pair.h:134:46
	local.get	4
	call	_ZNKSt3__222__compressed_pair_elemIPNS_5tupleIJNS_10unique_ptrINS_15__thread_structENS_14default_deleteIS3_EEEEZ20benchmark_atomic_relRNS_6vectorIdNS_9allocatorIdEEEEE3$_0EEELi0ELb0EE5__getB8ne190106Ev
	local.set	5
	.loc	17 134 5 is_stmt 0              # emscripten/cache/sysroot/include/c++/v1/__memory/compressed_pair.h:134:5
	i32.const	16
	local.set	6
	local.get	3
	local.get	6
	i32.add 
	local.set	7
	local.get	7
	global.set	__stack_pointer
	local.get	5
	return
	end_function
.Ltmp274:
.Lfunc_end112:
                                        # -- End function
	.section	".text._ZNKSt3__222__compressed_pair_elemIPNS_5tupleIJNS_10unique_ptrINS_15__thread_structENS_14default_deleteIS3_EEEEZ20benchmark_atomic_relRNS_6vectorIdNS_9allocatorIdEEEEE3$_0EEELi0ELb0EE5__getB8ne190106Ev","",@
	.type	_ZNKSt3__222__compressed_pair_elemIPNS_5tupleIJNS_10unique_ptrINS_15__thread_structENS_14default_deleteIS3_EEEEZ20benchmark_atomic_relRNS_6vectorIdNS_9allocatorIdEEEEE3$_0EEELi0ELb0EE5__getB8ne190106Ev,@function # -- Begin function _ZNKSt3__222__compressed_pair_elemIPNS_5tupleIJNS_10unique_ptrINS_15__thread_structENS_14default_deleteIS3_EEEEZ20benchmark_atomic_relRNS_6vectorIdNS_9allocatorIdEEEEE3$_0EEELi0ELb0EE5__getB8ne190106Ev
_ZNKSt3__222__compressed_pair_elemIPNS_5tupleIJNS_10unique_ptrINS_15__thread_structENS_14default_deleteIS3_EEEEZ20benchmark_atomic_relRNS_6vectorIdNS_9allocatorIdEEEEE3$_0EEELi0ELb0EE5__getB8ne190106Ev: # @"_ZNKSt3__222__compressed_pair_elemIPNS_5tupleIJNS_10unique_ptrINS_15__thread_structENS_14default_deleteIS3_EEEEZ20benchmark_atomic_relRNS_6vectorIdNS_9allocatorIdEEEEE3$_0EEELi0ELb0EE5__getB8ne190106Ev"
.Lfunc_begin113:
	.loc	17 63 0 is_stmt 1               # emscripten/cache/sysroot/include/c++/v1/__memory/compressed_pair.h:63:0
	.functype	_ZNKSt3__222__compressed_pair_elemIPNS_5tupleIJNS_10unique_ptrINS_15__thread_structENS_14default_deleteIS3_EEEEZ20benchmark_atomic_relRNS_6vectorIdNS_9allocatorIdEEEEE3$_0EEELi0ELb0EE5__getB8ne190106Ev (i32) -> (i32)
	.local  	i32, i32, i32, i32
# %bb.0:                                # %entry
	global.get	__stack_pointer
	local.set	1
	i32.const	16
	local.set	2
	local.get	1
	local.get	2
	i32.sub 
	local.set	3
	local.get	3
	local.get	0
	i32.store	12
	local.get	3
	i32.load	12
	local.set	4
.Ltmp275:
	.loc	17 63 85 prologue_end           # emscripten/cache/sysroot/include/c++/v1/__memory/compressed_pair.h:63:85
	local.get	4
	return
	end_function
.Ltmp276:
.Lfunc_end113:
                                        # -- End function
	.section	".text._ZNSt3__217__compressed_pairIPNS_5tupleIJNS_10unique_ptrINS_15__thread_structENS_14default_deleteIS3_EEEEZ20benchmark_atomic_relRNS_6vectorIdNS_9allocatorIdEEEEE3$_0EEENS4_ISD_EEE5firstB8ne190106Ev","",@
	.type	_ZNSt3__217__compressed_pairIPNS_5tupleIJNS_10unique_ptrINS_15__thread_structENS_14default_deleteIS3_EEEEZ20benchmark_atomic_relRNS_6vectorIdNS_9allocatorIdEEEEE3$_0EEENS4_ISD_EEE5firstB8ne190106Ev,@function # -- Begin function _ZNSt3__217__compressed_pairIPNS_5tupleIJNS_10unique_ptrINS_15__thread_structENS_14default_deleteIS3_EEEEZ20benchmark_atomic_relRNS_6vectorIdNS_9allocatorIdEEEEE3$_0EEENS4_ISD_EEE5firstB8ne190106Ev
_ZNSt3__217__compressed_pairIPNS_5tupleIJNS_10unique_ptrINS_15__thread_structENS_14default_deleteIS3_EEEEZ20benchmark_atomic_relRNS_6vectorIdNS_9allocatorIdEEEEE3$_0EEENS4_ISD_EEE5firstB8ne190106Ev: # @"_ZNSt3__217__compressed_pairIPNS_5tupleIJNS_10unique_ptrINS_15__thread_structENS_14default_deleteIS3_EEEEZ20benchmark_atomic_relRNS_6vectorIdNS_9allocatorIdEEEEE3$_0EEENS4_ISD_EEE5firstB8ne190106Ev"
.Lfunc_begin114:
	.loc	17 129 0                        # emscripten/cache/sysroot/include/c++/v1/__memory/compressed_pair.h:129:0
	.functype	_ZNSt3__217__compressed_pairIPNS_5tupleIJNS_10unique_ptrINS_15__thread_structENS_14default_deleteIS3_EEEEZ20benchmark_atomic_relRNS_6vectorIdNS_9allocatorIdEEEEE3$_0EEENS4_ISD_EEE5firstB8ne190106Ev (i32) -> (i32)
	.local  	i32, i32, i32, i32, i32, i32, i32
# %bb.0:                                # %entry
	global.get	__stack_pointer
	local.set	1
	i32.const	16
	local.set	2
	local.get	1
	local.get	2
	i32.sub 
	local.set	3
	local.get	3
	global.set	__stack_pointer
	local.get	3
	local.get	0
	i32.store	12
	local.get	3
	i32.load	12
	local.set	4
.Ltmp277:
	.loc	17 130 40 prologue_end          # emscripten/cache/sysroot/include/c++/v1/__memory/compressed_pair.h:130:40
	local.get	4
	call	_ZNSt3__222__compressed_pair_elemIPNS_5tupleIJNS_10unique_ptrINS_15__thread_structENS_14default_deleteIS3_EEEEZ20benchmark_atomic_relRNS_6vectorIdNS_9allocatorIdEEEEE3$_0EEELi0ELb0EE5__getB8ne190106Ev
	local.set	5
	.loc	17 130 5 is_stmt 0              # emscripten/cache/sysroot/include/c++/v1/__memory/compressed_pair.h:130:5
	i32.const	16
	local.set	6
	local.get	3
	local.get	6
	i32.add 
	local.set	7
	local.get	7
	global.set	__stack_pointer
	local.get	5
	return
	end_function
.Ltmp278:
.Lfunc_end114:
                                        # -- End function
	.section	".text._ZNSt3__222__compressed_pair_elemIPNS_5tupleIJNS_10unique_ptrINS_15__thread_structENS_14default_deleteIS3_EEEEZ20benchmark_atomic_relRNS_6vectorIdNS_9allocatorIdEEEEE3$_0EEELi0ELb0EE5__getB8ne190106Ev","",@
	.type	_ZNSt3__222__compressed_pair_elemIPNS_5tupleIJNS_10unique_ptrINS_15__thread_structENS_14default_deleteIS3_EEEEZ20benchmark_atomic_relRNS_6vectorIdNS_9allocatorIdEEEEE3$_0EEELi0ELb0EE5__getB8ne190106Ev,@function # -- Begin function _ZNSt3__222__compressed_pair_elemIPNS_5tupleIJNS_10unique_ptrINS_15__thread_structENS_14default_deleteIS3_EEEEZ20benchmark_atomic_relRNS_6vectorIdNS_9allocatorIdEEEEE3$_0EEELi0ELb0EE5__getB8ne190106Ev
_ZNSt3__222__compressed_pair_elemIPNS_5tupleIJNS_10unique_ptrINS_15__thread_structENS_14default_deleteIS3_EEEEZ20benchmark_atomic_relRNS_6vectorIdNS_9allocatorIdEEEEE3$_0EEELi0ELb0EE5__getB8ne190106Ev: # @"_ZNSt3__222__compressed_pair_elemIPNS_5tupleIJNS_10unique_ptrINS_15__thread_structENS_14default_deleteIS3_EEEEZ20benchmark_atomic_relRNS_6vectorIdNS_9allocatorIdEEEEE3$_0EEELi0ELb0EE5__getB8ne190106Ev"
.Lfunc_begin115:
	.loc	17 62 0 is_stmt 1               # emscripten/cache/sysroot/include/c++/v1/__memory/compressed_pair.h:62:0
	.functype	_ZNSt3__222__compressed_pair_elemIPNS_5tupleIJNS_10unique_ptrINS_15__thread_structENS_14default_deleteIS3_EEEEZ20benchmark_atomic_relRNS_6vectorIdNS_9allocatorIdEEEEE3$_0EEELi0ELb0EE5__getB8ne190106Ev (i32) -> (i32)
	.local  	i32, i32, i32, i32
# %bb.0:                                # %entry
	global.get	__stack_pointer
	local.set	1
	i32.const	16
	local.set	2
	local.get	1
	local.get	2
	i32.sub 
	local.set	3
	local.get	3
	local.get	0
	i32.store	12
	local.get	3
	i32.load	12
	local.set	4
.Ltmp279:
	.loc	17 62 85 prologue_end           # emscripten/cache/sysroot/include/c++/v1/__memory/compressed_pair.h:62:85
	local.get	4
	return
	end_function
.Ltmp280:
.Lfunc_end115:
                                        # -- End function
	.section	".text._ZNSt3__210unique_ptrINS_5tupleIJNS0_INS_15__thread_structENS_14default_deleteIS2_EEEEZ20benchmark_atomic_relRNS_6vectorIdNS_9allocatorIdEEEEE3$_0EEENS3_ISC_EEE5resetB8ne190106EPSC_","",@
	.type	_ZNSt3__210unique_ptrINS_5tupleIJNS0_INS_15__thread_structENS_14default_deleteIS2_EEEEZ20benchmark_atomic_relRNS_6vectorIdNS_9allocatorIdEEEEE3$_0EEENS3_ISC_EEE5resetB8ne190106EPSC_,@function # -- Begin function _ZNSt3__210unique_ptrINS_5tupleIJNS0_INS_15__thread_structENS_14default_deleteIS2_EEEEZ20benchmark_atomic_relRNS_6vectorIdNS_9allocatorIdEEEEE3$_0EEENS3_ISC_EEE5resetB8ne190106EPSC_
_ZNSt3__210unique_ptrINS_5tupleIJNS0_INS_15__thread_structENS_14default_deleteIS2_EEEEZ20benchmark_atomic_relRNS_6vectorIdNS_9allocatorIdEEEEE3$_0EEENS3_ISC_EEE5resetB8ne190106EPSC_: # @"_ZNSt3__210unique_ptrINS_5tupleIJNS0_INS_15__thread_structENS_14default_deleteIS2_EEEEZ20benchmark_atomic_relRNS_6vectorIdNS_9allocatorIdEEEEE3$_0EEENS3_ISC_EEE5resetB8ne190106EPSC_"
.Lfunc_begin116:
	.loc	25 288 0                        # emscripten/cache/sysroot/include/c++/v1/__memory/unique_ptr.h:288:0
	.functype	_ZNSt3__210unique_ptrINS_5tupleIJNS0_INS_15__thread_structENS_14default_deleteIS2_EEEEZ20benchmark_atomic_relRNS_6vectorIdNS_9allocatorIdEEEEE3$_0EEENS3_ISC_EEE5resetB8ne190106EPSC_ (i32, i32) -> ()
	.local  	i32, i32, i32, i32, i32, i32, i32, i32, i32, i32, i32, i32, i32, i32, i32, i32, i32
# %bb.0:                                # %entry
	global.get	__stack_pointer
	local.set	2
	i32.const	16
	local.set	3
	local.get	2
	local.get	3
	i32.sub 
	local.set	4
	local.get	4
	global.set	__stack_pointer
	local.get	4
	local.get	0
	i32.store	12
	local.get	4
	local.get	1
	i32.store	8
	local.get	4
	i32.load	12
	local.set	5
.Ltmp281:
	.loc	25 289 29 prologue_end          # emscripten/cache/sysroot/include/c++/v1/__memory/unique_ptr.h:289:29
	local.get	5
	call	_ZNSt3__217__compressed_pairIPNS_5tupleIJNS_10unique_ptrINS_15__thread_structENS_14default_deleteIS3_EEEEZ20benchmark_atomic_relRNS_6vectorIdNS_9allocatorIdEEEEE3$_0EEENS4_ISD_EEE5firstB8ne190106Ev
	local.set	6
	local.get	6
	i32.load	0
	local.set	7
	.loc	25 289 13 is_stmt 0             # emscripten/cache/sysroot/include/c++/v1/__memory/unique_ptr.h:289:13
	local.get	4
	local.get	7
	i32.store	4
	.loc	25 290 22 is_stmt 1             # emscripten/cache/sysroot/include/c++/v1/__memory/unique_ptr.h:290:22
	local.get	4
	i32.load	8
	local.set	8
	.loc	25 290 12 is_stmt 0             # emscripten/cache/sysroot/include/c++/v1/__memory/unique_ptr.h:290:12
	local.get	5
	call	_ZNSt3__217__compressed_pairIPNS_5tupleIJNS_10unique_ptrINS_15__thread_structENS_14default_deleteIS3_EEEEZ20benchmark_atomic_relRNS_6vectorIdNS_9allocatorIdEEEEE3$_0EEENS4_ISD_EEE5firstB8ne190106Ev
	local.set	9
	.loc	25 290 20                       # emscripten/cache/sysroot/include/c++/v1/__memory/unique_ptr.h:290:20
	local.get	9
	local.get	8
	i32.store	0
.Ltmp282:
	.loc	25 291 9 is_stmt 1              # emscripten/cache/sysroot/include/c++/v1/__memory/unique_ptr.h:291:9
	local.get	4
	i32.load	4
	local.set	10
	i32.const	0
	local.set	11
	local.get	10
	local.get	11
	i32.ne  
	local.set	12
	i32.const	1
	local.set	13
	local.get	12
	local.get	13
	i32.and 
	local.set	14
	block   	
	local.get	14
	i32.eqz
	br_if   	0                               # 0: down to label38
# %bb.1:                                # %if.then
	.loc	25 292 14                       # emscripten/cache/sysroot/include/c++/v1/__memory/unique_ptr.h:292:14
	local.get	5
	call	_ZNSt3__217__compressed_pairIPNS_5tupleIJNS_10unique_ptrINS_15__thread_structENS_14default_deleteIS3_EEEEZ20benchmark_atomic_relRNS_6vectorIdNS_9allocatorIdEEEEE3$_0EEENS4_ISD_EEE6secondB8ne190106Ev
	local.set	15
	.loc	25 292 23 is_stmt 0             # emscripten/cache/sysroot/include/c++/v1/__memory/unique_ptr.h:292:23
	local.get	4
	i32.load	4
	local.set	16
	.loc	25 292 7                        # emscripten/cache/sysroot/include/c++/v1/__memory/unique_ptr.h:292:7
	local.get	15
	local.get	16
	call	_ZNKSt3__214default_deleteINS_5tupleIJNS_10unique_ptrINS_15__thread_structENS0_IS3_EEEEZ20benchmark_atomic_relRNS_6vectorIdNS_9allocatorIdEEEEE3$_0EEEEclB8ne190106EPSC_
.Ltmp283:
.LBB116_2:                              # %if.end
	.loc	25 0 7                          # emscripten/cache/sysroot/include/c++/v1/__memory/unique_ptr.h:0:7
	end_block                               # label38:
	.loc	25 293 3 is_stmt 1              # emscripten/cache/sysroot/include/c++/v1/__memory/unique_ptr.h:293:3
	i32.const	16
	local.set	17
	local.get	4
	local.get	17
	i32.add 
	local.set	18
	local.get	18
	global.set	__stack_pointer
	return
	end_function
.Ltmp284:
.Lfunc_end116:
                                        # -- End function
	.section	".text._ZNSt3__217__compressed_pairIPNS_5tupleIJNS_10unique_ptrINS_15__thread_structENS_14default_deleteIS3_EEEEZ20benchmark_atomic_relRNS_6vectorIdNS_9allocatorIdEEEEE3$_0EEENS4_ISD_EEE6secondB8ne190106Ev","",@
	.type	_ZNSt3__217__compressed_pairIPNS_5tupleIJNS_10unique_ptrINS_15__thread_structENS_14default_deleteIS3_EEEEZ20benchmark_atomic_relRNS_6vectorIdNS_9allocatorIdEEEEE3$_0EEENS4_ISD_EEE6secondB8ne190106Ev,@function # -- Begin function _ZNSt3__217__compressed_pairIPNS_5tupleIJNS_10unique_ptrINS_15__thread_structENS_14default_deleteIS3_EEEEZ20benchmark_atomic_relRNS_6vectorIdNS_9allocatorIdEEEEE3$_0EEENS4_ISD_EEE6secondB8ne190106Ev
_ZNSt3__217__compressed_pairIPNS_5tupleIJNS_10unique_ptrINS_15__thread_structENS_14default_deleteIS3_EEEEZ20benchmark_atomic_relRNS_6vectorIdNS_9allocatorIdEEEEE3$_0EEENS4_ISD_EEE6secondB8ne190106Ev: # @"_ZNSt3__217__compressed_pairIPNS_5tupleIJNS_10unique_ptrINS_15__thread_structENS_14default_deleteIS3_EEEEZ20benchmark_atomic_relRNS_6vectorIdNS_9allocatorIdEEEEE3$_0EEENS4_ISD_EEE6secondB8ne190106Ev"
.Lfunc_begin117:
	.loc	17 137 0                        # emscripten/cache/sysroot/include/c++/v1/__memory/compressed_pair.h:137:0
	.functype	_ZNSt3__217__compressed_pairIPNS_5tupleIJNS_10unique_ptrINS_15__thread_structENS_14default_deleteIS3_EEEEZ20benchmark_atomic_relRNS_6vectorIdNS_9allocatorIdEEEEE3$_0EEENS4_ISD_EEE6secondB8ne190106Ev (i32) -> (i32)
	.local  	i32, i32, i32, i32, i32, i32, i32
# %bb.0:                                # %entry
	global.get	__stack_pointer
	local.set	1
	i32.const	16
	local.set	2
	local.get	1
	local.get	2
	i32.sub 
	local.set	3
	local.get	3
	global.set	__stack_pointer
	local.get	3
	local.get	0
	i32.store	12
	local.get	3
	i32.load	12
	local.set	4
.Ltmp285:
	.loc	17 138 40 prologue_end          # emscripten/cache/sysroot/include/c++/v1/__memory/compressed_pair.h:138:40
	local.get	4
	call	_ZNSt3__222__compressed_pair_elemINS_14default_deleteINS_5tupleIJNS_10unique_ptrINS_15__thread_structENS1_IS4_EEEEZ20benchmark_atomic_relRNS_6vectorIdNS_9allocatorIdEEEEE3$_0EEEEELi1ELb1EE5__getB8ne190106Ev
	local.set	5
	.loc	17 138 5 is_stmt 0              # emscripten/cache/sysroot/include/c++/v1/__memory/compressed_pair.h:138:5
	i32.const	16
	local.set	6
	local.get	3
	local.get	6
	i32.add 
	local.set	7
	local.get	7
	global.set	__stack_pointer
	local.get	5
	return
	end_function
.Ltmp286:
.Lfunc_end117:
                                        # -- End function
	.section	".text._ZNKSt3__214default_deleteINS_5tupleIJNS_10unique_ptrINS_15__thread_structENS0_IS3_EEEEZ20benchmark_atomic_relRNS_6vectorIdNS_9allocatorIdEEEEE3$_0EEEEclB8ne190106EPSC_","",@
	.type	_ZNKSt3__214default_deleteINS_5tupleIJNS_10unique_ptrINS_15__thread_structENS0_IS3_EEEEZ20benchmark_atomic_relRNS_6vectorIdNS_9allocatorIdEEEEE3$_0EEEEclB8ne190106EPSC_,@function # -- Begin function _ZNKSt3__214default_deleteINS_5tupleIJNS_10unique_ptrINS_15__thread_structENS0_IS3_EEEEZ20benchmark_atomic_relRNS_6vectorIdNS_9allocatorIdEEEEE3$_0EEEEclB8ne190106EPSC_
_ZNKSt3__214default_deleteINS_5tupleIJNS_10unique_ptrINS_15__thread_structENS0_IS3_EEEEZ20benchmark_atomic_relRNS_6vectorIdNS_9allocatorIdEEEEE3$_0EEEEclB8ne190106EPSC_: # @"_ZNKSt3__214default_deleteINS_5tupleIJNS_10unique_ptrINS_15__thread_structENS0_IS3_EEEEZ20benchmark_atomic_relRNS_6vectorIdNS_9allocatorIdEEEEE3$_0EEEEclB8ne190106EPSC_"
.Lfunc_begin118:
	.loc	25 77 0 is_stmt 1               # emscripten/cache/sysroot/include/c++/v1/__memory/unique_ptr.h:77:0
	.functype	_ZNKSt3__214default_deleteINS_5tupleIJNS_10unique_ptrINS_15__thread_structENS0_IS3_EEEEZ20benchmark_atomic_relRNS_6vectorIdNS_9allocatorIdEEEEE3$_0EEEEclB8ne190106EPSC_ (i32, i32) -> ()
	.local  	i32, i32, i32, i32, i32, i32, i32, i32, i32, i32, i32
# %bb.0:                                # %entry
	global.get	__stack_pointer
	local.set	2
	i32.const	16
	local.set	3
	local.get	2
	local.get	3
	i32.sub 
	local.set	4
	local.get	4
	global.set	__stack_pointer
	local.get	4
	local.get	0
	i32.store	12
	local.get	4
	local.get	1
	i32.store	8
.Ltmp287:
	.loc	25 80 12 prologue_end           # emscripten/cache/sysroot/include/c++/v1/__memory/unique_ptr.h:80:12
	local.get	4
	i32.load	8
	local.set	5
	.loc	25 80 5 is_stmt 0               # emscripten/cache/sysroot/include/c++/v1/__memory/unique_ptr.h:80:5
	i32.const	0
	local.set	6
	local.get	5
	local.get	6
	i32.eq  
	local.set	7
	i32.const	1
	local.set	8
	local.get	7
	local.get	8
	i32.and 
	local.set	9
	block   	
	local.get	9
	br_if   	0                               # 0: down to label39
# %bb.1:                                # %delete.notnull
	local.get	5
	call	_ZNSt3__25tupleIJNS_10unique_ptrINS_15__thread_structENS_14default_deleteIS2_EEEEZ20benchmark_atomic_relRNS_6vectorIdNS_9allocatorIdEEEEE3$_0EED2Ev
	drop
	i32.const	16
	local.set	10
	local.get	5
	local.get	10
	call	_ZdlPvm
.LBB118_2:                              # %delete.end
	.loc	25 0 5                          # emscripten/cache/sysroot/include/c++/v1/__memory/unique_ptr.h:0:5
	end_block                               # label39:
	.loc	25 81 3 is_stmt 1               # emscripten/cache/sysroot/include/c++/v1/__memory/unique_ptr.h:81:3
	i32.const	16
	local.set	11
	local.get	4
	local.get	11
	i32.add 
	local.set	12
	local.get	12
	global.set	__stack_pointer
	return
	end_function
.Ltmp288:
.Lfunc_end118:
                                        # -- End function
	.section	".text._ZNSt3__222__compressed_pair_elemINS_14default_deleteINS_5tupleIJNS_10unique_ptrINS_15__thread_structENS1_IS4_EEEEZ20benchmark_atomic_relRNS_6vectorIdNS_9allocatorIdEEEEE3$_0EEEEELi1ELb1EE5__getB8ne190106Ev","",@
	.type	_ZNSt3__222__compressed_pair_elemINS_14default_deleteINS_5tupleIJNS_10unique_ptrINS_15__thread_structENS1_IS4_EEEEZ20benchmark_atomic_relRNS_6vectorIdNS_9allocatorIdEEEEE3$_0EEEEELi1ELb1EE5__getB8ne190106Ev,@function # -- Begin function _ZNSt3__222__compressed_pair_elemINS_14default_deleteINS_5tupleIJNS_10unique_ptrINS_15__thread_structENS1_IS4_EEEEZ20benchmark_atomic_relRNS_6vectorIdNS_9allocatorIdEEEEE3$_0EEEEELi1ELb1EE5__getB8ne190106Ev
_ZNSt3__222__compressed_pair_elemINS_14default_deleteINS_5tupleIJNS_10unique_ptrINS_15__thread_structENS1_IS4_EEEEZ20benchmark_atomic_relRNS_6vectorIdNS_9allocatorIdEEEEE3$_0EEEEELi1ELb1EE5__getB8ne190106Ev: # @"_ZNSt3__222__compressed_pair_elemINS_14default_deleteINS_5tupleIJNS_10unique_ptrINS_15__thread_structENS1_IS4_EEEEZ20benchmark_atomic_relRNS_6vectorIdNS_9allocatorIdEEEEE3$_0EEEEELi1ELb1EE5__getB8ne190106Ev"
.Lfunc_begin119:
	.loc	17 91 0                         # emscripten/cache/sysroot/include/c++/v1/__memory/compressed_pair.h:91:0
	.functype	_ZNSt3__222__compressed_pair_elemINS_14default_deleteINS_5tupleIJNS_10unique_ptrINS_15__thread_structENS1_IS4_EEEEZ20benchmark_atomic_relRNS_6vectorIdNS_9allocatorIdEEEEE3$_0EEEEELi1ELb1EE5__getB8ne190106Ev (i32) -> (i32)
	.local  	i32, i32, i32, i32
# %bb.0:                                # %entry
	global.get	__stack_pointer
	local.set	1
	i32.const	16
	local.set	2
	local.get	1
	local.get	2
	i32.sub 
	local.set	3
	local.get	3
	local.get	0
	i32.store	12
	local.get	3
	i32.load	12
	local.set	4
.Ltmp289:
	.loc	17 91 85 prologue_end           # emscripten/cache/sysroot/include/c++/v1/__memory/compressed_pair.h:91:85
	local.get	4
	return
	end_function
.Ltmp290:
.Lfunc_end119:
                                        # -- End function
	.section	".text._ZNSt3__25tupleIJNS_10unique_ptrINS_15__thread_structENS_14default_deleteIS2_EEEEZ20benchmark_atomic_relRNS_6vectorIdNS_9allocatorIdEEEEE3$_0EED2Ev","",@
	.type	_ZNSt3__25tupleIJNS_10unique_ptrINS_15__thread_structENS_14default_deleteIS2_EEEEZ20benchmark_atomic_relRNS_6vectorIdNS_9allocatorIdEEEEE3$_0EED2Ev,@function # -- Begin function _ZNSt3__25tupleIJNS_10unique_ptrINS_15__thread_structENS_14default_deleteIS2_EEEEZ20benchmark_atomic_relRNS_6vectorIdNS_9allocatorIdEEEEE3$_0EED2Ev
_ZNSt3__25tupleIJNS_10unique_ptrINS_15__thread_structENS_14default_deleteIS2_EEEEZ20benchmark_atomic_relRNS_6vectorIdNS_9allocatorIdEEEEE3$_0EED2Ev: # @"_ZNSt3__25tupleIJNS_10unique_ptrINS_15__thread_structENS_14default_deleteIS2_EEEEZ20benchmark_atomic_relRNS_6vectorIdNS_9allocatorIdEEEEE3$_0EED2Ev"
.Lfunc_begin120:
	.loc	30 531 0                        # emscripten/cache/sysroot/include/c++/v1/tuple:531:0
	.functype	_ZNSt3__25tupleIJNS_10unique_ptrINS_15__thread_structENS_14default_deleteIS2_EEEEZ20benchmark_atomic_relRNS_6vectorIdNS_9allocatorIdEEEEE3$_0EED2Ev (i32) -> (i32)
	.local  	i32, i32, i32, i32, i32, i32
# %bb.0:                                # %entry
	global.get	__stack_pointer
	local.set	1
	i32.const	16
	local.set	2
	local.get	1
	local.get	2
	i32.sub 
	local.set	3
	local.get	3
	global.set	__stack_pointer
	local.get	3
	local.get	0
	i32.store	12
	local.get	3
	i32.load	12
	local.set	4
.Ltmp291:
	.loc	30 531 28 prologue_end          # emscripten/cache/sysroot/include/c++/v1/tuple:531:28
	local.get	4
	call	_ZNSt3__212__tuple_implINS_15__tuple_indicesIJLm0ELm1EEEEJNS_10unique_ptrINS_15__thread_structENS_14default_deleteIS4_EEEEZ20benchmark_atomic_relRNS_6vectorIdNS_9allocatorIdEEEEE3$_0EED2Ev
	drop
.Ltmp292:
	.loc	30 531 28 is_stmt 0             # emscripten/cache/sysroot/include/c++/v1/tuple:531:28
	i32.const	16
	local.set	5
	local.get	3
	local.get	5
	i32.add 
	local.set	6
	local.get	6
	global.set	__stack_pointer
	local.get	4
	return
	end_function
.Ltmp293:
.Lfunc_end120:
                                        # -- End function
	.section	".text._ZNSt3__212__tuple_implINS_15__tuple_indicesIJLm0ELm1EEEEJNS_10unique_ptrINS_15__thread_structENS_14default_deleteIS4_EEEEZ20benchmark_atomic_relRNS_6vectorIdNS_9allocatorIdEEEEE3$_0EED2Ev","",@
	.type	_ZNSt3__212__tuple_implINS_15__tuple_indicesIJLm0ELm1EEEEJNS_10unique_ptrINS_15__thread_structENS_14default_deleteIS4_EEEEZ20benchmark_atomic_relRNS_6vectorIdNS_9allocatorIdEEEEE3$_0EED2Ev,@function # -- Begin function _ZNSt3__212__tuple_implINS_15__tuple_indicesIJLm0ELm1EEEEJNS_10unique_ptrINS_15__thread_structENS_14default_deleteIS4_EEEEZ20benchmark_atomic_relRNS_6vectorIdNS_9allocatorIdEEEEE3$_0EED2Ev
_ZNSt3__212__tuple_implINS_15__tuple_indicesIJLm0ELm1EEEEJNS_10unique_ptrINS_15__thread_structENS_14default_deleteIS4_EEEEZ20benchmark_atomic_relRNS_6vectorIdNS_9allocatorIdEEEEE3$_0EED2Ev: # @"_ZNSt3__212__tuple_implINS_15__tuple_indicesIJLm0ELm1EEEEJNS_10unique_ptrINS_15__thread_structENS_14default_deleteIS4_EEEEZ20benchmark_atomic_relRNS_6vectorIdNS_9allocatorIdEEEEE3$_0EED2Ev"
.Lfunc_begin121:
	.loc	30 458 0 is_stmt 1              # emscripten/cache/sysroot/include/c++/v1/tuple:458:0
	.functype	_ZNSt3__212__tuple_implINS_15__tuple_indicesIJLm0ELm1EEEEJNS_10unique_ptrINS_15__thread_structENS_14default_deleteIS4_EEEEZ20benchmark_atomic_relRNS_6vectorIdNS_9allocatorIdEEEEE3$_0EED2Ev (i32) -> (i32)
	.local  	i32, i32, i32, i32, i32, i32
# %bb.0:                                # %entry
	global.get	__stack_pointer
	local.set	1
	i32.const	16
	local.set	2
	local.get	1
	local.get	2
	i32.sub 
	local.set	3
	local.get	3
	global.set	__stack_pointer
	local.get	3
	local.get	0
	i32.store	12
	local.get	3
	i32.load	12
	local.set	4
.Ltmp294:
	.loc	30 458 37 prologue_end          # emscripten/cache/sysroot/include/c++/v1/tuple:458:37
	local.get	4
	call	_ZNSt3__212__tuple_leafILm0ENS_10unique_ptrINS_15__thread_structENS_14default_deleteIS2_EEEELb0EED2Ev
	drop
.Ltmp295:
	.loc	30 458 37 is_stmt 0             # emscripten/cache/sysroot/include/c++/v1/tuple:458:37
	i32.const	16
	local.set	5
	local.get	3
	local.get	5
	i32.add 
	local.set	6
	local.get	6
	global.set	__stack_pointer
	local.get	4
	return
	end_function
.Ltmp296:
.Lfunc_end121:
                                        # -- End function
	.section	.text._ZNSt3__212__tuple_leafILm0ENS_10unique_ptrINS_15__thread_structENS_14default_deleteIS2_EEEELb0EED2Ev,"G",@,_ZNSt3__212__tuple_leafILm0ENS_10unique_ptrINS_15__thread_structENS_14default_deleteIS2_EEEELb0EED2Ev,comdat
	.hidden	_ZNSt3__212__tuple_leafILm0ENS_10unique_ptrINS_15__thread_structENS_14default_deleteIS2_EEEELb0EED2Ev # -- Begin function _ZNSt3__212__tuple_leafILm0ENS_10unique_ptrINS_15__thread_structENS_14default_deleteIS2_EEEELb0EED2Ev
	.weak	_ZNSt3__212__tuple_leafILm0ENS_10unique_ptrINS_15__thread_structENS_14default_deleteIS2_EEEELb0EED2Ev
	.type	_ZNSt3__212__tuple_leafILm0ENS_10unique_ptrINS_15__thread_structENS_14default_deleteIS2_EEEELb0EED2Ev,@function
_ZNSt3__212__tuple_leafILm0ENS_10unique_ptrINS_15__thread_structENS_14default_deleteIS2_EEEELb0EED2Ev: # @_ZNSt3__212__tuple_leafILm0ENS_10unique_ptrINS_15__thread_structENS_14default_deleteIS2_EEEELb0EED2Ev
.Lfunc_begin122:
	.loc	30 300 0 is_stmt 1              # emscripten/cache/sysroot/include/c++/v1/tuple:300:0
	.functype	_ZNSt3__212__tuple_leafILm0ENS_10unique_ptrINS_15__thread_structENS_14default_deleteIS2_EEEELb0EED2Ev (i32) -> (i32)
	.local  	i32, i32, i32, i32, i32, i32
# %bb.0:                                # %entry
	global.get	__stack_pointer
	local.set	1
	i32.const	16
	local.set	2
	local.get	1
	local.get	2
	i32.sub 
	local.set	3
	local.get	3
	global.set	__stack_pointer
	local.get	3
	local.get	0
	i32.store	12
	local.get	3
	i32.load	12
	local.set	4
.Ltmp297:
	.loc	30 300 7 prologue_end           # emscripten/cache/sysroot/include/c++/v1/tuple:300:7
	local.get	4
	call	_ZNSt3__210unique_ptrINS_15__thread_structENS_14default_deleteIS1_EEED2B8ne190106Ev
	drop
.Ltmp298:
	.loc	30 300 7 is_stmt 0              # emscripten/cache/sysroot/include/c++/v1/tuple:300:7
	i32.const	16
	local.set	5
	local.get	3
	local.get	5
	i32.add 
	local.set	6
	local.get	6
	global.set	__stack_pointer
	local.get	4
	return
	end_function
.Ltmp299:
.Lfunc_end122:
                                        # -- End function
	.section	.text._ZNSt3__210unique_ptrINS_15__thread_structENS_14default_deleteIS1_EEE5resetB8ne190106EPS1_,"G",@,_ZNSt3__210unique_ptrINS_15__thread_structENS_14default_deleteIS1_EEE5resetB8ne190106EPS1_,comdat
	.hidden	_ZNSt3__210unique_ptrINS_15__thread_structENS_14default_deleteIS1_EEE5resetB8ne190106EPS1_ # -- Begin function _ZNSt3__210unique_ptrINS_15__thread_structENS_14default_deleteIS1_EEE5resetB8ne190106EPS1_
	.weak	_ZNSt3__210unique_ptrINS_15__thread_structENS_14default_deleteIS1_EEE5resetB8ne190106EPS1_
	.type	_ZNSt3__210unique_ptrINS_15__thread_structENS_14default_deleteIS1_EEE5resetB8ne190106EPS1_,@function
_ZNSt3__210unique_ptrINS_15__thread_structENS_14default_deleteIS1_EEE5resetB8ne190106EPS1_: # @_ZNSt3__210unique_ptrINS_15__thread_structENS_14default_deleteIS1_EEE5resetB8ne190106EPS1_
.Lfunc_begin123:
	.loc	25 288 0 is_stmt 1              # emscripten/cache/sysroot/include/c++/v1/__memory/unique_ptr.h:288:0
	.functype	_ZNSt3__210unique_ptrINS_15__thread_structENS_14default_deleteIS1_EEE5resetB8ne190106EPS1_ (i32, i32) -> ()
	.local  	i32, i32, i32, i32, i32, i32, i32, i32, i32, i32, i32, i32, i32, i32, i32, i32, i32
# %bb.0:                                # %entry
	global.get	__stack_pointer
	local.set	2
	i32.const	16
	local.set	3
	local.get	2
	local.get	3
	i32.sub 
	local.set	4
	local.get	4
	global.set	__stack_pointer
	local.get	4
	local.get	0
	i32.store	12
	local.get	4
	local.get	1
	i32.store	8
	local.get	4
	i32.load	12
	local.set	5
.Ltmp300:
	.loc	25 289 29 prologue_end          # emscripten/cache/sysroot/include/c++/v1/__memory/unique_ptr.h:289:29
	local.get	5
	call	_ZNSt3__217__compressed_pairIPNS_15__thread_structENS_14default_deleteIS1_EEE5firstB8ne190106Ev
	local.set	6
	local.get	6
	i32.load	0
	local.set	7
	.loc	25 289 13 is_stmt 0             # emscripten/cache/sysroot/include/c++/v1/__memory/unique_ptr.h:289:13
	local.get	4
	local.get	7
	i32.store	4
	.loc	25 290 22 is_stmt 1             # emscripten/cache/sysroot/include/c++/v1/__memory/unique_ptr.h:290:22
	local.get	4
	i32.load	8
	local.set	8
	.loc	25 290 12 is_stmt 0             # emscripten/cache/sysroot/include/c++/v1/__memory/unique_ptr.h:290:12
	local.get	5
	call	_ZNSt3__217__compressed_pairIPNS_15__thread_structENS_14default_deleteIS1_EEE5firstB8ne190106Ev
	local.set	9
	.loc	25 290 20                       # emscripten/cache/sysroot/include/c++/v1/__memory/unique_ptr.h:290:20
	local.get	9
	local.get	8
	i32.store	0
.Ltmp301:
	.loc	25 291 9 is_stmt 1              # emscripten/cache/sysroot/include/c++/v1/__memory/unique_ptr.h:291:9
	local.get	4
	i32.load	4
	local.set	10
	i32.const	0
	local.set	11
	local.get	10
	local.get	11
	i32.ne  
	local.set	12
	i32.const	1
	local.set	13
	local.get	12
	local.get	13
	i32.and 
	local.set	14
	block   	
	local.get	14
	i32.eqz
	br_if   	0                               # 0: down to label40
# %bb.1:                                # %if.then
	.loc	25 292 14                       # emscripten/cache/sysroot/include/c++/v1/__memory/unique_ptr.h:292:14
	local.get	5
	call	_ZNSt3__217__compressed_pairIPNS_15__thread_structENS_14default_deleteIS1_EEE6secondB8ne190106Ev
	local.set	15
	.loc	25 292 23 is_stmt 0             # emscripten/cache/sysroot/include/c++/v1/__memory/unique_ptr.h:292:23
	local.get	4
	i32.load	4
	local.set	16
	.loc	25 292 7                        # emscripten/cache/sysroot/include/c++/v1/__memory/unique_ptr.h:292:7
	local.get	15
	local.get	16
	call	_ZNKSt3__214default_deleteINS_15__thread_structEEclB8ne190106EPS1_
.Ltmp302:
.LBB123_2:                              # %if.end
	.loc	25 0 7                          # emscripten/cache/sysroot/include/c++/v1/__memory/unique_ptr.h:0:7
	end_block                               # label40:
	.loc	25 293 3 is_stmt 1              # emscripten/cache/sysroot/include/c++/v1/__memory/unique_ptr.h:293:3
	i32.const	16
	local.set	17
	local.get	4
	local.get	17
	i32.add 
	local.set	18
	local.get	18
	global.set	__stack_pointer
	return
	end_function
.Ltmp303:
.Lfunc_end123:
                                        # -- End function
	.section	.text._ZNKSt3__214default_deleteINS_15__thread_structEEclB8ne190106EPS1_,"G",@,_ZNKSt3__214default_deleteINS_15__thread_structEEclB8ne190106EPS1_,comdat
	.hidden	_ZNKSt3__214default_deleteINS_15__thread_structEEclB8ne190106EPS1_ # -- Begin function _ZNKSt3__214default_deleteINS_15__thread_structEEclB8ne190106EPS1_
	.weak	_ZNKSt3__214default_deleteINS_15__thread_structEEclB8ne190106EPS1_
	.type	_ZNKSt3__214default_deleteINS_15__thread_structEEclB8ne190106EPS1_,@function
_ZNKSt3__214default_deleteINS_15__thread_structEEclB8ne190106EPS1_: # @_ZNKSt3__214default_deleteINS_15__thread_structEEclB8ne190106EPS1_
.Lfunc_begin124:
	.loc	25 77 0                         # emscripten/cache/sysroot/include/c++/v1/__memory/unique_ptr.h:77:0
	.functype	_ZNKSt3__214default_deleteINS_15__thread_structEEclB8ne190106EPS1_ (i32, i32) -> ()
	.local  	i32, i32, i32, i32, i32, i32, i32, i32, i32, i32, i32
# %bb.0:                                # %entry
	global.get	__stack_pointer
	local.set	2
	i32.const	16
	local.set	3
	local.get	2
	local.get	3
	i32.sub 
	local.set	4
	local.get	4
	global.set	__stack_pointer
	local.get	4
	local.get	0
	i32.store	12
	local.get	4
	local.get	1
	i32.store	8
.Ltmp304:
	.loc	25 80 12 prologue_end           # emscripten/cache/sysroot/include/c++/v1/__memory/unique_ptr.h:80:12
	local.get	4
	i32.load	8
	local.set	5
	.loc	25 80 5 is_stmt 0               # emscripten/cache/sysroot/include/c++/v1/__memory/unique_ptr.h:80:5
	i32.const	0
	local.set	6
	local.get	5
	local.get	6
	i32.eq  
	local.set	7
	i32.const	1
	local.set	8
	local.get	7
	local.get	8
	i32.and 
	local.set	9
	block   	
	local.get	9
	br_if   	0                               # 0: down to label41
# %bb.1:                                # %delete.notnull
	local.get	5
	call	_ZNSt3__215__thread_structD1Ev
	drop
	i32.const	4
	local.set	10
	local.get	5
	local.get	10
	call	_ZdlPvm
.LBB124_2:                              # %delete.end
	.loc	25 0 5                          # emscripten/cache/sysroot/include/c++/v1/__memory/unique_ptr.h:0:5
	end_block                               # label41:
	.loc	25 81 3 is_stmt 1               # emscripten/cache/sysroot/include/c++/v1/__memory/unique_ptr.h:81:3
	i32.const	16
	local.set	11
	local.get	4
	local.get	11
	i32.add 
	local.set	12
	local.get	12
	global.set	__stack_pointer
	return
	end_function
.Ltmp305:
.Lfunc_end124:
                                        # -- End function
	.section	.text._ZNKSt3__26vectorINS_6threadENS_9allocatorIS1_EEE11__recommendB8ne190106Em,"G",@,_ZNKSt3__26vectorINS_6threadENS_9allocatorIS1_EEE11__recommendB8ne190106Em,comdat
	.hidden	_ZNKSt3__26vectorINS_6threadENS_9allocatorIS1_EEE11__recommendB8ne190106Em # -- Begin function _ZNKSt3__26vectorINS_6threadENS_9allocatorIS1_EEE11__recommendB8ne190106Em
	.weak	_ZNKSt3__26vectorINS_6threadENS_9allocatorIS1_EEE11__recommendB8ne190106Em
	.type	_ZNKSt3__26vectorINS_6threadENS_9allocatorIS1_EEE11__recommendB8ne190106Em,@function
_ZNKSt3__26vectorINS_6threadENS_9allocatorIS1_EEE11__recommendB8ne190106Em: # @_ZNKSt3__26vectorINS_6threadENS_9allocatorIS1_EEE11__recommendB8ne190106Em
.Lfunc_begin125:
	.loc	8 1113 0                        # emscripten/cache/sysroot/include/c++/v1/vector:1113:0
	.functype	_ZNKSt3__26vectorINS_6threadENS_9allocatorIS1_EEE11__recommendB8ne190106Em (i32, i32) -> (i32)
	.local  	i32, i32, i32, i32, i32, i32, i32, i32, i32, i32, i32, i32, i32, i32, i32, i32, i32, i32, i32, i32, i32, i32, i32, i32, i32, i32, i32, i32, i32, i32, i32, i32, i32
# %bb.0:                                # %entry
	global.get	__stack_pointer
	local.set	2
	i32.const	32
	local.set	3
	local.get	2
	local.get	3
	i32.sub 
	local.set	4
	local.get	4
	global.set	__stack_pointer
	local.get	4
	local.get	0
	i32.store	24
	local.get	4
	local.get	1
	i32.store	20
	local.get	4
	i32.load	24
	local.set	5
.Ltmp306:
	.loc	8 1114 26 prologue_end          # emscripten/cache/sysroot/include/c++/v1/vector:1114:26
	local.get	5
	call	_ZNKSt3__26vectorINS_6threadENS_9allocatorIS1_EEE8max_sizeEv
	local.set	6
	.loc	8 1114 19 is_stmt 0             # emscripten/cache/sysroot/include/c++/v1/vector:1114:19
	local.get	4
	local.get	6
	i32.store	16
.Ltmp307:
	.loc	8 1115 7 is_stmt 1              # emscripten/cache/sysroot/include/c++/v1/vector:1115:7
	local.get	4
	i32.load	20
	local.set	7
	.loc	8 1115 20 is_stmt 0             # emscripten/cache/sysroot/include/c++/v1/vector:1115:20
	local.get	4
	i32.load	16
	local.set	8
	.loc	8 1115 18                       # emscripten/cache/sysroot/include/c++/v1/vector:1115:18
	local.get	7
	local.get	8
	i32.gt_u
	local.set	9
	i32.const	1
	local.set	10
	local.get	9
	local.get	10
	i32.and 
	local.set	11
	block   	
	local.get	11
	i32.eqz
	br_if   	0                               # 0: down to label42
# %bb.1:                                # %if.then
	.loc	8 1116 11 is_stmt 1             # emscripten/cache/sysroot/include/c++/v1/vector:1116:11
	local.get	5
	call	_ZNKSt3__26vectorINS_6threadENS_9allocatorIS1_EEE20__throw_length_errorB8ne190106Ev
	unreachable
.Ltmp308:
.LBB125_2:                              # %if.end
	.loc	8 0 11 is_stmt 0                # emscripten/cache/sysroot/include/c++/v1/vector:0:11
	end_block                               # label42:
	.loc	8 1117 27 is_stmt 1             # emscripten/cache/sysroot/include/c++/v1/vector:1117:27
	local.get	5
	call	_ZNKSt3__26vectorINS_6threadENS_9allocatorIS1_EEE8capacityB8ne190106Ev
	local.set	12
	.loc	8 1117 19 is_stmt 0             # emscripten/cache/sysroot/include/c++/v1/vector:1117:19
	local.get	4
	local.get	12
	i32.store	12
.Ltmp309:
	.loc	8 1118 7 is_stmt 1              # emscripten/cache/sysroot/include/c++/v1/vector:1118:7
	local.get	4
	i32.load	12
	local.set	13
	.loc	8 1118 16 is_stmt 0             # emscripten/cache/sysroot/include/c++/v1/vector:1118:16
	local.get	4
	i32.load	16
	local.set	14
	.loc	8 1118 21                       # emscripten/cache/sysroot/include/c++/v1/vector:1118:21
	i32.const	1
	local.set	15
	local.get	14
	local.get	15
	i32.shr_u
	local.set	16
	.loc	8 1118 13                       # emscripten/cache/sysroot/include/c++/v1/vector:1118:13
	local.get	13
	local.get	16
	i32.ge_u
	local.set	17
	i32.const	1
	local.set	18
	local.get	17
	local.get	18
	i32.and 
	local.set	19
	block   	
	block   	
	local.get	19
	i32.eqz
	br_if   	0                               # 0: down to label44
# %bb.3:                                # %if.then4
	.loc	8 1119 12 is_stmt 1             # emscripten/cache/sysroot/include/c++/v1/vector:1119:12
	local.get	4
	i32.load	16
	local.set	20
	.loc	8 1119 5 is_stmt 0              # emscripten/cache/sysroot/include/c++/v1/vector:1119:5
	local.get	4
	local.get	20
	i32.store	28
	br      	1                               # 1: down to label43
.Ltmp310:
.LBB125_4:                              # %if.end5
	.loc	8 0 5                           # emscripten/cache/sysroot/include/c++/v1/vector:0:5
	end_block                               # label44:
	.loc	8 1120 34 is_stmt 1             # emscripten/cache/sysroot/include/c++/v1/vector:1120:34
	local.get	4
	i32.load	12
	local.set	21
	.loc	8 1120 32 is_stmt 0             # emscripten/cache/sysroot/include/c++/v1/vector:1120:32
	i32.const	1
	local.set	22
	local.get	21
	local.get	22
	i32.shl 
	local.set	23
	.loc	8 1120 30                       # emscripten/cache/sysroot/include/c++/v1/vector:1120:30
	local.get	4
	local.get	23
	i32.store	8
	.loc	8 1120 10                       # emscripten/cache/sysroot/include/c++/v1/vector:1120:10
	i32.const	8
	local.set	24
	local.get	4
	local.get	24
	i32.add 
	local.set	25
	local.get	25
	local.set	26
	i32.const	20
	local.set	27
	local.get	4
	local.get	27
	i32.add 
	local.set	28
	local.get	28
	local.set	29
	local.get	26
	local.get	29
	call	_ZNSt3__23maxB8ne190106ImEERKT_S3_S3_
	local.set	30
	local.get	30
	i32.load	0
	local.set	31
	.loc	8 1120 3                        # emscripten/cache/sysroot/include/c++/v1/vector:1120:3
	local.get	4
	local.get	31
	i32.store	28
.LBB125_5:                              # %return
	.loc	8 0 3                           # emscripten/cache/sysroot/include/c++/v1/vector:0:3
	end_block                               # label43:
	.loc	8 1121 1 is_stmt 1              # emscripten/cache/sysroot/include/c++/v1/vector:1121:1
	local.get	4
	i32.load	28
	local.set	32
	i32.const	32
	local.set	33
	local.get	4
	local.get	33
	i32.add 
	local.set	34
	local.get	34
	global.set	__stack_pointer
	local.get	32
	return
	end_function
.Ltmp311:
.Lfunc_end125:
                                        # -- End function
	.section	.text._ZNKSt3__26vectorINS_6threadENS_9allocatorIS1_EEE4sizeB8ne190106Ev,"G",@,_ZNKSt3__26vectorINS_6threadENS_9allocatorIS1_EEE4sizeB8ne190106Ev,comdat
	.hidden	_ZNKSt3__26vectorINS_6threadENS_9allocatorIS1_EEE4sizeB8ne190106Ev # -- Begin function _ZNKSt3__26vectorINS_6threadENS_9allocatorIS1_EEE4sizeB8ne190106Ev
	.weak	_ZNKSt3__26vectorINS_6threadENS_9allocatorIS1_EEE4sizeB8ne190106Ev
	.type	_ZNKSt3__26vectorINS_6threadENS_9allocatorIS1_EEE4sizeB8ne190106Ev,@function
_ZNKSt3__26vectorINS_6threadENS_9allocatorIS1_EEE4sizeB8ne190106Ev: # @_ZNKSt3__26vectorINS_6threadENS_9allocatorIS1_EEE4sizeB8ne190106Ev
.Lfunc_begin126:
	.loc	8 634 0                         # emscripten/cache/sysroot/include/c++/v1/vector:634:0
	.functype	_ZNKSt3__26vectorINS_6threadENS_9allocatorIS1_EEE4sizeB8ne190106Ev (i32) -> (i32)
	.local  	i32, i32, i32, i32, i32, i32, i32, i32, i32
# %bb.0:                                # %entry
	global.get	__stack_pointer
	local.set	1
	i32.const	16
	local.set	2
	local.get	1
	local.get	2
	i32.sub 
	local.set	3
	local.get	3
	local.get	0
	i32.store	12
	local.get	3
	i32.load	12
	local.set	4
.Ltmp312:
	.loc	8 635 41 prologue_end           # emscripten/cache/sysroot/include/c++/v1/vector:635:41
	local.get	4
	i32.load	4
	local.set	5
	.loc	8 635 56 is_stmt 0              # emscripten/cache/sysroot/include/c++/v1/vector:635:56
	local.get	4
	i32.load	0
	local.set	6
	.loc	8 635 48                        # emscripten/cache/sysroot/include/c++/v1/vector:635:48
	local.get	5
	local.get	6
	i32.sub 
	local.set	7
	i32.const	2
	local.set	8
	local.get	7
	local.get	8
	i32.shr_s
	local.set	9
	.loc	8 635 5                         # emscripten/cache/sysroot/include/c++/v1/vector:635:5
	local.get	9
	return
	end_function
.Ltmp313:
.Lfunc_end126:
                                        # -- End function
	.section	.text._ZNSt3__214__split_bufferINS_6threadERNS_9allocatorIS1_EEEC2EmmS4_,"G",@,_ZNSt3__214__split_bufferINS_6threadERNS_9allocatorIS1_EEEC2EmmS4_,comdat
	.hidden	_ZNSt3__214__split_bufferINS_6threadERNS_9allocatorIS1_EEEC2EmmS4_ # -- Begin function _ZNSt3__214__split_bufferINS_6threadERNS_9allocatorIS1_EEEC2EmmS4_
	.weak	_ZNSt3__214__split_bufferINS_6threadERNS_9allocatorIS1_EEEC2EmmS4_
	.type	_ZNSt3__214__split_bufferINS_6threadERNS_9allocatorIS1_EEEC2EmmS4_,@function
_ZNSt3__214__split_bufferINS_6threadERNS_9allocatorIS1_EEEC2EmmS4_: # @_ZNSt3__214__split_bufferINS_6threadERNS_9allocatorIS1_EEEC2EmmS4_
.Lfunc_begin127:
	.loc	22 349 0 is_stmt 1              # emscripten/cache/sysroot/include/c++/v1/__split_buffer:349:0
	.functype	_ZNSt3__214__split_bufferINS_6threadERNS_9allocatorIS1_EEEC2EmmS4_ (i32, i32, i32, i32) -> (i32)
	.local  	i32, i32, i32, i32, i32, i32, i32, i32, i32, i32, i32, i32, i32, i32, i32, i32, i32, i32, i32, i32, i32, i32, i32, i32, i32, i32, i32, i32, i32, i32, i32, i32
# %bb.0:                                # %entry
	global.get	__stack_pointer
	local.set	4
	i32.const	32
	local.set	5
	local.get	4
	local.get	5
	i32.sub 
	local.set	6
	local.get	6
	global.set	__stack_pointer
	local.get	6
	local.get	0
	i32.store	24
	local.get	6
	local.get	1
	i32.store	20
	local.get	6
	local.get	2
	i32.store	16
	local.get	6
	local.get	3
	i32.store	12
	local.get	6
	i32.load	24
	local.set	7
	local.get	6
	local.get	7
	i32.store	28
.Ltmp314:
	.loc	22 349 7 prologue_end           # emscripten/cache/sysroot/include/c++/v1/__split_buffer:349:7
	i32.const	12
	local.set	8
	local.get	7
	local.get	8
	i32.add 
	local.set	9
	.loc	22 349 18 is_stmt 0             # emscripten/cache/sysroot/include/c++/v1/__split_buffer:349:18
	i32.const	0
	local.set	10
	local.get	6
	local.get	10
	i32.store	8
	.loc	22 349 27                       # emscripten/cache/sysroot/include/c++/v1/__split_buffer:349:27
	local.get	6
	i32.load	12
	local.set	11
	.loc	22 349 7                        # emscripten/cache/sysroot/include/c++/v1/__split_buffer:349:7
	i32.const	8
	local.set	12
	local.get	6
	local.get	12
	i32.add 
	local.set	13
	local.get	13
	local.set	14
	local.get	9
	local.get	14
	local.get	11
	call	_ZNSt3__217__compressed_pairIPNS_6threadERNS_9allocatorIS1_EEEC2B8ne190106IDnS5_EEOT_OT0_
	drop
.Ltmp315:
	.loc	22 350 7 is_stmt 1              # emscripten/cache/sysroot/include/c++/v1/__split_buffer:350:7
	local.get	6
	i32.load	20
	local.set	15
	.loc	22 350 13 is_stmt 0             # emscripten/cache/sysroot/include/c++/v1/__split_buffer:350:13
	block   	
	block   	
	local.get	15
	br_if   	0                               # 0: down to label46
# %bb.1:                                # %if.then
.Ltmp316:
	.loc	22 351 14 is_stmt 1             # emscripten/cache/sysroot/include/c++/v1/__split_buffer:351:14
	i32.const	0
	local.set	16
	local.get	7
	local.get	16
	i32.store	0
	.loc	22 352 3                        # emscripten/cache/sysroot/include/c++/v1/__split_buffer:352:3
	br      	1                               # 1: down to label45
.Ltmp317:
.LBB127_2:                              # %if.else
	.loc	22 0 3 is_stmt 0                # emscripten/cache/sysroot/include/c++/v1/__split_buffer:0:3
	end_block                               # label46:
.Ltmp318:
	.loc	22 353 50 is_stmt 1             # emscripten/cache/sysroot/include/c++/v1/__split_buffer:353:50
	local.get	7
	call	_ZNSt3__214__split_bufferINS_6threadERNS_9allocatorIS1_EEE7__allocB8ne190106Ev
	local.set	17
	.loc	22 353 61 is_stmt 0             # emscripten/cache/sysroot/include/c++/v1/__split_buffer:353:61
	local.get	6
	i32.load	20
	local.set	18
	.loc	22 353 25                       # emscripten/cache/sysroot/include/c++/v1/__split_buffer:353:25
	local.get	6
	local.set	19
	local.get	19
	local.get	17
	local.get	18
	call	_ZNSt3__219__allocate_at_leastB8ne190106INS_9allocatorINS_6threadEEEEENS_19__allocation_resultINS_16allocator_traitsIT_E7pointerEEERS6_m
	.loc	22 354 38 is_stmt 1             # emscripten/cache/sysroot/include/c++/v1/__split_buffer:354:38
	local.get	6
	i32.load	0
	local.set	20
	.loc	22 354 23 is_stmt 0             # emscripten/cache/sysroot/include/c++/v1/__split_buffer:354:23
	local.get	7
	local.get	20
	i32.store	0
	.loc	22 355 38 is_stmt 1             # emscripten/cache/sysroot/include/c++/v1/__split_buffer:355:38
	local.get	6
	i32.load	4
	local.set	21
	.loc	22 355 23 is_stmt 0             # emscripten/cache/sysroot/include/c++/v1/__split_buffer:355:23
	local.get	6
	local.get	21
	i32.store	20
.Ltmp319:
.LBB127_3:                              # %if.end
	.loc	22 0 23                         # emscripten/cache/sysroot/include/c++/v1/__split_buffer:0:23
	end_block                               # label45:
	.loc	22 357 23 is_stmt 1             # emscripten/cache/sysroot/include/c++/v1/__split_buffer:357:23
	local.get	7
	i32.load	0
	local.set	22
	.loc	22 357 34 is_stmt 0             # emscripten/cache/sysroot/include/c++/v1/__split_buffer:357:34
	local.get	6
	i32.load	16
	local.set	23
	.loc	22 357 32                       # emscripten/cache/sysroot/include/c++/v1/__split_buffer:357:32
	i32.const	2
	local.set	24
	local.get	23
	local.get	24
	i32.shl 
	local.set	25
	local.get	22
	local.get	25
	i32.add 
	local.set	26
	.loc	22 357 21                       # emscripten/cache/sysroot/include/c++/v1/__split_buffer:357:21
	local.get	7
	local.get	26
	i32.store	8
	.loc	22 357 12                       # emscripten/cache/sysroot/include/c++/v1/__split_buffer:357:12
	local.get	7
	local.get	26
	i32.store	4
	.loc	22 358 23 is_stmt 1             # emscripten/cache/sysroot/include/c++/v1/__split_buffer:358:23
	local.get	7
	i32.load	0
	local.set	27
	.loc	22 358 34 is_stmt 0             # emscripten/cache/sysroot/include/c++/v1/__split_buffer:358:34
	local.get	6
	i32.load	20
	local.set	28
	.loc	22 358 32                       # emscripten/cache/sysroot/include/c++/v1/__split_buffer:358:32
	i32.const	2
	local.set	29
	local.get	28
	local.get	29
	i32.shl 
	local.set	30
	local.get	27
	local.get	30
	i32.add 
	local.set	31
	.loc	22 358 3                        # emscripten/cache/sysroot/include/c++/v1/__split_buffer:358:3
	local.get	7
	call	_ZNSt3__214__split_bufferINS_6threadERNS_9allocatorIS1_EEE9__end_capB8ne190106Ev
	local.set	32
	.loc	22 358 21                       # emscripten/cache/sysroot/include/c++/v1/__split_buffer:358:21
	local.get	32
	local.get	31
	i32.store	0
.Ltmp320:
	.loc	22 359 1 is_stmt 1              # emscripten/cache/sysroot/include/c++/v1/__split_buffer:359:1
	local.get	6
	i32.load	28
	local.set	33
	i32.const	32
	local.set	34
	local.get	6
	local.get	34
	i32.add 
	local.set	35
	local.get	35
	global.set	__stack_pointer
	local.get	33
	return
	end_function
.Ltmp321:
.Lfunc_end127:
                                        # -- End function
	.section	.text._ZNSt3__26vectorINS_6threadENS_9allocatorIS1_EEE26__swap_out_circular_bufferERNS_14__split_bufferIS1_RS3_EE,"G",@,_ZNSt3__26vectorINS_6threadENS_9allocatorIS1_EEE26__swap_out_circular_bufferERNS_14__split_bufferIS1_RS3_EE,comdat
	.hidden	_ZNSt3__26vectorINS_6threadENS_9allocatorIS1_EEE26__swap_out_circular_bufferERNS_14__split_bufferIS1_RS3_EE # -- Begin function _ZNSt3__26vectorINS_6threadENS_9allocatorIS1_EEE26__swap_out_circular_bufferERNS_14__split_bufferIS1_RS3_EE
	.weak	_ZNSt3__26vectorINS_6threadENS_9allocatorIS1_EEE26__swap_out_circular_bufferERNS_14__split_bufferIS1_RS3_EE
	.type	_ZNSt3__26vectorINS_6threadENS_9allocatorIS1_EEE26__swap_out_circular_bufferERNS_14__split_bufferIS1_RS3_EE,@function
_ZNSt3__26vectorINS_6threadENS_9allocatorIS1_EEE26__swap_out_circular_bufferERNS_14__split_bufferIS1_RS3_EE: # @_ZNSt3__26vectorINS_6threadENS_9allocatorIS1_EEE26__swap_out_circular_bufferERNS_14__split_bufferIS1_RS3_EE
.Lfunc_begin128:
	.loc	8 1049 0                        # emscripten/cache/sysroot/include/c++/v1/vector:1049:0
	.functype	_ZNSt3__26vectorINS_6threadENS_9allocatorIS1_EEE26__swap_out_circular_bufferERNS_14__split_bufferIS1_RS3_EE (i32, i32) -> ()
	.local  	i32, i32, i32, i32, i32, i32, i32, i32, i32, i32, i32, i32, i32, i32, i32, i32, i32, i32, i32, i32, i32, i32, i32, i32, i32, i32, i32, i32, i32, i32, i32, i32, i32, i32, i32, i32, i32, i32, i32, i32, i32, i32, i32
# %bb.0:                                # %entry
	global.get	__stack_pointer
	local.set	2
	i32.const	16
	local.set	3
	local.get	2
	local.get	3
	i32.sub 
	local.set	4
	local.get	4
	global.set	__stack_pointer
	local.get	4
	local.get	0
	i32.store	12
	local.get	4
	local.get	1
	i32.store	8
	local.get	4
	i32.load	12
	local.set	5
.Ltmp322:
	.loc	8 1050 3 prologue_end           # emscripten/cache/sysroot/include/c++/v1/vector:1050:3
	local.get	5
	call	_ZNKSt3__26vectorINS_6threadENS_9allocatorIS1_EEE17__annotate_deleteB8ne190106Ev
	.loc	8 1051 22                       # emscripten/cache/sysroot/include/c++/v1/vector:1051:22
	local.get	4
	i32.load	8
	local.set	6
	.loc	8 1051 26 is_stmt 0             # emscripten/cache/sysroot/include/c++/v1/vector:1051:26
	local.get	6
	i32.load	4
	local.set	7
	.loc	8 1051 38                       # emscripten/cache/sysroot/include/c++/v1/vector:1051:38
	local.get	5
	i32.load	4
	local.set	8
	.loc	8 1051 47                       # emscripten/cache/sysroot/include/c++/v1/vector:1051:47
	local.get	5
	i32.load	0
	local.set	9
	.loc	8 1051 45                       # emscripten/cache/sysroot/include/c++/v1/vector:1051:45
	local.get	8
	local.get	9
	i32.sub 
	local.set	10
	i32.const	2
	local.set	11
	local.get	10
	local.get	11
	i32.shr_s
	local.set	12
	.loc	8 1051 35                       # emscripten/cache/sysroot/include/c++/v1/vector:1051:35
	i32.const	0
	local.set	13
	local.get	13
	local.get	12
	i32.sub 
	local.set	14
	i32.const	2
	local.set	15
	local.get	14
	local.get	15
	i32.shl 
	local.set	16
	local.get	7
	local.get	16
	i32.add 
	local.set	17
	.loc	8 1051 8                        # emscripten/cache/sysroot/include/c++/v1/vector:1051:8
	local.get	4
	local.get	17
	i32.store	4
	.loc	8 1053 7 is_stmt 1              # emscripten/cache/sysroot/include/c++/v1/vector:1053:7
	local.get	5
	call	_ZNSt3__26vectorINS_6threadENS_9allocatorIS1_EEE7__allocB8ne190106Ev
	local.set	18
	.loc	8 1053 36 is_stmt 0             # emscripten/cache/sysroot/include/c++/v1/vector:1053:36
	local.get	5
	i32.load	0
	local.set	19
	.loc	8 1053 18                       # emscripten/cache/sysroot/include/c++/v1/vector:1053:18
	local.get	19
	call	_ZNSt3__212__to_addressB8ne190106INS_6threadEEEPT_S3_
	local.set	20
	.loc	8 1053 65                       # emscripten/cache/sysroot/include/c++/v1/vector:1053:65
	local.get	5
	i32.load	4
	local.set	21
	.loc	8 1053 47                       # emscripten/cache/sysroot/include/c++/v1/vector:1053:47
	local.get	21
	call	_ZNSt3__212__to_addressB8ne190106INS_6threadEEEPT_S3_
	local.set	22
	.loc	8 1053 92                       # emscripten/cache/sysroot/include/c++/v1/vector:1053:92
	local.get	4
	i32.load	4
	local.set	23
	.loc	8 1053 74                       # emscripten/cache/sysroot/include/c++/v1/vector:1053:74
	local.get	23
	call	_ZNSt3__212__to_addressB8ne190106INS_6threadEEEPT_S3_
	local.set	24
	.loc	8 1052 3 is_stmt 1              # emscripten/cache/sysroot/include/c++/v1/vector:1052:3
	local.get	18
	local.get	20
	local.get	22
	local.get	24
	call	_ZNSt3__234__uninitialized_allocator_relocateB8ne190106INS_9allocatorINS_6threadEEES2_EEvRT_PT0_S7_S7_
	.loc	8 1054 18                       # emscripten/cache/sysroot/include/c++/v1/vector:1054:18
	local.get	4
	i32.load	4
	local.set	25
	.loc	8 1054 3 is_stmt 0              # emscripten/cache/sysroot/include/c++/v1/vector:1054:3
	local.get	4
	i32.load	8
	local.set	26
	.loc	8 1054 16                       # emscripten/cache/sysroot/include/c++/v1/vector:1054:16
	local.get	26
	local.get	25
	i32.store	4
	.loc	8 1055 18 is_stmt 1             # emscripten/cache/sysroot/include/c++/v1/vector:1055:18
	local.get	5
	i32.load	0
	local.set	27
	.loc	8 1055 16 is_stmt 0             # emscripten/cache/sysroot/include/c++/v1/vector:1055:16
	local.get	5
	local.get	27
	i32.store	4
	.loc	8 1056 29 is_stmt 1             # emscripten/cache/sysroot/include/c++/v1/vector:1056:29
	local.get	4
	i32.load	8
	local.set	28
	.loc	8 1056 33 is_stmt 0             # emscripten/cache/sysroot/include/c++/v1/vector:1056:33
	i32.const	4
	local.set	29
	local.get	28
	local.get	29
	i32.add 
	local.set	30
	.loc	8 1056 3                        # emscripten/cache/sysroot/include/c++/v1/vector:1056:3
	local.get	5
	local.get	30
	call	_ZNSt3__24swapB8ne190106IPNS_6threadEEENS_9enable_ifIXaasr21is_move_constructibleIT_EE5valuesr18is_move_assignableIS4_EE5valueEvE4typeERS4_S7_
	.loc	8 1057 19 is_stmt 1             # emscripten/cache/sysroot/include/c++/v1/vector:1057:19
	i32.const	4
	local.set	31
	local.get	5
	local.get	31
	i32.add 
	local.set	32
	.loc	8 1057 27 is_stmt 0             # emscripten/cache/sysroot/include/c++/v1/vector:1057:27
	local.get	4
	i32.load	8
	local.set	33
	.loc	8 1057 31                       # emscripten/cache/sysroot/include/c++/v1/vector:1057:31
	i32.const	8
	local.set	34
	local.get	33
	local.get	34
	i32.add 
	local.set	35
	.loc	8 1057 3                        # emscripten/cache/sysroot/include/c++/v1/vector:1057:3
	local.get	32
	local.get	35
	call	_ZNSt3__24swapB8ne190106IPNS_6threadEEENS_9enable_ifIXaasr21is_move_constructibleIT_EE5valuesr18is_move_assignableIS4_EE5valueEvE4typeERS4_S7_
	.loc	8 1058 19 is_stmt 1             # emscripten/cache/sysroot/include/c++/v1/vector:1058:19
	local.get	5
	call	_ZNSt3__26vectorINS_6threadENS_9allocatorIS1_EEE9__end_capB8ne190106Ev
	local.set	36
	.loc	8 1058 32 is_stmt 0             # emscripten/cache/sysroot/include/c++/v1/vector:1058:32
	local.get	4
	i32.load	8
	local.set	37
	.loc	8 1058 36                       # emscripten/cache/sysroot/include/c++/v1/vector:1058:36
	local.get	37
	call	_ZNSt3__214__split_bufferINS_6threadERNS_9allocatorIS1_EEE9__end_capB8ne190106Ev
	local.set	38
	.loc	8 1058 3                        # emscripten/cache/sysroot/include/c++/v1/vector:1058:3
	local.get	36
	local.get	38
	call	_ZNSt3__24swapB8ne190106IPNS_6threadEEENS_9enable_ifIXaasr21is_move_constructibleIT_EE5valuesr18is_move_assignableIS4_EE5valueEvE4typeERS4_S7_
	.loc	8 1059 18 is_stmt 1             # emscripten/cache/sysroot/include/c++/v1/vector:1059:18
	local.get	4
	i32.load	8
	local.set	39
	.loc	8 1059 22 is_stmt 0             # emscripten/cache/sysroot/include/c++/v1/vector:1059:22
	local.get	39
	i32.load	4
	local.set	40
	.loc	8 1059 3                        # emscripten/cache/sysroot/include/c++/v1/vector:1059:3
	local.get	4
	i32.load	8
	local.set	41
	.loc	8 1059 16                       # emscripten/cache/sysroot/include/c++/v1/vector:1059:16
	local.get	41
	local.get	40
	i32.store	0
	.loc	8 1060 18 is_stmt 1             # emscripten/cache/sysroot/include/c++/v1/vector:1060:18
	local.get	5
	call	_ZNKSt3__26vectorINS_6threadENS_9allocatorIS1_EEE4sizeB8ne190106Ev
	local.set	42
	.loc	8 1060 3 is_stmt 0              # emscripten/cache/sysroot/include/c++/v1/vector:1060:3
	local.get	5
	local.get	42
	call	_ZNKSt3__26vectorINS_6threadENS_9allocatorIS1_EEE14__annotate_newB8ne190106Em
	.loc	8 1061 1 is_stmt 1              # emscripten/cache/sysroot/include/c++/v1/vector:1061:1
	i32.const	16
	local.set	43
	local.get	4
	local.get	43
	i32.add 
	local.set	44
	local.get	44
	global.set	__stack_pointer
	return
	end_function
.Ltmp323:
.Lfunc_end128:
                                        # -- End function
	.section	.text._ZNSt3__214__split_bufferINS_6threadERNS_9allocatorIS1_EEED2Ev,"G",@,_ZNSt3__214__split_bufferINS_6threadERNS_9allocatorIS1_EEED2Ev,comdat
	.hidden	_ZNSt3__214__split_bufferINS_6threadERNS_9allocatorIS1_EEED2Ev # -- Begin function _ZNSt3__214__split_bufferINS_6threadERNS_9allocatorIS1_EEED2Ev
	.weak	_ZNSt3__214__split_bufferINS_6threadERNS_9allocatorIS1_EEED2Ev
	.type	_ZNSt3__214__split_bufferINS_6threadERNS_9allocatorIS1_EEED2Ev,@function
_ZNSt3__214__split_bufferINS_6threadERNS_9allocatorIS1_EEED2Ev: # @_ZNSt3__214__split_bufferINS_6threadERNS_9allocatorIS1_EEED2Ev
.Lfunc_begin129:
	.loc	22 362 0                        # emscripten/cache/sysroot/include/c++/v1/__split_buffer:362:0
	.functype	_ZNSt3__214__split_bufferINS_6threadERNS_9allocatorIS1_EEED2Ev (i32) -> (i32)
	.local  	i32, i32, i32, i32, i32, i32, i32, i32, i32, i32, i32, i32, i32, i32, i32
# %bb.0:                                # %entry
	global.get	__stack_pointer
	local.set	1
	i32.const	16
	local.set	2
	local.get	1
	local.get	2
	i32.sub 
	local.set	3
	local.get	3
	global.set	__stack_pointer
	local.get	3
	local.get	0
	i32.store	8
	local.get	3
	i32.load	8
	local.set	4
	local.get	3
	local.get	4
	i32.store	12
.Ltmp324:
	.loc	22 363 3 prologue_end           # emscripten/cache/sysroot/include/c++/v1/__split_buffer:363:3
	local.get	4
	call	_ZNSt3__214__split_bufferINS_6threadERNS_9allocatorIS1_EEE5clearB8ne190106Ev
.Ltmp325:
	.loc	22 364 7                        # emscripten/cache/sysroot/include/c++/v1/__split_buffer:364:7
	local.get	4
	i32.load	0
	local.set	5
	i32.const	0
	local.set	6
	local.get	5
	local.get	6
	i32.ne  
	local.set	7
	i32.const	1
	local.set	8
	local.get	7
	local.get	8
	i32.and 
	local.set	9
	block   	
	local.get	9
	i32.eqz
	br_if   	0                               # 0: down to label47
# %bb.1:                                # %if.then
	.loc	22 365 32                       # emscripten/cache/sysroot/include/c++/v1/__split_buffer:365:32
	local.get	4
	call	_ZNSt3__214__split_bufferINS_6threadERNS_9allocatorIS1_EEE7__allocB8ne190106Ev
	local.set	10
	.loc	22 365 43 is_stmt 0             # emscripten/cache/sysroot/include/c++/v1/__split_buffer:365:43
	local.get	4
	i32.load	0
	local.set	11
	.loc	22 365 53                       # emscripten/cache/sysroot/include/c++/v1/__split_buffer:365:53
	local.get	4
	call	_ZNKSt3__214__split_bufferINS_6threadERNS_9allocatorIS1_EEE8capacityB8ne190106Ev
	local.set	12
	.loc	22 365 5                        # emscripten/cache/sysroot/include/c++/v1/__split_buffer:365:5
	local.get	10
	local.get	11
	local.get	12
	call	_ZNSt3__216allocator_traitsINS_9allocatorINS_6threadEEEE10deallocateB8ne190106ERS3_PS2_m
.Ltmp326:
.LBB129_2:                              # %if.end
	.loc	22 0 5                          # emscripten/cache/sysroot/include/c++/v1/__split_buffer:0:5
	end_block                               # label47:
	.loc	22 366 1 is_stmt 1              # emscripten/cache/sysroot/include/c++/v1/__split_buffer:366:1
	local.get	3
	i32.load	12
	local.set	13
	i32.const	16
	local.set	14
	local.get	3
	local.get	14
	i32.add 
	local.set	15
	local.get	15
	global.set	__stack_pointer
	local.get	13
	return
	end_function
.Ltmp327:
.Lfunc_end129:
                                        # -- End function
	.section	.text._ZNKSt3__26vectorINS_6threadENS_9allocatorIS1_EEE8max_sizeEv,"G",@,_ZNKSt3__26vectorINS_6threadENS_9allocatorIS1_EEE8max_sizeEv,comdat
	.hidden	_ZNKSt3__26vectorINS_6threadENS_9allocatorIS1_EEE8max_sizeEv # -- Begin function _ZNKSt3__26vectorINS_6threadENS_9allocatorIS1_EEE8max_sizeEv
	.weak	_ZNKSt3__26vectorINS_6threadENS_9allocatorIS1_EEE8max_sizeEv
	.type	_ZNKSt3__26vectorINS_6threadENS_9allocatorIS1_EEE8max_sizeEv,@function
_ZNKSt3__26vectorINS_6threadENS_9allocatorIS1_EEE8max_sizeEv: # @_ZNKSt3__26vectorINS_6threadENS_9allocatorIS1_EEE8max_sizeEv
.Lfunc_begin130:
	.loc	8 1106 0                        # emscripten/cache/sysroot/include/c++/v1/vector:1106:0
	.functype	_ZNKSt3__26vectorINS_6threadENS_9allocatorIS1_EEE8max_sizeEv (i32) -> (i32)
	.local  	i32, i32, i32, i32, i32, i32, i32, i32, i32, i32, i32, i32, i32, i32, i32, i32, i32
# %bb.0:                                # %entry
	global.get	__stack_pointer
	local.set	1
	i32.const	16
	local.set	2
	local.get	1
	local.get	2
	i32.sub 
	local.set	3
	local.get	3
	global.set	__stack_pointer
	local.get	3
	local.get	0
	i32.store	12
	local.get	3
	i32.load	12
	local.set	4
.Ltmp328:
	.loc	8 1107 61 prologue_end          # emscripten/cache/sysroot/include/c++/v1/vector:1107:61
	local.get	4
	call	_ZNKSt3__26vectorINS_6threadENS_9allocatorIS1_EEE7__allocB8ne190106Ev
	local.set	5
	.loc	8 1107 30 is_stmt 0             # emscripten/cache/sysroot/include/c++/v1/vector:1107:30
	local.get	5
	call	_ZNSt3__216allocator_traitsINS_9allocatorINS_6threadEEEE8max_sizeB8ne190106IS3_TnNS_9enable_ifIXsr14__has_max_sizeIKT_EE5valueEiE4typeELi0EEEmRKS3_
	local.set	6
	local.get	3
	local.get	6
	i32.store	8
	.loc	8 1107 73                       # emscripten/cache/sysroot/include/c++/v1/vector:1107:73
	call	_ZNSt3__214numeric_limitsIlE3maxB8ne190106Ev
	local.set	7
	local.get	3
	local.get	7
	i32.store	4
	.loc	8 1107 10                       # emscripten/cache/sysroot/include/c++/v1/vector:1107:10
	i32.const	8
	local.set	8
	local.get	3
	local.get	8
	i32.add 
	local.set	9
	local.get	9
	local.set	10
	i32.const	4
	local.set	11
	local.get	3
	local.get	11
	i32.add 
	local.set	12
	local.get	12
	local.set	13
	local.get	10
	local.get	13
	call	_ZNSt3__23minB8ne190106ImEERKT_S3_S3_
	local.set	14
	local.get	14
	i32.load	0
	local.set	15
	.loc	8 1107 3                        # emscripten/cache/sysroot/include/c++/v1/vector:1107:3
	i32.const	16
	local.set	16
	local.get	3
	local.get	16
	i32.add 
	local.set	17
	local.get	17
	global.set	__stack_pointer
	local.get	15
	return
	end_function
.Ltmp329:
.Lfunc_end130:
                                        # -- End function
	.section	.text._ZNKSt3__26vectorINS_6threadENS_9allocatorIS1_EEE20__throw_length_errorB8ne190106Ev,"G",@,_ZNKSt3__26vectorINS_6threadENS_9allocatorIS1_EEE20__throw_length_errorB8ne190106Ev,comdat
	.hidden	_ZNKSt3__26vectorINS_6threadENS_9allocatorIS1_EEE20__throw_length_errorB8ne190106Ev # -- Begin function _ZNKSt3__26vectorINS_6threadENS_9allocatorIS1_EEE20__throw_length_errorB8ne190106Ev
	.weak	_ZNKSt3__26vectorINS_6threadENS_9allocatorIS1_EEE20__throw_length_errorB8ne190106Ev
	.type	_ZNKSt3__26vectorINS_6threadENS_9allocatorIS1_EEE20__throw_length_errorB8ne190106Ev,@function
_ZNKSt3__26vectorINS_6threadENS_9allocatorIS1_EEE20__throw_length_errorB8ne190106Ev: # @_ZNKSt3__26vectorINS_6threadENS_9allocatorIS1_EEE20__throw_length_errorB8ne190106Ev
.Lfunc_begin131:
	.loc	8 999 0 is_stmt 1               # emscripten/cache/sysroot/include/c++/v1/vector:999:0
	.functype	_ZNKSt3__26vectorINS_6threadENS_9allocatorIS1_EEE20__throw_length_errorB8ne190106Ev (i32) -> ()
	.local  	i32, i32, i32, i32
# %bb.0:                                # %entry
	global.get	__stack_pointer
	local.set	1
	i32.const	16
	local.set	2
	local.get	1
	local.get	2
	i32.sub 
	local.set	3
	local.get	3
	global.set	__stack_pointer
	local.get	3
	local.get	0
	i32.store	12
.Ltmp330:
	.loc	8 999 78 prologue_end           # emscripten/cache/sysroot/include/c++/v1/vector:999:78
	i32.const	.L.str.6
	local.set	4
	local.get	4
	call	_ZNSt3__220__throw_length_errorB8ne190106EPKc
	unreachable
	end_function
.Ltmp331:
.Lfunc_end131:
                                        # -- End function
	.section	.text._ZNSt3__23maxB8ne190106ImEERKT_S3_S3_,"G",@,_ZNSt3__23maxB8ne190106ImEERKT_S3_S3_,comdat
	.hidden	_ZNSt3__23maxB8ne190106ImEERKT_S3_S3_ # -- Begin function _ZNSt3__23maxB8ne190106ImEERKT_S3_S3_
	.weak	_ZNSt3__23maxB8ne190106ImEERKT_S3_S3_
	.type	_ZNSt3__23maxB8ne190106ImEERKT_S3_S3_,@function
_ZNSt3__23maxB8ne190106ImEERKT_S3_S3_:  # @_ZNSt3__23maxB8ne190106ImEERKT_S3_S3_
.Lfunc_begin132:
	.file	41 "/home/kay/Documents/Code/toolchain-wasm" "emscripten/cache/sysroot/include/c++/v1/__algorithm/max.h"
	.loc	41 35 0                         # emscripten/cache/sysroot/include/c++/v1/__algorithm/max.h:35:0
	.functype	_ZNSt3__23maxB8ne190106ImEERKT_S3_S3_ (i32, i32) -> (i32)
	.local  	i32, i32, i32, i32, i32, i32, i32, i32
# %bb.0:                                # %entry
	global.get	__stack_pointer
	local.set	2
	i32.const	16
	local.set	3
	local.get	2
	local.get	3
	i32.sub 
	local.set	4
	local.get	4
	global.set	__stack_pointer
	local.get	4
	local.get	0
	i32.store	12
	local.get	4
	local.get	1
	i32.store	8
.Ltmp332:
	.loc	41 36 19 prologue_end           # emscripten/cache/sysroot/include/c++/v1/__algorithm/max.h:36:19
	local.get	4
	i32.load	12
	local.set	5
	.loc	41 36 24 is_stmt 0              # emscripten/cache/sysroot/include/c++/v1/__algorithm/max.h:36:24
	local.get	4
	i32.load	8
	local.set	6
	.loc	41 36 10                        # emscripten/cache/sysroot/include/c++/v1/__algorithm/max.h:36:10
	local.get	5
	local.get	6
	call	_ZNSt3__23maxB8ne190106ImNS_6__lessIvvEEEERKT_S5_S5_T0_
	local.set	7
	.loc	41 36 3                         # emscripten/cache/sysroot/include/c++/v1/__algorithm/max.h:36:3
	i32.const	16
	local.set	8
	local.get	4
	local.get	8
	i32.add 
	local.set	9
	local.get	9
	global.set	__stack_pointer
	local.get	7
	return
	end_function
.Ltmp333:
.Lfunc_end132:
                                        # -- End function
	.section	.text._ZNSt3__23minB8ne190106ImEERKT_S3_S3_,"G",@,_ZNSt3__23minB8ne190106ImEERKT_S3_S3_,comdat
	.hidden	_ZNSt3__23minB8ne190106ImEERKT_S3_S3_ # -- Begin function _ZNSt3__23minB8ne190106ImEERKT_S3_S3_
	.weak	_ZNSt3__23minB8ne190106ImEERKT_S3_S3_
	.type	_ZNSt3__23minB8ne190106ImEERKT_S3_S3_,@function
_ZNSt3__23minB8ne190106ImEERKT_S3_S3_:  # @_ZNSt3__23minB8ne190106ImEERKT_S3_S3_
.Lfunc_begin133:
	.file	42 "/home/kay/Documents/Code/toolchain-wasm" "emscripten/cache/sysroot/include/c++/v1/__algorithm/min.h"
	.loc	42 35 0 is_stmt 1               # emscripten/cache/sysroot/include/c++/v1/__algorithm/min.h:35:0
	.functype	_ZNSt3__23minB8ne190106ImEERKT_S3_S3_ (i32, i32) -> (i32)
	.local  	i32, i32, i32, i32, i32, i32, i32, i32
# %bb.0:                                # %entry
	global.get	__stack_pointer
	local.set	2
	i32.const	16
	local.set	3
	local.get	2
	local.get	3
	i32.sub 
	local.set	4
	local.get	4
	global.set	__stack_pointer
	local.get	4
	local.get	0
	i32.store	12
	local.get	4
	local.get	1
	i32.store	8
.Ltmp334:
	.loc	42 36 19 prologue_end           # emscripten/cache/sysroot/include/c++/v1/__algorithm/min.h:36:19
	local.get	4
	i32.load	12
	local.set	5
	.loc	42 36 24 is_stmt 0              # emscripten/cache/sysroot/include/c++/v1/__algorithm/min.h:36:24
	local.get	4
	i32.load	8
	local.set	6
	.loc	42 36 10                        # emscripten/cache/sysroot/include/c++/v1/__algorithm/min.h:36:10
	local.get	5
	local.get	6
	call	_ZNSt3__23minB8ne190106ImNS_6__lessIvvEEEERKT_S5_S5_T0_
	local.set	7
	.loc	42 36 3                         # emscripten/cache/sysroot/include/c++/v1/__algorithm/min.h:36:3
	i32.const	16
	local.set	8
	local.get	4
	local.get	8
	i32.add 
	local.set	9
	local.get	9
	global.set	__stack_pointer
	local.get	7
	return
	end_function
.Ltmp335:
.Lfunc_end133:
                                        # -- End function
	.section	.text._ZNSt3__216allocator_traitsINS_9allocatorINS_6threadEEEE8max_sizeB8ne190106IS3_TnNS_9enable_ifIXsr14__has_max_sizeIKT_EE5valueEiE4typeELi0EEEmRKS3_,"G",@,_ZNSt3__216allocator_traitsINS_9allocatorINS_6threadEEEE8max_sizeB8ne190106IS3_TnNS_9enable_ifIXsr14__has_max_sizeIKT_EE5valueEiE4typeELi0EEEmRKS3_,comdat
	.hidden	_ZNSt3__216allocator_traitsINS_9allocatorINS_6threadEEEE8max_sizeB8ne190106IS3_TnNS_9enable_ifIXsr14__has_max_sizeIKT_EE5valueEiE4typeELi0EEEmRKS3_ # -- Begin function _ZNSt3__216allocator_traitsINS_9allocatorINS_6threadEEEE8max_sizeB8ne190106IS3_TnNS_9enable_ifIXsr14__has_max_sizeIKT_EE5valueEiE4typeELi0EEEmRKS3_
	.weak	_ZNSt3__216allocator_traitsINS_9allocatorINS_6threadEEEE8max_sizeB8ne190106IS3_TnNS_9enable_ifIXsr14__has_max_sizeIKT_EE5valueEiE4typeELi0EEEmRKS3_
	.type	_ZNSt3__216allocator_traitsINS_9allocatorINS_6threadEEEE8max_sizeB8ne190106IS3_TnNS_9enable_ifIXsr14__has_max_sizeIKT_EE5valueEiE4typeELi0EEEmRKS3_,@function
_ZNSt3__216allocator_traitsINS_9allocatorINS_6threadEEEE8max_sizeB8ne190106IS3_TnNS_9enable_ifIXsr14__has_max_sizeIKT_EE5valueEiE4typeELi0EEEmRKS3_: # @_ZNSt3__216allocator_traitsINS_9allocatorINS_6threadEEEE8max_sizeB8ne190106IS3_TnNS_9enable_ifIXsr14__has_max_sizeIKT_EE5valueEiE4typeELi0EEEmRKS3_
.Lfunc_begin134:
	.loc	16 343 0 is_stmt 1              # emscripten/cache/sysroot/include/c++/v1/__memory/allocator_traits.h:343:0
	.functype	_ZNSt3__216allocator_traitsINS_9allocatorINS_6threadEEEE8max_sizeB8ne190106IS3_TnNS_9enable_ifIXsr14__has_max_sizeIKT_EE5valueEiE4typeELi0EEEmRKS3_ (i32) -> (i32)
	.local  	i32, i32, i32, i32, i32, i32, i32
# %bb.0:                                # %entry
	global.get	__stack_pointer
	local.set	1
	i32.const	16
	local.set	2
	local.get	1
	local.get	2
	i32.sub 
	local.set	3
	local.get	3
	global.set	__stack_pointer
	local.get	3
	local.get	0
	i32.store	12
.Ltmp336:
	.loc	16 345 12 prologue_end          # emscripten/cache/sysroot/include/c++/v1/__memory/allocator_traits.h:345:12
	local.get	3
	i32.load	12
	local.set	4
	.loc	16 345 16 is_stmt 0             # emscripten/cache/sysroot/include/c++/v1/__memory/allocator_traits.h:345:16
	local.get	4
	call	_ZNKSt3__29allocatorINS_6threadEE8max_sizeB8ne190106Ev
	local.set	5
	.loc	16 345 5                        # emscripten/cache/sysroot/include/c++/v1/__memory/allocator_traits.h:345:5
	i32.const	16
	local.set	6
	local.get	3
	local.get	6
	i32.add 
	local.set	7
	local.get	7
	global.set	__stack_pointer
	local.get	5
	return
	end_function
.Ltmp337:
.Lfunc_end134:
                                        # -- End function
	.section	.text._ZNKSt3__26vectorINS_6threadENS_9allocatorIS1_EEE7__allocB8ne190106Ev,"G",@,_ZNKSt3__26vectorINS_6threadENS_9allocatorIS1_EEE7__allocB8ne190106Ev,comdat
	.hidden	_ZNKSt3__26vectorINS_6threadENS_9allocatorIS1_EEE7__allocB8ne190106Ev # -- Begin function _ZNKSt3__26vectorINS_6threadENS_9allocatorIS1_EEE7__allocB8ne190106Ev
	.weak	_ZNKSt3__26vectorINS_6threadENS_9allocatorIS1_EEE7__allocB8ne190106Ev
	.type	_ZNKSt3__26vectorINS_6threadENS_9allocatorIS1_EEE7__allocB8ne190106Ev,@function
_ZNKSt3__26vectorINS_6threadENS_9allocatorIS1_EEE7__allocB8ne190106Ev: # @_ZNKSt3__26vectorINS_6threadENS_9allocatorIS1_EEE7__allocB8ne190106Ev
.Lfunc_begin135:
	.loc	8 968 0 is_stmt 1               # emscripten/cache/sysroot/include/c++/v1/vector:968:0
	.functype	_ZNKSt3__26vectorINS_6threadENS_9allocatorIS1_EEE7__allocB8ne190106Ev (i32) -> (i32)
	.local  	i32, i32, i32, i32, i32, i32, i32, i32, i32
# %bb.0:                                # %entry
	global.get	__stack_pointer
	local.set	1
	i32.const	16
	local.set	2
	local.get	1
	local.get	2
	i32.sub 
	local.set	3
	local.get	3
	global.set	__stack_pointer
	local.get	3
	local.get	0
	i32.store	12
	local.get	3
	i32.load	12
	local.set	4
.Ltmp338:
	.loc	8 969 18 prologue_end           # emscripten/cache/sysroot/include/c++/v1/vector:969:18
	i32.const	8
	local.set	5
	local.get	4
	local.get	5
	i32.add 
	local.set	6
	.loc	8 969 29 is_stmt 0              # emscripten/cache/sysroot/include/c++/v1/vector:969:29
	local.get	6
	call	_ZNKSt3__217__compressed_pairIPNS_6threadENS_9allocatorIS1_EEE6secondB8ne190106Ev
	local.set	7
	.loc	8 969 5                         # emscripten/cache/sysroot/include/c++/v1/vector:969:5
	i32.const	16
	local.set	8
	local.get	3
	local.get	8
	i32.add 
	local.set	9
	local.get	9
	global.set	__stack_pointer
	local.get	7
	return
	end_function
.Ltmp339:
.Lfunc_end135:
                                        # -- End function
	.section	.text._ZNSt3__214numeric_limitsIlE3maxB8ne190106Ev,"G",@,_ZNSt3__214numeric_limitsIlE3maxB8ne190106Ev,comdat
	.hidden	_ZNSt3__214numeric_limitsIlE3maxB8ne190106Ev # -- Begin function _ZNSt3__214numeric_limitsIlE3maxB8ne190106Ev
	.weak	_ZNSt3__214numeric_limitsIlE3maxB8ne190106Ev
	.type	_ZNSt3__214numeric_limitsIlE3maxB8ne190106Ev,@function
_ZNSt3__214numeric_limitsIlE3maxB8ne190106Ev: # @_ZNSt3__214numeric_limitsIlE3maxB8ne190106Ev
.Lfunc_begin136:
	.functype	_ZNSt3__214numeric_limitsIlE3maxB8ne190106Ev () -> (i32)
	.local  	i32
# %bb.0:                                # %entry
	.loc	10 469 98 prologue_end is_stmt 1 # emscripten/cache/sysroot/include/c++/v1/limits:469:98
	call	_ZNSt3__223__libcpp_numeric_limitsIlLb1EE3maxB8ne190106Ev
	local.set	0
	.loc	10 469 91 is_stmt 0             # emscripten/cache/sysroot/include/c++/v1/limits:469:91
	local.get	0
	return
	end_function
.Ltmp340:
.Lfunc_end136:
                                        # -- End function
	.section	.text._ZNSt3__23minB8ne190106ImNS_6__lessIvvEEEERKT_S5_S5_T0_,"G",@,_ZNSt3__23minB8ne190106ImNS_6__lessIvvEEEERKT_S5_S5_T0_,comdat
	.hidden	_ZNSt3__23minB8ne190106ImNS_6__lessIvvEEEERKT_S5_S5_T0_ # -- Begin function _ZNSt3__23minB8ne190106ImNS_6__lessIvvEEEERKT_S5_S5_T0_
	.weak	_ZNSt3__23minB8ne190106ImNS_6__lessIvvEEEERKT_S5_S5_T0_
	.type	_ZNSt3__23minB8ne190106ImNS_6__lessIvvEEEERKT_S5_S5_T0_,@function
_ZNSt3__23minB8ne190106ImNS_6__lessIvvEEEERKT_S5_S5_T0_: # @_ZNSt3__23minB8ne190106ImNS_6__lessIvvEEEERKT_S5_S5_T0_
.Lfunc_begin137:
	.loc	42 29 0 is_stmt 1               # emscripten/cache/sysroot/include/c++/v1/__algorithm/min.h:29:0
	.functype	_ZNSt3__23minB8ne190106ImNS_6__lessIvvEEEERKT_S5_S5_T0_ (i32, i32) -> (i32)
	.local  	i32, i32, i32, i32, i32, i32, i32, i32, i32, i32, i32, i32, i32, i32, i32, i32, i32
# %bb.0:                                # %entry
	global.get	__stack_pointer
	local.set	2
	i32.const	16
	local.set	3
	local.get	2
	local.get	3
	i32.sub 
	local.set	4
	local.get	4
	global.set	__stack_pointer
	local.get	4
	local.get	0
	i32.store	8
	local.get	4
	local.get	1
	i32.store	4
.Ltmp341:
	.loc	42 30 17 prologue_end           # emscripten/cache/sysroot/include/c++/v1/__algorithm/min.h:30:17
	local.get	4
	i32.load	4
	local.set	5
	.loc	42 30 22 is_stmt 0              # emscripten/cache/sysroot/include/c++/v1/__algorithm/min.h:30:22
	local.get	4
	i32.load	8
	local.set	6
	.loc	42 30 10                        # emscripten/cache/sysroot/include/c++/v1/__algorithm/min.h:30:10
	i32.const	15
	local.set	7
	local.get	4
	local.get	7
	i32.add 
	local.set	8
	local.get	8
	local.set	9
	local.get	9
	local.get	5
	local.get	6
	call	_ZNKSt3__26__lessIvvEclB8ne190106ImmEEbRKT_RKT0_
	local.set	10
	i32.const	1
	local.set	11
	local.get	10
	local.get	11
	i32.and 
	local.set	12
	block   	
	block   	
	local.get	12
	i32.eqz
	br_if   	0                               # 0: down to label49
# %bb.1:                                # %cond.true
	.loc	42 30 29                        # emscripten/cache/sysroot/include/c++/v1/__algorithm/min.h:30:29
	local.get	4
	i32.load	4
	local.set	13
	local.get	13
	local.set	14
	.loc	42 30 10                        # emscripten/cache/sysroot/include/c++/v1/__algorithm/min.h:30:10
	br      	1                               # 1: down to label48
.LBB137_2:                              # %cond.false
	.loc	42 0 10                         # emscripten/cache/sysroot/include/c++/v1/__algorithm/min.h:0:10
	end_block                               # label49:
	.loc	42 30 35                        # emscripten/cache/sysroot/include/c++/v1/__algorithm/min.h:30:35
	local.get	4
	i32.load	8
	local.set	15
	local.get	15
	local.set	14
.LBB137_3:                              # %cond.end
	.loc	42 0 35                         # emscripten/cache/sysroot/include/c++/v1/__algorithm/min.h:0:35
	end_block                               # label48:
	.loc	42 30 10                        # emscripten/cache/sysroot/include/c++/v1/__algorithm/min.h:30:10
	local.get	14
	local.set	16
	.loc	42 30 3                         # emscripten/cache/sysroot/include/c++/v1/__algorithm/min.h:30:3
	i32.const	16
	local.set	17
	local.get	4
	local.get	17
	i32.add 
	local.set	18
	local.get	18
	global.set	__stack_pointer
	local.get	16
	return
	end_function
.Ltmp342:
.Lfunc_end137:
                                        # -- End function
	.section	.text._ZNKSt3__26__lessIvvEclB8ne190106ImmEEbRKT_RKT0_,"G",@,_ZNKSt3__26__lessIvvEclB8ne190106ImmEEbRKT_RKT0_,comdat
	.hidden	_ZNKSt3__26__lessIvvEclB8ne190106ImmEEbRKT_RKT0_ # -- Begin function _ZNKSt3__26__lessIvvEclB8ne190106ImmEEbRKT_RKT0_
	.weak	_ZNKSt3__26__lessIvvEclB8ne190106ImmEEbRKT_RKT0_
	.type	_ZNKSt3__26__lessIvvEclB8ne190106ImmEEbRKT_RKT0_,@function
_ZNKSt3__26__lessIvvEclB8ne190106ImmEEbRKT_RKT0_: # @_ZNKSt3__26__lessIvvEclB8ne190106ImmEEbRKT_RKT0_
.Lfunc_begin138:
	.file	43 "/home/kay/Documents/Code/toolchain-wasm" "emscripten/cache/sysroot/include/c++/v1/__algorithm/comp.h"
	.loc	43 39 0 is_stmt 1               # emscripten/cache/sysroot/include/c++/v1/__algorithm/comp.h:39:0
	.functype	_ZNKSt3__26__lessIvvEclB8ne190106ImmEEbRKT_RKT0_ (i32, i32, i32) -> (i32)
	.local  	i32, i32, i32, i32, i32, i32, i32, i32, i32, i32
# %bb.0:                                # %entry
	global.get	__stack_pointer
	local.set	3
	i32.const	16
	local.set	4
	local.get	3
	local.get	4
	i32.sub 
	local.set	5
	local.get	5
	local.get	0
	i32.store	12
	local.get	5
	local.get	1
	i32.store	8
	local.get	5
	local.get	2
	i32.store	4
.Ltmp343:
	.loc	43 40 12 prologue_end           # emscripten/cache/sysroot/include/c++/v1/__algorithm/comp.h:40:12
	local.get	5
	i32.load	8
	local.set	6
	local.get	6
	i32.load	0
	local.set	7
	.loc	43 40 20 is_stmt 0              # emscripten/cache/sysroot/include/c++/v1/__algorithm/comp.h:40:20
	local.get	5
	i32.load	4
	local.set	8
	local.get	8
	i32.load	0
	local.set	9
	.loc	43 40 18                        # emscripten/cache/sysroot/include/c++/v1/__algorithm/comp.h:40:18
	local.get	7
	local.get	9
	i32.lt_u
	local.set	10
	.loc	43 40 5                         # emscripten/cache/sysroot/include/c++/v1/__algorithm/comp.h:40:5
	i32.const	1
	local.set	11
	local.get	10
	local.get	11
	i32.and 
	local.set	12
	local.get	12
	return
	end_function
.Ltmp344:
.Lfunc_end138:
                                        # -- End function
	.section	.text._ZNKSt3__29allocatorINS_6threadEE8max_sizeB8ne190106Ev,"G",@,_ZNKSt3__29allocatorINS_6threadEE8max_sizeB8ne190106Ev,comdat
	.hidden	_ZNKSt3__29allocatorINS_6threadEE8max_sizeB8ne190106Ev # -- Begin function _ZNKSt3__29allocatorINS_6threadEE8max_sizeB8ne190106Ev
	.weak	_ZNKSt3__29allocatorINS_6threadEE8max_sizeB8ne190106Ev
	.type	_ZNKSt3__29allocatorINS_6threadEE8max_sizeB8ne190106Ev,@function
_ZNKSt3__29allocatorINS_6threadEE8max_sizeB8ne190106Ev: # @_ZNKSt3__29allocatorINS_6threadEE8max_sizeB8ne190106Ev
.Lfunc_begin139:
	.loc	15 159 0 is_stmt 1              # emscripten/cache/sysroot/include/c++/v1/__memory/allocator.h:159:0
	.functype	_ZNKSt3__29allocatorINS_6threadEE8max_sizeB8ne190106Ev (i32) -> (i32)
	.local  	i32, i32, i32, i32
# %bb.0:                                # %entry
	global.get	__stack_pointer
	local.set	1
	i32.const	16
	local.set	2
	local.get	1
	local.get	2
	i32.sub 
	local.set	3
	local.get	3
	local.get	0
	i32.store	12
.Ltmp345:
	.loc	15 160 5 prologue_end           # emscripten/cache/sysroot/include/c++/v1/__memory/allocator.h:160:5
	i32.const	1073741823
	local.set	4
	local.get	4
	return
	end_function
.Ltmp346:
.Lfunc_end139:
                                        # -- End function
	.section	.text._ZNKSt3__217__compressed_pairIPNS_6threadENS_9allocatorIS1_EEE6secondB8ne190106Ev,"G",@,_ZNKSt3__217__compressed_pairIPNS_6threadENS_9allocatorIS1_EEE6secondB8ne190106Ev,comdat
	.hidden	_ZNKSt3__217__compressed_pairIPNS_6threadENS_9allocatorIS1_EEE6secondB8ne190106Ev # -- Begin function _ZNKSt3__217__compressed_pairIPNS_6threadENS_9allocatorIS1_EEE6secondB8ne190106Ev
	.weak	_ZNKSt3__217__compressed_pairIPNS_6threadENS_9allocatorIS1_EEE6secondB8ne190106Ev
	.type	_ZNKSt3__217__compressed_pairIPNS_6threadENS_9allocatorIS1_EEE6secondB8ne190106Ev,@function
_ZNKSt3__217__compressed_pairIPNS_6threadENS_9allocatorIS1_EEE6secondB8ne190106Ev: # @_ZNKSt3__217__compressed_pairIPNS_6threadENS_9allocatorIS1_EEE6secondB8ne190106Ev
.Lfunc_begin140:
	.loc	17 141 0                        # emscripten/cache/sysroot/include/c++/v1/__memory/compressed_pair.h:141:0
	.functype	_ZNKSt3__217__compressed_pairIPNS_6threadENS_9allocatorIS1_EEE6secondB8ne190106Ev (i32) -> (i32)
	.local  	i32, i32, i32, i32, i32, i32, i32
# %bb.0:                                # %entry
	global.get	__stack_pointer
	local.set	1
	i32.const	16
	local.set	2
	local.get	1
	local.get	2
	i32.sub 
	local.set	3
	local.get	3
	global.set	__stack_pointer
	local.get	3
	local.get	0
	i32.store	12
	local.get	3
	i32.load	12
	local.set	4
.Ltmp347:
	.loc	17 142 46 prologue_end          # emscripten/cache/sysroot/include/c++/v1/__memory/compressed_pair.h:142:46
	local.get	4
	call	_ZNKSt3__222__compressed_pair_elemINS_9allocatorINS_6threadEEELi1ELb1EE5__getB8ne190106Ev
	local.set	5
	.loc	17 142 5 is_stmt 0              # emscripten/cache/sysroot/include/c++/v1/__memory/compressed_pair.h:142:5
	i32.const	16
	local.set	6
	local.get	3
	local.get	6
	i32.add 
	local.set	7
	local.get	7
	global.set	__stack_pointer
	local.get	5
	return
	end_function
.Ltmp348:
.Lfunc_end140:
                                        # -- End function
	.section	.text._ZNKSt3__222__compressed_pair_elemINS_9allocatorINS_6threadEEELi1ELb1EE5__getB8ne190106Ev,"G",@,_ZNKSt3__222__compressed_pair_elemINS_9allocatorINS_6threadEEELi1ELb1EE5__getB8ne190106Ev,comdat
	.hidden	_ZNKSt3__222__compressed_pair_elemINS_9allocatorINS_6threadEEELi1ELb1EE5__getB8ne190106Ev # -- Begin function _ZNKSt3__222__compressed_pair_elemINS_9allocatorINS_6threadEEELi1ELb1EE5__getB8ne190106Ev
	.weak	_ZNKSt3__222__compressed_pair_elemINS_9allocatorINS_6threadEEELi1ELb1EE5__getB8ne190106Ev
	.type	_ZNKSt3__222__compressed_pair_elemINS_9allocatorINS_6threadEEELi1ELb1EE5__getB8ne190106Ev,@function
_ZNKSt3__222__compressed_pair_elemINS_9allocatorINS_6threadEEELi1ELb1EE5__getB8ne190106Ev: # @_ZNKSt3__222__compressed_pair_elemINS_9allocatorINS_6threadEEELi1ELb1EE5__getB8ne190106Ev
.Lfunc_begin141:
	.loc	17 92 0 is_stmt 1               # emscripten/cache/sysroot/include/c++/v1/__memory/compressed_pair.h:92:0
	.functype	_ZNKSt3__222__compressed_pair_elemINS_9allocatorINS_6threadEEELi1ELb1EE5__getB8ne190106Ev (i32) -> (i32)
	.local  	i32, i32, i32, i32
# %bb.0:                                # %entry
	global.get	__stack_pointer
	local.set	1
	i32.const	16
	local.set	2
	local.get	1
	local.get	2
	i32.sub 
	local.set	3
	local.get	3
	local.get	0
	i32.store	12
	local.get	3
	i32.load	12
	local.set	4
.Ltmp349:
	.loc	17 92 85 prologue_end           # emscripten/cache/sysroot/include/c++/v1/__memory/compressed_pair.h:92:85
	local.get	4
	return
	end_function
.Ltmp350:
.Lfunc_end141:
                                        # -- End function
	.section	.text._ZNSt3__223__libcpp_numeric_limitsIlLb1EE3maxB8ne190106Ev,"G",@,_ZNSt3__223__libcpp_numeric_limitsIlLb1EE3maxB8ne190106Ev,comdat
	.hidden	_ZNSt3__223__libcpp_numeric_limitsIlLb1EE3maxB8ne190106Ev # -- Begin function _ZNSt3__223__libcpp_numeric_limitsIlLb1EE3maxB8ne190106Ev
	.weak	_ZNSt3__223__libcpp_numeric_limitsIlLb1EE3maxB8ne190106Ev
	.type	_ZNSt3__223__libcpp_numeric_limitsIlLb1EE3maxB8ne190106Ev,@function
_ZNSt3__223__libcpp_numeric_limitsIlLb1EE3maxB8ne190106Ev: # @_ZNSt3__223__libcpp_numeric_limitsIlLb1EE3maxB8ne190106Ev
.Lfunc_begin142:
	.functype	_ZNSt3__223__libcpp_numeric_limitsIlLb1EE3maxB8ne190106Ev () -> (i32)
	.local  	i32
# %bb.0:                                # %entry
	.loc	10 202 91 prologue_end          # emscripten/cache/sysroot/include/c++/v1/limits:202:91
	i32.const	2147483647
	local.set	0
	local.get	0
	return
	end_function
.Ltmp351:
.Lfunc_end142:
                                        # -- End function
	.section	.text._ZNSt3__220__throw_length_errorB8ne190106EPKc,"G",@,_ZNSt3__220__throw_length_errorB8ne190106EPKc,comdat
	.hidden	_ZNSt3__220__throw_length_errorB8ne190106EPKc # -- Begin function _ZNSt3__220__throw_length_errorB8ne190106EPKc
	.weak	_ZNSt3__220__throw_length_errorB8ne190106EPKc
	.type	_ZNSt3__220__throw_length_errorB8ne190106EPKc,@function
_ZNSt3__220__throw_length_errorB8ne190106EPKc: # @_ZNSt3__220__throw_length_errorB8ne190106EPKc
.Lfunc_begin143:
	.file	44 "/home/kay/Documents/Code/toolchain-wasm" "emscripten/cache/sysroot/include/c++/v1/stdexcept"
	.loc	44 238 0                        # emscripten/cache/sysroot/include/c++/v1/stdexcept:238:0
	.functype	_ZNSt3__220__throw_length_errorB8ne190106EPKc (i32) -> ()
	.local  	i32, i32, i32, i32, i32, i32, i32, i32
# %bb.0:                                # %entry
	global.get	__stack_pointer
	local.set	1
	i32.const	16
	local.set	2
	local.get	1
	local.get	2
	i32.sub 
	local.set	3
	local.get	3
	global.set	__stack_pointer
	local.get	3
	local.get	0
	i32.store	12
.Ltmp352:
	.loc	44 240 3 prologue_end           # emscripten/cache/sysroot/include/c++/v1/stdexcept:240:3
	i32.const	8
	local.set	4
	local.get	4
	call	__cxa_allocate_exception
	local.set	5
	.loc	44 240 22 is_stmt 0             # emscripten/cache/sysroot/include/c++/v1/stdexcept:240:22
	local.get	3
	i32.load	12
	local.set	6
	.loc	44 240 9                        # emscripten/cache/sysroot/include/c++/v1/stdexcept:240:9
	local.get	5
	local.get	6
	call	_ZNSt12length_errorC2B8ne190106EPKc
	drop
	.loc	44 240 3                        # emscripten/cache/sysroot/include/c++/v1/stdexcept:240:3
	i32.const	_ZTISt12length_error
	local.set	7
	i32.const	_ZNSt12length_errorD1Ev
	local.set	8
	local.get	5
	local.get	7
	local.get	8
	call	__cxa_throw
	unreachable
	end_function
.Ltmp353:
.Lfunc_end143:
                                        # -- End function
	.section	.text._ZNSt12length_errorC2B8ne190106EPKc,"G",@,_ZNSt12length_errorC2B8ne190106EPKc,comdat
	.hidden	_ZNSt12length_errorC2B8ne190106EPKc # -- Begin function _ZNSt12length_errorC2B8ne190106EPKc
	.weak	_ZNSt12length_errorC2B8ne190106EPKc
	.type	_ZNSt12length_errorC2B8ne190106EPKc,@function
_ZNSt12length_errorC2B8ne190106EPKc:    # @_ZNSt12length_errorC2B8ne190106EPKc
.Lfunc_begin144:
	.loc	44 151 0 is_stmt 1              # emscripten/cache/sysroot/include/c++/v1/stdexcept:151:0
	.functype	_ZNSt12length_errorC2B8ne190106EPKc (i32, i32) -> (i32)
	.local  	i32, i32, i32, i32, i32, i32, i32, i32, i32, i32
# %bb.0:                                # %entry
	global.get	__stack_pointer
	local.set	2
	i32.const	16
	local.set	3
	local.get	2
	local.get	3
	i32.sub 
	local.set	4
	local.get	4
	global.set	__stack_pointer
	local.get	4
	local.get	0
	i32.store	12
	local.get	4
	local.get	1
	i32.store	8
	local.get	4
	i32.load	12
	local.set	5
.Ltmp354:
	.loc	44 151 78 prologue_end          # emscripten/cache/sysroot/include/c++/v1/stdexcept:151:78
	local.get	4
	i32.load	8
	local.set	6
	.loc	44 151 66 is_stmt 0             # emscripten/cache/sysroot/include/c++/v1/stdexcept:151:66
	local.get	5
	local.get	6
	call	_ZNSt11logic_errorC2EPKc
	drop
	.loc	44 151 83                       # emscripten/cache/sysroot/include/c++/v1/stdexcept:151:83
	i32.const	_ZTVSt12length_error
	local.set	7
	i32.const	8
	local.set	8
	local.get	7
	local.get	8
	i32.add 
	local.set	9
	local.get	5
	local.get	9
	i32.store	0
	.loc	44 151 84                       # emscripten/cache/sysroot/include/c++/v1/stdexcept:151:84
	i32.const	16
	local.set	10
	local.get	4
	local.get	10
	i32.add 
	local.set	11
	local.get	11
	global.set	__stack_pointer
	local.get	5
	return
	end_function
.Ltmp355:
.Lfunc_end144:
                                        # -- End function
	.section	.text._ZNSt3__23maxB8ne190106ImNS_6__lessIvvEEEERKT_S5_S5_T0_,"G",@,_ZNSt3__23maxB8ne190106ImNS_6__lessIvvEEEERKT_S5_S5_T0_,comdat
	.hidden	_ZNSt3__23maxB8ne190106ImNS_6__lessIvvEEEERKT_S5_S5_T0_ # -- Begin function _ZNSt3__23maxB8ne190106ImNS_6__lessIvvEEEERKT_S5_S5_T0_
	.weak	_ZNSt3__23maxB8ne190106ImNS_6__lessIvvEEEERKT_S5_S5_T0_
	.type	_ZNSt3__23maxB8ne190106ImNS_6__lessIvvEEEERKT_S5_S5_T0_,@function
_ZNSt3__23maxB8ne190106ImNS_6__lessIvvEEEERKT_S5_S5_T0_: # @_ZNSt3__23maxB8ne190106ImNS_6__lessIvvEEEERKT_S5_S5_T0_
.Lfunc_begin145:
	.loc	41 29 0 is_stmt 1               # emscripten/cache/sysroot/include/c++/v1/__algorithm/max.h:29:0
	.functype	_ZNSt3__23maxB8ne190106ImNS_6__lessIvvEEEERKT_S5_S5_T0_ (i32, i32) -> (i32)
	.local  	i32, i32, i32, i32, i32, i32, i32, i32, i32, i32, i32, i32, i32, i32, i32, i32, i32
# %bb.0:                                # %entry
	global.get	__stack_pointer
	local.set	2
	i32.const	16
	local.set	3
	local.get	2
	local.get	3
	i32.sub 
	local.set	4
	local.get	4
	global.set	__stack_pointer
	local.get	4
	local.get	0
	i32.store	8
	local.get	4
	local.get	1
	i32.store	4
.Ltmp356:
	.loc	41 30 17 prologue_end           # emscripten/cache/sysroot/include/c++/v1/__algorithm/max.h:30:17
	local.get	4
	i32.load	8
	local.set	5
	.loc	41 30 22 is_stmt 0              # emscripten/cache/sysroot/include/c++/v1/__algorithm/max.h:30:22
	local.get	4
	i32.load	4
	local.set	6
	.loc	41 30 10                        # emscripten/cache/sysroot/include/c++/v1/__algorithm/max.h:30:10
	i32.const	15
	local.set	7
	local.get	4
	local.get	7
	i32.add 
	local.set	8
	local.get	8
	local.set	9
	local.get	9
	local.get	5
	local.get	6
	call	_ZNKSt3__26__lessIvvEclB8ne190106ImmEEbRKT_RKT0_
	local.set	10
	i32.const	1
	local.set	11
	local.get	10
	local.get	11
	i32.and 
	local.set	12
	block   	
	block   	
	local.get	12
	i32.eqz
	br_if   	0                               # 0: down to label51
# %bb.1:                                # %cond.true
	.loc	41 30 29                        # emscripten/cache/sysroot/include/c++/v1/__algorithm/max.h:30:29
	local.get	4
	i32.load	4
	local.set	13
	local.get	13
	local.set	14
	.loc	41 30 10                        # emscripten/cache/sysroot/include/c++/v1/__algorithm/max.h:30:10
	br      	1                               # 1: down to label50
.LBB145_2:                              # %cond.false
	.loc	41 0 10                         # emscripten/cache/sysroot/include/c++/v1/__algorithm/max.h:0:10
	end_block                               # label51:
	.loc	41 30 35                        # emscripten/cache/sysroot/include/c++/v1/__algorithm/max.h:30:35
	local.get	4
	i32.load	8
	local.set	15
	local.get	15
	local.set	14
.LBB145_3:                              # %cond.end
	.loc	41 0 35                         # emscripten/cache/sysroot/include/c++/v1/__algorithm/max.h:0:35
	end_block                               # label50:
	.loc	41 30 10                        # emscripten/cache/sysroot/include/c++/v1/__algorithm/max.h:30:10
	local.get	14
	local.set	16
	.loc	41 30 3                         # emscripten/cache/sysroot/include/c++/v1/__algorithm/max.h:30:3
	i32.const	16
	local.set	17
	local.get	4
	local.get	17
	i32.add 
	local.set	18
	local.get	18
	global.set	__stack_pointer
	local.get	16
	return
	end_function
.Ltmp357:
.Lfunc_end145:
                                        # -- End function
	.section	.text._ZNSt3__217__compressed_pairIPNS_6threadERNS_9allocatorIS1_EEEC2B8ne190106IDnS5_EEOT_OT0_,"G",@,_ZNSt3__217__compressed_pairIPNS_6threadERNS_9allocatorIS1_EEEC2B8ne190106IDnS5_EEOT_OT0_,comdat
	.hidden	_ZNSt3__217__compressed_pairIPNS_6threadERNS_9allocatorIS1_EEEC2B8ne190106IDnS5_EEOT_OT0_ # -- Begin function _ZNSt3__217__compressed_pairIPNS_6threadERNS_9allocatorIS1_EEEC2B8ne190106IDnS5_EEOT_OT0_
	.weak	_ZNSt3__217__compressed_pairIPNS_6threadERNS_9allocatorIS1_EEEC2B8ne190106IDnS5_EEOT_OT0_
	.type	_ZNSt3__217__compressed_pairIPNS_6threadERNS_9allocatorIS1_EEEC2B8ne190106IDnS5_EEOT_OT0_,@function
_ZNSt3__217__compressed_pairIPNS_6threadERNS_9allocatorIS1_EEEC2B8ne190106IDnS5_EEOT_OT0_: # @_ZNSt3__217__compressed_pairIPNS_6threadERNS_9allocatorIS1_EEEC2B8ne190106IDnS5_EEOT_OT0_
.Lfunc_begin146:
	.loc	17 119 0 is_stmt 1              # emscripten/cache/sysroot/include/c++/v1/__memory/compressed_pair.h:119:0
	.functype	_ZNSt3__217__compressed_pairIPNS_6threadERNS_9allocatorIS1_EEEC2B8ne190106IDnS5_EEOT_OT0_ (i32, i32, i32) -> (i32)
	.local  	i32, i32, i32, i32, i32, i32, i32, i32, i32, i32
# %bb.0:                                # %entry
	global.get	__stack_pointer
	local.set	3
	i32.const	16
	local.set	4
	local.get	3
	local.get	4
	i32.sub 
	local.set	5
	local.get	5
	global.set	__stack_pointer
	local.get	5
	local.get	0
	i32.store	12
	local.get	5
	local.get	1
	i32.store	8
	local.get	5
	local.get	2
	i32.store	4
	local.get	5
	i32.load	12
	local.set	6
.Ltmp358:
	.loc	17 119 34 prologue_end          # emscripten/cache/sysroot/include/c++/v1/__memory/compressed_pair.h:119:34
	local.get	5
	i32.load	8
	local.set	7
	.loc	17 119 9 is_stmt 0              # emscripten/cache/sysroot/include/c++/v1/__memory/compressed_pair.h:119:9
	local.get	6
	local.get	7
	call	_ZNSt3__222__compressed_pair_elemIPNS_6threadELi0ELb0EEC2B8ne190106IDnTnNS_9enable_ifIXntsr7is_sameIS3_u7__decayIT_EEE5valueEiE4typeELi0EEEOS6_
	drop
	.loc	17 119 74                       # emscripten/cache/sysroot/include/c++/v1/__memory/compressed_pair.h:119:74
	i32.const	4
	local.set	8
	local.get	6
	local.get	8
	i32.add 
	local.set	9
	.loc	17 119 67                       # emscripten/cache/sysroot/include/c++/v1/__memory/compressed_pair.h:119:67
	local.get	5
	i32.load	4
	local.set	10
	.loc	17 119 42                       # emscripten/cache/sysroot/include/c++/v1/__memory/compressed_pair.h:119:42
	local.get	9
	local.get	10
	call	_ZNSt3__222__compressed_pair_elemIRNS_9allocatorINS_6threadEEELi1ELb0EEC2B8ne190106IS4_TnNS_9enable_ifIXntsr7is_sameIS5_u7__decayIT_EEE5valueEiE4typeELi0EEEOS8_
	drop
	.loc	17 119 75                       # emscripten/cache/sysroot/include/c++/v1/__memory/compressed_pair.h:119:75
	i32.const	16
	local.set	11
	local.get	5
	local.get	11
	i32.add 
	local.set	12
	local.get	12
	global.set	__stack_pointer
	local.get	6
	return
	end_function
.Ltmp359:
.Lfunc_end146:
                                        # -- End function
	.section	.text._ZNSt3__219__allocate_at_leastB8ne190106INS_9allocatorINS_6threadEEEEENS_19__allocation_resultINS_16allocator_traitsIT_E7pointerEEERS6_m,"G",@,_ZNSt3__219__allocate_at_leastB8ne190106INS_9allocatorINS_6threadEEEEENS_19__allocation_resultINS_16allocator_traitsIT_E7pointerEEERS6_m,comdat
	.hidden	_ZNSt3__219__allocate_at_leastB8ne190106INS_9allocatorINS_6threadEEEEENS_19__allocation_resultINS_16allocator_traitsIT_E7pointerEEERS6_m # -- Begin function _ZNSt3__219__allocate_at_leastB8ne190106INS_9allocatorINS_6threadEEEEENS_19__allocation_resultINS_16allocator_traitsIT_E7pointerEEERS6_m
	.weak	_ZNSt3__219__allocate_at_leastB8ne190106INS_9allocatorINS_6threadEEEEENS_19__allocation_resultINS_16allocator_traitsIT_E7pointerEEERS6_m
	.type	_ZNSt3__219__allocate_at_leastB8ne190106INS_9allocatorINS_6threadEEEEENS_19__allocation_resultINS_16allocator_traitsIT_E7pointerEEERS6_m,@function
_ZNSt3__219__allocate_at_leastB8ne190106INS_9allocatorINS_6threadEEEEENS_19__allocation_resultINS_16allocator_traitsIT_E7pointerEEERS6_m: # @_ZNSt3__219__allocate_at_leastB8ne190106INS_9allocatorINS_6threadEEEEENS_19__allocation_resultINS_16allocator_traitsIT_E7pointerEEERS6_m
.Lfunc_begin147:
	.file	45 "/home/kay/Documents/Code/toolchain-wasm" "emscripten/cache/sysroot/include/c++/v1/__memory/allocate_at_least.h"
	.loc	45 40 0 is_stmt 1               # emscripten/cache/sysroot/include/c++/v1/__memory/allocate_at_least.h:40:0
	.functype	_ZNSt3__219__allocate_at_leastB8ne190106INS_9allocatorINS_6threadEEEEENS_19__allocation_resultINS_16allocator_traitsIT_E7pointerEEERS6_m (i32, i32, i32) -> ()
	.local  	i32, i32, i32, i32, i32, i32, i32, i32, i32
# %bb.0:                                # %entry
	global.get	__stack_pointer
	local.set	3
	i32.const	16
	local.set	4
	local.get	3
	local.get	4
	i32.sub 
	local.set	5
	local.get	5
	global.set	__stack_pointer
	local.get	5
	local.get	1
	i32.store	12
	local.get	5
	local.get	2
	i32.store	8
.Ltmp360:
	.loc	45 41 11 prologue_end           # emscripten/cache/sysroot/include/c++/v1/__memory/allocate_at_least.h:41:11
	local.get	5
	i32.load	12
	local.set	6
	.loc	45 41 28 is_stmt 0              # emscripten/cache/sysroot/include/c++/v1/__memory/allocate_at_least.h:41:28
	local.get	5
	i32.load	8
	local.set	7
	.loc	45 41 19                        # emscripten/cache/sysroot/include/c++/v1/__memory/allocate_at_least.h:41:19
	local.get	6
	local.get	7
	call	_ZNSt3__29allocatorINS_6threadEE8allocateB8ne190106Em
	local.set	8
	.loc	45 41 10                        # emscripten/cache/sysroot/include/c++/v1/__memory/allocate_at_least.h:41:10
	local.get	0
	local.get	8
	i32.store	0
	.loc	45 41 34                        # emscripten/cache/sysroot/include/c++/v1/__memory/allocate_at_least.h:41:34
	local.get	5
	i32.load	8
	local.set	9
	.loc	45 41 10                        # emscripten/cache/sysroot/include/c++/v1/__memory/allocate_at_least.h:41:10
	local.get	0
	local.get	9
	i32.store	4
	.loc	45 41 3                         # emscripten/cache/sysroot/include/c++/v1/__memory/allocate_at_least.h:41:3
	i32.const	16
	local.set	10
	local.get	5
	local.get	10
	i32.add 
	local.set	11
	local.get	11
	global.set	__stack_pointer
	return
	end_function
.Ltmp361:
.Lfunc_end147:
                                        # -- End function
	.section	.text._ZNSt3__214__split_bufferINS_6threadERNS_9allocatorIS1_EEE7__allocB8ne190106Ev,"G",@,_ZNSt3__214__split_bufferINS_6threadERNS_9allocatorIS1_EEE7__allocB8ne190106Ev,comdat
	.hidden	_ZNSt3__214__split_bufferINS_6threadERNS_9allocatorIS1_EEE7__allocB8ne190106Ev # -- Begin function _ZNSt3__214__split_bufferINS_6threadERNS_9allocatorIS1_EEE7__allocB8ne190106Ev
	.weak	_ZNSt3__214__split_bufferINS_6threadERNS_9allocatorIS1_EEE7__allocB8ne190106Ev
	.type	_ZNSt3__214__split_bufferINS_6threadERNS_9allocatorIS1_EEE7__allocB8ne190106Ev,@function
_ZNSt3__214__split_bufferINS_6threadERNS_9allocatorIS1_EEE7__allocB8ne190106Ev: # @_ZNSt3__214__split_bufferINS_6threadERNS_9allocatorIS1_EEE7__allocB8ne190106Ev
.Lfunc_begin148:
	.loc	22 114 0 is_stmt 1              # emscripten/cache/sysroot/include/c++/v1/__split_buffer:114:0
	.functype	_ZNSt3__214__split_bufferINS_6threadERNS_9allocatorIS1_EEE7__allocB8ne190106Ev (i32) -> (i32)
	.local  	i32, i32, i32, i32, i32, i32, i32, i32, i32
# %bb.0:                                # %entry
	global.get	__stack_pointer
	local.set	1
	i32.const	16
	local.set	2
	local.get	1
	local.get	2
	i32.sub 
	local.set	3
	local.get	3
	global.set	__stack_pointer
	local.get	3
	local.get	0
	i32.store	12
	local.get	3
	i32.load	12
	local.set	4
.Ltmp362:
	.loc	22 114 96 prologue_end          # emscripten/cache/sysroot/include/c++/v1/__split_buffer:114:96
	i32.const	12
	local.set	5
	local.get	4
	local.get	5
	i32.add 
	local.set	6
	.loc	22 114 107 is_stmt 0            # emscripten/cache/sysroot/include/c++/v1/__split_buffer:114:107
	local.get	6
	call	_ZNSt3__217__compressed_pairIPNS_6threadERNS_9allocatorIS1_EEE6secondB8ne190106Ev
	local.set	7
	.loc	22 114 89                       # emscripten/cache/sysroot/include/c++/v1/__split_buffer:114:89
	i32.const	16
	local.set	8
	local.get	3
	local.get	8
	i32.add 
	local.set	9
	local.get	9
	global.set	__stack_pointer
	local.get	7
	return
	end_function
.Ltmp363:
.Lfunc_end148:
                                        # -- End function
	.section	.text._ZNSt3__214__split_bufferINS_6threadERNS_9allocatorIS1_EEE9__end_capB8ne190106Ev,"G",@,_ZNSt3__214__split_bufferINS_6threadERNS_9allocatorIS1_EEE9__end_capB8ne190106Ev,comdat
	.hidden	_ZNSt3__214__split_bufferINS_6threadERNS_9allocatorIS1_EEE9__end_capB8ne190106Ev # -- Begin function _ZNSt3__214__split_bufferINS_6threadERNS_9allocatorIS1_EEE9__end_capB8ne190106Ev
	.weak	_ZNSt3__214__split_bufferINS_6threadERNS_9allocatorIS1_EEE9__end_capB8ne190106Ev
	.type	_ZNSt3__214__split_bufferINS_6threadERNS_9allocatorIS1_EEE9__end_capB8ne190106Ev,@function
_ZNSt3__214__split_bufferINS_6threadERNS_9allocatorIS1_EEE9__end_capB8ne190106Ev: # @_ZNSt3__214__split_bufferINS_6threadERNS_9allocatorIS1_EEE9__end_capB8ne190106Ev
.Lfunc_begin149:
	.loc	22 119 0 is_stmt 1              # emscripten/cache/sysroot/include/c++/v1/__split_buffer:119:0
	.functype	_ZNSt3__214__split_bufferINS_6threadERNS_9allocatorIS1_EEE9__end_capB8ne190106Ev (i32) -> (i32)
	.local  	i32, i32, i32, i32, i32, i32, i32, i32, i32
# %bb.0:                                # %entry
	global.get	__stack_pointer
	local.set	1
	i32.const	16
	local.set	2
	local.get	1
	local.get	2
	i32.sub 
	local.set	3
	local.get	3
	global.set	__stack_pointer
	local.get	3
	local.get	0
	i32.store	12
	local.get	3
	i32.load	12
	local.set	4
.Ltmp364:
	.loc	22 119 95 prologue_end          # emscripten/cache/sysroot/include/c++/v1/__split_buffer:119:95
	i32.const	12
	local.set	5
	local.get	4
	local.get	5
	i32.add 
	local.set	6
	.loc	22 119 106 is_stmt 0            # emscripten/cache/sysroot/include/c++/v1/__split_buffer:119:106
	local.get	6
	call	_ZNSt3__217__compressed_pairIPNS_6threadERNS_9allocatorIS1_EEE5firstB8ne190106Ev
	local.set	7
	.loc	22 119 88                       # emscripten/cache/sysroot/include/c++/v1/__split_buffer:119:88
	i32.const	16
	local.set	8
	local.get	3
	local.get	8
	i32.add 
	local.set	9
	local.get	9
	global.set	__stack_pointer
	local.get	7
	return
	end_function
.Ltmp365:
.Lfunc_end149:
                                        # -- End function
	.section	.text._ZNSt3__222__compressed_pair_elemIRNS_9allocatorINS_6threadEEELi1ELb0EEC2B8ne190106IS4_TnNS_9enable_ifIXntsr7is_sameIS5_u7__decayIT_EEE5valueEiE4typeELi0EEEOS8_,"G",@,_ZNSt3__222__compressed_pair_elemIRNS_9allocatorINS_6threadEEELi1ELb0EEC2B8ne190106IS4_TnNS_9enable_ifIXntsr7is_sameIS5_u7__decayIT_EEE5valueEiE4typeELi0EEEOS8_,comdat
	.hidden	_ZNSt3__222__compressed_pair_elemIRNS_9allocatorINS_6threadEEELi1ELb0EEC2B8ne190106IS4_TnNS_9enable_ifIXntsr7is_sameIS5_u7__decayIT_EEE5valueEiE4typeELi0EEEOS8_ # -- Begin function _ZNSt3__222__compressed_pair_elemIRNS_9allocatorINS_6threadEEELi1ELb0EEC2B8ne190106IS4_TnNS_9enable_ifIXntsr7is_sameIS5_u7__decayIT_EEE5valueEiE4typeELi0EEEOS8_
	.weak	_ZNSt3__222__compressed_pair_elemIRNS_9allocatorINS_6threadEEELi1ELb0EEC2B8ne190106IS4_TnNS_9enable_ifIXntsr7is_sameIS5_u7__decayIT_EEE5valueEiE4typeELi0EEEOS8_
	.type	_ZNSt3__222__compressed_pair_elemIRNS_9allocatorINS_6threadEEELi1ELb0EEC2B8ne190106IS4_TnNS_9enable_ifIXntsr7is_sameIS5_u7__decayIT_EEE5valueEiE4typeELi0EEEOS8_,@function
_ZNSt3__222__compressed_pair_elemIRNS_9allocatorINS_6threadEEELi1ELb0EEC2B8ne190106IS4_TnNS_9enable_ifIXntsr7is_sameIS5_u7__decayIT_EEE5valueEiE4typeELi0EEEOS8_: # @_ZNSt3__222__compressed_pair_elemIRNS_9allocatorINS_6threadEEELi1ELb0EEC2B8ne190106IS4_TnNS_9enable_ifIXntsr7is_sameIS5_u7__decayIT_EEE5valueEiE4typeELi0EEEOS8_
.Lfunc_begin150:
	.loc	17 53 0 is_stmt 1               # emscripten/cache/sysroot/include/c++/v1/__memory/compressed_pair.h:53:0
	.functype	_ZNSt3__222__compressed_pair_elemIRNS_9allocatorINS_6threadEEELi1ELb0EEC2B8ne190106IS4_TnNS_9enable_ifIXntsr7is_sameIS5_u7__decayIT_EEE5valueEiE4typeELi0EEEOS8_ (i32, i32) -> (i32)
	.local  	i32, i32, i32, i32, i32
# %bb.0:                                # %entry
	global.get	__stack_pointer
	local.set	2
	i32.const	16
	local.set	3
	local.get	2
	local.get	3
	i32.sub 
	local.set	4
	local.get	4
	local.get	0
	i32.store	12
	local.get	4
	local.get	1
	i32.store	8
	local.get	4
	i32.load	12
	local.set	5
.Ltmp366:
	.loc	17 53 36 prologue_end           # emscripten/cache/sysroot/include/c++/v1/__memory/compressed_pair.h:53:36
	local.get	4
	i32.load	8
	local.set	6
	.loc	17 53 9 is_stmt 0               # emscripten/cache/sysroot/include/c++/v1/__memory/compressed_pair.h:53:9
	local.get	5
	local.get	6
	i32.store	0
	.loc	17 53 43                        # emscripten/cache/sysroot/include/c++/v1/__memory/compressed_pair.h:53:43
	local.get	5
	return
	end_function
.Ltmp367:
.Lfunc_end150:
                                        # -- End function
	.section	.text._ZNSt3__29allocatorINS_6threadEE8allocateB8ne190106Em,"G",@,_ZNSt3__29allocatorINS_6threadEE8allocateB8ne190106Em,comdat
	.hidden	_ZNSt3__29allocatorINS_6threadEE8allocateB8ne190106Em # -- Begin function _ZNSt3__29allocatorINS_6threadEE8allocateB8ne190106Em
	.weak	_ZNSt3__29allocatorINS_6threadEE8allocateB8ne190106Em
	.type	_ZNSt3__29allocatorINS_6threadEE8allocateB8ne190106Em,@function
_ZNSt3__29allocatorINS_6threadEE8allocateB8ne190106Em: # @_ZNSt3__29allocatorINS_6threadEE8allocateB8ne190106Em
.Lfunc_begin151:
	.loc	15 112 0 is_stmt 1              # emscripten/cache/sysroot/include/c++/v1/__memory/allocator.h:112:0
	.functype	_ZNSt3__29allocatorINS_6threadEE8allocateB8ne190106Em (i32, i32) -> (i32)
	.local  	i32, i32, i32, i32, i32, i32, i32, i32, i32, i32, i32, i32, i32, i32, i32, i32
# %bb.0:                                # %entry
	global.get	__stack_pointer
	local.set	2
	i32.const	16
	local.set	3
	local.get	2
	local.get	3
	i32.sub 
	local.set	4
	local.get	4
	global.set	__stack_pointer
	local.get	4
	local.get	0
	i32.store	12
	local.get	4
	local.get	1
	i32.store	8
	local.get	4
	i32.load	12
	local.set	5
.Ltmp368:
	.loc	15 113 9 prologue_end           # emscripten/cache/sysroot/include/c++/v1/__memory/allocator.h:113:9
	local.get	4
	i32.load	8
	local.set	6
	.loc	15 113 15 is_stmt 0             # emscripten/cache/sysroot/include/c++/v1/__memory/allocator.h:113:15
	local.get	5
	call	_ZNSt3__216allocator_traitsINS_9allocatorINS_6threadEEEE8max_sizeB8ne190106IS3_TnNS_9enable_ifIXsr14__has_max_sizeIKT_EE5valueEiE4typeELi0EEEmRKS3_
	local.set	7
	.loc	15 113 13                       # emscripten/cache/sysroot/include/c++/v1/__memory/allocator.h:113:13
	local.get	6
	local.get	7
	i32.gt_u
	local.set	8
	i32.const	1
	local.set	9
	local.get	8
	local.get	9
	i32.and 
	local.set	10
	block   	
	local.get	10
	i32.eqz
	br_if   	0                               # 0: down to label52
# %bb.1:                                # %if.then
	.loc	15 114 7 is_stmt 1              # emscripten/cache/sysroot/include/c++/v1/__memory/allocator.h:114:7
	call	_ZSt28__throw_bad_array_new_lengthB8ne190106v
	unreachable
.Ltmp369:
.LBB151_2:                              # %if.end
	.loc	15 0 7 is_stmt 0                # emscripten/cache/sysroot/include/c++/v1/__memory/allocator.h:0:7
	end_block                               # label52:
.Ltmp370:
	.loc	15 118 55 is_stmt 1             # emscripten/cache/sysroot/include/c++/v1/__memory/allocator.h:118:55
	local.get	4
	i32.load	8
	local.set	11
	.loc	15 118 59 is_stmt 0             # emscripten/cache/sysroot/include/c++/v1/__memory/allocator.h:118:59
	i32.const	2
	local.set	12
	local.get	11
	local.get	12
	i32.shl 
	local.set	13
	.loc	15 118 32                       # emscripten/cache/sysroot/include/c++/v1/__memory/allocator.h:118:32
	i32.const	4
	local.set	14
	local.get	13
	local.get	14
	call	_ZNSt3__217__libcpp_allocateB8ne190106Emm
	local.set	15
	.loc	15 118 7                        # emscripten/cache/sysroot/include/c++/v1/__memory/allocator.h:118:7
	i32.const	16
	local.set	16
	local.get	4
	local.get	16
	i32.add 
	local.set	17
	local.get	17
	global.set	__stack_pointer
	local.get	15
	return
	end_function
.Ltmp371:
.Lfunc_end151:
                                        # -- End function
	.section	.text._ZSt28__throw_bad_array_new_lengthB8ne190106v,"G",@,_ZSt28__throw_bad_array_new_lengthB8ne190106v,comdat
	.hidden	_ZSt28__throw_bad_array_new_lengthB8ne190106v # -- Begin function _ZSt28__throw_bad_array_new_lengthB8ne190106v
	.weak	_ZSt28__throw_bad_array_new_lengthB8ne190106v
	.type	_ZSt28__throw_bad_array_new_lengthB8ne190106v,@function
_ZSt28__throw_bad_array_new_lengthB8ne190106v: # @_ZSt28__throw_bad_array_new_lengthB8ne190106v
.Lfunc_begin152:
	.functype	_ZSt28__throw_bad_array_new_lengthB8ne190106v () -> ()
	.local  	i32, i32, i32, i32
# %bb.0:                                # %entry
	.loc	9 173 3 prologue_end is_stmt 1  # emscripten/cache/sysroot/include/c++/v1/new:173:3
	i32.const	4
	local.set	0
	local.get	0
	call	__cxa_allocate_exception
	local.set	1
	.loc	9 173 9 is_stmt 0               # emscripten/cache/sysroot/include/c++/v1/new:173:9
	local.get	1
	call	_ZNSt20bad_array_new_lengthC1Ev
	drop
	.loc	9 173 3                         # emscripten/cache/sysroot/include/c++/v1/new:173:3
	i32.const	_ZTISt20bad_array_new_length
	local.set	2
	i32.const	_ZNSt20bad_array_new_lengthD1Ev
	local.set	3
	local.get	1
	local.get	2
	local.get	3
	call	__cxa_throw
	unreachable
	end_function
.Ltmp372:
.Lfunc_end152:
                                        # -- End function
	.section	.text._ZNSt3__217__libcpp_allocateB8ne190106Emm,"G",@,_ZNSt3__217__libcpp_allocateB8ne190106Emm,comdat
	.hidden	_ZNSt3__217__libcpp_allocateB8ne190106Emm # -- Begin function _ZNSt3__217__libcpp_allocateB8ne190106Emm
	.weak	_ZNSt3__217__libcpp_allocateB8ne190106Emm
	.type	_ZNSt3__217__libcpp_allocateB8ne190106Emm,@function
_ZNSt3__217__libcpp_allocateB8ne190106Emm: # @_ZNSt3__217__libcpp_allocateB8ne190106Emm
.Lfunc_begin153:
	.loc	9 280 0 is_stmt 1               # emscripten/cache/sysroot/include/c++/v1/new:280:0
	.functype	_ZNSt3__217__libcpp_allocateB8ne190106Emm (i32, i32) -> (i32)
	.local  	i32, i32, i32, i32, i32, i32, i32, i32, i32, i32, i32, i32, i32, i32, i32, i32
# %bb.0:                                # %entry
	global.get	__stack_pointer
	local.set	2
	i32.const	16
	local.set	3
	local.get	2
	local.get	3
	i32.sub 
	local.set	4
	local.get	4
	global.set	__stack_pointer
	local.get	4
	local.get	0
	i32.store	8
	local.get	4
	local.get	1
	i32.store	4
.Ltmp373:
	.loc	9 282 32 prologue_end           # emscripten/cache/sysroot/include/c++/v1/new:282:32
	local.get	4
	i32.load	4
	local.set	5
	.loc	9 282 7 is_stmt 0               # emscripten/cache/sysroot/include/c++/v1/new:282:7
	local.get	5
	call	_ZNSt3__224__is_overaligned_for_newB8ne190106Em
	local.set	6
	i32.const	1
	local.set	7
	local.get	6
	local.get	7
	i32.and 
	local.set	8
	block   	
	block   	
	local.get	8
	i32.eqz
	br_if   	0                               # 0: down to label54
# %bb.1:                                # %if.then
.Ltmp374:
	.loc	9 283 62 is_stmt 1              # emscripten/cache/sysroot/include/c++/v1/new:283:62
	local.get	4
	i32.load	4
	local.set	9
	.loc	9 283 23 is_stmt 0              # emscripten/cache/sysroot/include/c++/v1/new:283:23
	local.get	4
	local.get	9
	i32.store	0
	.loc	9 284 34 is_stmt 1              # emscripten/cache/sysroot/include/c++/v1/new:284:34
	local.get	4
	i32.load	8
	local.set	10
	.loc	9 284 42 is_stmt 0              # emscripten/cache/sysroot/include/c++/v1/new:284:42
	local.get	4
	i32.load	0
	local.set	11
	.loc	9 284 12                        # emscripten/cache/sysroot/include/c++/v1/new:284:12
	local.get	10
	local.get	11
	call	_ZNSt3__221__libcpp_operator_newB8ne190106IJmSt11align_val_tEEEPvDpT_
	local.set	12
	.loc	9 284 5                         # emscripten/cache/sysroot/include/c++/v1/new:284:5
	local.get	4
	local.get	12
	i32.store	12
	br      	1                               # 1: down to label53
.Ltmp375:
.LBB153_2:                              # %if.end
	.loc	9 0 5                           # emscripten/cache/sysroot/include/c++/v1/new:0:5
	end_block                               # label54:
	.loc	9 289 32 is_stmt 1              # emscripten/cache/sysroot/include/c++/v1/new:289:32
	local.get	4
	i32.load	8
	local.set	13
	.loc	9 289 10 is_stmt 0              # emscripten/cache/sysroot/include/c++/v1/new:289:10
	local.get	13
	call	_ZNSt3__221__libcpp_operator_newB8ne190106IJmEEEPvDpT_
	local.set	14
	.loc	9 289 3                         # emscripten/cache/sysroot/include/c++/v1/new:289:3
	local.get	4
	local.get	14
	i32.store	12
.LBB153_3:                              # %return
	.loc	9 0 3                           # emscripten/cache/sysroot/include/c++/v1/new:0:3
	end_block                               # label53:
	.loc	9 290 1 is_stmt 1               # emscripten/cache/sysroot/include/c++/v1/new:290:1
	local.get	4
	i32.load	12
	local.set	15
	i32.const	16
	local.set	16
	local.get	4
	local.get	16
	i32.add 
	local.set	17
	local.get	17
	global.set	__stack_pointer
	local.get	15
	return
	end_function
.Ltmp376:
.Lfunc_end153:
                                        # -- End function
	.section	.text._ZNSt3__221__libcpp_operator_newB8ne190106IJmSt11align_val_tEEEPvDpT_,"G",@,_ZNSt3__221__libcpp_operator_newB8ne190106IJmSt11align_val_tEEEPvDpT_,comdat
	.hidden	_ZNSt3__221__libcpp_operator_newB8ne190106IJmSt11align_val_tEEEPvDpT_ # -- Begin function _ZNSt3__221__libcpp_operator_newB8ne190106IJmSt11align_val_tEEEPvDpT_
	.weak	_ZNSt3__221__libcpp_operator_newB8ne190106IJmSt11align_val_tEEEPvDpT_
	.type	_ZNSt3__221__libcpp_operator_newB8ne190106IJmSt11align_val_tEEEPvDpT_,@function
_ZNSt3__221__libcpp_operator_newB8ne190106IJmSt11align_val_tEEEPvDpT_: # @_ZNSt3__221__libcpp_operator_newB8ne190106IJmSt11align_val_tEEEPvDpT_
.Lfunc_begin154:
	.loc	9 263 0                         # emscripten/cache/sysroot/include/c++/v1/new:263:0
	.functype	_ZNSt3__221__libcpp_operator_newB8ne190106IJmSt11align_val_tEEEPvDpT_ (i32, i32) -> (i32)
	.local  	i32, i32, i32, i32, i32, i32, i32, i32
# %bb.0:                                # %entry
	global.get	__stack_pointer
	local.set	2
	i32.const	16
	local.set	3
	local.get	2
	local.get	3
	i32.sub 
	local.set	4
	local.get	4
	global.set	__stack_pointer
	local.get	4
	local.get	0
	i32.store	12
	local.get	4
	local.get	1
	i32.store	8
.Ltmp377:
	.loc	9 265 33 prologue_end           # emscripten/cache/sysroot/include/c++/v1/new:265:33
	local.get	4
	i32.load	12
	local.set	5
	local.get	4
	i32.load	8
	local.set	6
	.loc	9 265 10 is_stmt 0              # emscripten/cache/sysroot/include/c++/v1/new:265:10
	local.get	5
	local.get	6
	call	_ZnwmSt11align_val_t
	local.set	7
	.loc	9 265 3                         # emscripten/cache/sysroot/include/c++/v1/new:265:3
	i32.const	16
	local.set	8
	local.get	4
	local.get	8
	i32.add 
	local.set	9
	local.get	9
	global.set	__stack_pointer
	local.get	7
	return
	end_function
.Ltmp378:
.Lfunc_end154:
                                        # -- End function
	.section	.text._ZNSt3__221__libcpp_operator_newB8ne190106IJmEEEPvDpT_,"G",@,_ZNSt3__221__libcpp_operator_newB8ne190106IJmEEEPvDpT_,comdat
	.hidden	_ZNSt3__221__libcpp_operator_newB8ne190106IJmEEEPvDpT_ # -- Begin function _ZNSt3__221__libcpp_operator_newB8ne190106IJmEEEPvDpT_
	.weak	_ZNSt3__221__libcpp_operator_newB8ne190106IJmEEEPvDpT_
	.type	_ZNSt3__221__libcpp_operator_newB8ne190106IJmEEEPvDpT_,@function
_ZNSt3__221__libcpp_operator_newB8ne190106IJmEEEPvDpT_: # @_ZNSt3__221__libcpp_operator_newB8ne190106IJmEEEPvDpT_
.Lfunc_begin155:
	.loc	9 263 0 is_stmt 1               # emscripten/cache/sysroot/include/c++/v1/new:263:0
	.functype	_ZNSt3__221__libcpp_operator_newB8ne190106IJmEEEPvDpT_ (i32) -> (i32)
	.local  	i32, i32, i32, i32, i32, i32, i32
# %bb.0:                                # %entry
	global.get	__stack_pointer
	local.set	1
	i32.const	16
	local.set	2
	local.get	1
	local.get	2
	i32.sub 
	local.set	3
	local.get	3
	global.set	__stack_pointer
	local.get	3
	local.get	0
	i32.store	12
.Ltmp379:
	.loc	9 265 33 prologue_end           # emscripten/cache/sysroot/include/c++/v1/new:265:33
	local.get	3
	i32.load	12
	local.set	4
	.loc	9 265 10 is_stmt 0              # emscripten/cache/sysroot/include/c++/v1/new:265:10
	local.get	4
	call	_Znwm
	local.set	5
	.loc	9 265 3                         # emscripten/cache/sysroot/include/c++/v1/new:265:3
	i32.const	16
	local.set	6
	local.get	3
	local.get	6
	i32.add 
	local.set	7
	local.get	7
	global.set	__stack_pointer
	local.get	5
	return
	end_function
.Ltmp380:
.Lfunc_end155:
                                        # -- End function
	.section	.text._ZNSt3__217__compressed_pairIPNS_6threadERNS_9allocatorIS1_EEE6secondB8ne190106Ev,"G",@,_ZNSt3__217__compressed_pairIPNS_6threadERNS_9allocatorIS1_EEE6secondB8ne190106Ev,comdat
	.hidden	_ZNSt3__217__compressed_pairIPNS_6threadERNS_9allocatorIS1_EEE6secondB8ne190106Ev # -- Begin function _ZNSt3__217__compressed_pairIPNS_6threadERNS_9allocatorIS1_EEE6secondB8ne190106Ev
	.weak	_ZNSt3__217__compressed_pairIPNS_6threadERNS_9allocatorIS1_EEE6secondB8ne190106Ev
	.type	_ZNSt3__217__compressed_pairIPNS_6threadERNS_9allocatorIS1_EEE6secondB8ne190106Ev,@function
_ZNSt3__217__compressed_pairIPNS_6threadERNS_9allocatorIS1_EEE6secondB8ne190106Ev: # @_ZNSt3__217__compressed_pairIPNS_6threadERNS_9allocatorIS1_EEE6secondB8ne190106Ev
.Lfunc_begin156:
	.loc	17 137 0 is_stmt 1              # emscripten/cache/sysroot/include/c++/v1/__memory/compressed_pair.h:137:0
	.functype	_ZNSt3__217__compressed_pairIPNS_6threadERNS_9allocatorIS1_EEE6secondB8ne190106Ev (i32) -> (i32)
	.local  	i32, i32, i32, i32, i32, i32, i32, i32, i32
# %bb.0:                                # %entry
	global.get	__stack_pointer
	local.set	1
	i32.const	16
	local.set	2
	local.get	1
	local.get	2
	i32.sub 
	local.set	3
	local.get	3
	global.set	__stack_pointer
	local.get	3
	local.get	0
	i32.store	12
	local.get	3
	i32.load	12
	local.set	4
.Ltmp381:
	.loc	17 138 33 prologue_end          # emscripten/cache/sysroot/include/c++/v1/__memory/compressed_pair.h:138:33
	i32.const	4
	local.set	5
	local.get	4
	local.get	5
	i32.add 
	local.set	6
	.loc	17 138 40 is_stmt 0             # emscripten/cache/sysroot/include/c++/v1/__memory/compressed_pair.h:138:40
	local.get	6
	call	_ZNSt3__222__compressed_pair_elemIRNS_9allocatorINS_6threadEEELi1ELb0EE5__getB8ne190106Ev
	local.set	7
	.loc	17 138 5                        # emscripten/cache/sysroot/include/c++/v1/__memory/compressed_pair.h:138:5
	i32.const	16
	local.set	8
	local.get	3
	local.get	8
	i32.add 
	local.set	9
	local.get	9
	global.set	__stack_pointer
	local.get	7
	return
	end_function
.Ltmp382:
.Lfunc_end156:
                                        # -- End function
	.section	.text._ZNSt3__222__compressed_pair_elemIRNS_9allocatorINS_6threadEEELi1ELb0EE5__getB8ne190106Ev,"G",@,_ZNSt3__222__compressed_pair_elemIRNS_9allocatorINS_6threadEEELi1ELb0EE5__getB8ne190106Ev,comdat
	.hidden	_ZNSt3__222__compressed_pair_elemIRNS_9allocatorINS_6threadEEELi1ELb0EE5__getB8ne190106Ev # -- Begin function _ZNSt3__222__compressed_pair_elemIRNS_9allocatorINS_6threadEEELi1ELb0EE5__getB8ne190106Ev
	.weak	_ZNSt3__222__compressed_pair_elemIRNS_9allocatorINS_6threadEEELi1ELb0EE5__getB8ne190106Ev
	.type	_ZNSt3__222__compressed_pair_elemIRNS_9allocatorINS_6threadEEELi1ELb0EE5__getB8ne190106Ev,@function
_ZNSt3__222__compressed_pair_elemIRNS_9allocatorINS_6threadEEELi1ELb0EE5__getB8ne190106Ev: # @_ZNSt3__222__compressed_pair_elemIRNS_9allocatorINS_6threadEEELi1ELb0EE5__getB8ne190106Ev
.Lfunc_begin157:
	.loc	17 62 0 is_stmt 1               # emscripten/cache/sysroot/include/c++/v1/__memory/compressed_pair.h:62:0
	.functype	_ZNSt3__222__compressed_pair_elemIRNS_9allocatorINS_6threadEEELi1ELb0EE5__getB8ne190106Ev (i32) -> (i32)
	.local  	i32, i32, i32, i32, i32
# %bb.0:                                # %entry
	global.get	__stack_pointer
	local.set	1
	i32.const	16
	local.set	2
	local.get	1
	local.get	2
	i32.sub 
	local.set	3
	local.get	3
	local.get	0
	i32.store	12
	local.get	3
	i32.load	12
	local.set	4
.Ltmp383:
	.loc	17 62 92 prologue_end           # emscripten/cache/sysroot/include/c++/v1/__memory/compressed_pair.h:62:92
	local.get	4
	i32.load	0
	local.set	5
	.loc	17 62 85 is_stmt 0              # emscripten/cache/sysroot/include/c++/v1/__memory/compressed_pair.h:62:85
	local.get	5
	return
	end_function
.Ltmp384:
.Lfunc_end157:
                                        # -- End function
	.section	.text._ZNSt3__217__compressed_pairIPNS_6threadERNS_9allocatorIS1_EEE5firstB8ne190106Ev,"G",@,_ZNSt3__217__compressed_pairIPNS_6threadERNS_9allocatorIS1_EEE5firstB8ne190106Ev,comdat
	.hidden	_ZNSt3__217__compressed_pairIPNS_6threadERNS_9allocatorIS1_EEE5firstB8ne190106Ev # -- Begin function _ZNSt3__217__compressed_pairIPNS_6threadERNS_9allocatorIS1_EEE5firstB8ne190106Ev
	.weak	_ZNSt3__217__compressed_pairIPNS_6threadERNS_9allocatorIS1_EEE5firstB8ne190106Ev
	.type	_ZNSt3__217__compressed_pairIPNS_6threadERNS_9allocatorIS1_EEE5firstB8ne190106Ev,@function
_ZNSt3__217__compressed_pairIPNS_6threadERNS_9allocatorIS1_EEE5firstB8ne190106Ev: # @_ZNSt3__217__compressed_pairIPNS_6threadERNS_9allocatorIS1_EEE5firstB8ne190106Ev
.Lfunc_begin158:
	.loc	17 129 0 is_stmt 1              # emscripten/cache/sysroot/include/c++/v1/__memory/compressed_pair.h:129:0
	.functype	_ZNSt3__217__compressed_pairIPNS_6threadERNS_9allocatorIS1_EEE5firstB8ne190106Ev (i32) -> (i32)
	.local  	i32, i32, i32, i32, i32, i32, i32
# %bb.0:                                # %entry
	global.get	__stack_pointer
	local.set	1
	i32.const	16
	local.set	2
	local.get	1
	local.get	2
	i32.sub 
	local.set	3
	local.get	3
	global.set	__stack_pointer
	local.get	3
	local.get	0
	i32.store	12
	local.get	3
	i32.load	12
	local.set	4
.Ltmp385:
	.loc	17 130 40 prologue_end          # emscripten/cache/sysroot/include/c++/v1/__memory/compressed_pair.h:130:40
	local.get	4
	call	_ZNSt3__222__compressed_pair_elemIPNS_6threadELi0ELb0EE5__getB8ne190106Ev
	local.set	5
	.loc	17 130 5 is_stmt 0              # emscripten/cache/sysroot/include/c++/v1/__memory/compressed_pair.h:130:5
	i32.const	16
	local.set	6
	local.get	3
	local.get	6
	i32.add 
	local.set	7
	local.get	7
	global.set	__stack_pointer
	local.get	5
	return
	end_function
.Ltmp386:
.Lfunc_end158:
                                        # -- End function
	.section	.text._ZNSt3__234__uninitialized_allocator_relocateB8ne190106INS_9allocatorINS_6threadEEES2_EEvRT_PT0_S7_S7_,"G",@,_ZNSt3__234__uninitialized_allocator_relocateB8ne190106INS_9allocatorINS_6threadEEES2_EEvRT_PT0_S7_S7_,comdat
	.hidden	_ZNSt3__234__uninitialized_allocator_relocateB8ne190106INS_9allocatorINS_6threadEEES2_EEvRT_PT0_S7_S7_ # -- Begin function _ZNSt3__234__uninitialized_allocator_relocateB8ne190106INS_9allocatorINS_6threadEEES2_EEvRT_PT0_S7_S7_
	.weak	_ZNSt3__234__uninitialized_allocator_relocateB8ne190106INS_9allocatorINS_6threadEEES2_EEvRT_PT0_S7_S7_
	.type	_ZNSt3__234__uninitialized_allocator_relocateB8ne190106INS_9allocatorINS_6threadEEES2_EEvRT_PT0_S7_S7_,@function
_ZNSt3__234__uninitialized_allocator_relocateB8ne190106INS_9allocatorINS_6threadEEES2_EEvRT_PT0_S7_S7_: # @_ZNSt3__234__uninitialized_allocator_relocateB8ne190106INS_9allocatorINS_6threadEEES2_EEvRT_PT0_S7_S7_
.Lfunc_begin159:
	.loc	33 623 0 is_stmt 1              # emscripten/cache/sysroot/include/c++/v1/__memory/uninitialized_algorithms.h:623:0
	.functype	_ZNSt3__234__uninitialized_allocator_relocateB8ne190106INS_9allocatorINS_6threadEEES2_EEvRT_PT0_S7_S7_ (i32, i32, i32, i32) -> ()
	.local  	i32, i32, i32, i32, i32, i32, i32, i32, i32, i32, i32, i32, i32, i32, i32, i32, i32, i32, i32, i32, i32, i32, i64, i32, i32, i32, i32, i32, i32, i32, i32, i32, i32, i32, i32, i32, i32, i32, i32, i32, i32, i32, i32, i32, i32, i32, i32, i32, i32, i32, i32
# %bb.0:                                # %entry
	global.get	__stack_pointer
	local.set	4
	i32.const	64
	local.set	5
	local.get	4
	local.get	5
	i32.sub 
	local.set	6
	local.get	6
	global.set	__stack_pointer
	local.get	6
	local.get	0
	i32.store	60
	local.get	6
	local.get	1
	i32.store	56
	local.get	6
	local.get	2
	i32.store	52
	local.get	6
	local.get	3
	i32.store	48
.Ltmp387:
	.loc	33 629 29 prologue_end          # emscripten/cache/sysroot/include/c++/v1/__memory/uninitialized_algorithms.h:629:29
	local.get	6
	i32.load	48
	local.set	7
	.loc	33 629 10 is_stmt 0             # emscripten/cache/sysroot/include/c++/v1/__memory/uninitialized_algorithms.h:629:10
	local.get	6
	local.get	7
	i32.store	44
	.loc	33 631 81 is_stmt 1             # emscripten/cache/sysroot/include/c++/v1/__memory/uninitialized_algorithms.h:631:81
	local.get	6
	i32.load	60
	local.set	8
	.loc	33 631 37 is_stmt 0             # emscripten/cache/sysroot/include/c++/v1/__memory/uninitialized_algorithms.h:631:37
	i32.const	16
	local.set	9
	local.get	6
	local.get	9
	i32.add 
	local.set	10
	local.get	10
	local.set	11
	i32.const	44
	local.set	12
	local.get	6
	local.get	12
	i32.add 
	local.set	13
	local.get	13
	local.set	14
	i32.const	48
	local.set	15
	local.get	6
	local.get	15
	i32.add 
	local.set	16
	local.get	16
	local.set	17
	local.get	11
	local.get	8
	local.get	14
	local.get	17
	call	_ZNSt3__229_AllocatorDestroyRangeReverseINS_9allocatorINS_6threadEEEPS2_EC2B8ne190106ERS3_RS4_S7_
	drop
	.loc	33 631 9                        # emscripten/cache/sysroot/include/c++/v1/__memory/uninitialized_algorithms.h:631:9
	i32.const	28
	local.set	18
	local.get	6
	local.get	18
	i32.add 
	local.set	19
	local.get	19
	drop
	i32.const	8
	local.set	20
	local.get	6
	local.get	20
	i32.add 
	local.set	21
	i32.const	16
	local.set	22
	local.get	6
	local.get	22
	i32.add 
	local.set	23
	local.get	23
	local.get	20
	i32.add 
	local.set	24
	local.get	24
	i32.load	0
	local.set	25
	local.get	21
	local.get	25
	i32.store	0
	local.get	6
	i64.load	16:p2align=2
	local.set	26
	local.get	6
	local.get	26
	i64.store	0
	i32.const	28
	local.set	27
	local.get	6
	local.get	27
	i32.add 
	local.set	28
	local.get	28
	local.get	6
	call	_ZNSt3__222__make_exception_guardB8ne190106INS_29_AllocatorDestroyRangeReverseINS_9allocatorINS_6threadEEEPS3_EEEENS_28__exception_guard_exceptionsIT_EES8_
	.loc	33 632 19 is_stmt 1             # emscripten/cache/sysroot/include/c++/v1/__memory/uninitialized_algorithms.h:632:19
	local.get	6
	i32.load	56
	local.set	29
	.loc	33 632 10 is_stmt 0             # emscripten/cache/sysroot/include/c++/v1/__memory/uninitialized_algorithms.h:632:10
	local.get	6
	local.get	29
	i32.store	12
.LBB159_1:                              # %while.cond
                                        # =>This Inner Loop Header: Depth=1
	.loc	33 633 12 is_stmt 1             # emscripten/cache/sysroot/include/c++/v1/__memory/uninitialized_algorithms.h:633:12
	block   	
	loop    	                                # label56:
	local.get	6
	i32.load	12
	local.set	30
	.loc	33 633 22 is_stmt 0             # emscripten/cache/sysroot/include/c++/v1/__memory/uninitialized_algorithms.h:633:22
	local.get	6
	i32.load	52
	local.set	31
	.loc	33 633 19                       # emscripten/cache/sysroot/include/c++/v1/__memory/uninitialized_algorithms.h:633:19
	local.get	30
	local.get	31
	i32.ne  
	local.set	32
	.loc	33 633 5                        # emscripten/cache/sysroot/include/c++/v1/__memory/uninitialized_algorithms.h:633:5
	i32.const	1
	local.set	33
	local.get	32
	local.get	33
	i32.and 
	local.set	34
	local.get	34
	i32.eqz
	br_if   	1                               # 1: down to label55
# %bb.2:                                # %while.body
                                        #   in Loop: Header=BB159_1 Depth=1
.Ltmp388:
	.loc	33 635 43 is_stmt 1             # emscripten/cache/sysroot/include/c++/v1/__memory/uninitialized_algorithms.h:635:43
	local.get	6
	i32.load	60
	local.set	35
	.loc	33 635 52 is_stmt 0             # emscripten/cache/sysroot/include/c++/v1/__memory/uninitialized_algorithms.h:635:52
	local.get	6
	i32.load	48
	local.set	36
	.loc	33 635 85                       # emscripten/cache/sysroot/include/c++/v1/__memory/uninitialized_algorithms.h:635:85
	local.get	6
	i32.load	12
	local.set	37
	.loc	33 635 7                        # emscripten/cache/sysroot/include/c++/v1/__memory/uninitialized_algorithms.h:635:7
	local.get	35
	local.get	36
	local.get	37
	call	_ZNSt3__216allocator_traitsINS_9allocatorINS_6threadEEEE9constructB8ne190106IS2_JS2_ETnNS_9enable_ifIXsr15__has_constructIS3_PT_DpT0_EE5valueEiE4typeELi0EEEvRS3_S8_DpOS9_
	.loc	33 639 7 is_stmt 1              # emscripten/cache/sysroot/include/c++/v1/__memory/uninitialized_algorithms.h:639:7
	local.get	6
	i32.load	12
	local.set	38
	i32.const	4
	local.set	39
	local.get	38
	local.get	39
	i32.add 
	local.set	40
	local.get	6
	local.get	40
	i32.store	12
	.loc	33 640 7                        # emscripten/cache/sysroot/include/c++/v1/__memory/uninitialized_algorithms.h:640:7
	local.get	6
	i32.load	48
	local.set	41
	i32.const	4
	local.set	42
	local.get	41
	local.get	42
	i32.add 
	local.set	43
	local.get	6
	local.get	43
	i32.store	48
.Ltmp389:
	.loc	33 633 5                        # emscripten/cache/sysroot/include/c++/v1/__memory/uninitialized_algorithms.h:633:5
	br      	0                               # 0: up to label56
.LBB159_3:                              # %while.end
	end_loop
	end_block                               # label55:
	.loc	33 642 13                       # emscripten/cache/sysroot/include/c++/v1/__memory/uninitialized_algorithms.h:642:13
	i32.const	28
	local.set	44
	local.get	6
	local.get	44
	i32.add 
	local.set	45
	local.get	45
	local.set	46
	local.get	46
	call	_ZNSt3__228__exception_guard_exceptionsINS_29_AllocatorDestroyRangeReverseINS_9allocatorINS_6threadEEEPS3_EEE10__completeB8ne190106Ev
	.loc	33 643 30                       # emscripten/cache/sysroot/include/c++/v1/__memory/uninitialized_algorithms.h:643:30
	local.get	6
	i32.load	60
	local.set	47
	.loc	33 643 39 is_stmt 0             # emscripten/cache/sysroot/include/c++/v1/__memory/uninitialized_algorithms.h:643:39
	local.get	6
	i32.load	56
	local.set	48
	.loc	33 643 48                       # emscripten/cache/sysroot/include/c++/v1/__memory/uninitialized_algorithms.h:643:48
	local.get	6
	i32.load	52
	local.set	49
	.loc	33 643 5                        # emscripten/cache/sysroot/include/c++/v1/__memory/uninitialized_algorithms.h:643:5
	local.get	47
	local.get	48
	local.get	49
	call	_ZNSt3__219__allocator_destroyB8ne190106INS_9allocatorINS_6threadEEEPS2_S4_EEvRT_T0_T1_
.Ltmp390:
	.loc	33 644 3 is_stmt 1              # emscripten/cache/sysroot/include/c++/v1/__memory/uninitialized_algorithms.h:644:3
	i32.const	28
	local.set	50
	local.get	6
	local.get	50
	i32.add 
	local.set	51
	local.get	51
	local.set	52
	local.get	52
	call	_ZNSt3__228__exception_guard_exceptionsINS_29_AllocatorDestroyRangeReverseINS_9allocatorINS_6threadEEEPS3_EEED2B8ne190106Ev
	drop
.Ltmp391:
	.loc	33 647 1                        # emscripten/cache/sysroot/include/c++/v1/__memory/uninitialized_algorithms.h:647:1
	i32.const	64
	local.set	53
	local.get	6
	local.get	53
	i32.add 
	local.set	54
	local.get	54
	global.set	__stack_pointer
	return
	end_function
.Ltmp392:
.Lfunc_end159:
                                        # -- End function
	.section	.text._ZNSt3__24swapB8ne190106IPNS_6threadEEENS_9enable_ifIXaasr21is_move_constructibleIT_EE5valuesr18is_move_assignableIS4_EE5valueEvE4typeERS4_S7_,"G",@,_ZNSt3__24swapB8ne190106IPNS_6threadEEENS_9enable_ifIXaasr21is_move_constructibleIT_EE5valuesr18is_move_assignableIS4_EE5valueEvE4typeERS4_S7_,comdat
	.hidden	_ZNSt3__24swapB8ne190106IPNS_6threadEEENS_9enable_ifIXaasr21is_move_constructibleIT_EE5valuesr18is_move_assignableIS4_EE5valueEvE4typeERS4_S7_ # -- Begin function _ZNSt3__24swapB8ne190106IPNS_6threadEEENS_9enable_ifIXaasr21is_move_constructibleIT_EE5valuesr18is_move_assignableIS4_EE5valueEvE4typeERS4_S7_
	.weak	_ZNSt3__24swapB8ne190106IPNS_6threadEEENS_9enable_ifIXaasr21is_move_constructibleIT_EE5valuesr18is_move_assignableIS4_EE5valueEvE4typeERS4_S7_
	.type	_ZNSt3__24swapB8ne190106IPNS_6threadEEENS_9enable_ifIXaasr21is_move_constructibleIT_EE5valuesr18is_move_assignableIS4_EE5valueEvE4typeERS4_S7_,@function
_ZNSt3__24swapB8ne190106IPNS_6threadEEENS_9enable_ifIXaasr21is_move_constructibleIT_EE5valuesr18is_move_assignableIS4_EE5valueEvE4typeERS4_S7_: # @_ZNSt3__24swapB8ne190106IPNS_6threadEEENS_9enable_ifIXaasr21is_move_constructibleIT_EE5valuesr18is_move_assignableIS4_EE5valueEvE4typeERS4_S7_
.Lfunc_begin160:
	.file	46 "/home/kay/Documents/Code/toolchain-wasm" "emscripten/cache/sysroot/include/c++/v1/__utility/swap.h"
	.loc	46 41 0                         # emscripten/cache/sysroot/include/c++/v1/__utility/swap.h:41:0
	.functype	_ZNSt3__24swapB8ne190106IPNS_6threadEEENS_9enable_ifIXaasr21is_move_constructibleIT_EE5valuesr18is_move_assignableIS4_EE5valueEvE4typeERS4_S7_ (i32, i32) -> ()
	.local  	i32, i32, i32, i32, i32, i32, i32, i32, i32, i32
# %bb.0:                                # %entry
	global.get	__stack_pointer
	local.set	2
	i32.const	16
	local.set	3
	local.get	2
	local.get	3
	i32.sub 
	local.set	4
	local.get	4
	local.get	0
	i32.store	12
	local.get	4
	local.get	1
	i32.store	8
.Ltmp393:
	.loc	46 42 21 prologue_end           # emscripten/cache/sysroot/include/c++/v1/__utility/swap.h:42:21
	local.get	4
	i32.load	12
	local.set	5
	.loc	46 42 11 is_stmt 0              # emscripten/cache/sysroot/include/c++/v1/__utility/swap.h:42:11
	local.get	5
	i32.load	0
	local.set	6
	.loc	46 42 7                         # emscripten/cache/sysroot/include/c++/v1/__utility/swap.h:42:7
	local.get	4
	local.get	6
	i32.store	4
	.loc	46 43 19 is_stmt 1              # emscripten/cache/sysroot/include/c++/v1/__utility/swap.h:43:19
	local.get	4
	i32.load	8
	local.set	7
	.loc	46 43 9 is_stmt 0               # emscripten/cache/sysroot/include/c++/v1/__utility/swap.h:43:9
	local.get	7
	i32.load	0
	local.set	8
	.loc	46 43 3                         # emscripten/cache/sysroot/include/c++/v1/__utility/swap.h:43:3
	local.get	4
	i32.load	12
	local.set	9
	.loc	46 43 7                         # emscripten/cache/sysroot/include/c++/v1/__utility/swap.h:43:7
	local.get	9
	local.get	8
	i32.store	0
	.loc	46 44 9 is_stmt 1               # emscripten/cache/sysroot/include/c++/v1/__utility/swap.h:44:9
	local.get	4
	i32.load	4
	local.set	10
	.loc	46 44 3 is_stmt 0               # emscripten/cache/sysroot/include/c++/v1/__utility/swap.h:44:3
	local.get	4
	i32.load	8
	local.set	11
	.loc	46 44 7                         # emscripten/cache/sysroot/include/c++/v1/__utility/swap.h:44:7
	local.get	11
	local.get	10
	i32.store	0
	.loc	46 45 1 is_stmt 1               # emscripten/cache/sysroot/include/c++/v1/__utility/swap.h:45:1
	return
	end_function
.Ltmp394:
.Lfunc_end160:
                                        # -- End function
	.section	.text._ZNKSt3__26vectorINS_6threadENS_9allocatorIS1_EEE14__annotate_newB8ne190106Em,"G",@,_ZNKSt3__26vectorINS_6threadENS_9allocatorIS1_EEE14__annotate_newB8ne190106Em,comdat
	.hidden	_ZNKSt3__26vectorINS_6threadENS_9allocatorIS1_EEE14__annotate_newB8ne190106Em # -- Begin function _ZNKSt3__26vectorINS_6threadENS_9allocatorIS1_EEE14__annotate_newB8ne190106Em
	.weak	_ZNKSt3__26vectorINS_6threadENS_9allocatorIS1_EEE14__annotate_newB8ne190106Em
	.type	_ZNKSt3__26vectorINS_6threadENS_9allocatorIS1_EEE14__annotate_newB8ne190106Em,@function
_ZNKSt3__26vectorINS_6threadENS_9allocatorIS1_EEE14__annotate_newB8ne190106Em: # @_ZNKSt3__26vectorINS_6threadENS_9allocatorIS1_EEE14__annotate_newB8ne190106Em
.Lfunc_begin161:
	.loc	8 906 0                         # emscripten/cache/sysroot/include/c++/v1/vector:906:0
	.functype	_ZNKSt3__26vectorINS_6threadENS_9allocatorIS1_EEE14__annotate_newB8ne190106Em (i32, i32) -> ()
	.local  	i32, i32, i32
# %bb.0:                                # %entry
	global.get	__stack_pointer
	local.set	2
	i32.const	16
	local.set	3
	local.get	2
	local.get	3
	i32.sub 
	local.set	4
	local.get	4
	local.get	0
	i32.store	12
	local.get	4
	local.get	1
	i32.store	8
.Ltmp395:
	.loc	8 911 3 prologue_end            # emscripten/cache/sysroot/include/c++/v1/vector:911:3
	return
	end_function
.Ltmp396:
.Lfunc_end161:
                                        # -- End function
	.section	.text._ZNSt3__222__make_exception_guardB8ne190106INS_29_AllocatorDestroyRangeReverseINS_9allocatorINS_6threadEEEPS3_EEEENS_28__exception_guard_exceptionsIT_EES8_,"G",@,_ZNSt3__222__make_exception_guardB8ne190106INS_29_AllocatorDestroyRangeReverseINS_9allocatorINS_6threadEEEPS3_EEEENS_28__exception_guard_exceptionsIT_EES8_,comdat
	.hidden	_ZNSt3__222__make_exception_guardB8ne190106INS_29_AllocatorDestroyRangeReverseINS_9allocatorINS_6threadEEEPS3_EEEENS_28__exception_guard_exceptionsIT_EES8_ # -- Begin function _ZNSt3__222__make_exception_guardB8ne190106INS_29_AllocatorDestroyRangeReverseINS_9allocatorINS_6threadEEEPS3_EEEENS_28__exception_guard_exceptionsIT_EES8_
	.weak	_ZNSt3__222__make_exception_guardB8ne190106INS_29_AllocatorDestroyRangeReverseINS_9allocatorINS_6threadEEEPS3_EEEENS_28__exception_guard_exceptionsIT_EES8_
	.type	_ZNSt3__222__make_exception_guardB8ne190106INS_29_AllocatorDestroyRangeReverseINS_9allocatorINS_6threadEEEPS3_EEEENS_28__exception_guard_exceptionsIT_EES8_,@function
_ZNSt3__222__make_exception_guardB8ne190106INS_29_AllocatorDestroyRangeReverseINS_9allocatorINS_6threadEEEPS3_EEEENS_28__exception_guard_exceptionsIT_EES8_: # @_ZNSt3__222__make_exception_guardB8ne190106INS_29_AllocatorDestroyRangeReverseINS_9allocatorINS_6threadEEEPS3_EEEENS_28__exception_guard_exceptionsIT_EES8_
.Lfunc_begin162:
	.loc	34 136 0                        # emscripten/cache/sysroot/include/c++/v1/__utility/exception_guard.h:136:0
	.functype	_ZNSt3__222__make_exception_guardB8ne190106INS_29_AllocatorDestroyRangeReverseINS_9allocatorINS_6threadEEEPS3_EEEENS_28__exception_guard_exceptionsIT_EES8_ (i32, i32) -> ()
	.local  	i32, i32, i32, i32, i32, i32, i32, i32, i32, i64, i32, i32, i32, i32, i32, i32, i64, i32, i32
# %bb.0:                                # %entry
	global.get	__stack_pointer
	local.set	2
	i32.const	32
	local.set	3
	local.get	2
	local.get	3
	i32.sub 
	local.set	4
	local.get	4
	global.set	__stack_pointer
	#DEBUG_VALUE: __make_exception_guard<std::__2::_AllocatorDestroyRangeReverse<std::__2::allocator<std::__2::thread>, std::__2::thread *> >:__rollback <- !target-index(4,1)
	local.get	4
	local.get	0
	i32.store	28
	i32.const	8
	local.set	5
.Ltmp397:
	.loc	34 137 39 prologue_end          # emscripten/cache/sysroot/include/c++/v1/__utility/exception_guard.h:137:39
	local.get	1
	local.get	5
	i32.add 
	local.set	6
	local.get	6
	i32.load	0
	local.set	7
	i32.const	16
	local.set	8
	local.get	4
	local.get	8
	i32.add 
	local.set	9
	local.get	9
	local.get	5
	i32.add 
	local.set	10
	local.get	10
	local.get	7
	i32.store	0
	local.get	1
	i64.load	0:p2align=2
	local.set	11
	local.get	4
	local.get	11
	i64.store	16
	i32.const	8
	local.set	12
	.loc	34 137 10 is_stmt 0             # emscripten/cache/sysroot/include/c++/v1/__utility/exception_guard.h:137:10
	local.get	4
	local.get	12
	i32.add 
	local.set	13
	i32.const	16
	local.set	14
	local.get	4
	local.get	14
	i32.add 
	local.set	15
	local.get	15
	local.get	12
	i32.add 
	local.set	16
	local.get	16
	i32.load	0
	local.set	17
	local.get	13
	local.get	17
	i32.store	0
	local.get	4
	i64.load	16:p2align=2
	local.set	18
	local.get	4
	local.get	18
	i64.store	0
	local.get	0
	local.get	4
	call	_ZNSt3__228__exception_guard_exceptionsINS_29_AllocatorDestroyRangeReverseINS_9allocatorINS_6threadEEEPS3_EEEC2B8ne190106ES6_
	drop
	.loc	34 137 3                        # emscripten/cache/sysroot/include/c++/v1/__utility/exception_guard.h:137:3
	i32.const	32
	local.set	19
	local.get	4
	local.get	19
	i32.add 
	local.set	20
	local.get	20
	global.set	__stack_pointer
	return
	end_function
.Ltmp398:
.Lfunc_end162:
                                        # -- End function
	.section	.text._ZNSt3__229_AllocatorDestroyRangeReverseINS_9allocatorINS_6threadEEEPS2_EC2B8ne190106ERS3_RS4_S7_,"G",@,_ZNSt3__229_AllocatorDestroyRangeReverseINS_9allocatorINS_6threadEEEPS2_EC2B8ne190106ERS3_RS4_S7_,comdat
	.hidden	_ZNSt3__229_AllocatorDestroyRangeReverseINS_9allocatorINS_6threadEEEPS2_EC2B8ne190106ERS3_RS4_S7_ # -- Begin function _ZNSt3__229_AllocatorDestroyRangeReverseINS_9allocatorINS_6threadEEEPS2_EC2B8ne190106ERS3_RS4_S7_
	.weak	_ZNSt3__229_AllocatorDestroyRangeReverseINS_9allocatorINS_6threadEEEPS2_EC2B8ne190106ERS3_RS4_S7_
	.type	_ZNSt3__229_AllocatorDestroyRangeReverseINS_9allocatorINS_6threadEEEPS2_EC2B8ne190106ERS3_RS4_S7_,@function
_ZNSt3__229_AllocatorDestroyRangeReverseINS_9allocatorINS_6threadEEEPS2_EC2B8ne190106ERS3_RS4_S7_: # @_ZNSt3__229_AllocatorDestroyRangeReverseINS_9allocatorINS_6threadEEEPS2_EC2B8ne190106ERS3_RS4_S7_
.Lfunc_begin163:
	.loc	33 526 0 is_stmt 1              # emscripten/cache/sysroot/include/c++/v1/__memory/uninitialized_algorithms.h:526:0
	.functype	_ZNSt3__229_AllocatorDestroyRangeReverseINS_9allocatorINS_6threadEEEPS2_EC2B8ne190106ERS3_RS4_S7_ (i32, i32, i32, i32) -> (i32)
	.local  	i32, i32, i32, i32, i32, i32, i32
# %bb.0:                                # %entry
	global.get	__stack_pointer
	local.set	4
	i32.const	16
	local.set	5
	local.get	4
	local.get	5
	i32.sub 
	local.set	6
	local.get	6
	local.get	0
	i32.store	12
	local.get	6
	local.get	1
	i32.store	8
	local.get	6
	local.get	2
	i32.store	4
	local.get	6
	local.get	3
	i32.store	0
	local.get	6
	i32.load	12
	local.set	7
.Ltmp399:
	.loc	33 526 18 prologue_end          # emscripten/cache/sysroot/include/c++/v1/__memory/uninitialized_algorithms.h:526:18
	local.get	6
	i32.load	8
	local.set	8
	.loc	33 526 9 is_stmt 0              # emscripten/cache/sysroot/include/c++/v1/__memory/uninitialized_algorithms.h:526:9
	local.get	7
	local.get	8
	i32.store	0
	.loc	33 526 37                       # emscripten/cache/sysroot/include/c++/v1/__memory/uninitialized_algorithms.h:526:37
	local.get	6
	i32.load	4
	local.set	9
	.loc	33 526 28                       # emscripten/cache/sysroot/include/c++/v1/__memory/uninitialized_algorithms.h:526:28
	local.get	7
	local.get	9
	i32.store	4
	.loc	33 526 55                       # emscripten/cache/sysroot/include/c++/v1/__memory/uninitialized_algorithms.h:526:55
	local.get	6
	i32.load	0
	local.set	10
	.loc	33 526 47                       # emscripten/cache/sysroot/include/c++/v1/__memory/uninitialized_algorithms.h:526:47
	local.get	7
	local.get	10
	i32.store	8
	.loc	33 526 64                       # emscripten/cache/sysroot/include/c++/v1/__memory/uninitialized_algorithms.h:526:64
	local.get	7
	return
	end_function
.Ltmp400:
.Lfunc_end163:
                                        # -- End function
	.section	.text._ZNSt3__216allocator_traitsINS_9allocatorINS_6threadEEEE9constructB8ne190106IS2_JS2_ETnNS_9enable_ifIXsr15__has_constructIS3_PT_DpT0_EE5valueEiE4typeELi0EEEvRS3_S8_DpOS9_,"G",@,_ZNSt3__216allocator_traitsINS_9allocatorINS_6threadEEEE9constructB8ne190106IS2_JS2_ETnNS_9enable_ifIXsr15__has_constructIS3_PT_DpT0_EE5valueEiE4typeELi0EEEvRS3_S8_DpOS9_,comdat
	.hidden	_ZNSt3__216allocator_traitsINS_9allocatorINS_6threadEEEE9constructB8ne190106IS2_JS2_ETnNS_9enable_ifIXsr15__has_constructIS3_PT_DpT0_EE5valueEiE4typeELi0EEEvRS3_S8_DpOS9_ # -- Begin function _ZNSt3__216allocator_traitsINS_9allocatorINS_6threadEEEE9constructB8ne190106IS2_JS2_ETnNS_9enable_ifIXsr15__has_constructIS3_PT_DpT0_EE5valueEiE4typeELi0EEEvRS3_S8_DpOS9_
	.weak	_ZNSt3__216allocator_traitsINS_9allocatorINS_6threadEEEE9constructB8ne190106IS2_JS2_ETnNS_9enable_ifIXsr15__has_constructIS3_PT_DpT0_EE5valueEiE4typeELi0EEEvRS3_S8_DpOS9_
	.type	_ZNSt3__216allocator_traitsINS_9allocatorINS_6threadEEEE9constructB8ne190106IS2_JS2_ETnNS_9enable_ifIXsr15__has_constructIS3_PT_DpT0_EE5valueEiE4typeELi0EEEvRS3_S8_DpOS9_,@function
_ZNSt3__216allocator_traitsINS_9allocatorINS_6threadEEEE9constructB8ne190106IS2_JS2_ETnNS_9enable_ifIXsr15__has_constructIS3_PT_DpT0_EE5valueEiE4typeELi0EEEvRS3_S8_DpOS9_: # @_ZNSt3__216allocator_traitsINS_9allocatorINS_6threadEEEE9constructB8ne190106IS2_JS2_ETnNS_9enable_ifIXsr15__has_constructIS3_PT_DpT0_EE5valueEiE4typeELi0EEEvRS3_S8_DpOS9_
.Lfunc_begin164:
	.loc	16 317 0 is_stmt 1              # emscripten/cache/sysroot/include/c++/v1/__memory/allocator_traits.h:317:0
	.functype	_ZNSt3__216allocator_traitsINS_9allocatorINS_6threadEEEE9constructB8ne190106IS2_JS2_ETnNS_9enable_ifIXsr15__has_constructIS3_PT_DpT0_EE5valueEiE4typeELi0EEEvRS3_S8_DpOS9_ (i32, i32, i32) -> ()
	.local  	i32, i32, i32, i32, i32, i32, i32, i32
# %bb.0:                                # %entry
	global.get	__stack_pointer
	local.set	3
	i32.const	16
	local.set	4
	local.get	3
	local.get	4
	i32.sub 
	local.set	5
