	.file	"3_emscript_atomic.cpp"
	.file	1 "/home/kay/Documents/Code/toolchain-wasm" "emscripten/cache/sysroot/include/c++/v1/__atomic/cxx_atomic_impl.h"
	.file	2 "/home/kay/Documents/Code/toolchain-wasm" "emscripten/cache/sysroot/include/c++/v1/__atomic/atomic_base.h"
	.file	3 "/home/kay/Documents/Code/toolchain-wasm" "emscripten/cache/sysroot/include/c++/v1/__atomic/memory_order.h"
	.file	4 "/home/kay/Documents/Code/toolchain-wasm" "emscripten/cache/sysroot/include/c++/v1/__atomic/atomic.h"
	.file	5 "/home/kay/Documents/Code/toolchain-wasm/code/AtomicBenchCode" "3_emscript_atomic.cpp"
	.file	6 "/home/kay/Documents/Code/toolchain-wasm" "emscripten/cache/sysroot/include/c++/v1/__thread/thread.h"
	.file	7 "/home/kay/Documents/Code/toolchain-wasm" "emscripten/cache/sysroot/include/c++/v1/vector"
	.file	8 "/home/kay/Documents/Code/toolchain-wasm" "emscripten/cache/sysroot/include/bits/alltypes.h"
	.file	9 "/home/kay/Documents/Code/toolchain-wasm" "emscripten/cache/sysroot/include/c++/v1/new"
	.file	10 "/home/kay/Documents/Code/toolchain-wasm" "emscripten/cache/sysroot/include/c++/v1/limits"
	.file	11 "/home/kay/Documents/Code/toolchain-wasm" "emscripten/cache/sysroot/include/c++/v1/__type_traits/underlying_type.h"
	.file	12 "/home/kay/Documents/Code/toolchain-wasm" "emscripten/cache/sysroot/include/c++/v1/__thread/support/pthread.h"
	.file	13 "/home/kay/Documents/Code/toolchain-wasm" "emscripten/cache/sysroot/include/c++/v1/__memory/allocator.h"
	.file	14 "/home/kay/Documents/Code/toolchain-wasm" "emscripten/cache/sysroot/include/c++/v1/__memory/allocator_traits.h"
	.file	15 "/home/kay/Documents/Code/toolchain-wasm" "emscripten/cache/sysroot/include/c++/v1/__memory/compressed_pair.h"
	.file	16 "/home/kay/Documents/Code/toolchain-wasm" "emscripten/cache/sysroot/include/c++/v1/__type_traits/type_identity.h"
	.file	17 "/home/kay/Documents/Code/toolchain-wasm" "emscripten/cache/sysroot/include/c++/v1/__iterator/wrap_iter.h"
	.file	18 "/home/kay/Documents/Code/toolchain-wasm" "emscripten/cache/sysroot/include/c++/v1/__iterator/iterator_traits.h"
	.file	19 "/home/kay/Documents/Code/toolchain-wasm" "llvm-project/build_llvm/lib/clang/20/include/__stddef_ptrdiff_t.h"
	.file	20 "/home/kay/Documents/Code/toolchain-wasm" "emscripten/cache/sysroot/include/c++/v1/__split_buffer"
	.file	21 "/home/kay/Documents/Code/toolchain-wasm" "emscripten/cache/sysroot/include/c++/v1/__type_traits/remove_reference.h"
	.file	22 "/home/kay/Documents/Code/toolchain-wasm" "emscripten/cache/sysroot/include/c++/v1/__type_traits/integral_constant.h"
	.file	23 "/home/kay/Documents/Code/toolchain-wasm" "emscripten/cache/sysroot/include/c++/v1/__memory/unique_ptr.h"
	.file	24 "/home/kay/Documents/Code/toolchain-wasm" "emscripten/cache/sysroot/include/c++/v1/stddef.h"
	.file	25 "/home/kay/Documents/Code/toolchain-wasm" "emscripten/cache/sysroot/include/c++/v1/__type_traits/add_lvalue_reference.h"
	.file	26 "/home/kay/Documents/Code/toolchain-wasm" "emscripten/cache/sysroot/include/c++/v1/__tuple/tuple_indices.h"
	.file	27 "/home/kay/Documents/Code/toolchain-wasm" "emscripten/cache/sysroot/include/c++/v1/tuple"
	.file	28 "/home/kay/Documents/Code/toolchain-wasm" "emscripten/cache/sysroot/include/c++/v1/__memory/uninitialized_algorithms.h"
	.file	29 "/home/kay/Documents/Code/toolchain-wasm" "emscripten/cache/sysroot/include/c++/v1/__utility/exception_guard.h"
	.file	30 "/home/kay/Documents/Code/toolchain-wasm" "emscripten/cache/sysroot/include/c++/v1/__iterator/reverse_iterator.h"
	.file	31 "/home/kay/Documents/Code/toolchain-wasm" "emscripten/cache/sysroot/include/c++/v1/__type_traits/remove_const.h"
	.tabletype	__indirect_function_table, funcref
	.globaltype	__stack_pointer, i32
	.functype	_Z14threadFunctionv () -> ()
	.functype	_ZNSt3__213__atomic_baseIiLb0EE5storeB8ne190106EiNS_12memory_orderE (i32, i32, i32) -> ()
	.functype	__original_main () -> (i32)
	.functype	_ZNSt3__26vectorINS_6threadENS_9allocatorIS1_EEEC2B8ne190106Ev (i32) -> (i32)
	.functype	_ZNSt3__26vectorINS_6threadENS_9allocatorIS1_EEE12emplace_backIJRFvvEEEERS1_DpOT_ (i32, i32) -> (i32)
	.functype	_ZNSt3__26vectorINS_6threadENS_9allocatorIS1_EEE5beginB8ne190106Ev (i32) -> (i32)
	.functype	_ZNSt3__26vectorINS_6threadENS_9allocatorIS1_EEE3endB8ne190106Ev (i32) -> (i32)
	.functype	_ZNSt3__2neB8ne190106IPNS_6threadEEEbRKNS_11__wrap_iterIT_EES7_ (i32, i32) -> (i32)
	.functype	_ZNKSt3__211__wrap_iterIPNS_6threadEEdeB8ne190106Ev (i32) -> (i32)
	.functype	_ZNSt3__26thread4joinEv (i32) -> ()
	.functype	_ZNSt3__211__wrap_iterIPNS_6threadEEppB8ne190106Ev (i32) -> (i32)
	.functype	_ZNKSt3__213__atomic_baseIiLb0EE4loadB8ne190106ENS_12memory_orderE (i32, i32) -> (i32)
	.functype	printf (i32, i32) -> (i32)
	.functype	_ZNSt3__26vectorINS_6threadENS_9allocatorIS1_EEED2B8ne190106Ev (i32) -> (i32)
	.functype	_ZNSt3__2eqB8ne190106IPNS_6threadEEEbRKNS_11__wrap_iterIT_EES7_ (i32, i32) -> (i32)
	.functype	_ZNKSt3__211__wrap_iterIPNS_6threadEE4baseB8ne190106Ev (i32) -> (i32)
	.functype	_ZNSt3__218__cxx_atomic_storeB8ne190106IiEEvPNS_22__cxx_atomic_base_implIT_EES2_NS_12memory_orderE (i32, i32, i32) -> ()
	.functype	_ZNSt3__217__compressed_pairIPNS_6threadENS_9allocatorIS1_EEEC2B8ne190106IDnNS_18__default_init_tagEEEOT_OT0_ (i32, i32, i32) -> (i32)
	.functype	_ZNSt3__222__compressed_pair_elemIPNS_6threadELi0ELb0EEC2B8ne190106IDnTnNS_9enable_ifIXntsr7is_sameIS3_u7__decayIT_EEE5valueEiE4typeELi0EEEOS6_ (i32, i32) -> (i32)
	.functype	_ZNSt3__222__compressed_pair_elemINS_9allocatorINS_6threadEEELi1ELb1EEC2B8ne190106ENS_18__default_init_tagE (i32) -> (i32)
	.functype	_ZNSt3__29allocatorINS_6threadEEC2B8ne190106Ev (i32) -> (i32)
	.functype	_ZNSt3__216__non_trivial_ifILb1ENS_9allocatorINS_6threadEEEEC2B8ne190106Ev (i32) -> (i32)
	.functype	_ZNSt3__26vectorINS_6threadENS_9allocatorIS1_EEE16__destroy_vectorC2B8ne190106ERS4_ (i32, i32) -> (i32)
	.functype	_ZNSt3__26vectorINS_6threadENS_9allocatorIS1_EEE16__destroy_vectorclB8ne190106Ev (i32) -> ()
	.functype	_ZNSt3__26vectorINS_6threadENS_9allocatorIS1_EEE7__clearB8ne190106Ev (i32) -> ()
	.functype	_ZNKSt3__26vectorINS_6threadENS_9allocatorIS1_EEE17__annotate_deleteB8ne190106Ev (i32) -> ()
	.functype	_ZNSt3__216allocator_traitsINS_9allocatorINS_6threadEEEE10deallocateB8ne190106ERS3_PS2_m (i32, i32, i32) -> ()
	.functype	_ZNSt3__26vectorINS_6threadENS_9allocatorIS1_EEE7__allocB8ne190106Ev (i32) -> (i32)
	.functype	_ZNKSt3__26vectorINS_6threadENS_9allocatorIS1_EEE8capacityB8ne190106Ev (i32) -> (i32)
	.functype	_ZNSt3__26vectorINS_6threadENS_9allocatorIS1_EEE22__base_destruct_at_endB8ne190106EPS1_ (i32, i32) -> ()
	.functype	_ZNSt3__216allocator_traitsINS_9allocatorINS_6threadEEEE7destroyB8ne190106IS2_TnNS_9enable_ifIXsr13__has_destroyIS3_PT_EE5valueEiE4typeELi0EEEvRS3_S8_ (i32, i32) -> ()
	.functype	_ZNSt3__212__to_addressB8ne190106INS_6threadEEEPT_S3_ (i32) -> (i32)
	.functype	_ZNSt3__29allocatorINS_6threadEE7destroyB8ne190106EPS1_ (i32, i32) -> ()
	.functype	_ZNSt3__26threadD1Ev (i32) -> (i32)
	.functype	_ZNSt3__29allocatorINS_6threadEE10deallocateB8ne190106EPS1_m (i32, i32, i32) -> ()
	.functype	_ZNSt3__219__libcpp_deallocateB8ne190106EPvmm (i32, i32, i32) -> ()
	.functype	_ZNSt3__224__is_overaligned_for_newB8ne190106Em (i32) -> (i32)
	.functype	_ZNSt3__227__do_deallocate_handle_sizeB8ne190106IJSt11align_val_tEEEvPvmDpT_ (i32, i32, i32) -> ()
	.functype	_ZNSt3__227__do_deallocate_handle_sizeB8ne190106IJEEEvPvmDpT_ (i32, i32) -> ()
	.functype	_ZNSt3__224__libcpp_operator_deleteB8ne190106IJPvmSt11align_val_tEEEvDpT_ (i32, i32, i32) -> ()
	.functype	_ZdlPvmSt11align_val_t (i32, i32, i32) -> ()
	.functype	_ZNSt3__224__libcpp_operator_deleteB8ne190106IJPvmEEEvDpT_ (i32, i32) -> ()
	.functype	_ZdlPvm (i32, i32) -> ()
	.functype	_ZNSt3__217__compressed_pairIPNS_6threadENS_9allocatorIS1_EEE6secondB8ne190106Ev (i32) -> (i32)
	.functype	_ZNSt3__222__compressed_pair_elemINS_9allocatorINS_6threadEEELi1ELb1EE5__getB8ne190106Ev (i32) -> (i32)
	.functype	_ZNKSt3__26vectorINS_6threadENS_9allocatorIS1_EEE9__end_capB8ne190106Ev (i32) -> (i32)
	.functype	_ZNKSt3__217__compressed_pairIPNS_6threadENS_9allocatorIS1_EEE5firstB8ne190106Ev (i32) -> (i32)
	.functype	_ZNKSt3__222__compressed_pair_elemIPNS_6threadELi0ELb0EE5__getB8ne190106Ev (i32) -> (i32)
	.functype	_ZNSt3__26vectorINS_6threadENS_9allocatorIS1_EEE9__end_capB8ne190106Ev (i32) -> (i32)
	.functype	_ZNSt3__26vectorINS_6threadENS_9allocatorIS1_EEE22__construct_one_at_endB8ne190106IJRFvvEEEEvDpOT_ (i32, i32) -> ()
	.functype	_ZNSt3__26vectorINS_6threadENS_9allocatorIS1_EEE24__emplace_back_slow_pathIJRFvvEEEEPS1_DpOT_ (i32, i32) -> (i32)
	.functype	_ZNSt3__217__compressed_pairIPNS_6threadENS_9allocatorIS1_EEE5firstB8ne190106Ev (i32) -> (i32)
	.functype	_ZNSt3__222__compressed_pair_elemIPNS_6threadELi0ELb0EE5__getB8ne190106Ev (i32) -> (i32)
	.functype	_ZNSt3__26vectorINS_6threadENS_9allocatorIS1_EEE21_ConstructTransactionC2B8ne190106ERS4_m (i32, i32, i32) -> (i32)
	.functype	_ZNSt3__216allocator_traitsINS_9allocatorINS_6threadEEEE9constructB8ne190106IS2_JRFvvEETnNS_9enable_ifIXsr15__has_constructIS3_PT_DpT0_EE5valueEiE4typeELi0EEEvRS3_SA_DpOSB_ (i32, i32, i32) -> ()
	.functype	_ZNSt3__26vectorINS_6threadENS_9allocatorIS1_EEE21_ConstructTransactionD2B8ne190106Ev (i32) -> (i32)
	.functype	_ZNSt3__29allocatorINS_6threadEE9constructB8ne190106IS1_JRFvvEEEEvPT_DpOT0_ (i32, i32, i32) -> ()
	.functype	_ZNSt3__26threadC2IRFvvEJETnNS_9enable_ifIXntsr7is_sameIu14__remove_cvrefIT_ES0_EE5valueEiE4typeELi0EEEOS5_DpOT0_ (i32, i32) -> (i32)
	.functype	_Znwm (i32) -> (i32)
	.functype	_ZNSt3__215__thread_structC1Ev (i32) -> (i32)
	.functype	_ZNSt3__210unique_ptrINS_15__thread_structENS_14default_deleteIS1_EEEC2B8ne190106ILb1EvEEPS1_ (i32, i32) -> (i32)
	.functype	_ZNSt3__25tupleIJNS_10unique_ptrINS_15__thread_structENS_14default_deleteIS2_EEEEPFvvEEEC2B8ne190106IJS5_RS6_ETnNS_9enable_ifIXsr4_AndINS_17integral_constantIbXeqsZT_sZT_EEENS8_17_EnableUTypesCtorIJDpT_EEEEE5valueEiE4typeELi0EEEDpOSF_ (i32, i32, i32) -> (i32)
	.functype	_ZNSt3__210unique_ptrINS_5tupleIJNS0_INS_15__thread_structENS_14default_deleteIS2_EEEEPFvvEEEENS3_IS8_EEEC2B8ne190106ILb1EvEEPS8_ (i32, i32) -> (i32)
	.functype	_ZNSt3__222__libcpp_thread_createB8ne190106EPmPFPvS1_ES1_ (i32, i32, i32) -> (i32)
	.functype	_ZNSt3__214__thread_proxyB8ne190106INS_5tupleIJNS_10unique_ptrINS_15__thread_structENS_14default_deleteIS3_EEEEPFvvEEEEEEPvSA_ (i32) -> (i32)
	.functype	_ZNKSt3__210unique_ptrINS_5tupleIJNS0_INS_15__thread_structENS_14default_deleteIS2_EEEEPFvvEEEENS3_IS8_EEE3getB8ne190106Ev (i32) -> (i32)
	.functype	_ZNSt3__210unique_ptrINS_5tupleIJNS0_INS_15__thread_structENS_14default_deleteIS2_EEEEPFvvEEEENS3_IS8_EEE7releaseB8ne190106Ev (i32) -> (i32)
	.functype	_ZNSt3__220__throw_system_errorEiPKc (i32, i32) -> ()
	.functype	_ZNSt3__210unique_ptrINS_5tupleIJNS0_INS_15__thread_structENS_14default_deleteIS2_EEEEPFvvEEEENS3_IS8_EEED2B8ne190106Ev (i32) -> (i32)
	.functype	_ZNSt3__210unique_ptrINS_15__thread_structENS_14default_deleteIS1_EEED2B8ne190106Ev (i32) -> (i32)
	.functype	_ZNSt3__217__compressed_pairIPNS_15__thread_structENS_14default_deleteIS1_EEEC2B8ne190106IRS2_NS_16__value_init_tagEEEOT_OT0_ (i32, i32, i32) -> (i32)
	.functype	_ZNSt3__222__compressed_pair_elemIPNS_15__thread_structELi0ELb0EEC2B8ne190106IRS2_TnNS_9enable_ifIXntsr7is_sameIS3_u7__decayIT_EEE5valueEiE4typeELi0EEEOS7_ (i32, i32) -> (i32)
	.functype	_ZNSt3__222__compressed_pair_elemINS_14default_deleteINS_15__thread_structEEELi1ELb1EEC2B8ne190106ENS_16__value_init_tagE (i32) -> (i32)
	.functype	_ZNSt3__212__tuple_implINS_15__tuple_indicesIJLm0ELm1EEEEJNS_10unique_ptrINS_15__thread_structENS_14default_deleteIS4_EEEEPFvvEEEC2B8ne190106IJLm0ELm1EEJS7_S9_ETpTnmJEJEJS7_RS8_EEENS1_IJXspT_EEEENS_13__tuple_typesIJDpT0_EEENS1_IJXspT1_EEEENSE_IJDpT2_EEEDpOT3_ (i32, i32, i32) -> (i32)
	.functype	_ZNSt3__212__tuple_leafILm0ENS_10unique_ptrINS_15__thread_structENS_14default_deleteIS2_EEEELb0EEC2B8ne190106IS5_TnNS_9enable_ifIXsr4_AndINS_17integral_constantIbXntu9__is_sameu14__remove_cvrefIT_ES6_EEEENS_16is_constructibleIS5_JSA_EEEEE5valueEiE4typeELi0EEEOSA_ (i32, i32) -> (i32)
	.functype	_ZNSt3__212__tuple_leafILm1EPFvvELb0EEC2B8ne190106IRS1_TnNS_9enable_ifIXsr4_AndINS_17integral_constantIbXntu9__is_sameu14__remove_cvrefIT_ES3_EEEENS_16is_constructibleIS2_JS8_EEEEE5valueEiE4typeELi0EEEOS8_ (i32, i32) -> (i32)
	.functype	_ZNSt3__210unique_ptrINS_15__thread_structENS_14default_deleteIS1_EEEC2B8ne190106EOS4_ (i32, i32) -> (i32)
	.functype	_ZNSt3__210unique_ptrINS_15__thread_structENS_14default_deleteIS1_EEE7releaseB8ne190106Ev (i32) -> (i32)
	.functype	_ZNSt3__210unique_ptrINS_15__thread_structENS_14default_deleteIS1_EEE11get_deleterB8ne190106Ev (i32) -> (i32)
	.functype	_ZNSt3__217__compressed_pairIPNS_15__thread_structENS_14default_deleteIS1_EEEC2B8ne190106IS2_S4_EEOT_OT0_ (i32, i32, i32) -> (i32)
	.functype	_ZNSt3__217__compressed_pairIPNS_15__thread_structENS_14default_deleteIS1_EEE5firstB8ne190106Ev (i32) -> (i32)
	.functype	_ZNSt3__222__compressed_pair_elemIPNS_15__thread_structELi0ELb0EE5__getB8ne190106Ev (i32) -> (i32)
	.functype	_ZNSt3__217__compressed_pairIPNS_15__thread_structENS_14default_deleteIS1_EEE6secondB8ne190106Ev (i32) -> (i32)
	.functype	_ZNSt3__222__compressed_pair_elemINS_14default_deleteINS_15__thread_structEEELi1ELb1EE5__getB8ne190106Ev (i32) -> (i32)
	.functype	_ZNSt3__222__compressed_pair_elemIPNS_15__thread_structELi0ELb0EEC2B8ne190106IS2_TnNS_9enable_ifIXntsr7is_sameIS3_u7__decayIT_EEE5valueEiE4typeELi0EEEOS6_ (i32, i32) -> (i32)
	.functype	_ZNSt3__222__compressed_pair_elemINS_14default_deleteINS_15__thread_structEEELi1ELb1EEC2B8ne190106IS3_TnNS_9enable_ifIXntsr7is_sameIS4_u7__decayIT_EEE5valueEiE4typeELi0EEEOS7_ (i32, i32) -> (i32)
	.functype	_ZNSt3__217__compressed_pairIPNS_5tupleIJNS_10unique_ptrINS_15__thread_structENS_14default_deleteIS3_EEEEPFvvEEEENS4_IS9_EEEC2B8ne190106IRSA_NS_16__value_init_tagEEEOT_OT0_ (i32, i32, i32) -> (i32)
	.functype	_ZNSt3__222__compressed_pair_elemIPNS_5tupleIJNS_10unique_ptrINS_15__thread_structENS_14default_deleteIS3_EEEEPFvvEEEELi0ELb0EEC2B8ne190106IRSA_TnNS_9enable_ifIXntsr7is_sameISB_u7__decayIT_EEE5valueEiE4typeELi0EEEOSF_ (i32, i32) -> (i32)
	.functype	_ZNSt3__222__compressed_pair_elemINS_14default_deleteINS_5tupleIJNS_10unique_ptrINS_15__thread_structENS1_IS4_EEEEPFvvEEEEEELi1ELb1EEC2B8ne190106ENS_16__value_init_tagE (i32) -> (i32)
	.functype	pthread_create (i32, i32, i32, i32) -> (i32)
	.functype	_ZNSt3__219__thread_local_dataEv () -> (i32)
	.functype	_ZNSt3__221__thread_specific_ptrINS_15__thread_structEE11set_pointerEPS1_ (i32, i32) -> ()
	.functype	_ZNSt3__23getB8ne190106ILm0EJNS_10unique_ptrINS_15__thread_structENS_14default_deleteIS2_EEEEPFvvEEEERNS_13tuple_elementIXT_ENS_5tupleIJDpT0_EEEE4typeERSC_ (i32) -> (i32)
	.functype	_ZNSt3__216__thread_executeB8ne190106INS_10unique_ptrINS_15__thread_structENS_14default_deleteIS2_EEEEPFvvEJETpTnmJEEEvRNS_5tupleIJT_T0_DpT1_EEENS_15__tuple_indicesIJXspT2_EEEE (i32) -> ()
	.functype	_ZNSt3__216__libcpp_tls_setB8ne190106EjPv (i32, i32) -> (i32)
	.functype	pthread_setspecific (i32, i32) -> (i32)
	.functype	_ZNSt3__212__tuple_leafILm0ENS_10unique_ptrINS_15__thread_structENS_14default_deleteIS2_EEEELb0EE3getB8ne190106Ev (i32) -> (i32)
	.functype	_ZNSt3__28__invokeB8ne190106IPFvvEJEEEDTclclsr3stdE7declvalIT_EEspclsr3stdE7declvalIT0_EEEEOS3_DpOS4_ (i32) -> ()
	.functype	_ZNSt3__23getB8ne190106ILm1EJNS_10unique_ptrINS_15__thread_structENS_14default_deleteIS2_EEEEPFvvEEEERNS_13tuple_elementIXT_ENS_5tupleIJDpT0_EEEE4typeERSC_ (i32) -> (i32)
	.functype	_ZNSt3__212__tuple_leafILm1EPFvvELb0EE3getB8ne190106Ev (i32) -> (i32)
	.functype	_ZNKSt3__217__compressed_pairIPNS_5tupleIJNS_10unique_ptrINS_15__thread_structENS_14default_deleteIS3_EEEEPFvvEEEENS4_IS9_EEE5firstB8ne190106Ev (i32) -> (i32)
	.functype	_ZNKSt3__222__compressed_pair_elemIPNS_5tupleIJNS_10unique_ptrINS_15__thread_structENS_14default_deleteIS3_EEEEPFvvEEEELi0ELb0EE5__getB8ne190106Ev (i32) -> (i32)
	.functype	_ZNSt3__217__compressed_pairIPNS_5tupleIJNS_10unique_ptrINS_15__thread_structENS_14default_deleteIS3_EEEEPFvvEEEENS4_IS9_EEE5firstB8ne190106Ev (i32) -> (i32)
	.functype	_ZNSt3__222__compressed_pair_elemIPNS_5tupleIJNS_10unique_ptrINS_15__thread_structENS_14default_deleteIS3_EEEEPFvvEEEELi0ELb0EE5__getB8ne190106Ev (i32) -> (i32)
	.functype	_ZNSt3__210unique_ptrINS_5tupleIJNS0_INS_15__thread_structENS_14default_deleteIS2_EEEEPFvvEEEENS3_IS8_EEE5resetB8ne190106EPS8_ (i32, i32) -> ()
	.functype	_ZNSt3__217__compressed_pairIPNS_5tupleIJNS_10unique_ptrINS_15__thread_structENS_14default_deleteIS3_EEEEPFvvEEEENS4_IS9_EEE6secondB8ne190106Ev (i32) -> (i32)
	.functype	_ZNKSt3__214default_deleteINS_5tupleIJNS_10unique_ptrINS_15__thread_structENS0_IS3_EEEEPFvvEEEEEclB8ne190106EPS8_ (i32, i32) -> ()
	.functype	_ZNSt3__222__compressed_pair_elemINS_14default_deleteINS_5tupleIJNS_10unique_ptrINS_15__thread_structENS1_IS4_EEEEPFvvEEEEEELi1ELb1EE5__getB8ne190106Ev (i32) -> (i32)
	.functype	_ZNSt3__25tupleIJNS_10unique_ptrINS_15__thread_structENS_14default_deleteIS2_EEEEPFvvEEED2Ev (i32) -> (i32)
	.functype	_ZNSt3__212__tuple_implINS_15__tuple_indicesIJLm0ELm1EEEEJNS_10unique_ptrINS_15__thread_structENS_14default_deleteIS4_EEEEPFvvEEED2Ev (i32) -> (i32)
	.functype	_ZNSt3__212__tuple_leafILm0ENS_10unique_ptrINS_15__thread_structENS_14default_deleteIS2_EEEELb0EED2Ev (i32) -> (i32)
	.functype	_ZNSt3__210unique_ptrINS_15__thread_structENS_14default_deleteIS1_EEE5resetB8ne190106EPS1_ (i32, i32) -> ()
	.functype	_ZNKSt3__214default_deleteINS_15__thread_structEEclB8ne190106EPS1_ (i32, i32) -> ()
	.functype	_ZNSt3__215__thread_structD1Ev (i32) -> (i32)
	.functype	_ZNKSt3__26vectorINS_6threadENS_9allocatorIS1_EEE11__recommendB8ne190106Em (i32, i32) -> (i32)
	.functype	_ZNKSt3__26vectorINS_6threadENS_9allocatorIS1_EEE4sizeB8ne190106Ev (i32) -> (i32)
	.functype	_ZNSt3__214__split_bufferINS_6threadERNS_9allocatorIS1_EEEC2EmmS4_ (i32, i32, i32, i32) -> (i32)
	.functype	_ZNSt3__26vectorINS_6threadENS_9allocatorIS1_EEE26__swap_out_circular_bufferERNS_14__split_bufferIS1_RS3_EE (i32, i32) -> ()
	.functype	_ZNSt3__214__split_bufferINS_6threadERNS_9allocatorIS1_EEED2Ev (i32) -> (i32)
	.functype	_ZNKSt3__26vectorINS_6threadENS_9allocatorIS1_EEE8max_sizeEv (i32) -> (i32)
	.functype	_ZNKSt3__26vectorINS_6threadENS_9allocatorIS1_EEE20__throw_length_errorB8ne190106Ev (i32) -> ()
	.functype	_ZNSt3__23maxB8ne190106ImEERKT_S3_S3_ (i32, i32) -> (i32)
	.functype	_ZNSt3__23minB8ne190106ImEERKT_S3_S3_ (i32, i32) -> (i32)
	.functype	_ZNSt3__216allocator_traitsINS_9allocatorINS_6threadEEEE8max_sizeB8ne190106IS3_TnNS_9enable_ifIXsr14__has_max_sizeIKT_EE5valueEiE4typeELi0EEEmRKS3_ (i32) -> (i32)
	.functype	_ZNKSt3__26vectorINS_6threadENS_9allocatorIS1_EEE7__allocB8ne190106Ev (i32) -> (i32)
	.functype	_ZNSt3__214numeric_limitsIlE3maxB8ne190106Ev () -> (i32)
	.functype	_ZNSt3__23minB8ne190106ImNS_6__lessIvvEEEERKT_S5_S5_T0_ (i32, i32) -> (i32)
	.functype	_ZNKSt3__26__lessIvvEclB8ne190106ImmEEbRKT_RKT0_ (i32, i32, i32) -> (i32)
	.functype	_ZNKSt3__29allocatorINS_6threadEE8max_sizeB8ne190106Ev (i32) -> (i32)
	.functype	_ZNKSt3__217__compressed_pairIPNS_6threadENS_9allocatorIS1_EEE6secondB8ne190106Ev (i32) -> (i32)
	.functype	_ZNKSt3__222__compressed_pair_elemINS_9allocatorINS_6threadEEELi1ELb1EE5__getB8ne190106Ev (i32) -> (i32)
	.functype	_ZNSt3__223__libcpp_numeric_limitsIlLb1EE3maxB8ne190106Ev () -> (i32)
	.functype	_ZNSt3__220__throw_length_errorB8ne190106EPKc (i32) -> ()
	.functype	__cxa_allocate_exception (i32) -> (i32)
	.functype	_ZNSt12length_errorC2B8ne190106EPKc (i32, i32) -> (i32)
	.functype	_ZNSt12length_errorD1Ev (i32) -> (i32)
	.functype	__cxa_throw (i32, i32, i32) -> ()
	.functype	_ZNSt11logic_errorC2EPKc (i32, i32) -> (i32)
	.functype	_ZNSt3__23maxB8ne190106ImNS_6__lessIvvEEEERKT_S5_S5_T0_ (i32, i32) -> (i32)
	.functype	_ZNSt3__217__compressed_pairIPNS_6threadERNS_9allocatorIS1_EEEC2B8ne190106IDnS5_EEOT_OT0_ (i32, i32, i32) -> (i32)
	.functype	_ZNSt3__219__allocate_at_leastB8ne190106INS_9allocatorINS_6threadEEEEENS_19__allocation_resultINS_16allocator_traitsIT_E7pointerEEERS6_m (i32, i32, i32) -> ()
	.functype	_ZNSt3__214__split_bufferINS_6threadERNS_9allocatorIS1_EEE7__allocB8ne190106Ev (i32) -> (i32)
	.functype	_ZNSt3__214__split_bufferINS_6threadERNS_9allocatorIS1_EEE9__end_capB8ne190106Ev (i32) -> (i32)
	.functype	_ZNSt3__222__compressed_pair_elemIRNS_9allocatorINS_6threadEEELi1ELb0EEC2B8ne190106IS4_TnNS_9enable_ifIXntsr7is_sameIS5_u7__decayIT_EEE5valueEiE4typeELi0EEEOS8_ (i32, i32) -> (i32)
	.functype	_ZNSt3__29allocatorINS_6threadEE8allocateB8ne190106Em (i32, i32) -> (i32)
	.functype	_ZSt28__throw_bad_array_new_lengthB8ne190106v () -> ()
	.functype	_ZNSt3__217__libcpp_allocateB8ne190106Emm (i32, i32) -> (i32)
	.functype	_ZNSt20bad_array_new_lengthC1Ev (i32) -> (i32)
	.functype	_ZNSt20bad_array_new_lengthD1Ev (i32) -> (i32)
	.functype	_ZNSt3__221__libcpp_operator_newB8ne190106IJmSt11align_val_tEEEPvDpT_ (i32, i32) -> (i32)
	.functype	_ZNSt3__221__libcpp_operator_newB8ne190106IJmEEEPvDpT_ (i32) -> (i32)
	.functype	_ZnwmSt11align_val_t (i32, i32) -> (i32)
	.functype	_ZNSt3__217__compressed_pairIPNS_6threadERNS_9allocatorIS1_EEE6secondB8ne190106Ev (i32) -> (i32)
	.functype	_ZNSt3__222__compressed_pair_elemIRNS_9allocatorINS_6threadEEELi1ELb0EE5__getB8ne190106Ev (i32) -> (i32)
	.functype	_ZNSt3__217__compressed_pairIPNS_6threadERNS_9allocatorIS1_EEE5firstB8ne190106Ev (i32) -> (i32)
	.functype	_ZNSt3__234__uninitialized_allocator_relocateB8ne190106INS_9allocatorINS_6threadEEES2_EEvRT_PT0_S7_S7_ (i32, i32, i32, i32) -> ()
	.functype	_ZNSt3__24swapB8ne190106IPNS_6threadEEENS_9enable_ifIXaasr21is_move_constructibleIT_EE5valuesr18is_move_assignableIS4_EE5valueEvE4typeERS4_S7_ (i32, i32) -> ()
	.functype	_ZNKSt3__26vectorINS_6threadENS_9allocatorIS1_EEE14__annotate_newB8ne190106Em (i32, i32) -> ()
	.functype	_ZNSt3__222__make_exception_guardB8ne190106INS_29_AllocatorDestroyRangeReverseINS_9allocatorINS_6threadEEEPS3_EEEENS_28__exception_guard_exceptionsIT_EES8_ (i32, i32) -> ()
	.functype	_ZNSt3__229_AllocatorDestroyRangeReverseINS_9allocatorINS_6threadEEEPS2_EC2B8ne190106ERS3_RS4_S7_ (i32, i32, i32, i32) -> (i32)
	.functype	_ZNSt3__216allocator_traitsINS_9allocatorINS_6threadEEEE9constructB8ne190106IS2_JS2_ETnNS_9enable_ifIXsr15__has_constructIS3_PT_DpT0_EE5valueEiE4typeELi0EEEvRS3_S8_DpOS9_ (i32, i32, i32) -> ()
	.functype	_ZNSt3__228__exception_guard_exceptionsINS_29_AllocatorDestroyRangeReverseINS_9allocatorINS_6threadEEEPS3_EEE10__completeB8ne190106Ev (i32) -> ()
	.functype	_ZNSt3__219__allocator_destroyB8ne190106INS_9allocatorINS_6threadEEEPS2_S4_EEvRT_T0_T1_ (i32, i32, i32) -> ()
	.functype	_ZNSt3__228__exception_guard_exceptionsINS_29_AllocatorDestroyRangeReverseINS_9allocatorINS_6threadEEEPS3_EEED2B8ne190106Ev (i32) -> (i32)
	.functype	_ZNSt3__228__exception_guard_exceptionsINS_29_AllocatorDestroyRangeReverseINS_9allocatorINS_6threadEEEPS3_EEEC2B8ne190106ES6_ (i32, i32) -> (i32)
	.functype	_ZNSt3__29allocatorINS_6threadEE9constructB8ne190106IS1_JS1_EEEvPT_DpOT0_ (i32, i32, i32) -> ()
	.functype	_ZNSt3__26threadC2B8ne190106EOS0_ (i32, i32) -> (i32)
	.functype	_ZNKSt3__229_AllocatorDestroyRangeReverseINS_9allocatorINS_6threadEEEPS2_EclB8ne190106Ev (i32) -> ()
	.functype	_ZNSt3__219__allocator_destroyB8ne190106INS_9allocatorINS_6threadEEENS_16reverse_iteratorIPS2_EES6_EEvRT_T0_T1_ (i32, i32, i32) -> ()
	.functype	_ZNSt3__216reverse_iteratorIPNS_6threadEEC2B8ne190106ES2_ (i32, i32) -> (i32)
	.functype	_ZNSt3__2neB8ne190106IPNS_6threadES2_EEbRKNS_16reverse_iteratorIT_EERKNS3_IT0_EE (i32, i32) -> (i32)
	.functype	_ZNSt3__212__to_addressB8ne190106INS_16reverse_iteratorIPNS_6threadEEETnNS_9enable_ifIXsr4_AndINS_8is_classIT_EENS_15_IsFancyPointerIS7_EEEE5valueEiE4typeELi0EEEu7__decayIDTclsr19__to_address_helperIS7_EE6__callclsr3stdE7declvalIRKS7_EEEEESE_ (i32) -> (i32)
	.functype	_ZNSt3__216reverse_iteratorIPNS_6threadEEppB8ne190106Ev (i32) -> (i32)
	.functype	_ZNKSt3__216reverse_iteratorIPNS_6threadEE4baseB8ne190106Ev (i32) -> (i32)
	.functype	_ZNSt3__219__to_address_helperINS_16reverse_iteratorIPNS_6threadEEEvE6__callB8ne190106ERKS4_ (i32) -> (i32)
	.functype	_ZNKSt3__216reverse_iteratorIPNS_6threadEEptB8ne190106Ev (i32) -> (i32)
	.functype	_ZNKSt3__216reverse_iteratorIPNS_6threadEEdeB8ne190106Ev (i32) -> (i32)
	.functype	_ZNSt3__214__split_bufferINS_6threadERNS_9allocatorIS1_EEE5clearB8ne190106Ev (i32) -> ()
	.functype	_ZNKSt3__214__split_bufferINS_6threadERNS_9allocatorIS1_EEE8capacityB8ne190106Ev (i32) -> (i32)
	.functype	_ZNSt3__214__split_bufferINS_6threadERNS_9allocatorIS1_EEE17__destruct_at_endB8ne190106EPS1_ (i32, i32) -> ()
	.functype	_ZNSt3__214__split_bufferINS_6threadERNS_9allocatorIS1_EEE17__destruct_at_endB8ne190106EPS1_NS_17integral_constantIbLb0EEE (i32, i32) -> ()
	.functype	_ZNKSt3__214__split_bufferINS_6threadERNS_9allocatorIS1_EEE9__end_capB8ne190106Ev (i32) -> (i32)
	.functype	_ZNKSt3__217__compressed_pairIPNS_6threadERNS_9allocatorIS1_EEE5firstB8ne190106Ev (i32) -> (i32)
	.functype	_ZNSt3__26vectorINS_6threadENS_9allocatorIS1_EEE11__make_iterB8ne190106EPS1_ (i32, i32) -> (i32)
	.functype	_ZNSt3__211__wrap_iterIPNS_6threadEEC2B8ne190106ES2_ (i32, i32) -> (i32)
	.functype	_ZNSt3__217__cxx_atomic_loadB8ne190106IiEET_PKNS_22__cxx_atomic_base_implIS1_EENS_12memory_orderE (i32, i32) -> (i32)
	.functype	main (i32, i32) -> (i32)
	.section	.text._Z14threadFunctionv,"",@
	.hidden	_Z14threadFunctionv             # -- Begin function _Z14threadFunctionv
	.globl	_Z14threadFunctionv
	.type	_Z14threadFunctionv,@function
_Z14threadFunctionv:                    # @_Z14threadFunctionv
.Lfunc_begin0:
	.loc	5 8 0                           # 3_emscript_atomic.cpp:8:0
	.functype	_Z14threadFunctionv () -> ()
	.local  	i32, i32, i32, i32, i32, i32, i32, i32, i32, i32, i32, i32, i32, i32, i32, i32, i32
# %bb.0:                                # %entry
	global.get	__stack_pointer
	local.set	0
	i32.const	16
	local.set	1
	local.get	0
	local.get	1
	i32.sub 
	local.set	2
	local.get	2
	global.set	__stack_pointer
.Ltmp0:
	.loc	5 9 10 prologue_end             # 3_emscript_atomic.cpp:9:10
	i32.const	0
	local.set	3
	local.get	2
	local.get	3
	i32.store	12
.LBB0_1:                                # %for.cond
                                        # =>This Inner Loop Header: Depth=1
.Ltmp1:
	.loc	5 9 17 is_stmt 0                # 3_emscript_atomic.cpp:9:17
	block   	
	loop    	                                # label1:
	local.get	2
	i32.load	12
	local.set	4
	.loc	5 9 19                          # 3_emscript_atomic.cpp:9:19
	i32.const	10000000
	local.set	5
	local.get	4
	local.get	5
	i32.lt_s
	local.set	6
.Ltmp2:
	.loc	5 9 2                           # 3_emscript_atomic.cpp:9:2
	i32.const	1
	local.set	7
	local.get	6
	local.get	7
	i32.and 
	local.set	8
	local.get	8
	i32.eqz
	br_if   	1                               # 1: down to label0
# %bb.2:                                # %for.body
                                        #   in Loop: Header=BB0_1 Depth=1
.Ltmp3:
	.loc	5 10 16 is_stmt 1               # 3_emscript_atomic.cpp:10:16
	i32.const	global_value
	local.set	9
	i32.const	314159
	local.set	10
	i32.const	3
	local.set	11
	local.get	9
	local.get	10
	local.get	11
	call	_ZNSt3__213__atomic_baseIiLb0EE5storeB8ne190106EiNS_12memory_orderE
.Ltmp4:
# %bb.3:                                # %for.inc
                                        #   in Loop: Header=BB0_1 Depth=1
	.loc	5 9 32                          # 3_emscript_atomic.cpp:9:32
	local.get	2
	i32.load	12
	local.set	12
	i32.const	1
	local.set	13
	local.get	12
	local.get	13
	i32.add 
	local.set	14
	local.get	2
	local.get	14
	i32.store	12
	.loc	5 9 2 is_stmt 0                 # 3_emscript_atomic.cpp:9:2
	br      	0                               # 0: up to label1
.Ltmp5:
.LBB0_4:                                # %for.end
	.loc	5 9 2                           # 3_emscript_atomic.cpp:9:2
	end_loop
	end_block                               # label0:
.Ltmp6:
	.loc	5 12 1 is_stmt 1                # 3_emscript_atomic.cpp:12:1
	i32.const	16
	local.set	15
	local.get	2
	local.get	15
	i32.add 
	local.set	16
	local.get	16
	global.set	__stack_pointer
	return
	end_function
.Ltmp7:
.Lfunc_end0:
                                        # -- End function
	.section	.text._ZNSt3__213__atomic_baseIiLb0EE5storeB8ne190106EiNS_12memory_orderE,"G",@,_ZNSt3__213__atomic_baseIiLb0EE5storeB8ne190106EiNS_12memory_orderE,comdat
	.hidden	_ZNSt3__213__atomic_baseIiLb0EE5storeB8ne190106EiNS_12memory_orderE # -- Begin function _ZNSt3__213__atomic_baseIiLb0EE5storeB8ne190106EiNS_12memory_orderE
	.weak	_ZNSt3__213__atomic_baseIiLb0EE5storeB8ne190106EiNS_12memory_orderE
	.type	_ZNSt3__213__atomic_baseIiLb0EE5storeB8ne190106EiNS_12memory_orderE,@function
_ZNSt3__213__atomic_baseIiLb0EE5storeB8ne190106EiNS_12memory_orderE: # @_ZNSt3__213__atomic_baseIiLb0EE5storeB8ne190106EiNS_12memory_orderE
.Lfunc_begin1:
	.loc	2 50 0                          # emscripten/cache/sysroot/include/c++/v1/__atomic/atomic_base.h:50:0
	.functype	_ZNSt3__213__atomic_baseIiLb0EE5storeB8ne190106EiNS_12memory_orderE (i32, i32, i32) -> ()
	.local  	i32, i32, i32, i32, i32, i32, i32, i32
# %bb.0:                                # %entry
	global.get	__stack_pointer
	local.set	3
	i32.const	16
	local.set	4
	local.get	3
	local.get	4
	i32.sub 
	local.set	5
	local.get	5
	global.set	__stack_pointer
	local.get	5
	local.get	0
	i32.store	12
	local.get	5
	local.get	1
	i32.store	8
	local.get	5
	local.get	2
	i32.store	4
	local.get	5
	i32.load	12
	local.set	6
.Ltmp8:
	.loc	2 51 51 prologue_end            # emscripten/cache/sysroot/include/c++/v1/__atomic/atomic_base.h:51:51
	local.get	5
	i32.load	8
	local.set	7
	.loc	2 51 56 is_stmt 0               # emscripten/cache/sysroot/include/c++/v1/__atomic/atomic_base.h:51:56
	local.get	5
	i32.load	4
	local.set	8
	.loc	2 51 5                          # emscripten/cache/sysroot/include/c++/v1/__atomic/atomic_base.h:51:5
	local.get	6
	local.get	7
	local.get	8
	call	_ZNSt3__218__cxx_atomic_storeB8ne190106IiEEvPNS_22__cxx_atomic_base_implIT_EES2_NS_12memory_orderE
	.loc	2 52 3 is_stmt 1                # emscripten/cache/sysroot/include/c++/v1/__atomic/atomic_base.h:52:3
	i32.const	16
	local.set	9
	local.get	5
	local.get	9
	i32.add 
	local.set	10
	local.get	10
	global.set	__stack_pointer
	return
	end_function
.Ltmp9:
.Lfunc_end1:
                                        # -- End function
	.section	.text.__original_main,"",@
	.hidden	__original_main                 # -- Begin function __original_main
	.globl	__original_main
	.type	__original_main,@function
__original_main:                        # @__original_main
.Lfunc_begin2:
	.loc	5 14 0                          # 3_emscript_atomic.cpp:14:0
	.functype	__original_main () -> (i32)
	.local  	i32, i32, i32, i32, i32, i32, i32, i32, i32, i32, i32, i32, i32, i32, i32, i32, i32, i32, i32, i32, i32, i32, i32, i32, i32, i32, i32, i32, i32, i32, i32, i32, i32, i32, i32, i32, i32, i32, i32, i32, i32, i32, i32, i32, i32, i32, i32, i32, i32, i32, i32, i32, i32, i32, i32, i32, i32, i32, i32
# %bb.0:                                # %entry
	global.get	__stack_pointer
	local.set	0
	i32.const	48
	local.set	1
	local.get	0
	local.get	1
	i32.sub 
	local.set	2
	local.get	2
	global.set	__stack_pointer
	i32.const	0
	local.set	3
	local.get	2
	local.get	3
	i32.store	44
.Ltmp10:
	.loc	5 16 27 prologue_end            # 3_emscript_atomic.cpp:16:27
	i32.const	32
	local.set	4
	local.get	2
	local.get	4
	i32.add 
	local.set	5
	local.get	5
	local.set	6
	local.get	6
	call	_ZNSt3__26vectorINS_6threadENS_9allocatorIS1_EEEC2B8ne190106Ev
	drop
	.loc	5 18 10                         # 3_emscript_atomic.cpp:18:10
	i32.const	32
	local.set	7
	local.get	2
	local.get	7
	i32.add 
	local.set	8
	local.get	8
	local.set	9
	i32.const	_Z14threadFunctionv
	local.set	10
	local.get	9
	local.get	10
	call	_ZNSt3__26vectorINS_6threadENS_9allocatorIS1_EEE12emplace_backIJRFvvEEEERS1_DpOT_
	drop
	.loc	5 19 10                         # 3_emscript_atomic.cpp:19:10
	i32.const	32
	local.set	11
	local.get	2
	local.get	11
	i32.add 
	local.set	12
	local.get	12
	local.set	13
	i32.const	_Z14threadFunctionv
	local.set	14
	local.get	13
	local.get	14
	call	_ZNSt3__26vectorINS_6threadENS_9allocatorIS1_EEE12emplace_backIJRFvvEEEERS1_DpOT_
	drop
	.loc	5 20 10                         # 3_emscript_atomic.cpp:20:10
	i32.const	32
	local.set	15
	local.get	2
	local.get	15
	i32.add 
	local.set	16
	local.get	16
	local.set	17
	i32.const	_Z14threadFunctionv
	local.set	18
	local.get	17
	local.get	18
	call	_ZNSt3__26vectorINS_6threadENS_9allocatorIS1_EEE12emplace_backIJRFvvEEEERS1_DpOT_
	drop
	.loc	5 21 10                         # 3_emscript_atomic.cpp:21:10
	i32.const	32
	local.set	19
	local.get	2
	local.get	19
	i32.add 
	local.set	20
	local.get	20
	local.set	21
	i32.const	_Z14threadFunctionv
	local.set	22
	local.get	21
	local.get	22
	call	_ZNSt3__26vectorINS_6threadENS_9allocatorIS1_EEE12emplace_backIJRFvvEEEERS1_DpOT_
	drop
.Ltmp11:
	.loc	5 23 21                         # 3_emscript_atomic.cpp:23:21
	i32.const	32
	local.set	23
	local.get	2
	local.get	23
	i32.add 
	local.set	24
	local.get	24
	local.set	25
	local.get	2
	local.get	25
	i32.store	28
	.loc	5 23 19 is_stmt 0               # 3_emscript_atomic.cpp:23:19
	local.get	2
	i32.load	28
	local.set	26
	local.get	26
	call	_ZNSt3__26vectorINS_6threadENS_9allocatorIS1_EEE5beginB8ne190106Ev
	local.set	27
	local.get	2
	local.get	27
	i32.store	24
	local.get	2
	i32.load	28
	local.set	28
	local.get	28
	call	_ZNSt3__26vectorINS_6threadENS_9allocatorIS1_EEE3endB8ne190106Ev
	local.set	29
	local.get	2
	local.get	29
	i32.store	20
.LBB2_1:                                # %for.cond
                                        # =>This Inner Loop Header: Depth=1
	block   	
	loop    	                                # label3:
	i32.const	24
	local.set	30
	local.get	2
	local.get	30
	i32.add 
	local.set	31
	local.get	31
	local.set	32
	i32.const	20
	local.set	33
	local.get	2
	local.get	33
	i32.add 
	local.set	34
	local.get	34
	local.set	35
	local.get	32
	local.get	35
	call	_ZNSt3__2neB8ne190106IPNS_6threadEEEbRKNS_11__wrap_iterIT_EES7_
	local.set	36
	i32.const	1
	local.set	37
	local.get	36
	local.get	37
	i32.and 
	local.set	38
	local.get	38
	i32.eqz
	br_if   	1                               # 1: down to label2
# %bb.2:                                # %for.body
                                        #   in Loop: Header=BB2_1 Depth=1
.Ltmp12:
	.loc	5 23 19                         # 3_emscript_atomic.cpp:23:19
	i32.const	24
	local.set	39
	local.get	2
	local.get	39
	i32.add 
	local.set	40
	local.get	40
	local.set	41
	local.get	41
	call	_ZNKSt3__211__wrap_iterIPNS_6threadEEdeB8ne190106Ev
	local.set	42
	.loc	5 23 12                         # 3_emscript_atomic.cpp:23:12
	local.get	2
	local.get	42
	i32.store	16
.Ltmp13:
	.loc	5 24 3 is_stmt 1                # 3_emscript_atomic.cpp:24:3
	local.get	2
	i32.load	16
	local.set	43
	.loc	5 24 10 is_stmt 0               # 3_emscript_atomic.cpp:24:10
	local.get	43
	call	_ZNSt3__26thread4joinEv
.Ltmp14:
# %bb.3:                                # %for.inc
                                        #   in Loop: Header=BB2_1 Depth=1
	.loc	5 23 19 is_stmt 1               # 3_emscript_atomic.cpp:23:19
	i32.const	24
	local.set	44
	local.get	2
	local.get	44
	i32.add 
	local.set	45
	local.get	45
	local.set	46
	local.get	46
	call	_ZNSt3__211__wrap_iterIPNS_6threadEEppB8ne190106Ev
	drop
	br      	0                               # 0: up to label3
.LBB2_4:                                # %for.end
	end_loop
	end_block                               # label2:
.Ltmp15:
	.loc	5 29 28                         # 3_emscript_atomic.cpp:29:28
	i32.const	global_value
	local.set	47
	i32.const	5
	local.set	48
	local.get	47
	local.get	48
	call	_ZNKSt3__213__atomic_baseIiLb0EE4loadB8ne190106ENS_12memory_orderE
	local.set	49
	.loc	5 29 6 is_stmt 0                # 3_emscript_atomic.cpp:29:6
	local.get	2
	local.get	49
	i32.store	12
	.loc	5 30 31 is_stmt 1               # 3_emscript_atomic.cpp:30:31
	local.get	2
	i32.load	12
	local.set	50
	.loc	5 30 2 is_stmt 0                # 3_emscript_atomic.cpp:30:2
	local.get	2
	local.get	50
	i32.store	0
	i32.const	.L.str
	local.set	51
	local.get	51
	local.get	2
	call	printf
	drop
	.loc	5 32 2 is_stmt 1                # 3_emscript_atomic.cpp:32:2
	i32.const	0
	local.set	52
	local.get	2
	local.get	52
	i32.store	44
	.loc	5 33 1                          # 3_emscript_atomic.cpp:33:1
	i32.const	32
	local.set	53
	local.get	2
	local.get	53
	i32.add 
	local.set	54
	local.get	54
	local.set	55
	local.get	55
	call	_ZNSt3__26vectorINS_6threadENS_9allocatorIS1_EEED2B8ne190106Ev
	drop
	local.get	2
	i32.load	44
	local.set	56
	i32.const	48
	local.set	57
	local.get	2
	local.get	57
	i32.add 
	local.set	58
	local.get	58
	global.set	__stack_pointer
	local.get	56
	return
	end_function
.Ltmp16:
.Lfunc_end2:
                                        # -- End function
	.section	.text._ZNSt3__26vectorINS_6threadENS_9allocatorIS1_EEEC2B8ne190106Ev,"G",@,_ZNSt3__26vectorINS_6threadENS_9allocatorIS1_EEEC2B8ne190106Ev,comdat
	.hidden	_ZNSt3__26vectorINS_6threadENS_9allocatorIS1_EEEC2B8ne190106Ev # -- Begin function _ZNSt3__26vectorINS_6threadENS_9allocatorIS1_EEEC2B8ne190106Ev
	.weak	_ZNSt3__26vectorINS_6threadENS_9allocatorIS1_EEEC2B8ne190106Ev
	.type	_ZNSt3__26vectorINS_6threadENS_9allocatorIS1_EEEC2B8ne190106Ev,@function
_ZNSt3__26vectorINS_6threadENS_9allocatorIS1_EEEC2B8ne190106Ev: # @_ZNSt3__26vectorINS_6threadENS_9allocatorIS1_EEEC2B8ne190106Ev
.Lfunc_begin3:
	.loc	7 431 0                         # emscripten/cache/sysroot/include/c++/v1/vector:431:0
	.functype	_ZNSt3__26vectorINS_6threadENS_9allocatorIS1_EEEC2B8ne190106Ev (i32) -> (i32)
	.local  	i32, i32, i32, i32, i32, i32, i32, i32, i32, i32, i32, i32, i32, i32, i32, i32, i32
# %bb.0:                                # %entry
	global.get	__stack_pointer
	local.set	1
	i32.const	16
	local.set	2
	local.get	1
	local.get	2
	i32.sub 
	local.set	3
	local.get	3
	global.set	__stack_pointer
	local.get	3
	local.get	0
	i32.store	12
	local.get	3
	i32.load	12
	local.set	4
.Ltmp17:
	.loc	7 766 11 prologue_end           # emscripten/cache/sysroot/include/c++/v1/vector:766:11
	i32.const	0
	local.set	5
	local.get	4
	local.get	5
	i32.store	0
	.loc	7 767 11                        # emscripten/cache/sysroot/include/c++/v1/vector:767:11
	i32.const	0
	local.set	6
	local.get	4
	local.get	6
	i32.store	4
	.loc	7 768 46                        # emscripten/cache/sysroot/include/c++/v1/vector:768:46
	i32.const	8
	local.set	7
	local.get	4
	local.get	7
	i32.add 
	local.set	8
	.loc	7 769 50                        # emscripten/cache/sysroot/include/c++/v1/vector:769:50
	i32.const	0
	local.set	9
	local.get	3
	local.get	9
	i32.store	8
	.loc	7 769 7 is_stmt 0               # emscripten/cache/sysroot/include/c++/v1/vector:769:7
	i32.const	8
	local.set	10
	local.get	3
	local.get	10
	i32.add 
	local.set	11
	local.get	11
	local.set	12
	i32.const	7
	local.set	13
	local.get	3
	local.get	13
	i32.add 
	local.set	14
	local.get	14
	local.set	15
	local.get	8
	local.get	12
	local.get	15
	call	_ZNSt3__217__compressed_pairIPNS_6threadENS_9allocatorIS1_EEEC2B8ne190106IDnNS_18__default_init_tagEEEOT_OT0_
	drop
	.loc	7 431 76 is_stmt 1              # emscripten/cache/sysroot/include/c++/v1/vector:431:76
	i32.const	16
	local.set	16
	local.get	3
	local.get	16
	i32.add 
	local.set	17
	local.get	17
	global.set	__stack_pointer
	local.get	4
	return
	end_function
.Ltmp18:
.Lfunc_end3:
                                        # -- End function
	.section	.text._ZNSt3__26vectorINS_6threadENS_9allocatorIS1_EEE12emplace_backIJRFvvEEEERS1_DpOT_,"G",@,_ZNSt3__26vectorINS_6threadENS_9allocatorIS1_EEE12emplace_backIJRFvvEEEERS1_DpOT_,comdat
	.hidden	_ZNSt3__26vectorINS_6threadENS_9allocatorIS1_EEE12emplace_backIJRFvvEEEERS1_DpOT_ # -- Begin function _ZNSt3__26vectorINS_6threadENS_9allocatorIS1_EEE12emplace_backIJRFvvEEEERS1_DpOT_
	.weak	_ZNSt3__26vectorINS_6threadENS_9allocatorIS1_EEE12emplace_backIJRFvvEEEERS1_DpOT_
	.type	_ZNSt3__26vectorINS_6threadENS_9allocatorIS1_EEE12emplace_backIJRFvvEEEERS1_DpOT_,@function
_ZNSt3__26vectorINS_6threadENS_9allocatorIS1_EEE12emplace_backIJRFvvEEEERS1_DpOT_: # @_ZNSt3__26vectorINS_6threadENS_9allocatorIS1_EEE12emplace_backIJRFvvEEEERS1_DpOT_
.Lfunc_begin4:
	.loc	7 1552 0                        # emscripten/cache/sysroot/include/c++/v1/vector:1552:0
	.functype	_ZNSt3__26vectorINS_6threadENS_9allocatorIS1_EEE12emplace_backIJRFvvEEEERS1_DpOT_ (i32, i32) -> (i32)
	.local  	i32, i32, i32, i32, i32, i32, i32, i32, i32, i32, i32, i32, i32, i32, i32, i32, i32, i32, i32, i32, i32, i32, i32
# %bb.0:                                # %entry
	global.get	__stack_pointer
	local.set	2
	i32.const	16
	local.set	3
	local.get	2
	local.get	3
	i32.sub 
	local.set	4
	local.get	4
	global.set	__stack_pointer
	local.get	4
	local.get	0
	i32.store	12
	local.get	4
	local.get	1
	i32.store	8
	local.get	4
	i32.load	12
	local.set	5
.Ltmp19:
	.loc	7 1553 25 prologue_end          # emscripten/cache/sysroot/include/c++/v1/vector:1553:25
	local.get	5
	i32.load	4
	local.set	6
	.loc	7 1553 11 is_stmt 0             # emscripten/cache/sysroot/include/c++/v1/vector:1553:11
	local.get	4
	local.get	6
	i32.store	4
.Ltmp20:
	.loc	7 1554 7 is_stmt 1              # emscripten/cache/sysroot/include/c++/v1/vector:1554:7
	local.get	4
	i32.load	4
	local.set	7
	.loc	7 1554 21 is_stmt 0             # emscripten/cache/sysroot/include/c++/v1/vector:1554:21
	local.get	5
	call	_ZNSt3__26vectorINS_6threadENS_9allocatorIS1_EEE9__end_capB8ne190106Ev
	local.set	8
	local.get	8
	i32.load	0
	local.set	9
	.loc	7 1554 13                       # emscripten/cache/sysroot/include/c++/v1/vector:1554:13
	local.get	7
	local.get	9
	i32.lt_u
	local.set	10
	i32.const	1
	local.set	11
	local.get	10
	local.get	11
	i32.and 
	local.set	12
	block   	
	block   	
	local.get	12
	i32.eqz
	br_if   	0                               # 0: down to label5
# %bb.1:                                # %if.then
.Ltmp21:
	.loc	7 1555 48 is_stmt 1             # emscripten/cache/sysroot/include/c++/v1/vector:1555:48
	local.get	4
	i32.load	8
	local.set	13
	.loc	7 1555 5 is_stmt 0              # emscripten/cache/sysroot/include/c++/v1/vector:1555:5
	local.get	5
	local.get	13
	call	_ZNSt3__26vectorINS_6threadENS_9allocatorIS1_EEE22__construct_one_at_endB8ne190106IJRFvvEEEEvDpOT_
	.loc	7 1556 5 is_stmt 1              # emscripten/cache/sysroot/include/c++/v1/vector:1556:5
	local.get	4
	i32.load	4
	local.set	14
	i32.const	4
	local.set	15
	local.get	14
	local.get	15
	i32.add 
	local.set	16
	local.get	4
	local.get	16
	i32.store	4
	.loc	7 1557 3                        # emscripten/cache/sysroot/include/c++/v1/vector:1557:3
	br      	1                               # 1: down to label4
.Ltmp22:
.LBB4_2:                                # %if.else
	.loc	7 0 3 is_stmt 0                 # emscripten/cache/sysroot/include/c++/v1/vector:0:3
	end_block                               # label5:
.Ltmp23:
	.loc	7 1558 58 is_stmt 1             # emscripten/cache/sysroot/include/c++/v1/vector:1558:58
	local.get	4
	i32.load	8
	local.set	17
	.loc	7 1558 13 is_stmt 0             # emscripten/cache/sysroot/include/c++/v1/vector:1558:13
	local.get	5
	local.get	17
	call	_ZNSt3__26vectorINS_6threadENS_9allocatorIS1_EEE24__emplace_back_slow_pathIJRFvvEEEEPS1_DpOT_
	local.set	18
	.loc	7 1558 11                       # emscripten/cache/sysroot/include/c++/v1/vector:1558:11
	local.get	4
	local.get	18
	i32.store	4
.Ltmp24:
.LBB4_3:                                # %if.end
	.loc	7 0 11                          # emscripten/cache/sysroot/include/c++/v1/vector:0:11
	end_block                               # label4:
	.loc	7 1560 18 is_stmt 1             # emscripten/cache/sysroot/include/c++/v1/vector:1560:18
	local.get	4
	i32.load	4
	local.set	19
	.loc	7 1560 16 is_stmt 0             # emscripten/cache/sysroot/include/c++/v1/vector:1560:16
	local.get	5
	local.get	19
	i32.store	4
	.loc	7 1562 12 is_stmt 1             # emscripten/cache/sysroot/include/c++/v1/vector:1562:12
	local.get	4
	i32.load	4
	local.set	20
	.loc	7 1562 18 is_stmt 0             # emscripten/cache/sysroot/include/c++/v1/vector:1562:18
	i32.const	-4
	local.set	21
	local.get	20
	local.get	21
	i32.add 
	local.set	22
	.loc	7 1562 3                        # emscripten/cache/sysroot/include/c++/v1/vector:1562:3
	i32.const	16
	local.set	23
	local.get	4
	local.get	23
	i32.add 
	local.set	24
	local.get	24
	global.set	__stack_pointer
	local.get	22
	return
	end_function
.Ltmp25:
.Lfunc_end4:
                                        # -- End function
	.section	.text._ZNSt3__26vectorINS_6threadENS_9allocatorIS1_EEE5beginB8ne190106Ev,"G",@,_ZNSt3__26vectorINS_6threadENS_9allocatorIS1_EEE5beginB8ne190106Ev,comdat
	.hidden	_ZNSt3__26vectorINS_6threadENS_9allocatorIS1_EEE5beginB8ne190106Ev # -- Begin function _ZNSt3__26vectorINS_6threadENS_9allocatorIS1_EEE5beginB8ne190106Ev
	.weak	_ZNSt3__26vectorINS_6threadENS_9allocatorIS1_EEE5beginB8ne190106Ev
	.type	_ZNSt3__26vectorINS_6threadENS_9allocatorIS1_EEE5beginB8ne190106Ev,@function
_ZNSt3__26vectorINS_6threadENS_9allocatorIS1_EEE5beginB8ne190106Ev: # @_ZNSt3__26vectorINS_6threadENS_9allocatorIS1_EEE5beginB8ne190106Ev
.Lfunc_begin5:
	.loc	7 1411 0 is_stmt 1              # emscripten/cache/sysroot/include/c++/v1/vector:1411:0
	.functype	_ZNSt3__26vectorINS_6threadENS_9allocatorIS1_EEE5beginB8ne190106Ev (i32) -> (i32)
	.local  	i32, i32, i32, i32, i32, i32, i32, i32, i32
# %bb.0:                                # %entry
	global.get	__stack_pointer
	local.set	1
	i32.const	16
	local.set	2
	local.get	1
	local.get	2
	i32.sub 
	local.set	3
	local.get	3
	global.set	__stack_pointer
	local.get	3
	local.get	0
	i32.store	8
	local.get	3
	i32.load	8
	local.set	4
.Ltmp26:
	.loc	7 1412 28 prologue_end          # emscripten/cache/sysroot/include/c++/v1/vector:1412:28
	local.get	4
	i32.load	0
	local.set	5
	.loc	7 1412 10 is_stmt 0             # emscripten/cache/sysroot/include/c++/v1/vector:1412:10
	local.get	4
	local.get	5
	call	_ZNSt3__26vectorINS_6threadENS_9allocatorIS1_EEE11__make_iterB8ne190106EPS1_
	local.set	6
	local.get	3
	local.get	6
	i32.store	12
	.loc	7 1412 3                        # emscripten/cache/sysroot/include/c++/v1/vector:1412:3
	local.get	3
	i32.load	12
	local.set	7
	i32.const	16
	local.set	8
	local.get	3
	local.get	8
	i32.add 
	local.set	9
	local.get	9
	global.set	__stack_pointer
	local.get	7
	return
	end_function
.Ltmp27:
.Lfunc_end5:
                                        # -- End function
	.section	.text._ZNSt3__26vectorINS_6threadENS_9allocatorIS1_EEE3endB8ne190106Ev,"G",@,_ZNSt3__26vectorINS_6threadENS_9allocatorIS1_EEE3endB8ne190106Ev,comdat
	.hidden	_ZNSt3__26vectorINS_6threadENS_9allocatorIS1_EEE3endB8ne190106Ev # -- Begin function _ZNSt3__26vectorINS_6threadENS_9allocatorIS1_EEE3endB8ne190106Ev
	.weak	_ZNSt3__26vectorINS_6threadENS_9allocatorIS1_EEE3endB8ne190106Ev
	.type	_ZNSt3__26vectorINS_6threadENS_9allocatorIS1_EEE3endB8ne190106Ev,@function
_ZNSt3__26vectorINS_6threadENS_9allocatorIS1_EEE3endB8ne190106Ev: # @_ZNSt3__26vectorINS_6threadENS_9allocatorIS1_EEE3endB8ne190106Ev
.Lfunc_begin6:
	.loc	7 1423 0 is_stmt 1              # emscripten/cache/sysroot/include/c++/v1/vector:1423:0
	.functype	_ZNSt3__26vectorINS_6threadENS_9allocatorIS1_EEE3endB8ne190106Ev (i32) -> (i32)
	.local  	i32, i32, i32, i32, i32, i32, i32, i32, i32
# %bb.0:                                # %entry
	global.get	__stack_pointer
	local.set	1
	i32.const	16
	local.set	2
	local.get	1
	local.get	2
	i32.sub 
	local.set	3
	local.get	3
	global.set	__stack_pointer
	local.get	3
	local.get	0
	i32.store	8
	local.get	3
	i32.load	8
	local.set	4
.Ltmp28:
	.loc	7 1424 28 prologue_end          # emscripten/cache/sysroot/include/c++/v1/vector:1424:28
	local.get	4
	i32.load	4
	local.set	5
	.loc	7 1424 10 is_stmt 0             # emscripten/cache/sysroot/include/c++/v1/vector:1424:10
	local.get	4
	local.get	5
	call	_ZNSt3__26vectorINS_6threadENS_9allocatorIS1_EEE11__make_iterB8ne190106EPS1_
	local.set	6
	local.get	3
	local.get	6
	i32.store	12
	.loc	7 1424 3                        # emscripten/cache/sysroot/include/c++/v1/vector:1424:3
	local.get	3
	i32.load	12
	local.set	7
	i32.const	16
	local.set	8
	local.get	3
	local.get	8
	i32.add 
	local.set	9
	local.get	9
	global.set	__stack_pointer
	local.get	7
	return
	end_function
.Ltmp29:
.Lfunc_end6:
                                        # -- End function
	.section	.text._ZNSt3__2neB8ne190106IPNS_6threadEEEbRKNS_11__wrap_iterIT_EES7_,"G",@,_ZNSt3__2neB8ne190106IPNS_6threadEEEbRKNS_11__wrap_iterIT_EES7_,comdat
	.hidden	_ZNSt3__2neB8ne190106IPNS_6threadEEEbRKNS_11__wrap_iterIT_EES7_ # -- Begin function _ZNSt3__2neB8ne190106IPNS_6threadEEEbRKNS_11__wrap_iterIT_EES7_
	.weak	_ZNSt3__2neB8ne190106IPNS_6threadEEEbRKNS_11__wrap_iterIT_EES7_
	.type	_ZNSt3__2neB8ne190106IPNS_6threadEEEbRKNS_11__wrap_iterIT_EES7_,@function
_ZNSt3__2neB8ne190106IPNS_6threadEEEbRKNS_11__wrap_iterIT_EES7_: # @_ZNSt3__2neB8ne190106IPNS_6threadEEEbRKNS_11__wrap_iterIT_EES7_
.Lfunc_begin7:
	.loc	17 139 0 is_stmt 1              # emscripten/cache/sysroot/include/c++/v1/__iterator/wrap_iter.h:139:0
	.functype	_ZNSt3__2neB8ne190106IPNS_6threadEEEbRKNS_11__wrap_iterIT_EES7_ (i32, i32) -> (i32)
	.local  	i32, i32, i32, i32, i32, i32, i32, i32, i32, i32, i32, i32
# %bb.0:                                # %entry
	global.get	__stack_pointer
	local.set	2
	i32.const	16
	local.set	3
	local.get	2
	local.get	3
	i32.sub 
	local.set	4
	local.get	4
	global.set	__stack_pointer
	local.get	4
	local.get	0
	i32.store	12
	local.get	4
	local.get	1
	i32.store	8
.Ltmp30:
	.loc	17 140 12 prologue_end          # emscripten/cache/sysroot/include/c++/v1/__iterator/wrap_iter.h:140:12
	local.get	4
	i32.load	12
	local.set	5
	.loc	17 140 19 is_stmt 0             # emscripten/cache/sysroot/include/c++/v1/__iterator/wrap_iter.h:140:19
	local.get	4
	i32.load	8
	local.set	6
	.loc	17 140 16                       # emscripten/cache/sysroot/include/c++/v1/__iterator/wrap_iter.h:140:16
	local.get	5
	local.get	6
	call	_ZNSt3__2eqB8ne190106IPNS_6threadEEEbRKNS_11__wrap_iterIT_EES7_
	local.set	7
	.loc	17 140 10                       # emscripten/cache/sysroot/include/c++/v1/__iterator/wrap_iter.h:140:10
	i32.const	-1
	local.set	8
	local.get	7
	local.get	8
	i32.xor 
	local.set	9
	.loc	17 140 3                        # emscripten/cache/sysroot/include/c++/v1/__iterator/wrap_iter.h:140:3
	i32.const	1
	local.set	10
	local.get	9
	local.get	10
	i32.and 
	local.set	11
	i32.const	16
	local.set	12
	local.get	4
	local.get	12
	i32.add 
	local.set	13
	local.get	13
	global.set	__stack_pointer
	local.get	11
	return
	end_function
.Ltmp31:
.Lfunc_end7:
                                        # -- End function
	.section	.text._ZNKSt3__211__wrap_iterIPNS_6threadEEdeB8ne190106Ev,"G",@,_ZNKSt3__211__wrap_iterIPNS_6threadEEdeB8ne190106Ev,comdat
	.hidden	_ZNKSt3__211__wrap_iterIPNS_6threadEEdeB8ne190106Ev # -- Begin function _ZNKSt3__211__wrap_iterIPNS_6threadEEdeB8ne190106Ev
	.weak	_ZNKSt3__211__wrap_iterIPNS_6threadEEdeB8ne190106Ev
	.type	_ZNKSt3__211__wrap_iterIPNS_6threadEEdeB8ne190106Ev,@function
_ZNKSt3__211__wrap_iterIPNS_6threadEEdeB8ne190106Ev: # @_ZNKSt3__211__wrap_iterIPNS_6threadEEdeB8ne190106Ev
.Lfunc_begin8:
	.loc	17 50 0 is_stmt 1               # emscripten/cache/sysroot/include/c++/v1/__iterator/wrap_iter.h:50:0
	.functype	_ZNKSt3__211__wrap_iterIPNS_6threadEEdeB8ne190106Ev (i32) -> (i32)
	.local  	i32, i32, i32, i32, i32
# %bb.0:                                # %entry
	global.get	__stack_pointer
	local.set	1
	i32.const	16
	local.set	2
	local.get	1
	local.get	2
	i32.sub 
	local.set	3
	local.get	3
	local.get	0
	i32.store	12
	local.get	3
	i32.load	12
	local.set	4
.Ltmp32:
	.loc	17 50 103 prologue_end          # emscripten/cache/sysroot/include/c++/v1/__iterator/wrap_iter.h:50:103
	local.get	4
	i32.load	0
	local.set	5
	.loc	17 50 95 is_stmt 0              # emscripten/cache/sysroot/include/c++/v1/__iterator/wrap_iter.h:50:95
	local.get	5
	return
	end_function
.Ltmp33:
.Lfunc_end8:
                                        # -- End function
	.section	.text._ZNSt3__211__wrap_iterIPNS_6threadEEppB8ne190106Ev,"G",@,_ZNSt3__211__wrap_iterIPNS_6threadEEppB8ne190106Ev,comdat
	.hidden	_ZNSt3__211__wrap_iterIPNS_6threadEEppB8ne190106Ev # -- Begin function _ZNSt3__211__wrap_iterIPNS_6threadEEppB8ne190106Ev
	.weak	_ZNSt3__211__wrap_iterIPNS_6threadEEppB8ne190106Ev
	.type	_ZNSt3__211__wrap_iterIPNS_6threadEEppB8ne190106Ev,@function
_ZNSt3__211__wrap_iterIPNS_6threadEEppB8ne190106Ev: # @_ZNSt3__211__wrap_iterIPNS_6threadEEppB8ne190106Ev
.Lfunc_begin9:
	.loc	17 54 0 is_stmt 1               # emscripten/cache/sysroot/include/c++/v1/__iterator/wrap_iter.h:54:0
	.functype	_ZNSt3__211__wrap_iterIPNS_6threadEEppB8ne190106Ev (i32) -> (i32)
	.local  	i32, i32, i32, i32, i32, i32, i32
# %bb.0:                                # %entry
	global.get	__stack_pointer
	local.set	1
	i32.const	16
	local.set	2
	local.get	1
	local.get	2
	i32.sub 
	local.set	3
	local.get	3
	local.get	0
	i32.store	12
	local.get	3
	i32.load	12
	local.set	4
.Ltmp34:
	.loc	17 55 5 prologue_end            # emscripten/cache/sysroot/include/c++/v1/__iterator/wrap_iter.h:55:5
	local.get	4
	i32.load	0
	local.set	5
	i32.const	4
	local.set	6
	local.get	5
	local.get	6
	i32.add 
	local.set	7
	local.get	4
	local.get	7
	i32.store	0
	.loc	17 56 5                         # emscripten/cache/sysroot/include/c++/v1/__iterator/wrap_iter.h:56:5
	local.get	4
	return
	end_function
.Ltmp35:
.Lfunc_end9:
                                        # -- End function
	.section	.text._ZNKSt3__213__atomic_baseIiLb0EE4loadB8ne190106ENS_12memory_orderE,"G",@,_ZNKSt3__213__atomic_baseIiLb0EE4loadB8ne190106ENS_12memory_orderE,comdat
	.hidden	_ZNKSt3__213__atomic_baseIiLb0EE4loadB8ne190106ENS_12memory_orderE # -- Begin function _ZNKSt3__213__atomic_baseIiLb0EE4loadB8ne190106ENS_12memory_orderE
	.weak	_ZNKSt3__213__atomic_baseIiLb0EE4loadB8ne190106ENS_12memory_orderE
	.type	_ZNKSt3__213__atomic_baseIiLb0EE4loadB8ne190106ENS_12memory_orderE,@function
_ZNKSt3__213__atomic_baseIiLb0EE4loadB8ne190106ENS_12memory_orderE: # @_ZNKSt3__213__atomic_baseIiLb0EE4loadB8ne190106ENS_12memory_orderE
.Lfunc_begin10:
	.loc	2 58 0                          # emscripten/cache/sysroot/include/c++/v1/__atomic/atomic_base.h:58:0
	.functype	_ZNKSt3__213__atomic_baseIiLb0EE4loadB8ne190106ENS_12memory_orderE (i32, i32) -> (i32)
	.local  	i32, i32, i32, i32, i32, i32, i32, i32
# %bb.0:                                # %entry
	global.get	__stack_pointer
	local.set	2
	i32.const	16
	local.set	3
	local.get	2
	local.get	3
	i32.sub 
	local.set	4
	local.get	4
	global.set	__stack_pointer
	local.get	4
	local.get	0
	i32.store	12
	local.get	4
	local.get	1
	i32.store	8
	local.get	4
	i32.load	12
	local.set	5
.Ltmp36:
	.loc	2 59 57 prologue_end            # emscripten/cache/sysroot/include/c++/v1/__atomic/atomic_base.h:59:57
	local.get	4
	i32.load	8
	local.set	6
	.loc	2 59 12 is_stmt 0               # emscripten/cache/sysroot/include/c++/v1/__atomic/atomic_base.h:59:12
	local.get	5
	local.get	6
	call	_ZNSt3__217__cxx_atomic_loadB8ne190106IiEET_PKNS_22__cxx_atomic_base_implIS1_EENS_12memory_orderE
	local.set	7
	.loc	2 59 5                          # emscripten/cache/sysroot/include/c++/v1/__atomic/atomic_base.h:59:5
	i32.const	16
	local.set	8
	local.get	4
	local.get	8
	i32.add 
	local.set	9
	local.get	9
	global.set	__stack_pointer
	local.get	7
	return
	end_function
.Ltmp37:
.Lfunc_end10:
                                        # -- End function
	.section	.text._ZNSt3__26vectorINS_6threadENS_9allocatorIS1_EEED2B8ne190106Ev,"G",@,_ZNSt3__26vectorINS_6threadENS_9allocatorIS1_EEED2B8ne190106Ev,comdat
	.hidden	_ZNSt3__26vectorINS_6threadENS_9allocatorIS1_EEED2B8ne190106Ev # -- Begin function _ZNSt3__26vectorINS_6threadENS_9allocatorIS1_EEED2B8ne190106Ev
	.weak	_ZNSt3__26vectorINS_6threadENS_9allocatorIS1_EEED2B8ne190106Ev
	.type	_ZNSt3__26vectorINS_6threadENS_9allocatorIS1_EEED2B8ne190106Ev,@function
_ZNSt3__26vectorINS_6threadENS_9allocatorIS1_EEED2B8ne190106Ev: # @_ZNSt3__26vectorINS_6threadENS_9allocatorIS1_EEED2B8ne190106Ev
.Lfunc_begin11:
	.loc	7 541 0 is_stmt 1               # emscripten/cache/sysroot/include/c++/v1/vector:541:0
	.functype	_ZNSt3__26vectorINS_6threadENS_9allocatorIS1_EEED2B8ne190106Ev (i32) -> (i32)
	.local  	i32, i32, i32, i32, i32, i32, i32, i32, i32, i32, i32, i32
# %bb.0:                                # %entry
	global.get	__stack_pointer
	local.set	1
	i32.const	16
	local.set	2
	local.get	1
	local.get	2
	i32.sub 
	local.set	3
	local.get	3
	global.set	__stack_pointer
	local.get	3
	local.get	0
	i32.store	12
	local.get	3
	i32.load	12
	local.set	4
.Ltmp38:
	.loc	7 541 67 prologue_end           # emscripten/cache/sysroot/include/c++/v1/vector:541:67
	i32.const	8
	local.set	5
	local.get	3
	local.get	5
	i32.add 
	local.set	6
	local.get	6
	local.set	7
	local.get	7
	local.get	4
	call	_ZNSt3__26vectorINS_6threadENS_9allocatorIS1_EEE16__destroy_vectorC2B8ne190106ERS4_
	drop
	i32.const	8
	local.set	8
	local.get	3
	local.get	8
	i32.add 
	local.set	9
	local.get	9
	local.set	10
	local.get	10
	call	_ZNSt3__26vectorINS_6threadENS_9allocatorIS1_EEE16__destroy_vectorclB8ne190106Ev
.Ltmp39:
	.loc	7 541 95 is_stmt 0              # emscripten/cache/sysroot/include/c++/v1/vector:541:95
	i32.const	16
	local.set	11
	local.get	3
	local.get	11
	i32.add 
	local.set	12
	local.get	12
	global.set	__stack_pointer
	local.get	4
	return
	end_function
.Ltmp40:
.Lfunc_end11:
                                        # -- End function
	.section	.text._ZNSt3__2eqB8ne190106IPNS_6threadEEEbRKNS_11__wrap_iterIT_EES7_,"G",@,_ZNSt3__2eqB8ne190106IPNS_6threadEEEbRKNS_11__wrap_iterIT_EES7_,comdat
	.hidden	_ZNSt3__2eqB8ne190106IPNS_6threadEEEbRKNS_11__wrap_iterIT_EES7_ # -- Begin function _ZNSt3__2eqB8ne190106IPNS_6threadEEEbRKNS_11__wrap_iterIT_EES7_
	.weak	_ZNSt3__2eqB8ne190106IPNS_6threadEEEbRKNS_11__wrap_iterIT_EES7_
	.type	_ZNSt3__2eqB8ne190106IPNS_6threadEEEbRKNS_11__wrap_iterIT_EES7_,@function
_ZNSt3__2eqB8ne190106IPNS_6threadEEEbRKNS_11__wrap_iterIT_EES7_: # @_ZNSt3__2eqB8ne190106IPNS_6threadEEEbRKNS_11__wrap_iterIT_EES7_
.Lfunc_begin12:
	.loc	17 114 0 is_stmt 1              # emscripten/cache/sysroot/include/c++/v1/__iterator/wrap_iter.h:114:0
	.functype	_ZNSt3__2eqB8ne190106IPNS_6threadEEEbRKNS_11__wrap_iterIT_EES7_ (i32, i32) -> (i32)
	.local  	i32, i32, i32, i32, i32, i32, i32, i32, i32, i32, i32, i32
# %bb.0:                                # %entry
	global.get	__stack_pointer
	local.set	2
	i32.const	16
	local.set	3
	local.get	2
	local.get	3
	i32.sub 
	local.set	4
	local.get	4
	global.set	__stack_pointer
	local.get	4
	local.get	0
	i32.store	12
	local.get	4
	local.get	1
	i32.store	8
.Ltmp41:
	.loc	17 115 10 prologue_end          # emscripten/cache/sysroot/include/c++/v1/__iterator/wrap_iter.h:115:10
	local.get	4
	i32.load	12
	local.set	5
	.loc	17 115 14 is_stmt 0             # emscripten/cache/sysroot/include/c++/v1/__iterator/wrap_iter.h:115:14
	local.get	5
	call	_ZNKSt3__211__wrap_iterIPNS_6threadEE4baseB8ne190106Ev
	local.set	6
	.loc	17 115 24                       # emscripten/cache/sysroot/include/c++/v1/__iterator/wrap_iter.h:115:24
	local.get	4
	i32.load	8
	local.set	7
	.loc	17 115 28                       # emscripten/cache/sysroot/include/c++/v1/__iterator/wrap_iter.h:115:28
	local.get	7
	call	_ZNKSt3__211__wrap_iterIPNS_6threadEE4baseB8ne190106Ev
	local.set	8
	.loc	17 115 21                       # emscripten/cache/sysroot/include/c++/v1/__iterator/wrap_iter.h:115:21
	local.get	6
	local.get	8
	i32.eq  
	local.set	9
	.loc	17 115 3                        # emscripten/cache/sysroot/include/c++/v1/__iterator/wrap_iter.h:115:3
	i32.const	1
	local.set	10
	local.get	9
	local.get	10
	i32.and 
	local.set	11
	i32.const	16
	local.set	12
	local.get	4
	local.get	12
	i32.add 
	local.set	13
	local.get	13
	global.set	__stack_pointer
	local.get	11
	return
	end_function
.Ltmp42:
.Lfunc_end12:
                                        # -- End function
	.section	.text._ZNKSt3__211__wrap_iterIPNS_6threadEE4baseB8ne190106Ev,"G",@,_ZNKSt3__211__wrap_iterIPNS_6threadEE4baseB8ne190106Ev,comdat
	.hidden	_ZNKSt3__211__wrap_iterIPNS_6threadEE4baseB8ne190106Ev # -- Begin function _ZNKSt3__211__wrap_iterIPNS_6threadEE4baseB8ne190106Ev
	.weak	_ZNKSt3__211__wrap_iterIPNS_6threadEE4baseB8ne190106Ev
	.type	_ZNKSt3__211__wrap_iterIPNS_6threadEE4baseB8ne190106Ev,@function
_ZNKSt3__211__wrap_iterIPNS_6threadEE4baseB8ne190106Ev: # @_ZNKSt3__211__wrap_iterIPNS_6threadEE4baseB8ne190106Ev
.Lfunc_begin13:
	.loc	17 93 0 is_stmt 1               # emscripten/cache/sysroot/include/c++/v1/__iterator/wrap_iter.h:93:0
	.functype	_ZNKSt3__211__wrap_iterIPNS_6threadEE4baseB8ne190106Ev (i32) -> (i32)
	.local  	i32, i32, i32, i32, i32
# %bb.0:                                # %entry
	global.get	__stack_pointer
	local.set	1
	i32.const	16
	local.set	2
	local.get	1
	local.get	2
	i32.sub 
	local.set	3
	local.get	3
	local.get	0
	i32.store	12
	local.get	3
	i32.load	12
	local.set	4
.Ltmp43:
	.loc	17 93 101 prologue_end          # emscripten/cache/sysroot/include/c++/v1/__iterator/wrap_iter.h:93:101
	local.get	4
	i32.load	0
	local.set	5
	.loc	17 93 94 is_stmt 0              # emscripten/cache/sysroot/include/c++/v1/__iterator/wrap_iter.h:93:94
	local.get	5
	return
	end_function
.Ltmp44:
.Lfunc_end13:
                                        # -- End function
	.section	.text._ZNSt3__218__cxx_atomic_storeB8ne190106IiEEvPNS_22__cxx_atomic_base_implIT_EES2_NS_12memory_orderE,"G",@,_ZNSt3__218__cxx_atomic_storeB8ne190106IiEEvPNS_22__cxx_atomic_base_implIT_EES2_NS_12memory_orderE,comdat
	.hidden	_ZNSt3__218__cxx_atomic_storeB8ne190106IiEEvPNS_22__cxx_atomic_base_implIT_EES2_NS_12memory_orderE # -- Begin function _ZNSt3__218__cxx_atomic_storeB8ne190106IiEEvPNS_22__cxx_atomic_base_implIT_EES2_NS_12memory_orderE
	.weak	_ZNSt3__218__cxx_atomic_storeB8ne190106IiEEvPNS_22__cxx_atomic_base_implIT_EES2_NS_12memory_orderE
	.type	_ZNSt3__218__cxx_atomic_storeB8ne190106IiEEvPNS_22__cxx_atomic_base_implIT_EES2_NS_12memory_orderE,@function
_ZNSt3__218__cxx_atomic_storeB8ne190106IiEEvPNS_22__cxx_atomic_base_implIT_EES2_NS_12memory_orderE: # @_ZNSt3__218__cxx_atomic_storeB8ne190106IiEEvPNS_22__cxx_atomic_base_implIT_EES2_NS_12memory_orderE
.Lfunc_begin14:
	.loc	1 303 0 is_stmt 1               # emscripten/cache/sysroot/include/c++/v1/__atomic/cxx_atomic_impl.h:303:0
	.functype	_ZNSt3__218__cxx_atomic_storeB8ne190106IiEEvPNS_22__cxx_atomic_base_implIT_EES2_NS_12memory_orderE (i32, i32, i32) -> ()
	.local  	i32, i32, i32, i32, i32, i32, i32, i32, i32, i32, i32, i32
# %bb.0:                                # %entry
	global.get	__stack_pointer
	local.set	3
	i32.const	16
	local.set	4
	local.get	3
	local.get	4
	i32.sub 
	local.set	5
	local.get	5
	local.get	0
	i32.store	12
	local.get	5
	local.get	1
	i32.store	8
	local.get	5
	local.get	2
	i32.store	4
.Ltmp45:
	.loc	1 304 37 prologue_end           # emscripten/cache/sysroot/include/c++/v1/__atomic/cxx_atomic_impl.h:304:37
	local.get	5
	i32.load	12
	local.set	6
	.loc	1 304 102 is_stmt 0             # emscripten/cache/sysroot/include/c++/v1/__atomic/cxx_atomic_impl.h:304:102
	local.get	5
	i32.load	4
	local.set	7
	.loc	1 304 54                        # emscripten/cache/sysroot/include/c++/v1/__atomic/cxx_atomic_impl.h:304:54
	local.get	5
	i32.load	8
	local.set	8
	.loc	1 304 3                         # emscripten/cache/sysroot/include/c++/v1/__atomic/cxx_atomic_impl.h:304:3
	local.get	5
	local.get	8
	i32.store	0
	i32.const	-3
	local.set	9
	local.get	7
	local.get	9
	i32.add 
	local.set	10
	i32.const	2
	local.set	11
	local.get	10
	local.get	11
	i32.gt_u
	drop
	block   	
	block   	
	block   	
	block   	
	local.get	10
	br_table 	{1, 0, 2, 0}            # 0: down to label9
                                        # 2: down to label7
.LBB14_1:                               # %monotonic
	.loc	1 0 3                           # emscripten/cache/sysroot/include/c++/v1/__atomic/cxx_atomic_impl.h:0:3
	end_block                               # label9:
	.loc	1 304 3                         # emscripten/cache/sysroot/include/c++/v1/__atomic/cxx_atomic_impl.h:304:3
	local.get	5
	i32.load	0
	local.set	12
	local.get	6
	local.get	12
	i32.atomic.store	0
	br      	2                               # 2: down to label6
.LBB14_2:                               # %release
	.loc	1 0 3                           # emscripten/cache/sysroot/include/c++/v1/__atomic/cxx_atomic_impl.h:0:3
	end_block                               # label8:
	.loc	1 304 3                         # emscripten/cache/sysroot/include/c++/v1/__atomic/cxx_atomic_impl.h:304:3
	local.get	5
	i32.load	0
	local.set	13
	local.get	6
	local.get	13
	i32.atomic.store	0
	br      	1                               # 1: down to label6
.LBB14_3:                               # %seqcst
	.loc	1 0 3                           # emscripten/cache/sysroot/include/c++/v1/__atomic/cxx_atomic_impl.h:0:3
	end_block                               # label7:
	.loc	1 304 3                         # emscripten/cache/sysroot/include/c++/v1/__atomic/cxx_atomic_impl.h:304:3
	local.get	5
	i32.load	0
	local.set	14
	local.get	6
	local.get	14
	i32.atomic.store	0
.LBB14_4:                               # %atomic.continue
	.loc	1 0 3                           # emscripten/cache/sysroot/include/c++/v1/__atomic/cxx_atomic_impl.h:0:3
	end_block                               # label6:
	.loc	1 305 1 is_stmt 1               # emscripten/cache/sysroot/include/c++/v1/__atomic/cxx_atomic_impl.h:305:1
	return
	end_function
.Ltmp46:
.Lfunc_end14:
                                        # -- End function
	.section	.text._ZNSt3__217__compressed_pairIPNS_6threadENS_9allocatorIS1_EEEC2B8ne190106IDnNS_18__default_init_tagEEEOT_OT0_,"G",@,_ZNSt3__217__compressed_pairIPNS_6threadENS_9allocatorIS1_EEEC2B8ne190106IDnNS_18__default_init_tagEEEOT_OT0_,comdat
	.hidden	_ZNSt3__217__compressed_pairIPNS_6threadENS_9allocatorIS1_EEEC2B8ne190106IDnNS_18__default_init_tagEEEOT_OT0_ # -- Begin function _ZNSt3__217__compressed_pairIPNS_6threadENS_9allocatorIS1_EEEC2B8ne190106IDnNS_18__default_init_tagEEEOT_OT0_
	.weak	_ZNSt3__217__compressed_pairIPNS_6threadENS_9allocatorIS1_EEEC2B8ne190106IDnNS_18__default_init_tagEEEOT_OT0_
	.type	_ZNSt3__217__compressed_pairIPNS_6threadENS_9allocatorIS1_EEEC2B8ne190106IDnNS_18__default_init_tagEEEOT_OT0_,@function
_ZNSt3__217__compressed_pairIPNS_6threadENS_9allocatorIS1_EEEC2B8ne190106IDnNS_18__default_init_tagEEEOT_OT0_: # @_ZNSt3__217__compressed_pairIPNS_6threadENS_9allocatorIS1_EEEC2B8ne190106IDnNS_18__default_init_tagEEEOT_OT0_
.Lfunc_begin15:
	.loc	15 119 0                        # emscripten/cache/sysroot/include/c++/v1/__memory/compressed_pair.h:119:0
	.functype	_ZNSt3__217__compressed_pairIPNS_6threadENS_9allocatorIS1_EEEC2B8ne190106IDnNS_18__default_init_tagEEEOT_OT0_ (i32, i32, i32) -> (i32)
	.local  	i32, i32, i32, i32, i32, i32, i32
# %bb.0:                                # %entry
	global.get	__stack_pointer
	local.set	3
	i32.const	16
	local.set	4
	local.get	3
	local.get	4
	i32.sub 
	local.set	5
	local.get	5
	global.set	__stack_pointer
	local.get	5
	local.get	0
	i32.store	12
	local.get	5
	local.get	1
	i32.store	8
	local.get	5
	local.get	2
	i32.store	4
	local.get	5
	i32.load	12
	local.set	6
.Ltmp47:
	.loc	15 119 34 prologue_end          # emscripten/cache/sysroot/include/c++/v1/__memory/compressed_pair.h:119:34
	local.get	5
	i32.load	8
	local.set	7
	.loc	15 119 9 is_stmt 0              # emscripten/cache/sysroot/include/c++/v1/__memory/compressed_pair.h:119:9
	local.get	6
	local.get	7
	call	_ZNSt3__222__compressed_pair_elemIPNS_6threadELi0ELb0EEC2B8ne190106IDnTnNS_9enable_ifIXntsr7is_sameIS3_u7__decayIT_EEE5valueEiE4typeELi0EEEOS6_
	drop
	.loc	15 119 42                       # emscripten/cache/sysroot/include/c++/v1/__memory/compressed_pair.h:119:42
	local.get	6
	call	_ZNSt3__222__compressed_pair_elemINS_9allocatorINS_6threadEEELi1ELb1EEC2B8ne190106ENS_18__default_init_tagE
	drop
	.loc	15 119 75                       # emscripten/cache/sysroot/include/c++/v1/__memory/compressed_pair.h:119:75
	i32.const	16
	local.set	8
	local.get	5
	local.get	8
	i32.add 
	local.set	9
	local.get	9
	global.set	__stack_pointer
	local.get	6
	return
	end_function
.Ltmp48:
.Lfunc_end15:
                                        # -- End function
	.section	.text._ZNSt3__222__compressed_pair_elemIPNS_6threadELi0ELb0EEC2B8ne190106IDnTnNS_9enable_ifIXntsr7is_sameIS3_u7__decayIT_EEE5valueEiE4typeELi0EEEOS6_,"G",@,_ZNSt3__222__compressed_pair_elemIPNS_6threadELi0ELb0EEC2B8ne190106IDnTnNS_9enable_ifIXntsr7is_sameIS3_u7__decayIT_EEE5valueEiE4typeELi0EEEOS6_,comdat
	.hidden	_ZNSt3__222__compressed_pair_elemIPNS_6threadELi0ELb0EEC2B8ne190106IDnTnNS_9enable_ifIXntsr7is_sameIS3_u7__decayIT_EEE5valueEiE4typeELi0EEEOS6_ # -- Begin function _ZNSt3__222__compressed_pair_elemIPNS_6threadELi0ELb0EEC2B8ne190106IDnTnNS_9enable_ifIXntsr7is_sameIS3_u7__decayIT_EEE5valueEiE4typeELi0EEEOS6_
	.weak	_ZNSt3__222__compressed_pair_elemIPNS_6threadELi0ELb0EEC2B8ne190106IDnTnNS_9enable_ifIXntsr7is_sameIS3_u7__decayIT_EEE5valueEiE4typeELi0EEEOS6_
	.type	_ZNSt3__222__compressed_pair_elemIPNS_6threadELi0ELb0EEC2B8ne190106IDnTnNS_9enable_ifIXntsr7is_sameIS3_u7__decayIT_EEE5valueEiE4typeELi0EEEOS6_,@function
_ZNSt3__222__compressed_pair_elemIPNS_6threadELi0ELb0EEC2B8ne190106IDnTnNS_9enable_ifIXntsr7is_sameIS3_u7__decayIT_EEE5valueEiE4typeELi0EEEOS6_: # @_ZNSt3__222__compressed_pair_elemIPNS_6threadELi0ELb0EEC2B8ne190106IDnTnNS_9enable_ifIXntsr7is_sameIS3_u7__decayIT_EEE5valueEiE4typeELi0EEEOS6_
.Lfunc_begin16:
	.loc	15 53 0 is_stmt 1               # emscripten/cache/sysroot/include/c++/v1/__memory/compressed_pair.h:53:0
	.functype	_ZNSt3__222__compressed_pair_elemIPNS_6threadELi0ELb0EEC2B8ne190106IDnTnNS_9enable_ifIXntsr7is_sameIS3_u7__decayIT_EEE5valueEiE4typeELi0EEEOS6_ (i32, i32) -> (i32)
	.local  	i32, i32, i32, i32, i32
# %bb.0:                                # %entry
	global.get	__stack_pointer
	local.set	2
	i32.const	16
	local.set	3
	local.get	2
	local.get	3
	i32.sub 
	local.set	4
	local.get	4
	local.get	0
	i32.store	12
	local.get	4
	local.get	1
	i32.store	8
	local.get	4
	i32.load	12
	local.set	5
.Ltmp49:
	.loc	15 53 9 prologue_end            # emscripten/cache/sysroot/include/c++/v1/__memory/compressed_pair.h:53:9
	i32.const	0
	local.set	6
	local.get	5
	local.get	6
	i32.store	0
	.loc	15 53 43 is_stmt 0              # emscripten/cache/sysroot/include/c++/v1/__memory/compressed_pair.h:53:43
	local.get	5
	return
	end_function
.Ltmp50:
.Lfunc_end16:
                                        # -- End function
	.section	.text._ZNSt3__222__compressed_pair_elemINS_9allocatorINS_6threadEEELi1ELb1EEC2B8ne190106ENS_18__default_init_tagE,"G",@,_ZNSt3__222__compressed_pair_elemINS_9allocatorINS_6threadEEELi1ELb1EEC2B8ne190106ENS_18__default_init_tagE,comdat
	.hidden	_ZNSt3__222__compressed_pair_elemINS_9allocatorINS_6threadEEELi1ELb1EEC2B8ne190106ENS_18__default_init_tagE # -- Begin function _ZNSt3__222__compressed_pair_elemINS_9allocatorINS_6threadEEELi1ELb1EEC2B8ne190106ENS_18__default_init_tagE
	.weak	_ZNSt3__222__compressed_pair_elemINS_9allocatorINS_6threadEEELi1ELb1EEC2B8ne190106ENS_18__default_init_tagE
	.type	_ZNSt3__222__compressed_pair_elemINS_9allocatorINS_6threadEEELi1ELb1EEC2B8ne190106ENS_18__default_init_tagE,@function
_ZNSt3__222__compressed_pair_elemINS_9allocatorINS_6threadEEELi1ELb1EEC2B8ne190106ENS_18__default_init_tagE: # @_ZNSt3__222__compressed_pair_elemINS_9allocatorINS_6threadEEELi1ELb1EEC2B8ne190106ENS_18__default_init_tagE
.Lfunc_begin17:
	.loc	15 77 0 is_stmt 1               # emscripten/cache/sysroot/include/c++/v1/__memory/compressed_pair.h:77:0
	.functype	_ZNSt3__222__compressed_pair_elemINS_9allocatorINS_6threadEEELi1ELb1EEC2B8ne190106ENS_18__default_init_tagE (i32) -> (i32)
	.local  	i32, i32, i32, i32, i32, i32
# %bb.0:                                # %entry
	global.get	__stack_pointer
	local.set	1
	i32.const	16
	local.set	2
	local.get	1
	local.get	2
	i32.sub 
	local.set	3
	local.get	3
	global.set	__stack_pointer
	local.get	3
	local.get	0
	i32.store	8
	local.get	3
	i32.load	8
	local.set	4
.Ltmp51:
	.loc	15 77 52 prologue_end           # emscripten/cache/sysroot/include/c++/v1/__memory/compressed_pair.h:77:52
	local.get	4
	call	_ZNSt3__29allocatorINS_6threadEEC2B8ne190106Ev
	drop
	.loc	15 77 96 is_stmt 0              # emscripten/cache/sysroot/include/c++/v1/__memory/compressed_pair.h:77:96
	i32.const	16
	local.set	5
	local.get	3
	local.get	5
	i32.add 
	local.set	6
	local.get	6
	global.set	__stack_pointer
	local.get	4
	return
	end_function
.Ltmp52:
.Lfunc_end17:
                                        # -- End function
	.section	.text._ZNSt3__29allocatorINS_6threadEEC2B8ne190106Ev,"G",@,_ZNSt3__29allocatorINS_6threadEEC2B8ne190106Ev,comdat
	.hidden	_ZNSt3__29allocatorINS_6threadEEC2B8ne190106Ev # -- Begin function _ZNSt3__29allocatorINS_6threadEEC2B8ne190106Ev
	.weak	_ZNSt3__29allocatorINS_6threadEEC2B8ne190106Ev
	.type	_ZNSt3__29allocatorINS_6threadEEC2B8ne190106Ev,@function
_ZNSt3__29allocatorINS_6threadEEC2B8ne190106Ev: # @_ZNSt3__29allocatorINS_6threadEEC2B8ne190106Ev
.Lfunc_begin18:
	.loc	13 107 0 is_stmt 1              # emscripten/cache/sysroot/include/c++/v1/__memory/allocator.h:107:0
	.functype	_ZNSt3__29allocatorINS_6threadEEC2B8ne190106Ev (i32) -> (i32)
	.local  	i32, i32, i32, i32, i32, i32
# %bb.0:                                # %entry
	global.get	__stack_pointer
	local.set	1
	i32.const	16
	local.set	2
	local.get	1
	local.get	2
	i32.sub 
	local.set	3
	local.get	3
	global.set	__stack_pointer
	local.get	3
	local.get	0
	i32.store	12
	local.get	3
	i32.load	12
	local.set	4
.Ltmp53:
	.loc	13 107 55 prologue_end          # emscripten/cache/sysroot/include/c++/v1/__memory/allocator.h:107:55
	local.get	4
	call	_ZNSt3__216__non_trivial_ifILb1ENS_9allocatorINS_6threadEEEEC2B8ne190106Ev
	drop
	.loc	13 107 85 is_stmt 0             # emscripten/cache/sysroot/include/c++/v1/__memory/allocator.h:107:85
	i32.const	16
	local.set	5
	local.get	3
	local.get	5
	i32.add 
	local.set	6
	local.get	6
	global.set	__stack_pointer
	local.get	4
	return
	end_function
.Ltmp54:
.Lfunc_end18:
                                        # -- End function
	.section	.text._ZNSt3__216__non_trivial_ifILb1ENS_9allocatorINS_6threadEEEEC2B8ne190106Ev,"G",@,_ZNSt3__216__non_trivial_ifILb1ENS_9allocatorINS_6threadEEEEC2B8ne190106Ev,comdat
	.hidden	_ZNSt3__216__non_trivial_ifILb1ENS_9allocatorINS_6threadEEEEC2B8ne190106Ev # -- Begin function _ZNSt3__216__non_trivial_ifILb1ENS_9allocatorINS_6threadEEEEC2B8ne190106Ev
	.weak	_ZNSt3__216__non_trivial_ifILb1ENS_9allocatorINS_6threadEEEEC2B8ne190106Ev
	.type	_ZNSt3__216__non_trivial_ifILb1ENS_9allocatorINS_6threadEEEEC2B8ne190106Ev,@function
_ZNSt3__216__non_trivial_ifILb1ENS_9allocatorINS_6threadEEEEC2B8ne190106Ev: # @_ZNSt3__216__non_trivial_ifILb1ENS_9allocatorINS_6threadEEEEC2B8ne190106Ev
.Lfunc_begin19:
	.loc	13 85 0 is_stmt 1               # emscripten/cache/sysroot/include/c++/v1/__memory/allocator.h:85:0
	.functype	_ZNSt3__216__non_trivial_ifILb1ENS_9allocatorINS_6threadEEEEC2B8ne190106Ev (i32) -> (i32)
	.local  	i32, i32, i32, i32
# %bb.0:                                # %entry
	global.get	__stack_pointer
	local.set	1
	i32.const	16
	local.set	2
	local.get	1
	local.get	2
	i32.sub 
	local.set	3
	local.get	3
	local.get	0
	i32.store	12
	local.get	3
	i32.load	12
	local.set	4
.Ltmp55:
	.loc	13 85 73 prologue_end           # emscripten/cache/sysroot/include/c++/v1/__memory/allocator.h:85:73
	local.get	4
	return
	end_function
.Ltmp56:
.Lfunc_end19:
                                        # -- End function
	.section	.text._ZNSt3__26vectorINS_6threadENS_9allocatorIS1_EEE16__destroy_vectorC2B8ne190106ERS4_,"G",@,_ZNSt3__26vectorINS_6threadENS_9allocatorIS1_EEE16__destroy_vectorC2B8ne190106ERS4_,comdat
	.hidden	_ZNSt3__26vectorINS_6threadENS_9allocatorIS1_EEE16__destroy_vectorC2B8ne190106ERS4_ # -- Begin function _ZNSt3__26vectorINS_6threadENS_9allocatorIS1_EEE16__destroy_vectorC2B8ne190106ERS4_
	.weak	_ZNSt3__26vectorINS_6threadENS_9allocatorIS1_EEE16__destroy_vectorC2B8ne190106ERS4_
	.type	_ZNSt3__26vectorINS_6threadENS_9allocatorIS1_EEE16__destroy_vectorC2B8ne190106ERS4_,@function
_ZNSt3__26vectorINS_6threadENS_9allocatorIS1_EEE16__destroy_vectorC2B8ne190106ERS4_: # @_ZNSt3__26vectorINS_6threadENS_9allocatorIS1_EEE16__destroy_vectorC2B8ne190106ERS4_
.Lfunc_begin20:
	.loc	7 526 0                         # emscripten/cache/sysroot/include/c++/v1/vector:526:0
	.functype	_ZNSt3__26vectorINS_6threadENS_9allocatorIS1_EEE16__destroy_vectorC2B8ne190106ERS4_ (i32, i32) -> (i32)
	.local  	i32, i32, i32, i32, i32
# %bb.0:                                # %entry
	global.get	__stack_pointer
	local.set	2
	i32.const	16
	local.set	3
	local.get	2
	local.get	3
	i32.sub 
	local.set	4
	local.get	4
	local.get	0
	i32.store	12
	local.get	4
	local.get	1
	i32.store	8
	local.get	4
	i32.load	12
	local.set	5
.Ltmp57:
	.loc	7 526 86 prologue_end           # emscripten/cache/sysroot/include/c++/v1/vector:526:86
	local.get	4
	i32.load	8
	local.set	6
	.loc	7 526 79 is_stmt 0              # emscripten/cache/sysroot/include/c++/v1/vector:526:79
	local.get	5
	local.get	6
	i32.store	0
	.loc	7 526 94                        # emscripten/cache/sysroot/include/c++/v1/vector:526:94
	local.get	5
	return
	end_function
.Ltmp58:
.Lfunc_end20:
                                        # -- End function
	.section	.text._ZNSt3__26vectorINS_6threadENS_9allocatorIS1_EEE16__destroy_vectorclB8ne190106Ev,"G",@,_ZNSt3__26vectorINS_6threadENS_9allocatorIS1_EEE16__destroy_vectorclB8ne190106Ev,comdat
	.hidden	_ZNSt3__26vectorINS_6threadENS_9allocatorIS1_EEE16__destroy_vectorclB8ne190106Ev # -- Begin function _ZNSt3__26vectorINS_6threadENS_9allocatorIS1_EEE16__destroy_vectorclB8ne190106Ev
	.weak	_ZNSt3__26vectorINS_6threadENS_9allocatorIS1_EEE16__destroy_vectorclB8ne190106Ev
	.type	_ZNSt3__26vectorINS_6threadENS_9allocatorIS1_EEE16__destroy_vectorclB8ne190106Ev,@function
_ZNSt3__26vectorINS_6threadENS_9allocatorIS1_EEE16__destroy_vectorclB8ne190106Ev: # @_ZNSt3__26vectorINS_6threadENS_9allocatorIS1_EEE16__destroy_vectorclB8ne190106Ev
.Lfunc_begin21:
	.loc	7 528 0 is_stmt 1               # emscripten/cache/sysroot/include/c++/v1/vector:528:0
	.functype	_ZNSt3__26vectorINS_6threadENS_9allocatorIS1_EEE16__destroy_vectorclB8ne190106Ev (i32) -> ()
	.local  	i32, i32, i32, i32, i32, i32, i32, i32, i32, i32, i32, i32, i32, i32, i32, i32, i32, i32, i32, i32
# %bb.0:                                # %entry
	global.get	__stack_pointer
	local.set	1
	i32.const	16
	local.set	2
	local.get	1
	local.get	2
	i32.sub 
	local.set	3
	local.get	3
	global.set	__stack_pointer
	local.get	3
	local.get	0
	i32.store	12
	local.get	3
	i32.load	12
	local.set	4
.Ltmp59:
	.loc	7 529 11 prologue_end           # emscripten/cache/sysroot/include/c++/v1/vector:529:11
	local.get	4
	i32.load	0
	local.set	5
	.loc	7 529 18 is_stmt 0              # emscripten/cache/sysroot/include/c++/v1/vector:529:18
	local.get	5
	i32.load	0
	local.set	6
	.loc	7 529 27                        # emscripten/cache/sysroot/include/c++/v1/vector:529:27
	i32.const	0
	local.set	7
	local.get	6
	local.get	7
	i32.ne  
	local.set	8
	i32.const	1
	local.set	9
	local.get	8
	local.get	9
	i32.and 
	local.set	10
	block   	
	local.get	10
	i32.eqz
	br_if   	0                               # 0: down to label10
# %bb.1:                                # %if.then
.Ltmp60:
	.loc	7 530 9 is_stmt 1               # emscripten/cache/sysroot/include/c++/v1/vector:530:9
	local.get	4
	i32.load	0
	local.set	11
	.loc	7 530 16 is_stmt 0              # emscripten/cache/sysroot/include/c++/v1/vector:530:16
	local.get	11
	call	_ZNSt3__26vectorINS_6threadENS_9allocatorIS1_EEE7__clearB8ne190106Ev
	.loc	7 531 9 is_stmt 1               # emscripten/cache/sysroot/include/c++/v1/vector:531:9
	local.get	4
	i32.load	0
	local.set	12
	.loc	7 531 16 is_stmt 0              # emscripten/cache/sysroot/include/c++/v1/vector:531:16
	local.get	12
	call	_ZNKSt3__26vectorINS_6threadENS_9allocatorIS1_EEE17__annotate_deleteB8ne190106Ev
	.loc	7 532 36 is_stmt 1              # emscripten/cache/sysroot/include/c++/v1/vector:532:36
	local.get	4
	i32.load	0
	local.set	13
	.loc	7 532 43 is_stmt 0              # emscripten/cache/sysroot/include/c++/v1/vector:532:43
	local.get	13
	call	_ZNSt3__26vectorINS_6threadENS_9allocatorIS1_EEE7__allocB8ne190106Ev
	local.set	14
	.loc	7 532 54                        # emscripten/cache/sysroot/include/c++/v1/vector:532:54
	local.get	4
	i32.load	0
	local.set	15
	.loc	7 532 61                        # emscripten/cache/sysroot/include/c++/v1/vector:532:61
	local.get	15
	i32.load	0
	local.set	16
	.loc	7 532 71                        # emscripten/cache/sysroot/include/c++/v1/vector:532:71
	local.get	4
	i32.load	0
	local.set	17
	.loc	7 532 78                        # emscripten/cache/sysroot/include/c++/v1/vector:532:78
	local.get	17
	call	_ZNKSt3__26vectorINS_6threadENS_9allocatorIS1_EEE8capacityB8ne190106Ev
	local.set	18
	.loc	7 532 9                         # emscripten/cache/sysroot/include/c++/v1/vector:532:9
	local.get	14
	local.get	16
	local.get	18
	call	_ZNSt3__216allocator_traitsINS_9allocatorINS_6threadEEEE10deallocateB8ne190106ERS3_PS2_m
.Ltmp61:
.LBB21_2:                               # %if.end
	.loc	7 0 9                           # emscripten/cache/sysroot/include/c++/v1/vector:0:9
	end_block                               # label10:
	.loc	7 534 5 is_stmt 1               # emscripten/cache/sysroot/include/c++/v1/vector:534:5
	i32.const	16
	local.set	19
	local.get	3
	local.get	19
	i32.add 
	local.set	20
	local.get	20
	global.set	__stack_pointer
	return
	end_function
.Ltmp62:
.Lfunc_end21:
                                        # -- End function
	.section	.text._ZNSt3__26vectorINS_6threadENS_9allocatorIS1_EEE7__clearB8ne190106Ev,"G",@,_ZNSt3__26vectorINS_6threadENS_9allocatorIS1_EEE7__clearB8ne190106Ev,comdat
	.hidden	_ZNSt3__26vectorINS_6threadENS_9allocatorIS1_EEE7__clearB8ne190106Ev # -- Begin function _ZNSt3__26vectorINS_6threadENS_9allocatorIS1_EEE7__clearB8ne190106Ev
	.weak	_ZNSt3__26vectorINS_6threadENS_9allocatorIS1_EEE7__clearB8ne190106Ev
	.type	_ZNSt3__26vectorINS_6threadENS_9allocatorIS1_EEE7__clearB8ne190106Ev,@function
_ZNSt3__26vectorINS_6threadENS_9allocatorIS1_EEE7__clearB8ne190106Ev: # @_ZNSt3__26vectorINS_6threadENS_9allocatorIS1_EEE7__clearB8ne190106Ev
.Lfunc_begin22:
	.loc	7 978 0                         # emscripten/cache/sysroot/include/c++/v1/vector:978:0
	.functype	_ZNSt3__26vectorINS_6threadENS_9allocatorIS1_EEE7__clearB8ne190106Ev (i32) -> ()
	.local  	i32, i32, i32, i32, i32, i32, i32
# %bb.0:                                # %entry
	global.get	__stack_pointer
	local.set	1
	i32.const	16
	local.set	2
	local.get	1
	local.get	2
	i32.sub 
	local.set	3
	local.get	3
	global.set	__stack_pointer
	local.get	3
	local.get	0
	i32.store	12
	local.get	3
	i32.load	12
	local.set	4
.Ltmp63:
	.loc	7 979 34 prologue_end           # emscripten/cache/sysroot/include/c++/v1/vector:979:34
	local.get	4
	i32.load	0
	local.set	5
	.loc	7 979 5 is_stmt 0               # emscripten/cache/sysroot/include/c++/v1/vector:979:5
	local.get	4
	local.get	5
	call	_ZNSt3__26vectorINS_6threadENS_9allocatorIS1_EEE22__base_destruct_at_endB8ne190106EPS1_
	.loc	7 980 3 is_stmt 1               # emscripten/cache/sysroot/include/c++/v1/vector:980:3
	i32.const	16
	local.set	6
	local.get	3
	local.get	6
	i32.add 
	local.set	7
	local.get	7
	global.set	__stack_pointer
	return
	end_function
.Ltmp64:
.Lfunc_end22:
                                        # -- End function
	.section	.text._ZNKSt3__26vectorINS_6threadENS_9allocatorIS1_EEE17__annotate_deleteB8ne190106Ev,"G",@,_ZNKSt3__26vectorINS_6threadENS_9allocatorIS1_EEE17__annotate_deleteB8ne190106Ev,comdat
	.hidden	_ZNKSt3__26vectorINS_6threadENS_9allocatorIS1_EEE17__annotate_deleteB8ne190106Ev # -- Begin function _ZNKSt3__26vectorINS_6threadENS_9allocatorIS1_EEE17__annotate_deleteB8ne190106Ev
	.weak	_ZNKSt3__26vectorINS_6threadENS_9allocatorIS1_EEE17__annotate_deleteB8ne190106Ev
	.type	_ZNKSt3__26vectorINS_6threadENS_9allocatorIS1_EEE17__annotate_deleteB8ne190106Ev,@function
_ZNKSt3__26vectorINS_6threadENS_9allocatorIS1_EEE17__annotate_deleteB8ne190106Ev: # @_ZNKSt3__26vectorINS_6threadENS_9allocatorIS1_EEE17__annotate_deleteB8ne190106Ev
.Lfunc_begin23:
	.loc	7 913 0                         # emscripten/cache/sysroot/include/c++/v1/vector:913:0
	.functype	_ZNKSt3__26vectorINS_6threadENS_9allocatorIS1_EEE17__annotate_deleteB8ne190106Ev (i32) -> ()
	.local  	i32, i32, i32
# %bb.0:                                # %entry
	global.get	__stack_pointer
	local.set	1
	i32.const	16
	local.set	2
	local.get	1
	local.get	2
	i32.sub 
	local.set	3
	local.get	3
	local.get	0
	i32.store	12
.Ltmp65:
	.loc	7 917 3 prologue_end            # emscripten/cache/sysroot/include/c++/v1/vector:917:3
	return
	end_function
.Ltmp66:
.Lfunc_end23:
                                        # -- End function
	.section	.text._ZNSt3__216allocator_traitsINS_9allocatorINS_6threadEEEE10deallocateB8ne190106ERS3_PS2_m,"G",@,_ZNSt3__216allocator_traitsINS_9allocatorINS_6threadEEEE10deallocateB8ne190106ERS3_PS2_m,comdat
	.hidden	_ZNSt3__216allocator_traitsINS_9allocatorINS_6threadEEEE10deallocateB8ne190106ERS3_PS2_m # -- Begin function _ZNSt3__216allocator_traitsINS_9allocatorINS_6threadEEEE10deallocateB8ne190106ERS3_PS2_m
	.weak	_ZNSt3__216allocator_traitsINS_9allocatorINS_6threadEEEE10deallocateB8ne190106ERS3_PS2_m
	.type	_ZNSt3__216allocator_traitsINS_9allocatorINS_6threadEEEE10deallocateB8ne190106ERS3_PS2_m,@function
_ZNSt3__216allocator_traitsINS_9allocatorINS_6threadEEEE10deallocateB8ne190106ERS3_PS2_m: # @_ZNSt3__216allocator_traitsINS_9allocatorINS_6threadEEEE10deallocateB8ne190106ERS3_PS2_m
.Lfunc_begin24:
	.loc	14 311 0                        # emscripten/cache/sysroot/include/c++/v1/__memory/allocator_traits.h:311:0
	.functype	_ZNSt3__216allocator_traitsINS_9allocatorINS_6threadEEEE10deallocateB8ne190106ERS3_PS2_m (i32, i32, i32) -> ()
	.local  	i32, i32, i32, i32, i32, i32, i32, i32
# %bb.0:                                # %entry
	global.get	__stack_pointer
	local.set	3
	i32.const	16
	local.set	4
	local.get	3
	local.get	4
	i32.sub 
	local.set	5
	local.get	5
	global.set	__stack_pointer
	local.get	5
	local.get	0
	i32.store	12
	local.get	5
	local.get	1
	i32.store	8
	local.get	5
	local.get	2
	i32.store	4
.Ltmp67:
	.loc	14 312 5 prologue_end           # emscripten/cache/sysroot/include/c++/v1/__memory/allocator_traits.h:312:5
	local.get	5
	i32.load	12
	local.set	6
	.loc	14 312 20 is_stmt 0             # emscripten/cache/sysroot/include/c++/v1/__memory/allocator_traits.h:312:20
	local.get	5
	i32.load	8
	local.set	7
	.loc	14 312 25                       # emscripten/cache/sysroot/include/c++/v1/__memory/allocator_traits.h:312:25
	local.get	5
	i32.load	4
	local.set	8
	.loc	14 312 9                        # emscripten/cache/sysroot/include/c++/v1/__memory/allocator_traits.h:312:9
	local.get	6
	local.get	7
	local.get	8
	call	_ZNSt3__29allocatorINS_6threadEE10deallocateB8ne190106EPS1_m
	.loc	14 313 3 is_stmt 1              # emscripten/cache/sysroot/include/c++/v1/__memory/allocator_traits.h:313:3
	i32.const	16
	local.set	9
	local.get	5
	local.get	9
	i32.add 
	local.set	10
	local.get	10
	global.set	__stack_pointer
	return
	end_function
.Ltmp68:
.Lfunc_end24:
                                        # -- End function
	.section	.text._ZNSt3__26vectorINS_6threadENS_9allocatorIS1_EEE7__allocB8ne190106Ev,"G",@,_ZNSt3__26vectorINS_6threadENS_9allocatorIS1_EEE7__allocB8ne190106Ev,comdat
	.hidden	_ZNSt3__26vectorINS_6threadENS_9allocatorIS1_EEE7__allocB8ne190106Ev # -- Begin function _ZNSt3__26vectorINS_6threadENS_9allocatorIS1_EEE7__allocB8ne190106Ev
	.weak	_ZNSt3__26vectorINS_6threadENS_9allocatorIS1_EEE7__allocB8ne190106Ev
	.type	_ZNSt3__26vectorINS_6threadENS_9allocatorIS1_EEE7__allocB8ne190106Ev,@function
_ZNSt3__26vectorINS_6threadENS_9allocatorIS1_EEE7__allocB8ne190106Ev: # @_ZNSt3__26vectorINS_6threadENS_9allocatorIS1_EEE7__allocB8ne190106Ev
.Lfunc_begin25:
	.loc	7 965 0                         # emscripten/cache/sysroot/include/c++/v1/vector:965:0
	.functype	_ZNSt3__26vectorINS_6threadENS_9allocatorIS1_EEE7__allocB8ne190106Ev (i32) -> (i32)
	.local  	i32, i32, i32, i32, i32, i32, i32, i32, i32
# %bb.0:                                # %entry
	global.get	__stack_pointer
	local.set	1
	i32.const	16
	local.set	2
	local.get	1
	local.get	2
	i32.sub 
	local.set	3
	local.get	3
	global.set	__stack_pointer
	local.get	3
	local.get	0
	i32.store	12
	local.get	3
	i32.load	12
	local.set	4
.Ltmp69:
	.loc	7 966 18 prologue_end           # emscripten/cache/sysroot/include/c++/v1/vector:966:18
	i32.const	8
	local.set	5
	local.get	4
	local.get	5
	i32.add 
	local.set	6
	.loc	7 966 29 is_stmt 0              # emscripten/cache/sysroot/include/c++/v1/vector:966:29
	local.get	6
	call	_ZNSt3__217__compressed_pairIPNS_6threadENS_9allocatorIS1_EEE6secondB8ne190106Ev
	local.set	7
	.loc	7 966 5                         # emscripten/cache/sysroot/include/c++/v1/vector:966:5
	i32.const	16
	local.set	8
	local.get	3
	local.get	8
	i32.add 
	local.set	9
	local.get	9
	global.set	__stack_pointer
	local.get	7
	return
	end_function
.Ltmp70:
.Lfunc_end25:
                                        # -- End function
	.section	.text._ZNKSt3__26vectorINS_6threadENS_9allocatorIS1_EEE8capacityB8ne190106Ev,"G",@,_ZNKSt3__26vectorINS_6threadENS_9allocatorIS1_EEE8capacityB8ne190106Ev,comdat
	.hidden	_ZNKSt3__26vectorINS_6threadENS_9allocatorIS1_EEE8capacityB8ne190106Ev # -- Begin function _ZNKSt3__26vectorINS_6threadENS_9allocatorIS1_EEE8capacityB8ne190106Ev
	.weak	_ZNKSt3__26vectorINS_6threadENS_9allocatorIS1_EEE8capacityB8ne190106Ev
	.type	_ZNKSt3__26vectorINS_6threadENS_9allocatorIS1_EEE8capacityB8ne190106Ev,@function
_ZNKSt3__26vectorINS_6threadENS_9allocatorIS1_EEE8capacityB8ne190106Ev: # @_ZNKSt3__26vectorINS_6threadENS_9allocatorIS1_EEE8capacityB8ne190106Ev
.Lfunc_begin26:
	.loc	7 637 0 is_stmt 1               # emscripten/cache/sysroot/include/c++/v1/vector:637:0
	.functype	_ZNKSt3__26vectorINS_6threadENS_9allocatorIS1_EEE8capacityB8ne190106Ev (i32) -> (i32)
	.local  	i32, i32, i32, i32, i32, i32, i32, i32, i32, i32, i32, i32
# %bb.0:                                # %entry
	global.get	__stack_pointer
	local.set	1
	i32.const	16
	local.set	2
	local.get	1
	local.get	2
	i32.sub 
	local.set	3
	local.get	3
	global.set	__stack_pointer
	local.get	3
	local.get	0
	i32.store	12
	local.get	3
	i32.load	12
	local.set	4
.Ltmp71:
	.loc	7 638 35 prologue_end           # emscripten/cache/sysroot/include/c++/v1/vector:638:35
	local.get	4
	call	_ZNKSt3__26vectorINS_6threadENS_9allocatorIS1_EEE9__end_capB8ne190106Ev
	local.set	5
	local.get	5
	i32.load	0
	local.set	6
	.loc	7 638 55 is_stmt 0              # emscripten/cache/sysroot/include/c++/v1/vector:638:55
	local.get	4
	i32.load	0
	local.set	7
	.loc	7 638 47                        # emscripten/cache/sysroot/include/c++/v1/vector:638:47
	local.get	6
	local.get	7
	i32.sub 
	local.set	8
	i32.const	2
	local.set	9
	local.get	8
	local.get	9
	i32.shr_s
	local.set	10
	.loc	7 638 5                         # emscripten/cache/sysroot/include/c++/v1/vector:638:5
	i32.const	16
	local.set	11
	local.get	3
	local.get	11
	i32.add 
	local.set	12
	local.get	12
	global.set	__stack_pointer
	local.get	10
	return
	end_function
.Ltmp72:
.Lfunc_end26:
                                        # -- End function
	.section	.text._ZNSt3__26vectorINS_6threadENS_9allocatorIS1_EEE22__base_destruct_at_endB8ne190106EPS1_,"G",@,_ZNSt3__26vectorINS_6threadENS_9allocatorIS1_EEE22__base_destruct_at_endB8ne190106EPS1_,comdat
	.hidden	_ZNSt3__26vectorINS_6threadENS_9allocatorIS1_EEE22__base_destruct_at_endB8ne190106EPS1_ # -- Begin function _ZNSt3__26vectorINS_6threadENS_9allocatorIS1_EEE22__base_destruct_at_endB8ne190106EPS1_
	.weak	_ZNSt3__26vectorINS_6threadENS_9allocatorIS1_EEE22__base_destruct_at_endB8ne190106EPS1_
	.type	_ZNSt3__26vectorINS_6threadENS_9allocatorIS1_EEE22__base_destruct_at_endB8ne190106EPS1_,@function
_ZNSt3__26vectorINS_6threadENS_9allocatorIS1_EEE22__base_destruct_at_endB8ne190106EPS1_: # @_ZNSt3__26vectorINS_6threadENS_9allocatorIS1_EEE22__base_destruct_at_endB8ne190106EPS1_
.Lfunc_begin27:
	.loc	7 982 0 is_stmt 1               # emscripten/cache/sysroot/include/c++/v1/vector:982:0
	.functype	_ZNSt3__26vectorINS_6threadENS_9allocatorIS1_EEE22__base_destruct_at_endB8ne190106EPS1_ (i32, i32) -> ()
	.local  	i32, i32, i32, i32, i32, i32, i32, i32, i32, i32, i32, i32, i32, i32, i32, i32, i32, i32
# %bb.0:                                # %entry
	global.get	__stack_pointer
	local.set	2
	i32.const	16
	local.set	3
	local.get	2
	local.get	3
	i32.sub 
	local.set	4
	local.get	4
	global.set	__stack_pointer
	local.get	4
	local.get	0
	i32.store	12
	local.get	4
	local.get	1
	i32.store	8
	local.get	4
	i32.load	12
	local.set	5
.Ltmp73:
	.loc	7 983 38 prologue_end           # emscripten/cache/sysroot/include/c++/v1/vector:983:38
	local.get	5
	i32.load	4
	local.set	6
	.loc	7 983 13 is_stmt 0              # emscripten/cache/sysroot/include/c++/v1/vector:983:13
	local.get	4
	local.get	6
	i32.store	4
.LBB27_1:                               # %while.cond
                                        # =>This Inner Loop Header: Depth=1
	.loc	7 984 12 is_stmt 1              # emscripten/cache/sysroot/include/c++/v1/vector:984:12
	block   	
	loop    	                                # label12:
	local.get	4
	i32.load	8
	local.set	7
	.loc	7 984 26 is_stmt 0              # emscripten/cache/sysroot/include/c++/v1/vector:984:26
	local.get	4
	i32.load	4
	local.set	8
	.loc	7 984 23                        # emscripten/cache/sysroot/include/c++/v1/vector:984:23
	local.get	7
	local.get	8
	i32.ne  
	local.set	9
	.loc	7 984 5                         # emscripten/cache/sysroot/include/c++/v1/vector:984:5
	i32.const	1
	local.set	10
	local.get	9
	local.get	10
	i32.and 
	local.set	11
	local.get	11
	i32.eqz
	br_if   	1                               # 1: down to label11
# %bb.2:                                # %while.body
                                        #   in Loop: Header=BB27_1 Depth=1
	.loc	7 985 31 is_stmt 1              # emscripten/cache/sysroot/include/c++/v1/vector:985:31
	local.get	5
	call	_ZNSt3__26vectorINS_6threadENS_9allocatorIS1_EEE7__allocB8ne190106Ev
	local.set	12
	.loc	7 985 60 is_stmt 0              # emscripten/cache/sysroot/include/c++/v1/vector:985:60
	local.get	4
	i32.load	4
	local.set	13
	i32.const	-4
	local.set	14
	local.get	13
	local.get	14
	i32.add 
	local.set	15
	local.get	4
	local.get	15
	i32.store	4
	.loc	7 985 42                        # emscripten/cache/sysroot/include/c++/v1/vector:985:42
	local.get	15
	call	_ZNSt3__212__to_addressB8ne190106INS_6threadEEEPT_S3_
	local.set	16
	.loc	7 985 7                         # emscripten/cache/sysroot/include/c++/v1/vector:985:7
	local.get	12
	local.get	16
	call	_ZNSt3__216allocator_traitsINS_9allocatorINS_6threadEEEE7destroyB8ne190106IS2_TnNS_9enable_ifIXsr13__has_destroyIS3_PT_EE5valueEiE4typeELi0EEEvRS3_S8_
	.loc	7 984 5 is_stmt 1               # emscripten/cache/sysroot/include/c++/v1/vector:984:5
	br      	0                               # 0: up to label12
.LBB27_3:                               # %while.end
	end_loop
	end_block                               # label11:
	.loc	7 986 20                        # emscripten/cache/sysroot/include/c++/v1/vector:986:20
	local.get	4
	i32.load	8
	local.set	17
	.loc	7 986 18 is_stmt 0              # emscripten/cache/sysroot/include/c++/v1/vector:986:18
	local.get	5
	local.get	17
	i32.store	4
	.loc	7 987 3 is_stmt 1               # emscripten/cache/sysroot/include/c++/v1/vector:987:3
	i32.const	16
	local.set	18
	local.get	4
	local.get	18
	i32.add 
	local.set	19
	local.get	19
	global.set	__stack_pointer
	return
	end_function
.Ltmp74:
.Lfunc_end27:
                                        # -- End function
	.section	.text._ZNSt3__216allocator_traitsINS_9allocatorINS_6threadEEEE7destroyB8ne190106IS2_TnNS_9enable_ifIXsr13__has_destroyIS3_PT_EE5valueEiE4typeELi0EEEvRS3_S8_,"G",@,_ZNSt3__216allocator_traitsINS_9allocatorINS_6threadEEEE7destroyB8ne190106IS2_TnNS_9enable_ifIXsr13__has_destroyIS3_PT_EE5valueEiE4typeELi0EEEvRS3_S8_,comdat
	.hidden	_ZNSt3__216allocator_traitsINS_9allocatorINS_6threadEEEE7destroyB8ne190106IS2_TnNS_9enable_ifIXsr13__has_destroyIS3_PT_EE5valueEiE4typeELi0EEEvRS3_S8_ # -- Begin function _ZNSt3__216allocator_traitsINS_9allocatorINS_6threadEEEE7destroyB8ne190106IS2_TnNS_9enable_ifIXsr13__has_destroyIS3_PT_EE5valueEiE4typeELi0EEEvRS3_S8_
	.weak	_ZNSt3__216allocator_traitsINS_9allocatorINS_6threadEEEE7destroyB8ne190106IS2_TnNS_9enable_ifIXsr13__has_destroyIS3_PT_EE5valueEiE4typeELi0EEEvRS3_S8_
	.type	_ZNSt3__216allocator_traitsINS_9allocatorINS_6threadEEEE7destroyB8ne190106IS2_TnNS_9enable_ifIXsr13__has_destroyIS3_PT_EE5valueEiE4typeELi0EEEvRS3_S8_,@function
_ZNSt3__216allocator_traitsINS_9allocatorINS_6threadEEEE7destroyB8ne190106IS2_TnNS_9enable_ifIXsr13__has_destroyIS3_PT_EE5valueEiE4typeELi0EEEvRS3_S8_: # @_ZNSt3__216allocator_traitsINS_9allocatorINS_6threadEEEE7destroyB8ne190106IS2_TnNS_9enable_ifIXsr13__has_destroyIS3_PT_EE5valueEiE4typeELi0EEEvRS3_S8_
.Lfunc_begin28:
	.loc	14 332 0                        # emscripten/cache/sysroot/include/c++/v1/__memory/allocator_traits.h:332:0
	.functype	_ZNSt3__216allocator_traitsINS_9allocatorINS_6threadEEEE7destroyB8ne190106IS2_TnNS_9enable_ifIXsr13__has_destroyIS3_PT_EE5valueEiE4typeELi0EEEvRS3_S8_ (i32, i32) -> ()
	.local  	i32, i32, i32, i32, i32, i32, i32
# %bb.0:                                # %entry
	global.get	__stack_pointer
	local.set	2
	i32.const	16
	local.set	3
	local.get	2
	local.get	3
	i32.sub 
	local.set	4
	local.get	4
	global.set	__stack_pointer
	local.get	4
	local.get	0
	i32.store	12
	local.get	4
	local.get	1
	i32.store	8
.Ltmp75:
	.loc	14 334 5 prologue_end           # emscripten/cache/sysroot/include/c++/v1/__memory/allocator_traits.h:334:5
	local.get	4
	i32.load	12
	local.set	5
	.loc	14 334 17 is_stmt 0             # emscripten/cache/sysroot/include/c++/v1/__memory/allocator_traits.h:334:17
	local.get	4
	i32.load	8
	local.set	6
	.loc	14 334 9                        # emscripten/cache/sysroot/include/c++/v1/__memory/allocator_traits.h:334:9
	local.get	5
	local.get	6
	call	_ZNSt3__29allocatorINS_6threadEE7destroyB8ne190106EPS1_
	.loc	14 336 3 is_stmt 1              # emscripten/cache/sysroot/include/c++/v1/__memory/allocator_traits.h:336:3
	i32.const	16
	local.set	7
	local.get	4
	local.get	7
	i32.add 
	local.set	8
	local.get	8
	global.set	__stack_pointer
	return
	end_function
.Ltmp76:
.Lfunc_end28:
                                        # -- End function
	.section	.text._ZNSt3__212__to_addressB8ne190106INS_6threadEEEPT_S3_,"G",@,_ZNSt3__212__to_addressB8ne190106INS_6threadEEEPT_S3_,comdat
	.hidden	_ZNSt3__212__to_addressB8ne190106INS_6threadEEEPT_S3_ # -- Begin function _ZNSt3__212__to_addressB8ne190106INS_6threadEEEPT_S3_
	.weak	_ZNSt3__212__to_addressB8ne190106INS_6threadEEEPT_S3_
	.type	_ZNSt3__212__to_addressB8ne190106INS_6threadEEEPT_S3_,@function
_ZNSt3__212__to_addressB8ne190106INS_6threadEEEPT_S3_: # @_ZNSt3__212__to_addressB8ne190106INS_6threadEEEPT_S3_
.Lfunc_begin29:
	.file	32 "/home/kay/Documents/Code/toolchain-wasm" "emscripten/cache/sysroot/include/c++/v1/__memory/pointer_traits.h"
	.loc	32 189 0                        # emscripten/cache/sysroot/include/c++/v1/__memory/pointer_traits.h:189:0
	.functype	_ZNSt3__212__to_addressB8ne190106INS_6threadEEEPT_S3_ (i32) -> (i32)
	.local  	i32, i32, i32, i32
# %bb.0:                                # %entry
	global.get	__stack_pointer
	local.set	1
	i32.const	16
	local.set	2
	local.get	1
	local.get	2
	i32.sub 
	local.set	3
	local.get	3
	local.get	0
	i32.store	12
.Ltmp77:
	.loc	32 191 10 prologue_end          # emscripten/cache/sysroot/include/c++/v1/__memory/pointer_traits.h:191:10
	local.get	3
	i32.load	12
	local.set	4
	.loc	32 191 3 is_stmt 0              # emscripten/cache/sysroot/include/c++/v1/__memory/pointer_traits.h:191:3
	local.get	4
	return
	end_function
.Ltmp78:
.Lfunc_end29:
                                        # -- End function
	.section	.text._ZNSt3__29allocatorINS_6threadEE7destroyB8ne190106EPS1_,"G",@,_ZNSt3__29allocatorINS_6threadEE7destroyB8ne190106EPS1_,comdat
	.hidden	_ZNSt3__29allocatorINS_6threadEE7destroyB8ne190106EPS1_ # -- Begin function _ZNSt3__29allocatorINS_6threadEE7destroyB8ne190106EPS1_
	.weak	_ZNSt3__29allocatorINS_6threadEE7destroyB8ne190106EPS1_
	.type	_ZNSt3__29allocatorINS_6threadEE7destroyB8ne190106EPS1_,@function
_ZNSt3__29allocatorINS_6threadEE7destroyB8ne190106EPS1_: # @_ZNSt3__29allocatorINS_6threadEE7destroyB8ne190106EPS1_
.Lfunc_begin30:
	.loc	13 168 0 is_stmt 1              # emscripten/cache/sysroot/include/c++/v1/__memory/allocator.h:168:0
	.functype	_ZNSt3__29allocatorINS_6threadEE7destroyB8ne190106EPS1_ (i32, i32) -> ()
	.local  	i32, i32, i32, i32, i32, i32
# %bb.0:                                # %entry
	global.get	__stack_pointer
	local.set	2
	i32.const	16
	local.set	3
	local.get	2
	local.get	3
	i32.sub 
	local.set	4
	local.get	4
	global.set	__stack_pointer
	local.get	4
	local.get	0
	i32.store	12
	local.get	4
	local.get	1
	i32.store	8
.Ltmp79:
	.loc	13 168 81 prologue_end          # emscripten/cache/sysroot/include/c++/v1/__memory/allocator.h:168:81
	local.get	4
	i32.load	8
	local.set	5
	.loc	13 168 87 is_stmt 0             # emscripten/cache/sysroot/include/c++/v1/__memory/allocator.h:168:87
	local.get	5
	call	_ZNSt3__26threadD1Ev
	drop
	.loc	13 168 94                       # emscripten/cache/sysroot/include/c++/v1/__memory/allocator.h:168:94
	i32.const	16
	local.set	6
	local.get	4
	local.get	6
	i32.add 
	local.set	7
	local.get	7
	global.set	__stack_pointer
	return
	end_function
.Ltmp80:
.Lfunc_end30:
                                        # -- End function
	.section	.text._ZNSt3__29allocatorINS_6threadEE10deallocateB8ne190106EPS1_m,"G",@,_ZNSt3__29allocatorINS_6threadEE10deallocateB8ne190106EPS1_m,comdat
	.hidden	_ZNSt3__29allocatorINS_6threadEE10deallocateB8ne190106EPS1_m # -- Begin function _ZNSt3__29allocatorINS_6threadEE10deallocateB8ne190106EPS1_m
	.weak	_ZNSt3__29allocatorINS_6threadEE10deallocateB8ne190106EPS1_m
	.type	_ZNSt3__29allocatorINS_6threadEE10deallocateB8ne190106EPS1_m,@function
_ZNSt3__29allocatorINS_6threadEE10deallocateB8ne190106EPS1_m: # @_ZNSt3__29allocatorINS_6threadEE10deallocateB8ne190106EPS1_m
.Lfunc_begin31:
	.loc	13 128 0 is_stmt 1              # emscripten/cache/sysroot/include/c++/v1/__memory/allocator.h:128:0
	.functype	_ZNSt3__29allocatorINS_6threadEE10deallocateB8ne190106EPS1_m (i32, i32, i32) -> ()
	.local  	i32, i32, i32, i32, i32, i32, i32, i32, i32, i32
# %bb.0:                                # %entry
	global.get	__stack_pointer
	local.set	3
	i32.const	16
	local.set	4
	local.get	3
	local.get	4
	i32.sub 
	local.set	5
	local.get	5
	global.set	__stack_pointer
	local.get	5
	local.get	0
	i32.store	12
	local.get	5
	local.get	1
	i32.store	8
	local.get	5
	local.get	2
	i32.store	4
.Ltmp81:
	.loc	13 132 39 prologue_end          # emscripten/cache/sysroot/include/c++/v1/__memory/allocator.h:132:39
	local.get	5
	i32.load	8
	local.set	6
	.loc	13 132 44 is_stmt 0             # emscripten/cache/sysroot/include/c++/v1/__memory/allocator.h:132:44
	local.get	5
	i32.load	4
	local.set	7
	.loc	13 132 48                       # emscripten/cache/sysroot/include/c++/v1/__memory/allocator.h:132:48
	i32.const	2
	local.set	8
	local.get	7
	local.get	8
	i32.shl 
	local.set	9
	.loc	13 132 7                        # emscripten/cache/sysroot/include/c++/v1/__memory/allocator.h:132:7
	i32.const	4
	local.set	10
	local.get	6
	local.get	9
	local.get	10
	call	_ZNSt3__219__libcpp_deallocateB8ne190106EPvmm
.Ltmp82:
	.loc	13 134 3 is_stmt 1              # emscripten/cache/sysroot/include/c++/v1/__memory/allocator.h:134:3
	i32.const	16
	local.set	11
	local.get	5
	local.get	11
	i32.add 
	local.set	12
	local.get	12
	global.set	__stack_pointer
	return
	end_function
.Ltmp83:
.Lfunc_end31:
                                        # -- End function
	.section	.text._ZNSt3__219__libcpp_deallocateB8ne190106EPvmm,"G",@,_ZNSt3__219__libcpp_deallocateB8ne190106EPvmm,comdat
	.hidden	_ZNSt3__219__libcpp_deallocateB8ne190106EPvmm # -- Begin function _ZNSt3__219__libcpp_deallocateB8ne190106EPvmm
	.weak	_ZNSt3__219__libcpp_deallocateB8ne190106EPvmm
	.type	_ZNSt3__219__libcpp_deallocateB8ne190106EPvmm,@function
_ZNSt3__219__libcpp_deallocateB8ne190106EPvmm: # @_ZNSt3__219__libcpp_deallocateB8ne190106EPvmm
.Lfunc_begin32:
	.loc	9 302 0                         # emscripten/cache/sysroot/include/c++/v1/new:302:0
	.functype	_ZNSt3__219__libcpp_deallocateB8ne190106EPvmm (i32, i32, i32) -> ()
	.local  	i32, i32, i32, i32, i32, i32, i32, i32, i32, i32, i32, i32, i32, i32, i32
# %bb.0:                                # %entry
	global.get	__stack_pointer
	local.set	3
	i32.const	16
	local.set	4
	local.get	3
	local.get	4
	i32.sub 
	local.set	5
	local.get	5
	global.set	__stack_pointer
	local.get	5
	local.get	0
	i32.store	12
	local.get	5
	local.get	1
	i32.store	8
	local.get	5
	local.get	2
	i32.store	4
.Ltmp84:
	.loc	9 307 32 prologue_end           # emscripten/cache/sysroot/include/c++/v1/new:307:32
	local.get	5
	i32.load	4
	local.set	6
	.loc	9 307 7 is_stmt 0               # emscripten/cache/sysroot/include/c++/v1/new:307:7
	local.get	6
	call	_ZNSt3__224__is_overaligned_for_newB8ne190106Em
	local.set	7
	i32.const	1
	local.set	8
	local.get	7
	local.get	8
	i32.and 
	local.set	9
	block   	
	block   	
	local.get	9
	i32.eqz
	br_if   	0                               # 0: down to label14
# %bb.1:                                # %if.then
.Ltmp85:
	.loc	9 308 62 is_stmt 1              # emscripten/cache/sysroot/include/c++/v1/new:308:62
	local.get	5
	i32.load	4
	local.set	10
	.loc	9 308 23 is_stmt 0              # emscripten/cache/sysroot/include/c++/v1/new:308:23
	local.get	5
	local.get	10
	i32.store	0
	.loc	9 309 40 is_stmt 1              # emscripten/cache/sysroot/include/c++/v1/new:309:40
	local.get	5
	i32.load	12
	local.set	11
	.loc	9 309 47 is_stmt 0              # emscripten/cache/sysroot/include/c++/v1/new:309:47
	local.get	5
	i32.load	8
	local.set	12
	.loc	9 309 55                        # emscripten/cache/sysroot/include/c++/v1/new:309:55
	local.get	5
	i32.load	0
	local.set	13
	.loc	9 309 12                        # emscripten/cache/sysroot/include/c++/v1/new:309:12
	local.get	11
	local.get	12
	local.get	13
	call	_ZNSt3__227__do_deallocate_handle_sizeB8ne190106IJSt11align_val_tEEEvPvmDpT_
	.loc	9 309 5                         # emscripten/cache/sysroot/include/c++/v1/new:309:5
	br      	1                               # 1: down to label13
.Ltmp86:
.LBB32_2:                               # %if.else
	.loc	9 0 5                           # emscripten/cache/sysroot/include/c++/v1/new:0:5
	end_block                               # label14:
.Ltmp87:
	.loc	9 311 40 is_stmt 1              # emscripten/cache/sysroot/include/c++/v1/new:311:40
	local.get	5
	i32.load	12
	local.set	14
	.loc	9 311 47 is_stmt 0              # emscripten/cache/sysroot/include/c++/v1/new:311:47
	local.get	5
	i32.load	8
	local.set	15
	.loc	9 311 12                        # emscripten/cache/sysroot/include/c++/v1/new:311:12
	local.get	14
	local.get	15
	call	_ZNSt3__227__do_deallocate_handle_sizeB8ne190106IJEEEvPvmDpT_
.Ltmp88:
.LBB32_3:                               # %return
	.loc	9 0 12                          # emscripten/cache/sysroot/include/c++/v1/new:0:12
	end_block                               # label13:
	.loc	9 314 1 is_stmt 1               # emscripten/cache/sysroot/include/c++/v1/new:314:1
	i32.const	16
	local.set	16
	local.get	5
	local.get	16
	i32.add 
	local.set	17
	local.get	17
	global.set	__stack_pointer
	return
	end_function
.Ltmp89:
.Lfunc_end32:
                                        # -- End function
	.section	.text._ZNSt3__224__is_overaligned_for_newB8ne190106Em,"G",@,_ZNSt3__224__is_overaligned_for_newB8ne190106Em,comdat
	.hidden	_ZNSt3__224__is_overaligned_for_newB8ne190106Em # -- Begin function _ZNSt3__224__is_overaligned_for_newB8ne190106Em
	.weak	_ZNSt3__224__is_overaligned_for_newB8ne190106Em
	.type	_ZNSt3__224__is_overaligned_for_newB8ne190106Em,@function
_ZNSt3__224__is_overaligned_for_newB8ne190106Em: # @_ZNSt3__224__is_overaligned_for_newB8ne190106Em
.Lfunc_begin33:
	.loc	9 254 0                         # emscripten/cache/sysroot/include/c++/v1/new:254:0
	.functype	_ZNSt3__224__is_overaligned_for_newB8ne190106Em (i32) -> (i32)
	.local  	i32, i32, i32, i32, i32, i32, i32, i32
# %bb.0:                                # %entry
	global.get	__stack_pointer
	local.set	1
	i32.const	16
	local.set	2
	local.get	1
	local.get	2
	i32.sub 
	local.set	3
	local.get	3
	local.get	0
	i32.store	12
.Ltmp90:
	.loc	9 256 10 prologue_end           # emscripten/cache/sysroot/include/c++/v1/new:256:10
	local.get	3
	i32.load	12
	local.set	4
	.loc	9 256 18 is_stmt 0              # emscripten/cache/sysroot/include/c++/v1/new:256:18
	i32.const	8
	local.set	5
	local.get	4
	local.get	5
	i32.gt_u
	local.set	6
	.loc	9 256 3                         # emscripten/cache/sysroot/include/c++/v1/new:256:3
	i32.const	1
	local.set	7
	local.get	6
	local.get	7
	i32.and 
	local.set	8
	local.get	8
	return
	end_function
.Ltmp91:
.Lfunc_end33:
                                        # -- End function
	.section	.text._ZNSt3__227__do_deallocate_handle_sizeB8ne190106IJSt11align_val_tEEEvPvmDpT_,"G",@,_ZNSt3__227__do_deallocate_handle_sizeB8ne190106IJSt11align_val_tEEEvPvmDpT_,comdat
	.hidden	_ZNSt3__227__do_deallocate_handle_sizeB8ne190106IJSt11align_val_tEEEvPvmDpT_ # -- Begin function _ZNSt3__227__do_deallocate_handle_sizeB8ne190106IJSt11align_val_tEEEvPvmDpT_
	.weak	_ZNSt3__227__do_deallocate_handle_sizeB8ne190106IJSt11align_val_tEEEvPvmDpT_
	.type	_ZNSt3__227__do_deallocate_handle_sizeB8ne190106IJSt11align_val_tEEEvPvmDpT_,@function
_ZNSt3__227__do_deallocate_handle_sizeB8ne190106IJSt11align_val_tEEEvPvmDpT_: # @_ZNSt3__227__do_deallocate_handle_sizeB8ne190106IJSt11align_val_tEEEvPvmDpT_
.Lfunc_begin34:
	.loc	9 293 0 is_stmt 1               # emscripten/cache/sysroot/include/c++/v1/new:293:0
	.functype	_ZNSt3__227__do_deallocate_handle_sizeB8ne190106IJSt11align_val_tEEEvPvmDpT_ (i32, i32, i32) -> ()
	.local  	i32, i32, i32, i32, i32, i32, i32, i32
# %bb.0:                                # %entry
	global.get	__stack_pointer
	local.set	3
	i32.const	16
	local.set	4
	local.get	3
	local.get	4
	i32.sub 
	local.set	5
	local.get	5
	global.set	__stack_pointer
	local.get	5
	local.get	0
	i32.store	12
	local.get	5
	local.get	1
	i32.store	8
	local.get	5
	local.get	2
	i32.store	4
.Ltmp92:
	.loc	9 298 40 prologue_end           # emscripten/cache/sysroot/include/c++/v1/new:298:40
	local.get	5
	i32.load	12
	local.set	6
	.loc	9 298 47 is_stmt 0              # emscripten/cache/sysroot/include/c++/v1/new:298:47
	local.get	5
	i32.load	8
	local.set	7
	.loc	9 298 55                        # emscripten/cache/sysroot/include/c++/v1/new:298:55
	local.get	5
	i32.load	4
	local.set	8
	.loc	9 298 10                        # emscripten/cache/sysroot/include/c++/v1/new:298:10
	local.get	6
	local.get	7
	local.get	8
	call	_ZNSt3__224__libcpp_operator_deleteB8ne190106IJPvmSt11align_val_tEEEvDpT_
	.loc	9 298 3                         # emscripten/cache/sysroot/include/c++/v1/new:298:3
	i32.const	16
	local.set	9
	local.get	5
	local.get	9
	i32.add 
	local.set	10
	local.get	10
	global.set	__stack_pointer
	return
	end_function
.Ltmp93:
.Lfunc_end34:
                                        # -- End function
	.section	.text._ZNSt3__227__do_deallocate_handle_sizeB8ne190106IJEEEvPvmDpT_,"G",@,_ZNSt3__227__do_deallocate_handle_sizeB8ne190106IJEEEvPvmDpT_,comdat
	.hidden	_ZNSt3__227__do_deallocate_handle_sizeB8ne190106IJEEEvPvmDpT_ # -- Begin function _ZNSt3__227__do_deallocate_handle_sizeB8ne190106IJEEEvPvmDpT_
	.weak	_ZNSt3__227__do_deallocate_handle_sizeB8ne190106IJEEEvPvmDpT_
	.type	_ZNSt3__227__do_deallocate_handle_sizeB8ne190106IJEEEvPvmDpT_,@function
_ZNSt3__227__do_deallocate_handle_sizeB8ne190106IJEEEvPvmDpT_: # @_ZNSt3__227__do_deallocate_handle_sizeB8ne190106IJEEEvPvmDpT_
.Lfunc_begin35:
	.loc	9 293 0 is_stmt 1               # emscripten/cache/sysroot/include/c++/v1/new:293:0
	.functype	_ZNSt3__227__do_deallocate_handle_sizeB8ne190106IJEEEvPvmDpT_ (i32, i32) -> ()
	.local  	i32, i32, i32, i32, i32, i32, i32
# %bb.0:                                # %entry
	global.get	__stack_pointer
	local.set	2
	i32.const	16
	local.set	3
	local.get	2
	local.get	3
	i32.sub 
	local.set	4
	local.get	4
	global.set	__stack_pointer
	local.get	4
	local.get	0
	i32.store	12
	local.get	4
	local.get	1
	i32.store	8
.Ltmp94:
	.loc	9 298 40 prologue_end           # emscripten/cache/sysroot/include/c++/v1/new:298:40
	local.get	4
	i32.load	12
	local.set	5
	.loc	9 298 47 is_stmt 0              # emscripten/cache/sysroot/include/c++/v1/new:298:47
	local.get	4
	i32.load	8
	local.set	6
	.loc	9 298 10                        # emscripten/cache/sysroot/include/c++/v1/new:298:10
	local.get	5
	local.get	6
	call	_ZNSt3__224__libcpp_operator_deleteB8ne190106IJPvmEEEvDpT_
	.loc	9 298 3                         # emscripten/cache/sysroot/include/c++/v1/new:298:3
	i32.const	16
	local.set	7
	local.get	4
	local.get	7
	i32.add 
	local.set	8
	local.get	8
	global.set	__stack_pointer
	return
	end_function
.Ltmp95:
.Lfunc_end35:
                                        # -- End function
	.section	.text._ZNSt3__224__libcpp_operator_deleteB8ne190106IJPvmSt11align_val_tEEEvDpT_,"G",@,_ZNSt3__224__libcpp_operator_deleteB8ne190106IJPvmSt11align_val_tEEEvDpT_,comdat
	.hidden	_ZNSt3__224__libcpp_operator_deleteB8ne190106IJPvmSt11align_val_tEEEvDpT_ # -- Begin function _ZNSt3__224__libcpp_operator_deleteB8ne190106IJPvmSt11align_val_tEEEvDpT_
	.weak	_ZNSt3__224__libcpp_operator_deleteB8ne190106IJPvmSt11align_val_tEEEvDpT_
	.type	_ZNSt3__224__libcpp_operator_deleteB8ne190106IJPvmSt11align_val_tEEEvDpT_,@function
_ZNSt3__224__libcpp_operator_deleteB8ne190106IJPvmSt11align_val_tEEEvDpT_: # @_ZNSt3__224__libcpp_operator_deleteB8ne190106IJPvmSt11align_val_tEEEvDpT_
.Lfunc_begin36:
	.loc	9 272 0 is_stmt 1               # emscripten/cache/sysroot/include/c++/v1/new:272:0
	.functype	_ZNSt3__224__libcpp_operator_deleteB8ne190106IJPvmSt11align_val_tEEEvDpT_ (i32, i32, i32) -> ()
	.local  	i32, i32, i32, i32, i32, i32, i32, i32
# %bb.0:                                # %entry
	global.get	__stack_pointer
	local.set	3
	i32.const	16
	local.set	4
	local.get	3
	local.get	4
	i32.sub 
	local.set	5
	local.get	5
	global.set	__stack_pointer
	local.get	5
	local.get	0
	i32.store	12
	local.get	5
	local.get	1
	i32.store	8
	local.get	5
	local.get	2
	i32.store	4
.Ltmp96:
	.loc	9 274 29 prologue_end           # emscripten/cache/sysroot/include/c++/v1/new:274:29
	local.get	5
	i32.load	12
	local.set	6
	local.get	5
	i32.load	8
	local.set	7
	local.get	5
	i32.load	4
	local.set	8
	.loc	9 274 3 is_stmt 0               # emscripten/cache/sysroot/include/c++/v1/new:274:3
	local.get	6
	local.get	7
	local.get	8
	call	_ZdlPvmSt11align_val_t
	.loc	9 278 1 is_stmt 1               # emscripten/cache/sysroot/include/c++/v1/new:278:1
	i32.const	16
	local.set	9
	local.get	5
	local.get	9
	i32.add 
	local.set	10
	local.get	10
	global.set	__stack_pointer
	return
	end_function
.Ltmp97:
.Lfunc_end36:
                                        # -- End function
	.section	.text._ZNSt3__224__libcpp_operator_deleteB8ne190106IJPvmEEEvDpT_,"G",@,_ZNSt3__224__libcpp_operator_deleteB8ne190106IJPvmEEEvDpT_,comdat
	.hidden	_ZNSt3__224__libcpp_operator_deleteB8ne190106IJPvmEEEvDpT_ # -- Begin function _ZNSt3__224__libcpp_operator_deleteB8ne190106IJPvmEEEvDpT_
	.weak	_ZNSt3__224__libcpp_operator_deleteB8ne190106IJPvmEEEvDpT_
	.type	_ZNSt3__224__libcpp_operator_deleteB8ne190106IJPvmEEEvDpT_,@function
_ZNSt3__224__libcpp_operator_deleteB8ne190106IJPvmEEEvDpT_: # @_ZNSt3__224__libcpp_operator_deleteB8ne190106IJPvmEEEvDpT_
.Lfunc_begin37:
	.loc	9 272 0                         # emscripten/cache/sysroot/include/c++/v1/new:272:0
	.functype	_ZNSt3__224__libcpp_operator_deleteB8ne190106IJPvmEEEvDpT_ (i32, i32) -> ()
	.local  	i32, i32, i32, i32, i32, i32, i32
# %bb.0:                                # %entry
	global.get	__stack_pointer
	local.set	2
	i32.const	16
	local.set	3
	local.get	2
	local.get	3
	i32.sub 
	local.set	4
	local.get	4
	global.set	__stack_pointer
	local.get	4
	local.get	0
	i32.store	12
	local.get	4
	local.get	1
	i32.store	8
.Ltmp98:
	.loc	9 274 29 prologue_end           # emscripten/cache/sysroot/include/c++/v1/new:274:29
	local.get	4
	i32.load	12
	local.set	5
	local.get	4
	i32.load	8
	local.set	6
	.loc	9 274 3 is_stmt 0               # emscripten/cache/sysroot/include/c++/v1/new:274:3
	local.get	5
	local.get	6
	call	_ZdlPvm
	.loc	9 278 1 is_stmt 1               # emscripten/cache/sysroot/include/c++/v1/new:278:1
	i32.const	16
	local.set	7
	local.get	4
	local.get	7
	i32.add 
	local.set	8
	local.get	8
	global.set	__stack_pointer
	return
	end_function
.Ltmp99:
.Lfunc_end37:
                                        # -- End function
	.section	.text._ZNSt3__217__compressed_pairIPNS_6threadENS_9allocatorIS1_EEE6secondB8ne190106Ev,"G",@,_ZNSt3__217__compressed_pairIPNS_6threadENS_9allocatorIS1_EEE6secondB8ne190106Ev,comdat
	.hidden	_ZNSt3__217__compressed_pairIPNS_6threadENS_9allocatorIS1_EEE6secondB8ne190106Ev # -- Begin function _ZNSt3__217__compressed_pairIPNS_6threadENS_9allocatorIS1_EEE6secondB8ne190106Ev
	.weak	_ZNSt3__217__compressed_pairIPNS_6threadENS_9allocatorIS1_EEE6secondB8ne190106Ev
	.type	_ZNSt3__217__compressed_pairIPNS_6threadENS_9allocatorIS1_EEE6secondB8ne190106Ev,@function
_ZNSt3__217__compressed_pairIPNS_6threadENS_9allocatorIS1_EEE6secondB8ne190106Ev: # @_ZNSt3__217__compressed_pairIPNS_6threadENS_9allocatorIS1_EEE6secondB8ne190106Ev
.Lfunc_begin38:
	.loc	15 137 0                        # emscripten/cache/sysroot/include/c++/v1/__memory/compressed_pair.h:137:0
	.functype	_ZNSt3__217__compressed_pairIPNS_6threadENS_9allocatorIS1_EEE6secondB8ne190106Ev (i32) -> (i32)
	.local  	i32, i32, i32, i32, i32, i32, i32
# %bb.0:                                # %entry
	global.get	__stack_pointer
	local.set	1
	i32.const	16
	local.set	2
	local.get	1
	local.get	2
	i32.sub 
	local.set	3
	local.get	3
	global.set	__stack_pointer
	local.get	3
	local.get	0
	i32.store	12
	local.get	3
	i32.load	12
	local.set	4
.Ltmp100:
	.loc	15 138 40 prologue_end          # emscripten/cache/sysroot/include/c++/v1/__memory/compressed_pair.h:138:40
	local.get	4
	call	_ZNSt3__222__compressed_pair_elemINS_9allocatorINS_6threadEEELi1ELb1EE5__getB8ne190106Ev
	local.set	5
	.loc	15 138 5 is_stmt 0              # emscripten/cache/sysroot/include/c++/v1/__memory/compressed_pair.h:138:5
	i32.const	16
	local.set	6
	local.get	3
	local.get	6
	i32.add 
	local.set	7
	local.get	7
	global.set	__stack_pointer
	local.get	5
	return
	end_function
.Ltmp101:
.Lfunc_end38:
                                        # -- End function
	.section	.text._ZNSt3__222__compressed_pair_elemINS_9allocatorINS_6threadEEELi1ELb1EE5__getB8ne190106Ev,"G",@,_ZNSt3__222__compressed_pair_elemINS_9allocatorINS_6threadEEELi1ELb1EE5__getB8ne190106Ev,comdat
	.hidden	_ZNSt3__222__compressed_pair_elemINS_9allocatorINS_6threadEEELi1ELb1EE5__getB8ne190106Ev # -- Begin function _ZNSt3__222__compressed_pair_elemINS_9allocatorINS_6threadEEELi1ELb1EE5__getB8ne190106Ev
	.weak	_ZNSt3__222__compressed_pair_elemINS_9allocatorINS_6threadEEELi1ELb1EE5__getB8ne190106Ev
	.type	_ZNSt3__222__compressed_pair_elemINS_9allocatorINS_6threadEEELi1ELb1EE5__getB8ne190106Ev,@function
_ZNSt3__222__compressed_pair_elemINS_9allocatorINS_6threadEEELi1ELb1EE5__getB8ne190106Ev: # @_ZNSt3__222__compressed_pair_elemINS_9allocatorINS_6threadEEELi1ELb1EE5__getB8ne190106Ev
.Lfunc_begin39:
	.loc	15 91 0 is_stmt 1               # emscripten/cache/sysroot/include/c++/v1/__memory/compressed_pair.h:91:0
	.functype	_ZNSt3__222__compressed_pair_elemINS_9allocatorINS_6threadEEELi1ELb1EE5__getB8ne190106Ev (i32) -> (i32)
	.local  	i32, i32, i32, i32
# %bb.0:                                # %entry
	global.get	__stack_pointer
	local.set	1
	i32.const	16
	local.set	2
	local.get	1
	local.get	2
	i32.sub 
	local.set	3
	local.get	3
	local.get	0
	i32.store	12
	local.get	3
	i32.load	12
	local.set	4
.Ltmp102:
	.loc	15 91 85 prologue_end           # emscripten/cache/sysroot/include/c++/v1/__memory/compressed_pair.h:91:85
	local.get	4
	return
	end_function
.Ltmp103:
.Lfunc_end39:
                                        # -- End function
	.section	.text._ZNKSt3__26vectorINS_6threadENS_9allocatorIS1_EEE9__end_capB8ne190106Ev,"G",@,_ZNKSt3__26vectorINS_6threadENS_9allocatorIS1_EEE9__end_capB8ne190106Ev,comdat
	.hidden	_ZNKSt3__26vectorINS_6threadENS_9allocatorIS1_EEE9__end_capB8ne190106Ev # -- Begin function _ZNKSt3__26vectorINS_6threadENS_9allocatorIS1_EEE9__end_capB8ne190106Ev
	.weak	_ZNKSt3__26vectorINS_6threadENS_9allocatorIS1_EEE9__end_capB8ne190106Ev
	.type	_ZNKSt3__26vectorINS_6threadENS_9allocatorIS1_EEE9__end_capB8ne190106Ev,@function
_ZNKSt3__26vectorINS_6threadENS_9allocatorIS1_EEE9__end_capB8ne190106Ev: # @_ZNKSt3__26vectorINS_6threadENS_9allocatorIS1_EEE9__end_capB8ne190106Ev
.Lfunc_begin40:
	.loc	7 974 0                         # emscripten/cache/sysroot/include/c++/v1/vector:974:0
	.functype	_ZNKSt3__26vectorINS_6threadENS_9allocatorIS1_EEE9__end_capB8ne190106Ev (i32) -> (i32)
	.local  	i32, i32, i32, i32, i32, i32, i32, i32, i32
# %bb.0:                                # %entry
	global.get	__stack_pointer
	local.set	1
	i32.const	16
	local.set	2
	local.get	1
	local.get	2
	i32.sub 
	local.set	3
	local.get	3
	global.set	__stack_pointer
	local.get	3
	local.get	0
	i32.store	12
	local.get	3
	i32.load	12
	local.set	4
.Ltmp104:
	.loc	7 975 18 prologue_end           # emscripten/cache/sysroot/include/c++/v1/vector:975:18
	i32.const	8
	local.set	5
	local.get	4
	local.get	5
	i32.add 
	local.set	6
	.loc	7 975 29 is_stmt 0              # emscripten/cache/sysroot/include/c++/v1/vector:975:29
	local.get	6
	call	_ZNKSt3__217__compressed_pairIPNS_6threadENS_9allocatorIS1_EEE5firstB8ne190106Ev
	local.set	7
	.loc	7 975 5                         # emscripten/cache/sysroot/include/c++/v1/vector:975:5
	i32.const	16
	local.set	8
	local.get	3
	local.get	8
	i32.add 
	local.set	9
	local.get	9
	global.set	__stack_pointer
	local.get	7
	return
	end_function
.Ltmp105:
.Lfunc_end40:
                                        # -- End function
	.section	.text._ZNKSt3__217__compressed_pairIPNS_6threadENS_9allocatorIS1_EEE5firstB8ne190106Ev,"G",@,_ZNKSt3__217__compressed_pairIPNS_6threadENS_9allocatorIS1_EEE5firstB8ne190106Ev,comdat
	.hidden	_ZNKSt3__217__compressed_pairIPNS_6threadENS_9allocatorIS1_EEE5firstB8ne190106Ev # -- Begin function _ZNKSt3__217__compressed_pairIPNS_6threadENS_9allocatorIS1_EEE5firstB8ne190106Ev
	.weak	_ZNKSt3__217__compressed_pairIPNS_6threadENS_9allocatorIS1_EEE5firstB8ne190106Ev
	.type	_ZNKSt3__217__compressed_pairIPNS_6threadENS_9allocatorIS1_EEE5firstB8ne190106Ev,@function
_ZNKSt3__217__compressed_pairIPNS_6threadENS_9allocatorIS1_EEE5firstB8ne190106Ev: # @_ZNKSt3__217__compressed_pairIPNS_6threadENS_9allocatorIS1_EEE5firstB8ne190106Ev
.Lfunc_begin41:
	.loc	15 133 0 is_stmt 1              # emscripten/cache/sysroot/include/c++/v1/__memory/compressed_pair.h:133:0
	.functype	_ZNKSt3__217__compressed_pairIPNS_6threadENS_9allocatorIS1_EEE5firstB8ne190106Ev (i32) -> (i32)
	.local  	i32, i32, i32, i32, i32, i32, i32
# %bb.0:                                # %entry
	global.get	__stack_pointer
	local.set	1
	i32.const	16
	local.set	2
	local.get	1
	local.get	2
	i32.sub 
	local.set	3
	local.get	3
	global.set	__stack_pointer
	local.get	3
	local.get	0
	i32.store	12
	local.get	3
	i32.load	12
	local.set	4
.Ltmp106:
	.loc	15 134 46 prologue_end          # emscripten/cache/sysroot/include/c++/v1/__memory/compressed_pair.h:134:46
	local.get	4
	call	_ZNKSt3__222__compressed_pair_elemIPNS_6threadELi0ELb0EE5__getB8ne190106Ev
	local.set	5
	.loc	15 134 5 is_stmt 0              # emscripten/cache/sysroot/include/c++/v1/__memory/compressed_pair.h:134:5
	i32.const	16
	local.set	6
	local.get	3
	local.get	6
	i32.add 
	local.set	7
	local.get	7
	global.set	__stack_pointer
	local.get	5
	return
	end_function
.Ltmp107:
.Lfunc_end41:
                                        # -- End function
	.section	.text._ZNKSt3__222__compressed_pair_elemIPNS_6threadELi0ELb0EE5__getB8ne190106Ev,"G",@,_ZNKSt3__222__compressed_pair_elemIPNS_6threadELi0ELb0EE5__getB8ne190106Ev,comdat
	.hidden	_ZNKSt3__222__compressed_pair_elemIPNS_6threadELi0ELb0EE5__getB8ne190106Ev # -- Begin function _ZNKSt3__222__compressed_pair_elemIPNS_6threadELi0ELb0EE5__getB8ne190106Ev
	.weak	_ZNKSt3__222__compressed_pair_elemIPNS_6threadELi0ELb0EE5__getB8ne190106Ev
	.type	_ZNKSt3__222__compressed_pair_elemIPNS_6threadELi0ELb0EE5__getB8ne190106Ev,@function
_ZNKSt3__222__compressed_pair_elemIPNS_6threadELi0ELb0EE5__getB8ne190106Ev: # @_ZNKSt3__222__compressed_pair_elemIPNS_6threadELi0ELb0EE5__getB8ne190106Ev
.Lfunc_begin42:
	.loc	15 63 0 is_stmt 1               # emscripten/cache/sysroot/include/c++/v1/__memory/compressed_pair.h:63:0
	.functype	_ZNKSt3__222__compressed_pair_elemIPNS_6threadELi0ELb0EE5__getB8ne190106Ev (i32) -> (i32)
	.local  	i32, i32, i32, i32
# %bb.0:                                # %entry
	global.get	__stack_pointer
	local.set	1
	i32.const	16
	local.set	2
	local.get	1
	local.get	2
	i32.sub 
	local.set	3
	local.get	3
	local.get	0
	i32.store	12
	local.get	3
	i32.load	12
	local.set	4
.Ltmp108:
	.loc	15 63 85 prologue_end           # emscripten/cache/sysroot/include/c++/v1/__memory/compressed_pair.h:63:85
	local.get	4
	return
	end_function
.Ltmp109:
.Lfunc_end42:
                                        # -- End function
	.section	.text._ZNSt3__26vectorINS_6threadENS_9allocatorIS1_EEE9__end_capB8ne190106Ev,"G",@,_ZNSt3__26vectorINS_6threadENS_9allocatorIS1_EEE9__end_capB8ne190106Ev,comdat
	.hidden	_ZNSt3__26vectorINS_6threadENS_9allocatorIS1_EEE9__end_capB8ne190106Ev # -- Begin function _ZNSt3__26vectorINS_6threadENS_9allocatorIS1_EEE9__end_capB8ne190106Ev
	.weak	_ZNSt3__26vectorINS_6threadENS_9allocatorIS1_EEE9__end_capB8ne190106Ev
	.type	_ZNSt3__26vectorINS_6threadENS_9allocatorIS1_EEE9__end_capB8ne190106Ev,@function
_ZNSt3__26vectorINS_6threadENS_9allocatorIS1_EEE9__end_capB8ne190106Ev: # @_ZNSt3__26vectorINS_6threadENS_9allocatorIS1_EEE9__end_capB8ne190106Ev
.Lfunc_begin43:
	.loc	7 971 0                         # emscripten/cache/sysroot/include/c++/v1/vector:971:0
	.functype	_ZNSt3__26vectorINS_6threadENS_9allocatorIS1_EEE9__end_capB8ne190106Ev (i32) -> (i32)
	.local  	i32, i32, i32, i32, i32, i32, i32, i32, i32
# %bb.0:                                # %entry
	global.get	__stack_pointer
	local.set	1
	i32.const	16
	local.set	2
	local.get	1
	local.get	2
	i32.sub 
	local.set	3
	local.get	3
	global.set	__stack_pointer
	local.get	3
	local.get	0
	i32.store	12
	local.get	3
	i32.load	12
	local.set	4
.Ltmp110:
	.loc	7 972 18 prologue_end           # emscripten/cache/sysroot/include/c++/v1/vector:972:18
	i32.const	8
	local.set	5
	local.get	4
	local.get	5
	i32.add 
	local.set	6
	.loc	7 972 29 is_stmt 0              # emscripten/cache/sysroot/include/c++/v1/vector:972:29
	local.get	6
	call	_ZNSt3__217__compressed_pairIPNS_6threadENS_9allocatorIS1_EEE5firstB8ne190106Ev
	local.set	7
	.loc	7 972 5                         # emscripten/cache/sysroot/include/c++/v1/vector:972:5
	i32.const	16
	local.set	8
	local.get	3
	local.get	8
	i32.add 
	local.set	9
	local.get	9
	global.set	__stack_pointer
	local.get	7
	return
	end_function
.Ltmp111:
.Lfunc_end43:
                                        # -- End function
	.section	.text._ZNSt3__26vectorINS_6threadENS_9allocatorIS1_EEE22__construct_one_at_endB8ne190106IJRFvvEEEEvDpOT_,"G",@,_ZNSt3__26vectorINS_6threadENS_9allocatorIS1_EEE22__construct_one_at_endB8ne190106IJRFvvEEEEvDpOT_,comdat
	.hidden	_ZNSt3__26vectorINS_6threadENS_9allocatorIS1_EEE22__construct_one_at_endB8ne190106IJRFvvEEEEvDpOT_ # -- Begin function _ZNSt3__26vectorINS_6threadENS_9allocatorIS1_EEE22__construct_one_at_endB8ne190106IJRFvvEEEEvDpOT_
	.weak	_ZNSt3__26vectorINS_6threadENS_9allocatorIS1_EEE22__construct_one_at_endB8ne190106IJRFvvEEEEvDpOT_
	.type	_ZNSt3__26vectorINS_6threadENS_9allocatorIS1_EEE22__construct_one_at_endB8ne190106IJRFvvEEEEvDpOT_,@function
_ZNSt3__26vectorINS_6threadENS_9allocatorIS1_EEE22__construct_one_at_endB8ne190106IJRFvvEEEEvDpOT_: # @_ZNSt3__26vectorINS_6threadENS_9allocatorIS1_EEE22__construct_one_at_endB8ne190106IJRFvvEEEEvDpOT_
.Lfunc_begin44:
	.loc	7 959 0 is_stmt 1               # emscripten/cache/sysroot/include/c++/v1/vector:959:0
	.functype	_ZNSt3__26vectorINS_6threadENS_9allocatorIS1_EEE22__construct_one_at_endB8ne190106IJRFvvEEEEvDpOT_ (i32, i32) -> ()
	.local  	i32, i32, i32, i32, i32, i32, i32, i32, i32, i32, i32, i32, i32, i32, i32, i32, i32, i32, i32, i32
# %bb.0:                                # %entry
	global.get	__stack_pointer
	local.set	2
	i32.const	32
	local.set	3
	local.get	2
	local.get	3
	i32.sub 
	local.set	4
	local.get	4
	global.set	__stack_pointer
	local.get	4
	local.get	0
	i32.store	28
	local.get	4
	local.get	1
	i32.store	24
	local.get	4
	i32.load	28
	local.set	5
.Ltmp112:
	.loc	7 960 27 prologue_end           # emscripten/cache/sysroot/include/c++/v1/vector:960:27
	i32.const	12
	local.set	6
	local.get	4
	local.get	6
	i32.add 
	local.set	7
	local.get	7
	local.set	8
	i32.const	1
	local.set	9
	local.get	8
	local.get	5
	local.get	9
	call	_ZNSt3__26vectorINS_6threadENS_9allocatorIS1_EEE21_ConstructTransactionC2B8ne190106ERS4_m
	drop
	.loc	7 961 37                        # emscripten/cache/sysroot/include/c++/v1/vector:961:37
	local.get	5
	call	_ZNSt3__26vectorINS_6threadENS_9allocatorIS1_EEE7__allocB8ne190106Ev
	local.set	10
	.loc	7 961 71 is_stmt 0              # emscripten/cache/sysroot/include/c++/v1/vector:961:71
	local.get	4
	i32.load	16
	local.set	11
	.loc	7 961 48                        # emscripten/cache/sysroot/include/c++/v1/vector:961:48
	local.get	11
	call	_ZNSt3__212__to_addressB8ne190106INS_6threadEEEPT_S3_
	local.set	12
	.loc	7 961 100                       # emscripten/cache/sysroot/include/c++/v1/vector:961:100
	local.get	4
	i32.load	24
	local.set	13
	.loc	7 961 5                         # emscripten/cache/sysroot/include/c++/v1/vector:961:5
	local.get	10
	local.get	12
	local.get	13
	call	_ZNSt3__216allocator_traitsINS_9allocatorINS_6threadEEEE9constructB8ne190106IS2_JRFvvEETnNS_9enable_ifIXsr15__has_constructIS3_PT_DpT0_EE5valueEiE4typeELi0EEEvRS3_SA_DpOSB_
	.loc	7 962 5 is_stmt 1               # emscripten/cache/sysroot/include/c++/v1/vector:962:5
	local.get	4
	i32.load	16
	local.set	14
	i32.const	4
	local.set	15
	local.get	14
	local.get	15
	i32.add 
	local.set	16
	local.get	4
	local.get	16
	i32.store	16
	.loc	7 963 3                         # emscripten/cache/sysroot/include/c++/v1/vector:963:3
	i32.const	12
	local.set	17
	local.get	4
	local.get	17
	i32.add 
	local.set	18
	local.get	18
	local.set	19
	local.get	19
	call	_ZNSt3__26vectorINS_6threadENS_9allocatorIS1_EEE21_ConstructTransactionD2B8ne190106Ev
	drop
	i32.const	32
	local.set	20
	local.get	4
	local.get	20
	i32.add 
	local.set	21
	local.get	21
	global.set	__stack_pointer
	return
	end_function
.Ltmp113:
.Lfunc_end44:
                                        # -- End function
	.section	.text._ZNSt3__26vectorINS_6threadENS_9allocatorIS1_EEE24__emplace_back_slow_pathIJRFvvEEEEPS1_DpOT_,"G",@,_ZNSt3__26vectorINS_6threadENS_9allocatorIS1_EEE24__emplace_back_slow_pathIJRFvvEEEEPS1_DpOT_,comdat
	.hidden	_ZNSt3__26vectorINS_6threadENS_9allocatorIS1_EEE24__emplace_back_slow_pathIJRFvvEEEEPS1_DpOT_ # -- Begin function _ZNSt3__26vectorINS_6threadENS_9allocatorIS1_EEE24__emplace_back_slow_pathIJRFvvEEEEPS1_DpOT_
	.weak	_ZNSt3__26vectorINS_6threadENS_9allocatorIS1_EEE24__emplace_back_slow_pathIJRFvvEEEEPS1_DpOT_
	.type	_ZNSt3__26vectorINS_6threadENS_9allocatorIS1_EEE24__emplace_back_slow_pathIJRFvvEEEEPS1_DpOT_,@function
_ZNSt3__26vectorINS_6threadENS_9allocatorIS1_EEE24__emplace_back_slow_pathIJRFvvEEEEPS1_DpOT_: # @_ZNSt3__26vectorINS_6threadENS_9allocatorIS1_EEE24__emplace_back_slow_pathIJRFvvEEEEPS1_DpOT_
.Lfunc_begin45:
	.loc	7 1534 0                        # emscripten/cache/sysroot/include/c++/v1/vector:1534:0
	.functype	_ZNSt3__26vectorINS_6threadENS_9allocatorIS1_EEE24__emplace_back_slow_pathIJRFvvEEEEPS1_DpOT_ (i32, i32) -> (i32)
	.local  	i32, i32, i32, i32, i32, i32, i32, i32, i32, i32, i32, i32, i32, i32, i32, i32, i32, i32, i32, i32, i32, i32, i32, i32
# %bb.0:                                # %entry
	global.get	__stack_pointer
	local.set	2
	i32.const	32
	local.set	3
	local.get	2
	local.get	3
	i32.sub 
	local.set	4
	local.get	4
	global.set	__stack_pointer
	local.get	4
	local.get	0
	i32.store	28
	local.get	4
	local.get	1
	i32.store	24
	local.get	4
	i32.load	28
	local.set	5
.Ltmp114:
	.loc	7 1535 31 prologue_end          # emscripten/cache/sysroot/include/c++/v1/vector:1535:31
	local.get	5
	call	_ZNSt3__26vectorINS_6threadENS_9allocatorIS1_EEE7__allocB8ne190106Ev
	local.set	6
	.loc	7 1535 19 is_stmt 0             # emscripten/cache/sysroot/include/c++/v1/vector:1535:19
	local.get	4
	local.get	6
	i32.store	20
	.loc	7 1536 63 is_stmt 1             # emscripten/cache/sysroot/include/c++/v1/vector:1536:63
	local.get	5
	call	_ZNKSt3__26vectorINS_6threadENS_9allocatorIS1_EEE4sizeB8ne190106Ev
	local.set	7
	.loc	7 1536 70 is_stmt 0             # emscripten/cache/sysroot/include/c++/v1/vector:1536:70
	i32.const	1
	local.set	8
	local.get	7
	local.get	8
	i32.add 
	local.set	9
	.loc	7 1536 51                       # emscripten/cache/sysroot/include/c++/v1/vector:1536:51
	local.get	5
	local.get	9
	call	_ZNKSt3__26vectorINS_6threadENS_9allocatorIS1_EEE11__recommendB8ne190106Em
	local.set	10
	.loc	7 1536 76                       # emscripten/cache/sysroot/include/c++/v1/vector:1536:76
	local.get	5
	call	_ZNKSt3__26vectorINS_6threadENS_9allocatorIS1_EEE4sizeB8ne190106Ev
	local.set	11
	.loc	7 1536 84                       # emscripten/cache/sysroot/include/c++/v1/vector:1536:84
	local.get	4
	i32.load	20
	local.set	12
	.loc	7 1536 47                       # emscripten/cache/sysroot/include/c++/v1/vector:1536:47
	local.get	4
	local.set	13
	local.get	13
	local.get	10
	local.get	11
	local.get	12
	call	_ZNSt3__214__split_bufferINS_6threadERNS_9allocatorIS1_EEEC2EmmS4_
	drop
	.loc	7 1538 29 is_stmt 1             # emscripten/cache/sysroot/include/c++/v1/vector:1538:29
	local.get	4
	i32.load	20
	local.set	14
	.loc	7 1538 56 is_stmt 0             # emscripten/cache/sysroot/include/c++/v1/vector:1538:56
	local.get	4
	i32.load	8
	local.set	15
	.loc	7 1538 34                       # emscripten/cache/sysroot/include/c++/v1/vector:1538:34
	local.get	15
	call	_ZNSt3__212__to_addressB8ne190106INS_6threadEEEPT_S3_
	local.set	16
	.loc	7 1538 85                       # emscripten/cache/sysroot/include/c++/v1/vector:1538:85
	local.get	4
	i32.load	24
	local.set	17
	.loc	7 1538 3                        # emscripten/cache/sysroot/include/c++/v1/vector:1538:3
	local.get	14
	local.get	16
	local.get	17
	call	_ZNSt3__216allocator_traitsINS_9allocatorINS_6threadEEEE9constructB8ne190106IS2_JRFvvEETnNS_9enable_ifIXsr15__has_constructIS3_PT_DpT0_EE5valueEiE4typeELi0EEEvRS3_SA_DpOSB_
	.loc	7 1539 13 is_stmt 1             # emscripten/cache/sysroot/include/c++/v1/vector:1539:13
	local.get	4
	i32.load	8
	local.set	18
	i32.const	4
	local.set	19
	local.get	18
	local.get	19
	i32.add 
	local.set	20
	local.get	4
	local.get	20
	i32.store	8
	.loc	7 1540 3                        # emscripten/cache/sysroot/include/c++/v1/vector:1540:3
	local.get	4
	local.set	21
	local.get	5
	local.get	21
	call	_ZNSt3__26vectorINS_6threadENS_9allocatorIS1_EEE26__swap_out_circular_bufferERNS_14__split_bufferIS1_RS3_EE
	.loc	7 1541 16                       # emscripten/cache/sysroot/include/c++/v1/vector:1541:16
	local.get	5
	i32.load	4
	local.set	22
	.loc	7 1542 1                        # emscripten/cache/sysroot/include/c++/v1/vector:1542:1
	local.get	4
	local.set	23
	local.get	23
	call	_ZNSt3__214__split_bufferINS_6threadERNS_9allocatorIS1_EEED2Ev
	drop
	i32.const	32
	local.set	24
	local.get	4
	local.get	24
	i32.add 
	local.set	25
	local.get	25
	global.set	__stack_pointer
	local.get	22
	return
	end_function
.Ltmp115:
.Lfunc_end45:
                                        # -- End function
	.section	.text._ZNSt3__217__compressed_pairIPNS_6threadENS_9allocatorIS1_EEE5firstB8ne190106Ev,"G",@,_ZNSt3__217__compressed_pairIPNS_6threadENS_9allocatorIS1_EEE5firstB8ne190106Ev,comdat
	.hidden	_ZNSt3__217__compressed_pairIPNS_6threadENS_9allocatorIS1_EEE5firstB8ne190106Ev # -- Begin function _ZNSt3__217__compressed_pairIPNS_6threadENS_9allocatorIS1_EEE5firstB8ne190106Ev
	.weak	_ZNSt3__217__compressed_pairIPNS_6threadENS_9allocatorIS1_EEE5firstB8ne190106Ev
	.type	_ZNSt3__217__compressed_pairIPNS_6threadENS_9allocatorIS1_EEE5firstB8ne190106Ev,@function
_ZNSt3__217__compressed_pairIPNS_6threadENS_9allocatorIS1_EEE5firstB8ne190106Ev: # @_ZNSt3__217__compressed_pairIPNS_6threadENS_9allocatorIS1_EEE5firstB8ne190106Ev
.Lfunc_begin46:
	.loc	15 129 0                        # emscripten/cache/sysroot/include/c++/v1/__memory/compressed_pair.h:129:0
	.functype	_ZNSt3__217__compressed_pairIPNS_6threadENS_9allocatorIS1_EEE5firstB8ne190106Ev (i32) -> (i32)
	.local  	i32, i32, i32, i32, i32, i32, i32
# %bb.0:                                # %entry
	global.get	__stack_pointer
	local.set	1
	i32.const	16
	local.set	2
	local.get	1
	local.get	2
	i32.sub 
	local.set	3
	local.get	3
	global.set	__stack_pointer
	local.get	3
	local.get	0
	i32.store	12
	local.get	3
	i32.load	12
	local.set	4
.Ltmp116:
	.loc	15 130 40 prologue_end          # emscripten/cache/sysroot/include/c++/v1/__memory/compressed_pair.h:130:40
	local.get	4
	call	_ZNSt3__222__compressed_pair_elemIPNS_6threadELi0ELb0EE5__getB8ne190106Ev
	local.set	5
	.loc	15 130 5 is_stmt 0              # emscripten/cache/sysroot/include/c++/v1/__memory/compressed_pair.h:130:5
	i32.const	16
	local.set	6
	local.get	3
	local.get	6
	i32.add 
	local.set	7
	local.get	7
	global.set	__stack_pointer
	local.get	5
	return
	end_function
.Ltmp117:
.Lfunc_end46:
                                        # -- End function
	.section	.text._ZNSt3__222__compressed_pair_elemIPNS_6threadELi0ELb0EE5__getB8ne190106Ev,"G",@,_ZNSt3__222__compressed_pair_elemIPNS_6threadELi0ELb0EE5__getB8ne190106Ev,comdat
	.hidden	_ZNSt3__222__compressed_pair_elemIPNS_6threadELi0ELb0EE5__getB8ne190106Ev # -- Begin function _ZNSt3__222__compressed_pair_elemIPNS_6threadELi0ELb0EE5__getB8ne190106Ev
	.weak	_ZNSt3__222__compressed_pair_elemIPNS_6threadELi0ELb0EE5__getB8ne190106Ev
	.type	_ZNSt3__222__compressed_pair_elemIPNS_6threadELi0ELb0EE5__getB8ne190106Ev,@function
_ZNSt3__222__compressed_pair_elemIPNS_6threadELi0ELb0EE5__getB8ne190106Ev: # @_ZNSt3__222__compressed_pair_elemIPNS_6threadELi0ELb0EE5__getB8ne190106Ev
.Lfunc_begin47:
	.loc	15 62 0 is_stmt 1               # emscripten/cache/sysroot/include/c++/v1/__memory/compressed_pair.h:62:0
	.functype	_ZNSt3__222__compressed_pair_elemIPNS_6threadELi0ELb0EE5__getB8ne190106Ev (i32) -> (i32)
	.local  	i32, i32, i32, i32
# %bb.0:                                # %entry
	global.get	__stack_pointer
	local.set	1
	i32.const	16
	local.set	2
	local.get	1
	local.get	2
	i32.sub 
	local.set	3
	local.get	3
	local.get	0
	i32.store	12
	local.get	3
	i32.load	12
	local.set	4
.Ltmp118:
	.loc	15 62 85 prologue_end           # emscripten/cache/sysroot/include/c++/v1/__memory/compressed_pair.h:62:85
	local.get	4
	return
	end_function
.Ltmp119:
.Lfunc_end47:
                                        # -- End function
	.section	.text._ZNSt3__26vectorINS_6threadENS_9allocatorIS1_EEE21_ConstructTransactionC2B8ne190106ERS4_m,"G",@,_ZNSt3__26vectorINS_6threadENS_9allocatorIS1_EEE21_ConstructTransactionC2B8ne190106ERS4_m,comdat
	.hidden	_ZNSt3__26vectorINS_6threadENS_9allocatorIS1_EEE21_ConstructTransactionC2B8ne190106ERS4_m # -- Begin function _ZNSt3__26vectorINS_6threadENS_9allocatorIS1_EEE21_ConstructTransactionC2B8ne190106ERS4_m
	.weak	_ZNSt3__26vectorINS_6threadENS_9allocatorIS1_EEE21_ConstructTransactionC2B8ne190106ERS4_m
	.type	_ZNSt3__26vectorINS_6threadENS_9allocatorIS1_EEE21_ConstructTransactionC2B8ne190106ERS4_m,@function
_ZNSt3__26vectorINS_6threadENS_9allocatorIS1_EEE21_ConstructTransactionC2B8ne190106ERS4_m: # @_ZNSt3__26vectorINS_6threadENS_9allocatorIS1_EEE21_ConstructTransactionC2B8ne190106ERS4_m
.Lfunc_begin48:
	.loc	7 935 0                         # emscripten/cache/sysroot/include/c++/v1/vector:935:0
	.functype	_ZNSt3__26vectorINS_6threadENS_9allocatorIS1_EEE21_ConstructTransactionC2B8ne190106ERS4_m (i32, i32, i32) -> (i32)
	.local  	i32, i32, i32, i32, i32, i32, i32, i32, i32, i32, i32, i32, i32
# %bb.0:                                # %entry
	global.get	__stack_pointer
	local.set	3
	i32.const	16
	local.set	4
	local.get	3
	local.get	4
	i32.sub 
	local.set	5
	local.get	5
	local.get	0
	i32.store	12
	local.get	5
	local.get	1
	i32.store	8
	local.get	5
	local.get	2
	i32.store	4
	local.get	5
	i32.load	12
	local.set	6
.Ltmp120:
	.loc	7 935 16 prologue_end           # emscripten/cache/sysroot/include/c++/v1/vector:935:16
	local.get	5
	i32.load	8
	local.set	7
	.loc	7 935 11 is_stmt 0              # emscripten/cache/sysroot/include/c++/v1/vector:935:11
	local.get	6
	local.get	7
	i32.store	0
	.loc	7 935 29                        # emscripten/cache/sysroot/include/c++/v1/vector:935:29
	local.get	5
	i32.load	8
	local.set	8
	.loc	7 935 33                        # emscripten/cache/sysroot/include/c++/v1/vector:935:33
	local.get	8
	i32.load	4
	local.set	9
	.loc	7 935 22                        # emscripten/cache/sysroot/include/c++/v1/vector:935:22
	local.get	6
	local.get	9
	i32.store	4
	.loc	7 935 53                        # emscripten/cache/sysroot/include/c++/v1/vector:935:53
	local.get	5
	i32.load	8
	local.set	10
	.loc	7 935 57                        # emscripten/cache/sysroot/include/c++/v1/vector:935:57
	local.get	10
	i32.load	4
	local.set	11
	.loc	7 935 66                        # emscripten/cache/sysroot/include/c++/v1/vector:935:66
	local.get	5
	i32.load	4
	local.set	12
	.loc	7 935 64                        # emscripten/cache/sysroot/include/c++/v1/vector:935:64
	i32.const	2
	local.set	13
	local.get	12
	local.get	13
	i32.shl 
	local.set	14
	local.get	11
	local.get	14
	i32.add 
	local.set	15
	.loc	7 935 42                        # emscripten/cache/sysroot/include/c++/v1/vector:935:42
	local.get	6
	local.get	15
	i32.store	8
	.loc	7 939 5 is_stmt 1               # emscripten/cache/sysroot/include/c++/v1/vector:939:5
	local.get	6
	return
	end_function
.Ltmp121:
.Lfunc_end48:
                                        # -- End function
	.section	.text._ZNSt3__216allocator_traitsINS_9allocatorINS_6threadEEEE9constructB8ne190106IS2_JRFvvEETnNS_9enable_ifIXsr15__has_constructIS3_PT_DpT0_EE5valueEiE4typeELi0EEEvRS3_SA_DpOSB_,"G",@,_ZNSt3__216allocator_traitsINS_9allocatorINS_6threadEEEE9constructB8ne190106IS2_JRFvvEETnNS_9enable_ifIXsr15__has_constructIS3_PT_DpT0_EE5valueEiE4typeELi0EEEvRS3_SA_DpOSB_,comdat
	.hidden	_ZNSt3__216allocator_traitsINS_9allocatorINS_6threadEEEE9constructB8ne190106IS2_JRFvvEETnNS_9enable_ifIXsr15__has_constructIS3_PT_DpT0_EE5valueEiE4typeELi0EEEvRS3_SA_DpOSB_ # -- Begin function _ZNSt3__216allocator_traitsINS_9allocatorINS_6threadEEEE9constructB8ne190106IS2_JRFvvEETnNS_9enable_ifIXsr15__has_constructIS3_PT_DpT0_EE5valueEiE4typeELi0EEEvRS3_SA_DpOSB_
	.weak	_ZNSt3__216allocator_traitsINS_9allocatorINS_6threadEEEE9constructB8ne190106IS2_JRFvvEETnNS_9enable_ifIXsr15__has_constructIS3_PT_DpT0_EE5valueEiE4typeELi0EEEvRS3_SA_DpOSB_
	.type	_ZNSt3__216allocator_traitsINS_9allocatorINS_6threadEEEE9constructB8ne190106IS2_JRFvvEETnNS_9enable_ifIXsr15__has_constructIS3_PT_DpT0_EE5valueEiE4typeELi0EEEvRS3_SA_DpOSB_,@function
_ZNSt3__216allocator_traitsINS_9allocatorINS_6threadEEEE9constructB8ne190106IS2_JRFvvEETnNS_9enable_ifIXsr15__has_constructIS3_PT_DpT0_EE5valueEiE4typeELi0EEEvRS3_SA_DpOSB_: # @_ZNSt3__216allocator_traitsINS_9allocatorINS_6threadEEEE9constructB8ne190106IS2_JRFvvEETnNS_9enable_ifIXsr15__has_constructIS3_PT_DpT0_EE5valueEiE4typeELi0EEEvRS3_SA_DpOSB_
.Lfunc_begin49:
	.loc	14 317 0                        # emscripten/cache/sysroot/include/c++/v1/__memory/allocator_traits.h:317:0
	.functype	_ZNSt3__216allocator_traitsINS_9allocatorINS_6threadEEEE9constructB8ne190106IS2_JRFvvEETnNS_9enable_ifIXsr15__has_constructIS3_PT_DpT0_EE5valueEiE4typeELi0EEEvRS3_SA_DpOSB_ (i32, i32, i32) -> ()
	.local  	i32, i32, i32, i32, i32, i32, i32, i32
# %bb.0:                                # %entry
	global.get	__stack_pointer
	local.set	3
	i32.const	16
	local.set	4
	local.get	3
	local.get	4
	i32.sub 
	local.set	5
	local.get	5
	global.set	__stack_pointer
	local.get	5
	local.get	0
	i32.store	12
	local.get	5
	local.get	1
	i32.store	8
	local.get	5
	local.get	2
	i32.store	4
.Ltmp122:
	.loc	14 319 5 prologue_end           # emscripten/cache/sysroot/include/c++/v1/__memory/allocator_traits.h:319:5
	local.get	5
	i32.load	12
	local.set	6
	.loc	14 319 19 is_stmt 0             # emscripten/cache/sysroot/include/c++/v1/__memory/allocator_traits.h:319:19
	local.get	5
	i32.load	8
	local.set	7
	.loc	14 319 44                       # emscripten/cache/sysroot/include/c++/v1/__memory/allocator_traits.h:319:44
	local.get	5
	i32.load	4
	local.set	8
	.loc	14 319 9                        # emscripten/cache/sysroot/include/c++/v1/__memory/allocator_traits.h:319:9
	local.get	6
	local.get	7
	local.get	8
	call	_ZNSt3__29allocatorINS_6threadEE9constructB8ne190106IS1_JRFvvEEEEvPT_DpOT0_
	.loc	14 321 3 is_stmt 1              # emscripten/cache/sysroot/include/c++/v1/__memory/allocator_traits.h:321:3
	i32.const	16
	local.set	9
	local.get	5
	local.get	9
	i32.add 
	local.set	10
	local.get	10
	global.set	__stack_pointer
	return
	end_function
.Ltmp123:
.Lfunc_end49:
                                        # -- End function
	.section	.text._ZNSt3__26vectorINS_6threadENS_9allocatorIS1_EEE21_ConstructTransactionD2B8ne190106Ev,"G",@,_ZNSt3__26vectorINS_6threadENS_9allocatorIS1_EEE21_ConstructTransactionD2B8ne190106Ev,comdat
	.hidden	_ZNSt3__26vectorINS_6threadENS_9allocatorIS1_EEE21_ConstructTransactionD2B8ne190106Ev # -- Begin function _ZNSt3__26vectorINS_6threadENS_9allocatorIS1_EEE21_ConstructTransactionD2B8ne190106Ev
	.weak	_ZNSt3__26vectorINS_6threadENS_9allocatorIS1_EEE21_ConstructTransactionD2B8ne190106Ev
	.type	_ZNSt3__26vectorINS_6threadENS_9allocatorIS1_EEE21_ConstructTransactionD2B8ne190106Ev,@function
_ZNSt3__26vectorINS_6threadENS_9allocatorIS1_EEE21_ConstructTransactionD2B8ne190106Ev: # @_ZNSt3__26vectorINS_6threadENS_9allocatorIS1_EEE21_ConstructTransactionD2B8ne190106Ev
.Lfunc_begin50:
	.loc	7 941 0                         # emscripten/cache/sysroot/include/c++/v1/vector:941:0
	.functype	_ZNSt3__26vectorINS_6threadENS_9allocatorIS1_EEE21_ConstructTransactionD2B8ne190106Ev (i32) -> (i32)
	.local  	i32, i32, i32, i32, i32, i32
# %bb.0:                                # %entry
	global.get	__stack_pointer
	local.set	1
	i32.const	16
	local.set	2
	local.get	1
	local.get	2
	i32.sub 
	local.set	3
	local.get	3
	local.get	0
	i32.store	12
	local.get	3
	i32.load	12
	local.set	4
.Ltmp124:
	.loc	7 942 21 prologue_end           # emscripten/cache/sysroot/include/c++/v1/vector:942:21
	local.get	4
	i32.load	4
	local.set	5
	.loc	7 942 7 is_stmt 0               # emscripten/cache/sysroot/include/c++/v1/vector:942:7
	local.get	4
	i32.load	0
	local.set	6
	.loc	7 942 19                        # emscripten/cache/sysroot/include/c++/v1/vector:942:19
	local.get	6
	local.get	5
	i32.store	4
.Ltmp125:
	.loc	7 948 5 is_stmt 1               # emscripten/cache/sysroot/include/c++/v1/vector:948:5
	local.get	4
	return
	end_function
.Ltmp126:
.Lfunc_end50:
                                        # -- End function
	.section	.text._ZNSt3__29allocatorINS_6threadEE9constructB8ne190106IS1_JRFvvEEEEvPT_DpOT0_,"G",@,_ZNSt3__29allocatorINS_6threadEE9constructB8ne190106IS1_JRFvvEEEEvPT_DpOT0_,comdat
	.hidden	_ZNSt3__29allocatorINS_6threadEE9constructB8ne190106IS1_JRFvvEEEEvPT_DpOT0_ # -- Begin function _ZNSt3__29allocatorINS_6threadEE9constructB8ne190106IS1_JRFvvEEEEvPT_DpOT0_
	.weak	_ZNSt3__29allocatorINS_6threadEE9constructB8ne190106IS1_JRFvvEEEEvPT_DpOT0_
	.type	_ZNSt3__29allocatorINS_6threadEE9constructB8ne190106IS1_JRFvvEEEEvPT_DpOT0_,@function
_ZNSt3__29allocatorINS_6threadEE9constructB8ne190106IS1_JRFvvEEEEvPT_DpOT0_: # @_ZNSt3__29allocatorINS_6threadEE9constructB8ne190106IS1_JRFvvEEEEvPT_DpOT0_
.Lfunc_begin51:
	.loc	13 164 0                        # emscripten/cache/sysroot/include/c++/v1/__memory/allocator.h:164:0
	.functype	_ZNSt3__29allocatorINS_6threadEE9constructB8ne190106IS1_JRFvvEEEEvPT_DpOT0_ (i32, i32, i32) -> ()
	.local  	i32, i32, i32, i32, i32, i32, i32
# %bb.0:                                # %entry
	global.get	__stack_pointer
	local.set	3
	i32.const	16
	local.set	4
	local.get	3
	local.get	4
	i32.sub 
	local.set	5
	local.get	5
	global.set	__stack_pointer
	local.get	5
	local.get	0
	i32.store	12
	local.get	5
	local.get	1
	i32.store	8
	local.get	5
	local.get	2
	i32.store	4
.Ltmp127:
	.loc	13 165 19 prologue_end          # emscripten/cache/sysroot/include/c++/v1/__memory/allocator.h:165:19
	local.get	5
	i32.load	8
	local.set	6
	.loc	13 165 48 is_stmt 0             # emscripten/cache/sysroot/include/c++/v1/__memory/allocator.h:165:48
	local.get	5
	i32.load	4
	local.set	7
	.loc	13 165 24                       # emscripten/cache/sysroot/include/c++/v1/__memory/allocator.h:165:24
	local.get	6
	local.get	7
	call	_ZNSt3__26threadC2IRFvvEJETnNS_9enable_ifIXntsr7is_sameIu14__remove_cvrefIT_ES0_EE5valueEiE4typeELi0EEEOS5_DpOT0_
	drop
	.loc	13 166 3 is_stmt 1              # emscripten/cache/sysroot/include/c++/v1/__memory/allocator.h:166:3
	i32.const	16
	local.set	8
	local.get	5
	local.get	8
	i32.add 
	local.set	9
	local.get	9
	global.set	__stack_pointer
	return
	end_function
.Ltmp128:
.Lfunc_end51:
                                        # -- End function
	.section	.text._ZNSt3__26threadC2IRFvvEJETnNS_9enable_ifIXntsr7is_sameIu14__remove_cvrefIT_ES0_EE5valueEiE4typeELi0EEEOS5_DpOT0_,"G",@,_ZNSt3__26threadC2IRFvvEJETnNS_9enable_ifIXntsr7is_sameIu14__remove_cvrefIT_ES0_EE5valueEiE4typeELi0EEEOS5_DpOT0_,comdat
	.hidden	_ZNSt3__26threadC2IRFvvEJETnNS_9enable_ifIXntsr7is_sameIu14__remove_cvrefIT_ES0_EE5valueEiE4typeELi0EEEOS5_DpOT0_ # -- Begin function _ZNSt3__26threadC2IRFvvEJETnNS_9enable_ifIXntsr7is_sameIu14__remove_cvrefIT_ES0_EE5valueEiE4typeELi0EEEOS5_DpOT0_
	.weak	_ZNSt3__26threadC2IRFvvEJETnNS_9enable_ifIXntsr7is_sameIu14__remove_cvrefIT_ES0_EE5valueEiE4typeELi0EEEOS5_DpOT0_
	.type	_ZNSt3__26threadC2IRFvvEJETnNS_9enable_ifIXntsr7is_sameIu14__remove_cvrefIT_ES0_EE5valueEiE4typeELi0EEEOS5_DpOT0_,@function
_ZNSt3__26threadC2IRFvvEJETnNS_9enable_ifIXntsr7is_sameIu14__remove_cvrefIT_ES0_EE5valueEiE4typeELi0EEEOS5_DpOT0_: # @_ZNSt3__26threadC2IRFvvEJETnNS_9enable_ifIXntsr7is_sameIu14__remove_cvrefIT_ES0_EE5valueEiE4typeELi0EEEOS5_DpOT0_
.Lfunc_begin52:
	.loc	6 206 0                         # emscripten/cache/sysroot/include/c++/v1/__thread/thread.h:206:0
	.functype	_ZNSt3__26threadC2IRFvvEJETnNS_9enable_ifIXntsr7is_sameIu14__remove_cvrefIT_ES0_EE5valueEiE4typeELi0EEEOS5_DpOT0_ (i32, i32) -> (i32)
	.local  	i32, i32, i32, i32, i32, i32, i32, i32, i32, i32, i32, i32, i32, i32, i32, i32, i32, i32, i32, i32, i32, i32, i32, i32, i32, i32, i32, i32, i32, i32, i32, i32, i32, i32, i32, i32, i32, i32
# %bb.0:                                # %entry
	global.get	__stack_pointer
	local.set	2
	i32.const	32
	local.set	3
	local.get	2
	local.get	3
	i32.sub 
	local.set	4
	local.get	4
	global.set	__stack_pointer
	local.get	4
	local.get	0
	i32.store	28
	local.get	4
	local.get	1
	i32.store	24
	local.get	4
	i32.load	28
	local.set	5
.Ltmp129:
	.loc	6 208 16 prologue_end           # emscripten/cache/sysroot/include/c++/v1/__thread/thread.h:208:16
	i32.const	4
	local.set	6
	local.get	6
	call	_Znwm
	local.set	7
	.loc	6 208 20 is_stmt 0              # emscripten/cache/sysroot/include/c++/v1/__thread/thread.h:208:20
	local.get	7
	call	_ZNSt3__215__thread_structC1Ev
	drop
	.loc	6 208 10                        # emscripten/cache/sysroot/include/c++/v1/__thread/thread.h:208:10
	i32.const	20
	local.set	8
	local.get	4
	local.get	8
	i32.add 
	local.set	9
	local.get	9
	local.set	10
	local.get	10
	local.get	7
	call	_ZNSt3__210unique_ptrINS_15__thread_structENS_14default_deleteIS1_EEEC2B8ne190106ILb1EvEEPS1_
	drop
	.loc	6 210 23 is_stmt 1              # emscripten/cache/sysroot/include/c++/v1/__thread/thread.h:210:23
	i32.const	8
	local.set	11
	local.get	11
	call	_Znwm
	local.set	12
	.loc	6 210 67 is_stmt 0              # emscripten/cache/sysroot/include/c++/v1/__thread/thread.h:210:67
	local.get	4
	i32.load	24
	local.set	13
	.loc	6 210 27                        # emscripten/cache/sysroot/include/c++/v1/__thread/thread.h:210:27
	i32.const	20
	local.set	14
	local.get	4
	local.get	14
	i32.add 
	local.set	15
	local.get	15
	local.set	16
	local.get	12
	local.get	16
	local.get	13
	call	_ZNSt3__25tupleIJNS_10unique_ptrINS_15__thread_structENS_14default_deleteIS2_EEEEPFvvEEEC2B8ne190106IJS5_RS6_ETnNS_9enable_ifIXsr4_AndINS_17integral_constantIbXeqsZT_sZT_EEENS8_17_EnableUTypesCtorIJDpT_EEEEE5valueEiE4typeELi0EEEDpOSF_
	drop
	.loc	6 210 19                        # emscripten/cache/sysroot/include/c++/v1/__thread/thread.h:210:19
	i32.const	16
	local.set	17
	local.get	4
	local.get	17
	i32.add 
	local.set	18
	local.get	18
	local.set	19
	local.get	19
	local.get	12
	call	_ZNSt3__210unique_ptrINS_5tupleIJNS0_INS_15__thread_structENS_14default_deleteIS2_EEEEPFvvEEEENS3_IS8_EEEC2B8ne190106ILb1EvEEPS8_
	drop
	.loc	6 211 75 is_stmt 1              # emscripten/cache/sysroot/include/c++/v1/__thread/thread.h:211:75
	i32.const	16
	local.set	20
	local.get	4
	local.get	20
	i32.add 
	local.set	21
	local.get	21
	local.set	22
	local.get	22
	call	_ZNKSt3__210unique_ptrINS_5tupleIJNS0_INS_15__thread_structENS_14default_deleteIS2_EEEEPFvvEEEENS3_IS8_EEE3getB8ne190106Ev
	local.set	23
	.loc	6 211 14 is_stmt 0              # emscripten/cache/sysroot/include/c++/v1/__thread/thread.h:211:14
	i32.const	_ZNSt3__214__thread_proxyB8ne190106INS_5tupleIJNS_10unique_ptrINS_15__thread_structENS_14default_deleteIS3_EEEEPFvvEEEEEEPvSA_
	local.set	24
	local.get	5
	local.get	24
	local.get	23
	call	_ZNSt3__222__libcpp_thread_createB8ne190106EPmPFPvS1_ES1_
	local.set	25
	.loc	6 211 7                         # emscripten/cache/sysroot/include/c++/v1/__thread/thread.h:211:7
	local.get	4
	local.get	25
	i32.store	12
.Ltmp130:
	.loc	6 212 7 is_stmt 1               # emscripten/cache/sysroot/include/c++/v1/__thread/thread.h:212:7
	local.get	4
	i32.load	12
	local.set	26
	.loc	6 212 12 is_stmt 0              # emscripten/cache/sysroot/include/c++/v1/__thread/thread.h:212:12
	block   	
	block   	
	local.get	26
	br_if   	0                               # 0: down to label16
# %bb.1:                                # %if.then
	.loc	6 213 9 is_stmt 1               # emscripten/cache/sysroot/include/c++/v1/__thread/thread.h:213:9
	i32.const	16
	local.set	27
	local.get	4
	local.get	27
	i32.add 
	local.set	28
	local.get	28
	local.set	29
	local.get	29
	call	_ZNSt3__210unique_ptrINS_5tupleIJNS0_INS_15__thread_structENS_14default_deleteIS2_EEEEPFvvEEEENS3_IS8_EEE7releaseB8ne190106Ev
	drop
	.loc	6 213 5 is_stmt 0               # emscripten/cache/sysroot/include/c++/v1/__thread/thread.h:213:5
	br      	1                               # 1: down to label15
.LBB52_2:                               # %if.else
	.loc	6 0 5                           # emscripten/cache/sysroot/include/c++/v1/__thread/thread.h:0:5
	end_block                               # label16:
	.loc	6 215 26 is_stmt 1              # emscripten/cache/sysroot/include/c++/v1/__thread/thread.h:215:26
	local.get	4
	i32.load	12
	local.set	30
	.loc	6 215 5 is_stmt 0               # emscripten/cache/sysroot/include/c++/v1/__thread/thread.h:215:5
	i32.const	.L.str.1
	local.set	31
	local.get	30
	local.get	31
	call	_ZNSt3__220__throw_system_errorEiPKc
	unreachable
.Ltmp131:
.LBB52_3:                               # %if.end
	.loc	6 0 5                           # emscripten/cache/sysroot/include/c++/v1/__thread/thread.h:0:5
	end_block                               # label15:
	.loc	6 216 1 is_stmt 1               # emscripten/cache/sysroot/include/c++/v1/__thread/thread.h:216:1
	i32.const	16
	local.set	32
	local.get	4
	local.get	32
	i32.add 
	local.set	33
	local.get	33
	local.set	34
	local.get	34
	call	_ZNSt3__210unique_ptrINS_5tupleIJNS0_INS_15__thread_structENS_14default_deleteIS2_EEEEPFvvEEEENS3_IS8_EEED2B8ne190106Ev
	drop
	i32.const	20
	local.set	35
	local.get	4
	local.get	35
	i32.add 
	local.set	36
	local.get	36
	local.set	37
	local.get	37
	call	_ZNSt3__210unique_ptrINS_15__thread_structENS_14default_deleteIS1_EEED2B8ne190106Ev
	drop
	i32.const	32
	local.set	38
	local.get	4
	local.get	38
	i32.add 
	local.set	39
	local.get	39
	global.set	__stack_pointer
	local.get	5
	return
	end_function
.Ltmp132:
.Lfunc_end52:
                                        # -- End function
	.section	.text._ZNSt3__210unique_ptrINS_15__thread_structENS_14default_deleteIS1_EEEC2B8ne190106ILb1EvEEPS1_,"G",@,_ZNSt3__210unique_ptrINS_15__thread_structENS_14default_deleteIS1_EEEC2B8ne190106ILb1EvEEPS1_,comdat
	.hidden	_ZNSt3__210unique_ptrINS_15__thread_structENS_14default_deleteIS1_EEEC2B8ne190106ILb1EvEEPS1_ # -- Begin function _ZNSt3__210unique_ptrINS_15__thread_structENS_14default_deleteIS1_EEEC2B8ne190106ILb1EvEEPS1_
	.weak	_ZNSt3__210unique_ptrINS_15__thread_structENS_14default_deleteIS1_EEEC2B8ne190106ILb1EvEEPS1_
	.type	_ZNSt3__210unique_ptrINS_15__thread_structENS_14default_deleteIS1_EEEC2B8ne190106ILb1EvEEPS1_,@function
_ZNSt3__210unique_ptrINS_15__thread_structENS_14default_deleteIS1_EEEC2B8ne190106ILb1EvEEPS1_: # @_ZNSt3__210unique_ptrINS_15__thread_structENS_14default_deleteIS1_EEEC2B8ne190106ILb1EvEEPS1_
.Lfunc_begin53:
	.loc	23 200 0                        # emscripten/cache/sysroot/include/c++/v1/__memory/unique_ptr.h:200:0
	.functype	_ZNSt3__210unique_ptrINS_15__thread_structENS_14default_deleteIS1_EEEC2B8ne190106ILb1EvEEPS1_ (i32, i32) -> (i32)
	.local  	i32, i32, i32, i32, i32, i32, i32, i32, i32, i32, i32, i32
# %bb.0:                                # %entry
	global.get	__stack_pointer
	local.set	2
	i32.const	16
	local.set	3
	local.get	2
	local.get	3
	i32.sub 
	local.set	4
	local.get	4
	global.set	__stack_pointer
	local.get	4
	local.get	0
	i32.store	12
	local.get	4
	local.get	1
	i32.store	8
	local.get	4
	i32.load	12
	local.set	5
.Ltmp133:
	.loc	23 200 78 prologue_end          # emscripten/cache/sysroot/include/c++/v1/__memory/unique_ptr.h:200:78
	i32.const	8
	local.set	6
	local.get	4
	local.get	6
	i32.add 
	local.set	7
	local.get	7
	local.set	8
	i32.const	7
	local.set	9
	local.get	4
	local.get	9
	i32.add 
	local.set	10
	local.get	10
	local.set	11
	local.get	5
	local.get	8
	local.get	11
	call	_ZNSt3__217__compressed_pairIPNS_15__thread_structENS_14default_deleteIS1_EEEC2B8ne190106IRS2_NS_16__value_init_tagEEEOT_OT0_
	drop
	.loc	23 200 111 is_stmt 0            # emscripten/cache/sysroot/include/c++/v1/__memory/unique_ptr.h:200:111
	i32.const	16
	local.set	12
	local.get	4
	local.get	12
	i32.add 
	local.set	13
	local.get	13
	global.set	__stack_pointer
	local.get	5
	return
	end_function
.Ltmp134:
.Lfunc_end53:
                                        # -- End function
	.section	.text._ZNSt3__25tupleIJNS_10unique_ptrINS_15__thread_structENS_14default_deleteIS2_EEEEPFvvEEEC2B8ne190106IJS5_RS6_ETnNS_9enable_ifIXsr4_AndINS_17integral_constantIbXeqsZT_sZT_EEENS8_17_EnableUTypesCtorIJDpT_EEEEE5valueEiE4typeELi0EEEDpOSF_,"G",@,_ZNSt3__25tupleIJNS_10unique_ptrINS_15__thread_structENS_14default_deleteIS2_EEEEPFvvEEEC2B8ne190106IJS5_RS6_ETnNS_9enable_ifIXsr4_AndINS_17integral_constantIbXeqsZT_sZT_EEENS8_17_EnableUTypesCtorIJDpT_EEEEE5valueEiE4typeELi0EEEDpOSF_,comdat
	.hidden	_ZNSt3__25tupleIJNS_10unique_ptrINS_15__thread_structENS_14default_deleteIS2_EEEEPFvvEEEC2B8ne190106IJS5_RS6_ETnNS_9enable_ifIXsr4_AndINS_17integral_constantIbXeqsZT_sZT_EEENS8_17_EnableUTypesCtorIJDpT_EEEEE5valueEiE4typeELi0EEEDpOSF_ # -- Begin function _ZNSt3__25tupleIJNS_10unique_ptrINS_15__thread_structENS_14default_deleteIS2_EEEEPFvvEEEC2B8ne190106IJS5_RS6_ETnNS_9enable_ifIXsr4_AndINS_17integral_constantIbXeqsZT_sZT_EEENS8_17_EnableUTypesCtorIJDpT_EEEEE5valueEiE4typeELi0EEEDpOSF_
	.weak	_ZNSt3__25tupleIJNS_10unique_ptrINS_15__thread_structENS_14default_deleteIS2_EEEEPFvvEEEC2B8ne190106IJS5_RS6_ETnNS_9enable_ifIXsr4_AndINS_17integral_constantIbXeqsZT_sZT_EEENS8_17_EnableUTypesCtorIJDpT_EEEEE5valueEiE4typeELi0EEEDpOSF_
	.type	_ZNSt3__25tupleIJNS_10unique_ptrINS_15__thread_structENS_14default_deleteIS2_EEEEPFvvEEEC2B8ne190106IJS5_RS6_ETnNS_9enable_ifIXsr4_AndINS_17integral_constantIbXeqsZT_sZT_EEENS8_17_EnableUTypesCtorIJDpT_EEEEE5valueEiE4typeELi0EEEDpOSF_,@function
_ZNSt3__25tupleIJNS_10unique_ptrINS_15__thread_structENS_14default_deleteIS2_EEEEPFvvEEEC2B8ne190106IJS5_RS6_ETnNS_9enable_ifIXsr4_AndINS_17integral_constantIbXeqsZT_sZT_EEENS8_17_EnableUTypesCtorIJDpT_EEEEE5valueEiE4typeELi0EEEDpOSF_: # @_ZNSt3__25tupleIJNS_10unique_ptrINS_15__thread_structENS_14default_deleteIS2_EEEEPFvvEEEC2B8ne190106IJS5_RS6_ETnNS_9enable_ifIXsr4_AndINS_17integral_constantIbXeqsZT_sZT_EEENS8_17_EnableUTypesCtorIJDpT_EEEEE5valueEiE4typeELi0EEEDpOSF_
.Lfunc_begin54:
	.loc	27 620 0 is_stmt 1              # emscripten/cache/sysroot/include/c++/v1/tuple:620:0
	.functype	_ZNSt3__25tupleIJNS_10unique_ptrINS_15__thread_structENS_14default_deleteIS2_EEEEPFvvEEEC2B8ne190106IJS5_RS6_ETnNS_9enable_ifIXsr4_AndINS_17integral_constantIbXeqsZT_sZT_EEENS8_17_EnableUTypesCtorIJDpT_EEEEE5valueEiE4typeELi0EEEDpOSF_ (i32, i32, i32) -> (i32)
	.local  	i32, i32, i32, i32, i32, i32, i32, i32
# %bb.0:                                # %entry
	global.get	__stack_pointer
	local.set	3
	i32.const	16
	local.set	4
	local.get	3
	local.get	4
	i32.sub 
	local.set	5
	local.get	5
	global.set	__stack_pointer
	local.get	5
	local.get	0
	i32.store	12
	local.get	5
	local.get	1
	i32.store	8
	local.get	5
	local.get	2
	i32.store	4
	local.get	5
	i32.load	12
	local.set	6
.Ltmp135:
	.loc	27 620 35 prologue_end          # emscripten/cache/sysroot/include/c++/v1/tuple:620:35
	local.get	5
	i32.load	8
	local.set	7
	local.get	5
	i32.load	4
	local.set	8
	.loc	27 616 9                        # emscripten/cache/sysroot/include/c++/v1/tuple:616:9
	local.get	6
	local.get	7
	local.get	8
	call	_ZNSt3__212__tuple_implINS_15__tuple_indicesIJLm0ELm1EEEEJNS_10unique_ptrINS_15__thread_structENS_14default_deleteIS4_EEEEPFvvEEEC2B8ne190106IJLm0ELm1EEJS7_S9_ETpTnmJEJEJS7_RS8_EEENS1_IJXspT_EEEENS_13__tuple_typesIJDpT0_EEENS1_IJXspT1_EEEENSE_IJDpT2_EEEDpOT3_
	drop
	.loc	27 620 45                       # emscripten/cache/sysroot/include/c++/v1/tuple:620:45
	i32.const	16
	local.set	9
	local.get	5
	local.get	9
	i32.add 
	local.set	10
	local.get	10
	global.set	__stack_pointer
	local.get	6
	return
	end_function
.Ltmp136:
.Lfunc_end54:
                                        # -- End function
	.section	.text._ZNSt3__210unique_ptrINS_5tupleIJNS0_INS_15__thread_structENS_14default_deleteIS2_EEEEPFvvEEEENS3_IS8_EEEC2B8ne190106ILb1EvEEPS8_,"G",@,_ZNSt3__210unique_ptrINS_5tupleIJNS0_INS_15__thread_structENS_14default_deleteIS2_EEEEPFvvEEEENS3_IS8_EEEC2B8ne190106ILb1EvEEPS8_,comdat
	.hidden	_ZNSt3__210unique_ptrINS_5tupleIJNS0_INS_15__thread_structENS_14default_deleteIS2_EEEEPFvvEEEENS3_IS8_EEEC2B8ne190106ILb1EvEEPS8_ # -- Begin function _ZNSt3__210unique_ptrINS_5tupleIJNS0_INS_15__thread_structENS_14default_deleteIS2_EEEEPFvvEEEENS3_IS8_EEEC2B8ne190106ILb1EvEEPS8_
	.weak	_ZNSt3__210unique_ptrINS_5tupleIJNS0_INS_15__thread_structENS_14default_deleteIS2_EEEEPFvvEEEENS3_IS8_EEEC2B8ne190106ILb1EvEEPS8_
	.type	_ZNSt3__210unique_ptrINS_5tupleIJNS0_INS_15__thread_structENS_14default_deleteIS2_EEEEPFvvEEEENS3_IS8_EEEC2B8ne190106ILb1EvEEPS8_,@function
_ZNSt3__210unique_ptrINS_5tupleIJNS0_INS_15__thread_structENS_14default_deleteIS2_EEEEPFvvEEEENS3_IS8_EEEC2B8ne190106ILb1EvEEPS8_: # @_ZNSt3__210unique_ptrINS_5tupleIJNS0_INS_15__thread_structENS_14default_deleteIS2_EEEEPFvvEEEENS3_IS8_EEEC2B8ne190106ILb1EvEEPS8_
.Lfunc_begin55:
	.loc	23 200 0                        # emscripten/cache/sysroot/include/c++/v1/__memory/unique_ptr.h:200:0
	.functype	_ZNSt3__210unique_ptrINS_5tupleIJNS0_INS_15__thread_structENS_14default_deleteIS2_EEEEPFvvEEEENS3_IS8_EEEC2B8ne190106ILb1EvEEPS8_ (i32, i32) -> (i32)
	.local  	i32, i32, i32, i32, i32, i32, i32, i32, i32, i32, i32, i32
# %bb.0:                                # %entry
	global.get	__stack_pointer
	local.set	2
	i32.const	16
	local.set	3
	local.get	2
	local.get	3
	i32.sub 
	local.set	4
	local.get	4
	global.set	__stack_pointer
	local.get	4
	local.get	0
	i32.store	12
	local.get	4
	local.get	1
	i32.store	8
	local.get	4
	i32.load	12
	local.set	5
.Ltmp137:
	.loc	23 200 78 prologue_end          # emscripten/cache/sysroot/include/c++/v1/__memory/unique_ptr.h:200:78
	i32.const	8
	local.set	6
	local.get	4
	local.get	6
	i32.add 
	local.set	7
	local.get	7
	local.set	8
	i32.const	7
	local.set	9
	local.get	4
	local.get	9
	i32.add 
	local.set	10
	local.get	10
	local.set	11
	local.get	5
	local.get	8
	local.get	11
	call	_ZNSt3__217__compressed_pairIPNS_5tupleIJNS_10unique_ptrINS_15__thread_structENS_14default_deleteIS3_EEEEPFvvEEEENS4_IS9_EEEC2B8ne190106IRSA_NS_16__value_init_tagEEEOT_OT0_
	drop
	.loc	23 200 111 is_stmt 0            # emscripten/cache/sysroot/include/c++/v1/__memory/unique_ptr.h:200:111
	i32.const	16
	local.set	12
	local.get	4
	local.get	12
	i32.add 
	local.set	13
	local.get	13
	global.set	__stack_pointer
	local.get	5
	return
	end_function
.Ltmp138:
.Lfunc_end55:
                                        # -- End function
	.section	.text._ZNSt3__222__libcpp_thread_createB8ne190106EPmPFPvS1_ES1_,"G",@,_ZNSt3__222__libcpp_thread_createB8ne190106EPmPFPvS1_ES1_,comdat
	.hidden	_ZNSt3__222__libcpp_thread_createB8ne190106EPmPFPvS1_ES1_ # -- Begin function _ZNSt3__222__libcpp_thread_createB8ne190106EPmPFPvS1_ES1_
	.weak	_ZNSt3__222__libcpp_thread_createB8ne190106EPmPFPvS1_ES1_
	.type	_ZNSt3__222__libcpp_thread_createB8ne190106EPmPFPvS1_ES1_,@function
_ZNSt3__222__libcpp_thread_createB8ne190106EPmPFPvS1_ES1_: # @_ZNSt3__222__libcpp_thread_createB8ne190106EPmPFPvS1_ES1_
.Lfunc_begin56:
	.loc	12 181 0 is_stmt 1              # emscripten/cache/sysroot/include/c++/v1/__thread/support/pthread.h:181:0
	.functype	_ZNSt3__222__libcpp_thread_createB8ne190106EPmPFPvS1_ES1_ (i32, i32, i32) -> (i32)
	.local  	i32, i32, i32, i32, i32, i32, i32, i32, i32, i32
# %bb.0:                                # %entry
	global.get	__stack_pointer
	local.set	3
	i32.const	16
	local.set	4
	local.get	3
	local.get	4
	i32.sub 
	local.set	5
	local.get	5
	global.set	__stack_pointer
	local.get	5
	local.get	0
	i32.store	12
	local.get	5
	local.get	1
	i32.store	8
	local.get	5
	local.get	2
	i32.store	4
.Ltmp139:
	.loc	12 182 25 prologue_end          # emscripten/cache/sysroot/include/c++/v1/__thread/support/pthread.h:182:25
	local.get	5
	i32.load	12
	local.set	6
	.loc	12 182 39 is_stmt 0             # emscripten/cache/sysroot/include/c++/v1/__thread/support/pthread.h:182:39
	local.get	5
	i32.load	8
	local.set	7
	.loc	12 182 47                       # emscripten/cache/sysroot/include/c++/v1/__thread/support/pthread.h:182:47
	local.get	5
	i32.load	4
	local.set	8
	.loc	12 182 10                       # emscripten/cache/sysroot/include/c++/v1/__thread/support/pthread.h:182:10
	i32.const	0
	local.set	9
	local.get	6
	local.get	9
	local.get	7
	local.get	8
	call	pthread_create
	local.set	10
	.loc	12 182 3                        # emscripten/cache/sysroot/include/c++/v1/__thread/support/pthread.h:182:3
	i32.const	16
	local.set	11
	local.get	5
	local.get	11
	i32.add 
	local.set	12
	local.get	12
	global.set	__stack_pointer
	local.get	10
	return
	end_function
.Ltmp140:
.Lfunc_end56:
                                        # -- End function
	.section	.text._ZNSt3__214__thread_proxyB8ne190106INS_5tupleIJNS_10unique_ptrINS_15__thread_structENS_14default_deleteIS3_EEEEPFvvEEEEEEPvSA_,"G",@,_ZNSt3__214__thread_proxyB8ne190106INS_5tupleIJNS_10unique_ptrINS_15__thread_structENS_14default_deleteIS3_EEEEPFvvEEEEEEPvSA_,comdat
	.hidden	_ZNSt3__214__thread_proxyB8ne190106INS_5tupleIJNS_10unique_ptrINS_15__thread_structENS_14default_deleteIS3_EEEEPFvvEEEEEEPvSA_ # -- Begin function _ZNSt3__214__thread_proxyB8ne190106INS_5tupleIJNS_10unique_ptrINS_15__thread_structENS_14default_deleteIS3_EEEEPFvvEEEEEEPvSA_
	.weak	_ZNSt3__214__thread_proxyB8ne190106INS_5tupleIJNS_10unique_ptrINS_15__thread_structENS_14default_deleteIS3_EEEEPFvvEEEEEEPvSA_
	.type	_ZNSt3__214__thread_proxyB8ne190106INS_5tupleIJNS_10unique_ptrINS_15__thread_structENS_14default_deleteIS3_EEEEPFvvEEEEEEPvSA_,@function
_ZNSt3__214__thread_proxyB8ne190106INS_5tupleIJNS_10unique_ptrINS_15__thread_structENS_14default_deleteIS3_EEEEPFvvEEEEEEPvSA_: # @_ZNSt3__214__thread_proxyB8ne190106INS_5tupleIJNS_10unique_ptrINS_15__thread_structENS_14default_deleteIS3_EEEEPFvvEEEEEEPvSA_
.Lfunc_begin57:
	.loc	6 196 0 is_stmt 1               # emscripten/cache/sysroot/include/c++/v1/__thread/thread.h:196:0
	.functype	_ZNSt3__214__thread_proxyB8ne190106INS_5tupleIJNS_10unique_ptrINS_15__thread_structENS_14default_deleteIS3_EEEEPFvvEEEEEEPvSA_ (i32) -> (i32)
	.local  	i32, i32, i32, i32, i32, i32, i32, i32, i32, i32, i32, i32, i32, i32, i32, i32, i32, i32, i32, i32, i32, i32, i32, i32
# %bb.0:                                # %entry
	global.get	__stack_pointer
	local.set	1
	i32.const	16
	local.set	2
	local.get	1
	local.get	2
	i32.sub 
	local.set	3
	local.get	3
	global.set	__stack_pointer
	local.get	3
	local.get	0
	i32.store	12
.Ltmp141:
	.loc	6 198 41 prologue_end           # emscripten/cache/sysroot/include/c++/v1/__thread/thread.h:198:41
	local.get	3
	i32.load	12
	local.set	4
	.loc	6 198 19 is_stmt 0              # emscripten/cache/sysroot/include/c++/v1/__thread/thread.h:198:19
	i32.const	8
	local.set	5
	local.get	3
	local.get	5
	i32.add 
	local.set	6
	local.get	6
	local.set	7
	local.get	7
	local.get	4
	call	_ZNSt3__210unique_ptrINS_5tupleIJNS0_INS_15__thread_structENS_14default_deleteIS2_EEEEPFvvEEEENS3_IS8_EEEC2B8ne190106ILb1EvEEPS8_
	drop
	.loc	6 199 3 is_stmt 1               # emscripten/cache/sysroot/include/c++/v1/__thread/thread.h:199:3
	call	_ZNSt3__219__thread_local_dataEv
	local.set	8
	.loc	6 199 54 is_stmt 0              # emscripten/cache/sysroot/include/c++/v1/__thread/thread.h:199:54
	i32.const	8
	local.set	9
	local.get	3
	local.get	9
	i32.add 
	local.set	10
	local.get	10
	local.set	11
	local.get	11
	call	_ZNKSt3__210unique_ptrINS_5tupleIJNS0_INS_15__thread_structENS_14default_deleteIS2_EEEEPFvvEEEENS3_IS8_EEE3getB8ne190106Ev
	local.set	12
	.loc	6 199 37                        # emscripten/cache/sysroot/include/c++/v1/__thread/thread.h:199:37
	local.get	12
	call	_ZNSt3__23getB8ne190106ILm0EJNS_10unique_ptrINS_15__thread_structENS_14default_deleteIS2_EEEEPFvvEEEERNS_13tuple_elementIXT_ENS_5tupleIJDpT0_EEEE4typeERSC_
	local.set	13
	.loc	6 199 61                        # emscripten/cache/sysroot/include/c++/v1/__thread/thread.h:199:61
	local.get	13
	call	_ZNSt3__210unique_ptrINS_15__thread_structENS_14default_deleteIS1_EEE7releaseB8ne190106Ev
	local.set	14
	.loc	6 199 25                        # emscripten/cache/sysroot/include/c++/v1/__thread/thread.h:199:25
	local.get	8
	local.get	14
	call	_ZNSt3__221__thread_specific_ptrINS_15__thread_structEE11set_pointerEPS1_
	.loc	6 201 30 is_stmt 1              # emscripten/cache/sysroot/include/c++/v1/__thread/thread.h:201:30
	i32.const	8
	local.set	15
	local.get	3
	local.get	15
	i32.add 
	local.set	16
	local.get	16
	local.set	17
	local.get	17
	call	_ZNKSt3__210unique_ptrINS_5tupleIJNS0_INS_15__thread_structENS_14default_deleteIS2_EEEEPFvvEEEENS3_IS8_EEE3getB8ne190106Ev
	local.set	18
	.loc	6 201 3 is_stmt 0               # emscripten/cache/sysroot/include/c++/v1/__thread/thread.h:201:3
	local.get	18
	call	_ZNSt3__216__thread_executeB8ne190106INS_10unique_ptrINS_15__thread_structENS_14default_deleteIS2_EEEEPFvvEJETpTnmJEEEvRNS_5tupleIJT_T0_DpT1_EEENS_15__tuple_indicesIJXspT2_EEEE
	.loc	6 203 1 is_stmt 1               # emscripten/cache/sysroot/include/c++/v1/__thread/thread.h:203:1
	i32.const	8
	local.set	19
	local.get	3
	local.get	19
	i32.add 
	local.set	20
	local.get	20
	local.set	21
	local.get	21
	call	_ZNSt3__210unique_ptrINS_5tupleIJNS0_INS_15__thread_structENS_14default_deleteIS2_EEEEPFvvEEEENS3_IS8_EEED2B8ne190106Ev
	drop
	i32.const	0
	local.set	22
	i32.const	16
	local.set	23
	local.get	3
	local.get	23
	i32.add 
	local.set	24
	local.get	24
	global.set	__stack_pointer
	local.get	22
	return
	end_function
.Ltmp142:
.Lfunc_end57:
                                        # -- End function
	.section	.text._ZNKSt3__210unique_ptrINS_5tupleIJNS0_INS_15__thread_structENS_14default_deleteIS2_EEEEPFvvEEEENS3_IS8_EEE3getB8ne190106Ev,"G",@,_ZNKSt3__210unique_ptrINS_5tupleIJNS0_INS_15__thread_structENS_14default_deleteIS2_EEEEPFvvEEEENS3_IS8_EEE3getB8ne190106Ev,comdat
	.hidden	_ZNKSt3__210unique_ptrINS_5tupleIJNS0_INS_15__thread_structENS_14default_deleteIS2_EEEEPFvvEEEENS3_IS8_EEE3getB8ne190106Ev # -- Begin function _ZNKSt3__210unique_ptrINS_5tupleIJNS0_INS_15__thread_structENS_14default_deleteIS2_EEEEPFvvEEEENS3_IS8_EEE3getB8ne190106Ev
	.weak	_ZNKSt3__210unique_ptrINS_5tupleIJNS0_INS_15__thread_structENS_14default_deleteIS2_EEEEPFvvEEEENS3_IS8_EEE3getB8ne190106Ev
	.type	_ZNKSt3__210unique_ptrINS_5tupleIJNS0_INS_15__thread_structENS_14default_deleteIS2_EEEEPFvvEEEENS3_IS8_EEE3getB8ne190106Ev,@function
_ZNKSt3__210unique_ptrINS_5tupleIJNS0_INS_15__thread_structENS_14default_deleteIS2_EEEEPFvvEEEENS3_IS8_EEE3getB8ne190106Ev: # @_ZNKSt3__210unique_ptrINS_5tupleIJNS0_INS_15__thread_structENS_14default_deleteIS2_EEEEPFvvEEEENS3_IS8_EEE3getB8ne190106Ev
.Lfunc_begin58:
	.loc	23 273 0                        # emscripten/cache/sysroot/include/c++/v1/__memory/unique_ptr.h:273:0
	.functype	_ZNKSt3__210unique_ptrINS_5tupleIJNS0_INS_15__thread_structENS_14default_deleteIS2_EEEEPFvvEEEENS3_IS8_EEE3getB8ne190106Ev (i32) -> (i32)
	.local  	i32, i32, i32, i32, i32, i32, i32, i32
# %bb.0:                                # %entry
	global.get	__stack_pointer
	local.set	1
	i32.const	16
	local.set	2
	local.get	1
	local.get	2
	i32.sub 
	local.set	3
	local.get	3
	global.set	__stack_pointer
	local.get	3
	local.get	0
	i32.store	12
	local.get	3
	i32.load	12
	local.set	4
.Ltmp143:
	.loc	23 273 101 prologue_end         # emscripten/cache/sysroot/include/c++/v1/__memory/unique_ptr.h:273:101
	local.get	4
	call	_ZNKSt3__217__compressed_pairIPNS_5tupleIJNS_10unique_ptrINS_15__thread_structENS_14default_deleteIS3_EEEEPFvvEEEENS4_IS9_EEE5firstB8ne190106Ev
	local.set	5
	local.get	5
	i32.load	0
	local.set	6
	.loc	23 273 87 is_stmt 0             # emscripten/cache/sysroot/include/c++/v1/__memory/unique_ptr.h:273:87
	i32.const	16
	local.set	7
	local.get	3
	local.get	7
	i32.add 
	local.set	8
	local.get	8
	global.set	__stack_pointer
	local.get	6
	return
	end_function
.Ltmp144:
.Lfunc_end58:
                                        # -- End function
	.section	.text._ZNSt3__210unique_ptrINS_5tupleIJNS0_INS_15__thread_structENS_14default_deleteIS2_EEEEPFvvEEEENS3_IS8_EEE7releaseB8ne190106Ev,"G",@,_ZNSt3__210unique_ptrINS_5tupleIJNS0_INS_15__thread_structENS_14default_deleteIS2_EEEEPFvvEEEENS3_IS8_EEE7releaseB8ne190106Ev,comdat
	.hidden	_ZNSt3__210unique_ptrINS_5tupleIJNS0_INS_15__thread_structENS_14default_deleteIS2_EEEEPFvvEEEENS3_IS8_EEE7releaseB8ne190106Ev # -- Begin function _ZNSt3__210unique_ptrINS_5tupleIJNS0_INS_15__thread_structENS_14default_deleteIS2_EEEEPFvvEEEENS3_IS8_EEE7releaseB8ne190106Ev
	.weak	_ZNSt3__210unique_ptrINS_5tupleIJNS0_INS_15__thread_structENS_14default_deleteIS2_EEEEPFvvEEEENS3_IS8_EEE7releaseB8ne190106Ev
	.type	_ZNSt3__210unique_ptrINS_5tupleIJNS0_INS_15__thread_structENS_14default_deleteIS2_EEEEPFvvEEEENS3_IS8_EEE7releaseB8ne190106Ev,@function
_ZNSt3__210unique_ptrINS_5tupleIJNS0_INS_15__thread_structENS_14default_deleteIS2_EEEEPFvvEEEENS3_IS8_EEE7releaseB8ne190106Ev: # @_ZNSt3__210unique_ptrINS_5tupleIJNS0_INS_15__thread_structENS_14default_deleteIS2_EEEEPFvvEEEENS3_IS8_EEE7releaseB8ne190106Ev
.Lfunc_begin59:
	.loc	23 282 0 is_stmt 1              # emscripten/cache/sysroot/include/c++/v1/__memory/unique_ptr.h:282:0
	.functype	_ZNSt3__210unique_ptrINS_5tupleIJNS0_INS_15__thread_structENS_14default_deleteIS2_EEEEPFvvEEEENS3_IS8_EEE7releaseB8ne190106Ev (i32) -> (i32)
	.local  	i32, i32, i32, i32, i32, i32, i32, i32, i32, i32, i32
# %bb.0:                                # %entry
	global.get	__stack_pointer
	local.set	1
	i32.const	16
	local.set	2
	local.get	1
	local.get	2
	i32.sub 
	local.set	3
	local.get	3
	global.set	__stack_pointer
	local.get	3
	local.get	0
	i32.store	12
	local.get	3
	i32.load	12
	local.set	4
.Ltmp145:
	.loc	23 283 29 prologue_end          # emscripten/cache/sysroot/include/c++/v1/__memory/unique_ptr.h:283:29
	local.get	4
	call	_ZNSt3__217__compressed_pairIPNS_5tupleIJNS_10unique_ptrINS_15__thread_structENS_14default_deleteIS3_EEEEPFvvEEEENS4_IS9_EEE5firstB8ne190106Ev
	local.set	5
	local.get	5
	i32.load	0
	local.set	6
	.loc	23 283 13 is_stmt 0             # emscripten/cache/sysroot/include/c++/v1/__memory/unique_ptr.h:283:13
	local.get	3
	local.get	6
	i32.store	8
	.loc	23 284 12 is_stmt 1             # emscripten/cache/sysroot/include/c++/v1/__memory/unique_ptr.h:284:12
	local.get	4
	call	_ZNSt3__217__compressed_pairIPNS_5tupleIJNS_10unique_ptrINS_15__thread_structENS_14default_deleteIS3_EEEEPFvvEEEENS4_IS9_EEE5firstB8ne190106Ev
	local.set	7
	.loc	23 284 20 is_stmt 0             # emscripten/cache/sysroot/include/c++/v1/__memory/unique_ptr.h:284:20
	i32.const	0
	local.set	8
	local.get	7
	local.get	8
	i32.store	0
	.loc	23 285 12 is_stmt 1             # emscripten/cache/sysroot/include/c++/v1/__memory/unique_ptr.h:285:12
	local.get	3
	i32.load	8
	local.set	9
	.loc	23 285 5 is_stmt 0              # emscripten/cache/sysroot/include/c++/v1/__memory/unique_ptr.h:285:5
	i32.const	16
	local.set	10
	local.get	3
	local.get	10
	i32.add 
	local.set	11
	local.get	11
	global.set	__stack_pointer
	local.get	9
	return
	end_function
.Ltmp146:
.Lfunc_end59:
                                        # -- End function
	.section	.text._ZNSt3__210unique_ptrINS_5tupleIJNS0_INS_15__thread_structENS_14default_deleteIS2_EEEEPFvvEEEENS3_IS8_EEED2B8ne190106Ev,"G",@,_ZNSt3__210unique_ptrINS_5tupleIJNS0_INS_15__thread_structENS_14default_deleteIS2_EEEEPFvvEEEENS3_IS8_EEED2B8ne190106Ev,comdat
	.hidden	_ZNSt3__210unique_ptrINS_5tupleIJNS0_INS_15__thread_structENS_14default_deleteIS2_EEEEPFvvEEEENS3_IS8_EEED2B8ne190106Ev # -- Begin function _ZNSt3__210unique_ptrINS_5tupleIJNS0_INS_15__thread_structENS_14default_deleteIS2_EEEEPFvvEEEENS3_IS8_EEED2B8ne190106Ev
	.weak	_ZNSt3__210unique_ptrINS_5tupleIJNS0_INS_15__thread_structENS_14default_deleteIS2_EEEEPFvvEEEENS3_IS8_EEED2B8ne190106Ev
	.type	_ZNSt3__210unique_ptrINS_5tupleIJNS0_INS_15__thread_structENS_14default_deleteIS2_EEEEPFvvEEEENS3_IS8_EEED2B8ne190106Ev,@function
_ZNSt3__210unique_ptrINS_5tupleIJNS0_INS_15__thread_structENS_14default_deleteIS2_EEEEPFvvEEEENS3_IS8_EEED2B8ne190106Ev: # @_ZNSt3__210unique_ptrINS_5tupleIJNS0_INS_15__thread_structENS_14default_deleteIS2_EEEEPFvvEEEENS3_IS8_EEED2B8ne190106Ev
.Lfunc_begin60:
	.loc	23 261 0 is_stmt 1              # emscripten/cache/sysroot/include/c++/v1/__memory/unique_ptr.h:261:0
	.functype	_ZNSt3__210unique_ptrINS_5tupleIJNS0_INS_15__thread_structENS_14default_deleteIS2_EEEEPFvvEEEENS3_IS8_EEED2B8ne190106Ev (i32) -> (i32)
	.local  	i32, i32, i32, i32, i32, i32, i32
# %bb.0:                                # %entry
	global.get	__stack_pointer
	local.set	1
	i32.const	16
	local.set	2
	local.get	1
	local.get	2
	i32.sub 
	local.set	3
	local.get	3
	global.set	__stack_pointer
	local.get	3
	local.get	0
	i32.store	12
	local.get	3
	i32.load	12
	local.set	4
.Ltmp147:
	.loc	23 261 71 prologue_end          # emscripten/cache/sysroot/include/c++/v1/__memory/unique_ptr.h:261:71
	i32.const	0
	local.set	5
	local.get	4
	local.get	5
	call	_ZNSt3__210unique_ptrINS_5tupleIJNS0_INS_15__thread_structENS_14default_deleteIS2_EEEEPFvvEEEENS3_IS8_EEE5resetB8ne190106EPS8_
.Ltmp148:
	.loc	23 261 80 is_stmt 0             # emscripten/cache/sysroot/include/c++/v1/__memory/unique_ptr.h:261:80
	i32.const	16
	local.set	6
	local.get	3
	local.get	6
	i32.add 
	local.set	7
	local.get	7
	global.set	__stack_pointer
	local.get	4
	return
	end_function
.Ltmp149:
.Lfunc_end60:
                                        # -- End function
	.section	.text._ZNSt3__210unique_ptrINS_15__thread_structENS_14default_deleteIS1_EEED2B8ne190106Ev,"G",@,_ZNSt3__210unique_ptrINS_15__thread_structENS_14default_deleteIS1_EEED2B8ne190106Ev,comdat
	.hidden	_ZNSt3__210unique_ptrINS_15__thread_structENS_14default_deleteIS1_EEED2B8ne190106Ev # -- Begin function _ZNSt3__210unique_ptrINS_15__thread_structENS_14default_deleteIS1_EEED2B8ne190106Ev
	.weak	_ZNSt3__210unique_ptrINS_15__thread_structENS_14default_deleteIS1_EEED2B8ne190106Ev
	.type	_ZNSt3__210unique_ptrINS_15__thread_structENS_14default_deleteIS1_EEED2B8ne190106Ev,@function
_ZNSt3__210unique_ptrINS_15__thread_structENS_14default_deleteIS1_EEED2B8ne190106Ev: # @_ZNSt3__210unique_ptrINS_15__thread_structENS_14default_deleteIS1_EEED2B8ne190106Ev
.Lfunc_begin61:
	.loc	23 261 0 is_stmt 1              # emscripten/cache/sysroot/include/c++/v1/__memory/unique_ptr.h:261:0
	.functype	_ZNSt3__210unique_ptrINS_15__thread_structENS_14default_deleteIS1_EEED2B8ne190106Ev (i32) -> (i32)
	.local  	i32, i32, i32, i32, i32, i32, i32
# %bb.0:                                # %entry
	global.get	__stack_pointer
	local.set	1
	i32.const	16
	local.set	2
	local.get	1
	local.get	2
	i32.sub 
	local.set	3
	local.get	3
	global.set	__stack_pointer
	local.get	3
	local.get	0
	i32.store	12
	local.get	3
	i32.load	12
	local.set	4
.Ltmp150:
	.loc	23 261 71 prologue_end          # emscripten/cache/sysroot/include/c++/v1/__memory/unique_ptr.h:261:71
	i32.const	0
	local.set	5
	local.get	4
	local.get	5
	call	_ZNSt3__210unique_ptrINS_15__thread_structENS_14default_deleteIS1_EEE5resetB8ne190106EPS1_
.Ltmp151:
	.loc	23 261 80 is_stmt 0             # emscripten/cache/sysroot/include/c++/v1/__memory/unique_ptr.h:261:80
	i32.const	16
	local.set	6
	local.get	3
	local.get	6
	i32.add 
	local.set	7
	local.get	7
	global.set	__stack_pointer
	local.get	4
	return
	end_function
.Ltmp152:
.Lfunc_end61:
                                        # -- End function
	.section	.text._ZNSt3__217__compressed_pairIPNS_15__thread_structENS_14default_deleteIS1_EEEC2B8ne190106IRS2_NS_16__value_init_tagEEEOT_OT0_,"G",@,_ZNSt3__217__compressed_pairIPNS_15__thread_structENS_14default_deleteIS1_EEEC2B8ne190106IRS2_NS_16__value_init_tagEEEOT_OT0_,comdat
	.hidden	_ZNSt3__217__compressed_pairIPNS_15__thread_structENS_14default_deleteIS1_EEEC2B8ne190106IRS2_NS_16__value_init_tagEEEOT_OT0_ # -- Begin function _ZNSt3__217__compressed_pairIPNS_15__thread_structENS_14default_deleteIS1_EEEC2B8ne190106IRS2_NS_16__value_init_tagEEEOT_OT0_
	.weak	_ZNSt3__217__compressed_pairIPNS_15__thread_structENS_14default_deleteIS1_EEEC2B8ne190106IRS2_NS_16__value_init_tagEEEOT_OT0_
	.type	_ZNSt3__217__compressed_pairIPNS_15__thread_structENS_14default_deleteIS1_EEEC2B8ne190106IRS2_NS_16__value_init_tagEEEOT_OT0_,@function
_ZNSt3__217__compressed_pairIPNS_15__thread_structENS_14default_deleteIS1_EEEC2B8ne190106IRS2_NS_16__value_init_tagEEEOT_OT0_: # @_ZNSt3__217__compressed_pairIPNS_15__thread_structENS_14default_deleteIS1_EEEC2B8ne190106IRS2_NS_16__value_init_tagEEEOT_OT0_
.Lfunc_begin62:
	.loc	15 119 0 is_stmt 1              # emscripten/cache/sysroot/include/c++/v1/__memory/compressed_pair.h:119:0
	.functype	_ZNSt3__217__compressed_pairIPNS_15__thread_structENS_14default_deleteIS1_EEEC2B8ne190106IRS2_NS_16__value_init_tagEEEOT_OT0_ (i32, i32, i32) -> (i32)
	.local  	i32, i32, i32, i32, i32, i32, i32
# %bb.0:                                # %entry
	global.get	__stack_pointer
	local.set	3
	i32.const	16
	local.set	4
	local.get	3
	local.get	4
	i32.sub 
	local.set	5
	local.get	5
	global.set	__stack_pointer
	local.get	5
	local.get	0
	i32.store	12
	local.get	5
	local.get	1
	i32.store	8
	local.get	5
	local.get	2
	i32.store	4
	local.get	5
	i32.load	12
	local.set	6
.Ltmp153:
	.loc	15 119 34 prologue_end          # emscripten/cache/sysroot/include/c++/v1/__memory/compressed_pair.h:119:34
	local.get	5
	i32.load	8
	local.set	7
	.loc	15 119 9 is_stmt 0              # emscripten/cache/sysroot/include/c++/v1/__memory/compressed_pair.h:119:9
	local.get	6
	local.get	7
	call	_ZNSt3__222__compressed_pair_elemIPNS_15__thread_structELi0ELb0EEC2B8ne190106IRS2_TnNS_9enable_ifIXntsr7is_sameIS3_u7__decayIT_EEE5valueEiE4typeELi0EEEOS7_
	drop
	.loc	15 119 42                       # emscripten/cache/sysroot/include/c++/v1/__memory/compressed_pair.h:119:42
	local.get	6
	call	_ZNSt3__222__compressed_pair_elemINS_14default_deleteINS_15__thread_structEEELi1ELb1EEC2B8ne190106ENS_16__value_init_tagE
	drop
	.loc	15 119 75                       # emscripten/cache/sysroot/include/c++/v1/__memory/compressed_pair.h:119:75
	i32.const	16
	local.set	8
	local.get	5
	local.get	8
	i32.add 
	local.set	9
	local.get	9
	global.set	__stack_pointer
	local.get	6
	return
	end_function
.Ltmp154:
.Lfunc_end62:
                                        # -- End function
	.section	.text._ZNSt3__222__compressed_pair_elemIPNS_15__thread_structELi0ELb0EEC2B8ne190106IRS2_TnNS_9enable_ifIXntsr7is_sameIS3_u7__decayIT_EEE5valueEiE4typeELi0EEEOS7_,"G",@,_ZNSt3__222__compressed_pair_elemIPNS_15__thread_structELi0ELb0EEC2B8ne190106IRS2_TnNS_9enable_ifIXntsr7is_sameIS3_u7__decayIT_EEE5valueEiE4typeELi0EEEOS7_,comdat
	.hidden	_ZNSt3__222__compressed_pair_elemIPNS_15__thread_structELi0ELb0EEC2B8ne190106IRS2_TnNS_9enable_ifIXntsr7is_sameIS3_u7__decayIT_EEE5valueEiE4typeELi0EEEOS7_ # -- Begin function _ZNSt3__222__compressed_pair_elemIPNS_15__thread_structELi0ELb0EEC2B8ne190106IRS2_TnNS_9enable_ifIXntsr7is_sameIS3_u7__decayIT_EEE5valueEiE4typeELi0EEEOS7_
	.weak	_ZNSt3__222__compressed_pair_elemIPNS_15__thread_structELi0ELb0EEC2B8ne190106IRS2_TnNS_9enable_ifIXntsr7is_sameIS3_u7__decayIT_EEE5valueEiE4typeELi0EEEOS7_
	.type	_ZNSt3__222__compressed_pair_elemIPNS_15__thread_structELi0ELb0EEC2B8ne190106IRS2_TnNS_9enable_ifIXntsr7is_sameIS3_u7__decayIT_EEE5valueEiE4typeELi0EEEOS7_,@function
_ZNSt3__222__compressed_pair_elemIPNS_15__thread_structELi0ELb0EEC2B8ne190106IRS2_TnNS_9enable_ifIXntsr7is_sameIS3_u7__decayIT_EEE5valueEiE4typeELi0EEEOS7_: # @_ZNSt3__222__compressed_pair_elemIPNS_15__thread_structELi0ELb0EEC2B8ne190106IRS2_TnNS_9enable_ifIXntsr7is_sameIS3_u7__decayIT_EEE5valueEiE4typeELi0EEEOS7_
.Lfunc_begin63:
	.loc	15 53 0 is_stmt 1               # emscripten/cache/sysroot/include/c++/v1/__memory/compressed_pair.h:53:0
	.functype	_ZNSt3__222__compressed_pair_elemIPNS_15__thread_structELi0ELb0EEC2B8ne190106IRS2_TnNS_9enable_ifIXntsr7is_sameIS3_u7__decayIT_EEE5valueEiE4typeELi0EEEOS7_ (i32, i32) -> (i32)
	.local  	i32, i32, i32, i32, i32, i32
# %bb.0:                                # %entry
	global.get	__stack_pointer
	local.set	2
	i32.const	16
	local.set	3
	local.get	2
	local.get	3
	i32.sub 
	local.set	4
	local.get	4
	local.get	0
	i32.store	12
	local.get	4
	local.get	1
	i32.store	8
	local.get	4
	i32.load	12
	local.set	5
.Ltmp155:
	.loc	15 53 36 prologue_end           # emscripten/cache/sysroot/include/c++/v1/__memory/compressed_pair.h:53:36
	local.get	4
	i32.load	8
	local.set	6
	.loc	15 53 18 is_stmt 0              # emscripten/cache/sysroot/include/c++/v1/__memory/compressed_pair.h:53:18
	local.get	6
	i32.load	0
	local.set	7
	.loc	15 53 9                         # emscripten/cache/sysroot/include/c++/v1/__memory/compressed_pair.h:53:9
	local.get	5
	local.get	7
	i32.store	0
	.loc	15 53 43                        # emscripten/cache/sysroot/include/c++/v1/__memory/compressed_pair.h:53:43
	local.get	5
	return
	end_function
.Ltmp156:
.Lfunc_end63:
                                        # -- End function
	.section	.text._ZNSt3__222__compressed_pair_elemINS_14default_deleteINS_15__thread_structEEELi1ELb1EEC2B8ne190106ENS_16__value_init_tagE,"G",@,_ZNSt3__222__compressed_pair_elemINS_14default_deleteINS_15__thread_structEEELi1ELb1EEC2B8ne190106ENS_16__value_init_tagE,comdat
	.hidden	_ZNSt3__222__compressed_pair_elemINS_14default_deleteINS_15__thread_structEEELi1ELb1EEC2B8ne190106ENS_16__value_init_tagE # -- Begin function _ZNSt3__222__compressed_pair_elemINS_14default_deleteINS_15__thread_structEEELi1ELb1EEC2B8ne190106ENS_16__value_init_tagE
	.weak	_ZNSt3__222__compressed_pair_elemINS_14default_deleteINS_15__thread_structEEELi1ELb1EEC2B8ne190106ENS_16__value_init_tagE
	.type	_ZNSt3__222__compressed_pair_elemINS_14default_deleteINS_15__thread_structEEELi1ELb1EEC2B8ne190106ENS_16__value_init_tagE,@function
_ZNSt3__222__compressed_pair_elemINS_14default_deleteINS_15__thread_structEEELi1ELb1EEC2B8ne190106ENS_16__value_init_tagE: # @_ZNSt3__222__compressed_pair_elemINS_14default_deleteINS_15__thread_structEEELi1ELb1EEC2B8ne190106ENS_16__value_init_tagE
.Lfunc_begin64:
	.loc	15 78 0 is_stmt 1               # emscripten/cache/sysroot/include/c++/v1/__memory/compressed_pair.h:78:0
	.functype	_ZNSt3__222__compressed_pair_elemINS_14default_deleteINS_15__thread_structEEELi1ELb1EEC2B8ne190106ENS_16__value_init_tagE (i32) -> (i32)
	.local  	i32, i32, i32, i32
# %bb.0:                                # %entry
	global.get	__stack_pointer
	local.set	1
	i32.const	16
	local.set	2
	local.get	1
	local.get	2
	i32.sub 
	local.set	3
	local.get	3
	local.get	0
	i32.store	8
	local.get	3
	i32.load	8
	local.set	4
.Ltmp157:
	.loc	15 78 111 prologue_end          # emscripten/cache/sysroot/include/c++/v1/__memory/compressed_pair.h:78:111
	local.get	4
	return
	end_function
.Ltmp158:
.Lfunc_end64:
                                        # -- End function
	.section	.text._ZNSt3__212__tuple_implINS_15__tuple_indicesIJLm0ELm1EEEEJNS_10unique_ptrINS_15__thread_structENS_14default_deleteIS4_EEEEPFvvEEEC2B8ne190106IJLm0ELm1EEJS7_S9_ETpTnmJEJEJS7_RS8_EEENS1_IJXspT_EEEENS_13__tuple_typesIJDpT0_EEENS1_IJXspT1_EEEENSE_IJDpT2_EEEDpOT3_,"G",@,_ZNSt3__212__tuple_implINS_15__tuple_indicesIJLm0ELm1EEEEJNS_10unique_ptrINS_15__thread_structENS_14default_deleteIS4_EEEEPFvvEEEC2B8ne190106IJLm0ELm1EEJS7_S9_ETpTnmJEJEJS7_RS8_EEENS1_IJXspT_EEEENS_13__tuple_typesIJDpT0_EEENS1_IJXspT1_EEEENSE_IJDpT2_EEEDpOT3_,comdat
	.hidden	_ZNSt3__212__tuple_implINS_15__tuple_indicesIJLm0ELm1EEEEJNS_10unique_ptrINS_15__thread_structENS_14default_deleteIS4_EEEEPFvvEEEC2B8ne190106IJLm0ELm1EEJS7_S9_ETpTnmJEJEJS7_RS8_EEENS1_IJXspT_EEEENS_13__tuple_typesIJDpT0_EEENS1_IJXspT1_EEEENSE_IJDpT2_EEEDpOT3_ # -- Begin function _ZNSt3__212__tuple_implINS_15__tuple_indicesIJLm0ELm1EEEEJNS_10unique_ptrINS_15__thread_structENS_14default_deleteIS4_EEEEPFvvEEEC2B8ne190106IJLm0ELm1EEJS7_S9_ETpTnmJEJEJS7_RS8_EEENS1_IJXspT_EEEENS_13__tuple_typesIJDpT0_EEENS1_IJXspT1_EEEENSE_IJDpT2_EEEDpOT3_
	.weak	_ZNSt3__212__tuple_implINS_15__tuple_indicesIJLm0ELm1EEEEJNS_10unique_ptrINS_15__thread_structENS_14default_deleteIS4_EEEEPFvvEEEC2B8ne190106IJLm0ELm1EEJS7_S9_ETpTnmJEJEJS7_RS8_EEENS1_IJXspT_EEEENS_13__tuple_typesIJDpT0_EEENS1_IJXspT1_EEEENSE_IJDpT2_EEEDpOT3_
	.type	_ZNSt3__212__tuple_implINS_15__tuple_indicesIJLm0ELm1EEEEJNS_10unique_ptrINS_15__thread_structENS_14default_deleteIS4_EEEEPFvvEEEC2B8ne190106IJLm0ELm1EEJS7_S9_ETpTnmJEJEJS7_RS8_EEENS1_IJXspT_EEEENS_13__tuple_typesIJDpT0_EEENS1_IJXspT1_EEEENSE_IJDpT2_EEEDpOT3_,@function
_ZNSt3__212__tuple_implINS_15__tuple_indicesIJLm0ELm1EEEEJNS_10unique_ptrINS_15__thread_structENS_14default_deleteIS4_EEEEPFvvEEEC2B8ne190106IJLm0ELm1EEJS7_S9_ETpTnmJEJEJS7_RS8_EEENS1_IJXspT_EEEENS_13__tuple_typesIJDpT0_EEENS1_IJXspT1_EEEENSE_IJDpT2_EEEDpOT3_: # @_ZNSt3__212__tuple_implINS_15__tuple_indicesIJLm0ELm1EEEEJNS_10unique_ptrINS_15__thread_structENS_14default_deleteIS4_EEEEPFvvEEEC2B8ne190106IJLm0ELm1EEJS7_S9_ETpTnmJEJEJS7_RS8_EEENS1_IJXspT_EEEENS_13__tuple_typesIJDpT0_EEENS1_IJXspT1_EEEENSE_IJDpT2_EEEDpOT3_
.Lfunc_begin65:
	.loc	27 471 0                        # emscripten/cache/sysroot/include/c++/v1/tuple:471:0
	.functype	_ZNSt3__212__tuple_implINS_15__tuple_indicesIJLm0ELm1EEEEJNS_10unique_ptrINS_15__thread_structENS_14default_deleteIS4_EEEEPFvvEEEC2B8ne190106IJLm0ELm1EEJS7_S9_ETpTnmJEJEJS7_RS8_EEENS1_IJXspT_EEEENS_13__tuple_typesIJDpT0_EEENS1_IJXspT1_EEEENSE_IJDpT2_EEEDpOT3_ (i32, i32, i32) -> (i32)
	.local  	i32, i32, i32, i32, i32, i32, i32, i32, i32, i32
# %bb.0:                                # %entry
	global.get	__stack_pointer
	local.set	3
	i32.const	16
	local.set	4
	local.get	3
	local.get	4
	i32.sub 
	local.set	5
	local.get	5
	global.set	__stack_pointer
	local.get	5
	local.get	0
	i32.store	8
	local.get	5
	local.get	1
	i32.store	4
	local.get	5
	local.get	2
	i32.store	0
	local.get	5
	i32.load	8
	local.set	6
.Ltmp159:
	.loc	27 471 50 prologue_end          # emscripten/cache/sysroot/include/c++/v1/tuple:471:50
	local.get	5
	i32.load	4
	local.set	7
	.loc	27 471 9 is_stmt 0              # emscripten/cache/sysroot/include/c++/v1/tuple:471:9
	local.get	6
	local.get	7
	call	_ZNSt3__212__tuple_leafILm0ENS_10unique_ptrINS_15__thread_structENS_14default_deleteIS2_EEEELb0EEC2B8ne190106IS5_TnNS_9enable_ifIXsr4_AndINS_17integral_constantIbXntu9__is_sameu14__remove_cvrefIT_ES6_EEEENS_16is_constructibleIS5_JSA_EEEEE5valueEiE4typeELi0EEEOSA_
	drop
	.loc	27 471 88                       # emscripten/cache/sysroot/include/c++/v1/tuple:471:88
	i32.const	4
	local.set	8
	local.get	6
	local.get	8
	i32.add 
	local.set	9
	.loc	27 471 50                       # emscripten/cache/sysroot/include/c++/v1/tuple:471:50
	local.get	5
	i32.load	0
	local.set	10
	.loc	27 471 9                        # emscripten/cache/sysroot/include/c++/v1/tuple:471:9
	local.get	9
	local.get	10
	call	_ZNSt3__212__tuple_leafILm1EPFvvELb0EEC2B8ne190106IRS1_TnNS_9enable_ifIXsr4_AndINS_17integral_constantIbXntu9__is_sameu14__remove_cvrefIT_ES3_EEEENS_16is_constructibleIS2_JS8_EEEEE5valueEiE4typeELi0EEEOS8_
	drop
	.loc	27 471 89                       # emscripten/cache/sysroot/include/c++/v1/tuple:471:89
	i32.const	16
	local.set	11
	local.get	5
	local.get	11
	i32.add 
	local.set	12
	local.get	12
	global.set	__stack_pointer
	local.get	6
	return
	end_function
.Ltmp160:
.Lfunc_end65:
	.file	33 "/home/kay/Documents/Code/toolchain-wasm" "emscripten/cache/sysroot/include/c++/v1/__tuple/tuple_types.h"
                                        # -- End function
	.section	.text._ZNSt3__212__tuple_leafILm0ENS_10unique_ptrINS_15__thread_structENS_14default_deleteIS2_EEEELb0EEC2B8ne190106IS5_TnNS_9enable_ifIXsr4_AndINS_17integral_constantIbXntu9__is_sameu14__remove_cvrefIT_ES6_EEEENS_16is_constructibleIS5_JSA_EEEEE5valueEiE4typeELi0EEEOSA_,"G",@,_ZNSt3__212__tuple_leafILm0ENS_10unique_ptrINS_15__thread_structENS_14default_deleteIS2_EEEELb0EEC2B8ne190106IS5_TnNS_9enable_ifIXsr4_AndINS_17integral_constantIbXntu9__is_sameu14__remove_cvrefIT_ES6_EEEENS_16is_constructibleIS5_JSA_EEEEE5valueEiE4typeELi0EEEOSA_,comdat
	.hidden	_ZNSt3__212__tuple_leafILm0ENS_10unique_ptrINS_15__thread_structENS_14default_deleteIS2_EEEELb0EEC2B8ne190106IS5_TnNS_9enable_ifIXsr4_AndINS_17integral_constantIbXntu9__is_sameu14__remove_cvrefIT_ES6_EEEENS_16is_constructibleIS5_JSA_EEEEE5valueEiE4typeELi0EEEOSA_ # -- Begin function _ZNSt3__212__tuple_leafILm0ENS_10unique_ptrINS_15__thread_structENS_14default_deleteIS2_EEEELb0EEC2B8ne190106IS5_TnNS_9enable_ifIXsr4_AndINS_17integral_constantIbXntu9__is_sameu14__remove_cvrefIT_ES6_EEEENS_16is_constructibleIS5_JSA_EEEEE5valueEiE4typeELi0EEEOSA_
	.weak	_ZNSt3__212__tuple_leafILm0ENS_10unique_ptrINS_15__thread_structENS_14default_deleteIS2_EEEELb0EEC2B8ne190106IS5_TnNS_9enable_ifIXsr4_AndINS_17integral_constantIbXntu9__is_sameu14__remove_cvrefIT_ES6_EEEENS_16is_constructibleIS5_JSA_EEEEE5valueEiE4typeELi0EEEOSA_
	.type	_ZNSt3__212__tuple_leafILm0ENS_10unique_ptrINS_15__thread_structENS_14default_deleteIS2_EEEELb0EEC2B8ne190106IS5_TnNS_9enable_ifIXsr4_AndINS_17integral_constantIbXntu9__is_sameu14__remove_cvrefIT_ES6_EEEENS_16is_constructibleIS5_JSA_EEEEE5valueEiE4typeELi0EEEOSA_,@function
_ZNSt3__212__tuple_leafILm0ENS_10unique_ptrINS_15__thread_structENS_14default_deleteIS2_EEEELb0EEC2B8ne190106IS5_TnNS_9enable_ifIXsr4_AndINS_17integral_constantIbXntu9__is_sameu14__remove_cvrefIT_ES6_EEEENS_16is_constructibleIS5_JSA_EEEEE5valueEiE4typeELi0EEEOSA_: # @_ZNSt3__212__tuple_leafILm0ENS_10unique_ptrINS_15__thread_structENS_14default_deleteIS2_EEEELb0EEC2B8ne190106IS5_TnNS_9enable_ifIXsr4_AndINS_17integral_constantIbXntu9__is_sameu14__remove_cvrefIT_ES6_EEEENS_16is_constructibleIS5_JSA_EEEEE5valueEiE4typeELi0EEEOSA_
.Lfunc_begin66:
	.loc	27 340 0 is_stmt 1              # emscripten/cache/sysroot/include/c++/v1/tuple:340:0
	.functype	_ZNSt3__212__tuple_leafILm0ENS_10unique_ptrINS_15__thread_structENS_14default_deleteIS2_EEEELb0EEC2B8ne190106IS5_TnNS_9enable_ifIXsr4_AndINS_17integral_constantIbXntu9__is_sameu14__remove_cvrefIT_ES6_EEEENS_16is_constructibleIS5_JSA_EEEEE5valueEiE4typeELi0EEEOSA_ (i32, i32) -> (i32)
	.local  	i32, i32, i32, i32, i32, i32, i32
# %bb.0:                                # %entry
	global.get	__stack_pointer
	local.set	2
	i32.const	16
	local.set	3
	local.get	2
	local.get	3
	i32.sub 
	local.set	4
	local.get	4
	global.set	__stack_pointer
	local.get	4
	local.get	0
	i32.store	12
	local.get	4
	local.get	1
	i32.store	8
	local.get	4
	i32.load	12
	local.set	5
.Ltmp161:
	.loc	27 340 36 prologue_end          # emscripten/cache/sysroot/include/c++/v1/tuple:340:36
	local.get	4
	i32.load	8
	local.set	6
	.loc	27 340 9 is_stmt 0              # emscripten/cache/sysroot/include/c++/v1/tuple:340:9
	local.get	5
	local.get	6
	call	_ZNSt3__210unique_ptrINS_15__thread_structENS_14default_deleteIS1_EEEC2B8ne190106EOS4_
	drop
	.loc	27 343 3 is_stmt 1              # emscripten/cache/sysroot/include/c++/v1/tuple:343:3
	i32.const	16
	local.set	7
	local.get	4
	local.get	7
	i32.add 
	local.set	8
	local.get	8
	global.set	__stack_pointer
	local.get	5
	return
	end_function
.Ltmp162:
.Lfunc_end66:
                                        # -- End function
	.section	.text._ZNSt3__212__tuple_leafILm1EPFvvELb0EEC2B8ne190106IRS1_TnNS_9enable_ifIXsr4_AndINS_17integral_constantIbXntu9__is_sameu14__remove_cvrefIT_ES3_EEEENS_16is_constructibleIS2_JS8_EEEEE5valueEiE4typeELi0EEEOS8_,"G",@,_ZNSt3__212__tuple_leafILm1EPFvvELb0EEC2B8ne190106IRS1_TnNS_9enable_ifIXsr4_AndINS_17integral_constantIbXntu9__is_sameu14__remove_cvrefIT_ES3_EEEENS_16is_constructibleIS2_JS8_EEEEE5valueEiE4typeELi0EEEOS8_,comdat
	.hidden	_ZNSt3__212__tuple_leafILm1EPFvvELb0EEC2B8ne190106IRS1_TnNS_9enable_ifIXsr4_AndINS_17integral_constantIbXntu9__is_sameu14__remove_cvrefIT_ES3_EEEENS_16is_constructibleIS2_JS8_EEEEE5valueEiE4typeELi0EEEOS8_ # -- Begin function _ZNSt3__212__tuple_leafILm1EPFvvELb0EEC2B8ne190106IRS1_TnNS_9enable_ifIXsr4_AndINS_17integral_constantIbXntu9__is_sameu14__remove_cvrefIT_ES3_EEEENS_16is_constructibleIS2_JS8_EEEEE5valueEiE4typeELi0EEEOS8_
	.weak	_ZNSt3__212__tuple_leafILm1EPFvvELb0EEC2B8ne190106IRS1_TnNS_9enable_ifIXsr4_AndINS_17integral_constantIbXntu9__is_sameu14__remove_cvrefIT_ES3_EEEENS_16is_constructibleIS2_JS8_EEEEE5valueEiE4typeELi0EEEOS8_
	.type	_ZNSt3__212__tuple_leafILm1EPFvvELb0EEC2B8ne190106IRS1_TnNS_9enable_ifIXsr4_AndINS_17integral_constantIbXntu9__is_sameu14__remove_cvrefIT_ES3_EEEENS_16is_constructibleIS2_JS8_EEEEE5valueEiE4typeELi0EEEOS8_,@function
_ZNSt3__212__tuple_leafILm1EPFvvELb0EEC2B8ne190106IRS1_TnNS_9enable_ifIXsr4_AndINS_17integral_constantIbXntu9__is_sameu14__remove_cvrefIT_ES3_EEEENS_16is_constructibleIS2_JS8_EEEEE5valueEiE4typeELi0EEEOS8_: # @_ZNSt3__212__tuple_leafILm1EPFvvELb0EEC2B8ne190106IRS1_TnNS_9enable_ifIXsr4_AndINS_17integral_constantIbXntu9__is_sameu14__remove_cvrefIT_ES3_EEEENS_16is_constructibleIS2_JS8_EEEEE5valueEiE4typeELi0EEEOS8_
.Lfunc_begin67:
	.loc	27 340 0                        # emscripten/cache/sysroot/include/c++/v1/tuple:340:0
	.functype	_ZNSt3__212__tuple_leafILm1EPFvvELb0EEC2B8ne190106IRS1_TnNS_9enable_ifIXsr4_AndINS_17integral_constantIbXntu9__is_sameu14__remove_cvrefIT_ES3_EEEENS_16is_constructibleIS2_JS8_EEEEE5valueEiE4typeELi0EEEOS8_ (i32, i32) -> (i32)
	.local  	i32, i32, i32, i32, i32
# %bb.0:                                # %entry
	global.get	__stack_pointer
	local.set	2
	i32.const	16
	local.set	3
	local.get	2
	local.get	3
	i32.sub 
	local.set	4
	local.get	4
	local.get	0
	i32.store	12
	local.get	4
	local.get	1
	i32.store	8
	local.get	4
	i32.load	12
	local.set	5
.Ltmp163:
	.loc	27 340 36 prologue_end          # emscripten/cache/sysroot/include/c++/v1/tuple:340:36
	local.get	4
	i32.load	8
	local.set	6
	.loc	27 340 9 is_stmt 0              # emscripten/cache/sysroot/include/c++/v1/tuple:340:9
	local.get	5
	local.get	6
	i32.store	0
	.loc	27 343 3 is_stmt 1              # emscripten/cache/sysroot/include/c++/v1/tuple:343:3
	local.get	5
	return
	end_function
.Ltmp164:
.Lfunc_end67:
                                        # -- End function
	.section	.text._ZNSt3__210unique_ptrINS_15__thread_structENS_14default_deleteIS1_EEEC2B8ne190106EOS4_,"G",@,_ZNSt3__210unique_ptrINS_15__thread_structENS_14default_deleteIS1_EEEC2B8ne190106EOS4_,comdat
	.hidden	_ZNSt3__210unique_ptrINS_15__thread_structENS_14default_deleteIS1_EEEC2B8ne190106EOS4_ # -- Begin function _ZNSt3__210unique_ptrINS_15__thread_structENS_14default_deleteIS1_EEEC2B8ne190106EOS4_
	.weak	_ZNSt3__210unique_ptrINS_15__thread_structENS_14default_deleteIS1_EEEC2B8ne190106EOS4_
	.type	_ZNSt3__210unique_ptrINS_15__thread_structENS_14default_deleteIS1_EEEC2B8ne190106EOS4_,@function
_ZNSt3__210unique_ptrINS_15__thread_structENS_14default_deleteIS1_EEEC2B8ne190106EOS4_: # @_ZNSt3__210unique_ptrINS_15__thread_structENS_14default_deleteIS1_EEEC2B8ne190106EOS4_
.Lfunc_begin68:
	.loc	23 216 0                        # emscripten/cache/sysroot/include/c++/v1/__memory/unique_ptr.h:216:0
	.functype	_ZNSt3__210unique_ptrINS_15__thread_structENS_14default_deleteIS1_EEEC2B8ne190106EOS4_ (i32, i32) -> (i32)
	.local  	i32, i32, i32, i32, i32, i32, i32, i32, i32, i32, i32, i32, i32
# %bb.0:                                # %entry
	global.get	__stack_pointer
	local.set	2
	i32.const	16
	local.set	3
	local.get	2
	local.get	3
	i32.sub 
	local.set	4
	local.get	4
	global.set	__stack_pointer
	local.get	4
	local.get	0
	i32.store	12
	local.get	4
	local.get	1
	i32.store	8
	local.get	4
	i32.load	12
	local.set	5
.Ltmp165:
	.loc	23 216 16 prologue_end          # emscripten/cache/sysroot/include/c++/v1/__memory/unique_ptr.h:216:16
	local.get	4
	i32.load	8
	local.set	6
	.loc	23 216 20 is_stmt 0             # emscripten/cache/sysroot/include/c++/v1/__memory/unique_ptr.h:216:20
	local.get	6
	call	_ZNSt3__210unique_ptrINS_15__thread_structENS_14default_deleteIS1_EEE7releaseB8ne190106Ev
	local.set	7
	.loc	23 216 16                       # emscripten/cache/sysroot/include/c++/v1/__memory/unique_ptr.h:216:16
	local.get	4
	local.get	7
	i32.store	4
	.loc	23 216 58                       # emscripten/cache/sysroot/include/c++/v1/__memory/unique_ptr.h:216:58
	local.get	4
	i32.load	8
	local.set	8
	.loc	23 216 62                       # emscripten/cache/sysroot/include/c++/v1/__memory/unique_ptr.h:216:62
	local.get	8
	call	_ZNSt3__210unique_ptrINS_15__thread_structENS_14default_deleteIS1_EEE11get_deleterB8ne190106Ev
	local.set	9
	.loc	23 216 9                        # emscripten/cache/sysroot/include/c++/v1/__memory/unique_ptr.h:216:9
	i32.const	4
	local.set	10
	local.get	4
	local.get	10
	i32.add 
	local.set	11
	local.get	11
	local.set	12
	local.get	5
	local.get	12
	local.get	9
	call	_ZNSt3__217__compressed_pairIPNS_15__thread_structENS_14default_deleteIS1_EEEC2B8ne190106IS2_S4_EEOT_OT0_
	drop
	.loc	23 216 79                       # emscripten/cache/sysroot/include/c++/v1/__memory/unique_ptr.h:216:79
	i32.const	16
	local.set	13
	local.get	4
	local.get	13
	i32.add 
	local.set	14
	local.get	14
	global.set	__stack_pointer
	local.get	5
	return
	end_function
.Ltmp166:
.Lfunc_end68:
                                        # -- End function
	.section	.text._ZNSt3__210unique_ptrINS_15__thread_structENS_14default_deleteIS1_EEE7releaseB8ne190106Ev,"G",@,_ZNSt3__210unique_ptrINS_15__thread_structENS_14default_deleteIS1_EEE7releaseB8ne190106Ev,comdat
	.hidden	_ZNSt3__210unique_ptrINS_15__thread_structENS_14default_deleteIS1_EEE7releaseB8ne190106Ev # -- Begin function _ZNSt3__210unique_ptrINS_15__thread_structENS_14default_deleteIS1_EEE7releaseB8ne190106Ev
	.weak	_ZNSt3__210unique_ptrINS_15__thread_structENS_14default_deleteIS1_EEE7releaseB8ne190106Ev
	.type	_ZNSt3__210unique_ptrINS_15__thread_structENS_14default_deleteIS1_EEE7releaseB8ne190106Ev,@function
_ZNSt3__210unique_ptrINS_15__thread_structENS_14default_deleteIS1_EEE7releaseB8ne190106Ev: # @_ZNSt3__210unique_ptrINS_15__thread_structENS_14default_deleteIS1_EEE7releaseB8ne190106Ev
.Lfunc_begin69:
	.loc	23 282 0 is_stmt 1              # emscripten/cache/sysroot/include/c++/v1/__memory/unique_ptr.h:282:0
	.functype	_ZNSt3__210unique_ptrINS_15__thread_structENS_14default_deleteIS1_EEE7releaseB8ne190106Ev (i32) -> (i32)
	.local  	i32, i32, i32, i32, i32, i32, i32, i32, i32, i32, i32
# %bb.0:                                # %entry
	global.get	__stack_pointer
	local.set	1
	i32.const	16
	local.set	2
	local.get	1
	local.get	2
	i32.sub 
	local.set	3
	local.get	3
	global.set	__stack_pointer
	local.get	3
	local.get	0
	i32.store	12
	local.get	3
	i32.load	12
	local.set	4
.Ltmp167:
	.loc	23 283 29 prologue_end          # emscripten/cache/sysroot/include/c++/v1/__memory/unique_ptr.h:283:29
	local.get	4
	call	_ZNSt3__217__compressed_pairIPNS_15__thread_structENS_14default_deleteIS1_EEE5firstB8ne190106Ev
	local.set	5
	local.get	5
	i32.load	0
	local.set	6
	.loc	23 283 13 is_stmt 0             # emscripten/cache/sysroot/include/c++/v1/__memory/unique_ptr.h:283:13
	local.get	3
	local.get	6
	i32.store	8
	.loc	23 284 12 is_stmt 1             # emscripten/cache/sysroot/include/c++/v1/__memory/unique_ptr.h:284:12
	local.get	4
	call	_ZNSt3__217__compressed_pairIPNS_15__thread_structENS_14default_deleteIS1_EEE5firstB8ne190106Ev
	local.set	7
	.loc	23 284 20 is_stmt 0             # emscripten/cache/sysroot/include/c++/v1/__memory/unique_ptr.h:284:20
	i32.const	0
	local.set	8
	local.get	7
	local.get	8
	i32.store	0
	.loc	23 285 12 is_stmt 1             # emscripten/cache/sysroot/include/c++/v1/__memory/unique_ptr.h:285:12
	local.get	3
	i32.load	8
	local.set	9
	.loc	23 285 5 is_stmt 0              # emscripten/cache/sysroot/include/c++/v1/__memory/unique_ptr.h:285:5
	i32.const	16
	local.set	10
	local.get	3
	local.get	10
	i32.add 
	local.set	11
	local.get	11
	global.set	__stack_pointer
	local.get	9
	return
	end_function
.Ltmp168:
.Lfunc_end69:
                                        # -- End function
	.section	.text._ZNSt3__210unique_ptrINS_15__thread_structENS_14default_deleteIS1_EEE11get_deleterB8ne190106Ev,"G",@,_ZNSt3__210unique_ptrINS_15__thread_structENS_14default_deleteIS1_EEE11get_deleterB8ne190106Ev,comdat
	.hidden	_ZNSt3__210unique_ptrINS_15__thread_structENS_14default_deleteIS1_EEE11get_deleterB8ne190106Ev # -- Begin function _ZNSt3__210unique_ptrINS_15__thread_structENS_14default_deleteIS1_EEE11get_deleterB8ne190106Ev
	.weak	_ZNSt3__210unique_ptrINS_15__thread_structENS_14default_deleteIS1_EEE11get_deleterB8ne190106Ev
	.type	_ZNSt3__210unique_ptrINS_15__thread_structENS_14default_deleteIS1_EEE11get_deleterB8ne190106Ev,@function
_ZNSt3__210unique_ptrINS_15__thread_structENS_14default_deleteIS1_EEE11get_deleterB8ne190106Ev: # @_ZNSt3__210unique_ptrINS_15__thread_structENS_14default_deleteIS1_EEE11get_deleterB8ne190106Ev
.Lfunc_begin70:
	.loc	23 274 0 is_stmt 1              # emscripten/cache/sysroot/include/c++/v1/__memory/unique_ptr.h:274:0
	.functype	_ZNSt3__210unique_ptrINS_15__thread_structENS_14default_deleteIS1_EEE11get_deleterB8ne190106Ev (i32) -> (i32)
	.local  	i32, i32, i32, i32, i32, i32, i32
# %bb.0:                                # %entry
	global.get	__stack_pointer
	local.set	1
	i32.const	16
	local.set	2
	local.get	1
	local.get	2
	i32.sub 
	local.set	3
	local.get	3
	global.set	__stack_pointer
	local.get	3
	local.get	0
	i32.store	12
	local.get	3
	i32.load	12
	local.set	4
.Ltmp169:
	.loc	23 274 109 prologue_end         # emscripten/cache/sysroot/include/c++/v1/__memory/unique_ptr.h:274:109
	local.get	4
	call	_ZNSt3__217__compressed_pairIPNS_15__thread_structENS_14default_deleteIS1_EEE6secondB8ne190106Ev
	local.set	5
	.loc	23 274 95 is_stmt 0             # emscripten/cache/sysroot/include/c++/v1/__memory/unique_ptr.h:274:95
	i32.const	16
	local.set	6
	local.get	3
	local.get	6
	i32.add 
	local.set	7
	local.get	7
	global.set	__stack_pointer
	local.get	5
	return
	end_function
.Ltmp170:
.Lfunc_end70:
                                        # -- End function
	.section	.text._ZNSt3__217__compressed_pairIPNS_15__thread_structENS_14default_deleteIS1_EEEC2B8ne190106IS2_S4_EEOT_OT0_,"G",@,_ZNSt3__217__compressed_pairIPNS_15__thread_structENS_14default_deleteIS1_EEEC2B8ne190106IS2_S4_EEOT_OT0_,comdat
	.hidden	_ZNSt3__217__compressed_pairIPNS_15__thread_structENS_14default_deleteIS1_EEEC2B8ne190106IS2_S4_EEOT_OT0_ # -- Begin function _ZNSt3__217__compressed_pairIPNS_15__thread_structENS_14default_deleteIS1_EEEC2B8ne190106IS2_S4_EEOT_OT0_
	.weak	_ZNSt3__217__compressed_pairIPNS_15__thread_structENS_14default_deleteIS1_EEEC2B8ne190106IS2_S4_EEOT_OT0_
	.type	_ZNSt3__217__compressed_pairIPNS_15__thread_structENS_14default_deleteIS1_EEEC2B8ne190106IS2_S4_EEOT_OT0_,@function
_ZNSt3__217__compressed_pairIPNS_15__thread_structENS_14default_deleteIS1_EEEC2B8ne190106IS2_S4_EEOT_OT0_: # @_ZNSt3__217__compressed_pairIPNS_15__thread_structENS_14default_deleteIS1_EEEC2B8ne190106IS2_S4_EEOT_OT0_
.Lfunc_begin71:
	.loc	15 119 0 is_stmt 1              # emscripten/cache/sysroot/include/c++/v1/__memory/compressed_pair.h:119:0
	.functype	_ZNSt3__217__compressed_pairIPNS_15__thread_structENS_14default_deleteIS1_EEEC2B8ne190106IS2_S4_EEOT_OT0_ (i32, i32, i32) -> (i32)
	.local  	i32, i32, i32, i32, i32, i32, i32, i32
# %bb.0:                                # %entry
	global.get	__stack_pointer
	local.set	3
	i32.const	16
	local.set	4
	local.get	3
	local.get	4
	i32.sub 
	local.set	5
	local.get	5
	global.set	__stack_pointer
	local.get	5
	local.get	0
	i32.store	12
	local.get	5
	local.get	1
	i32.store	8
	local.get	5
	local.get	2
	i32.store	4
	local.get	5
	i32.load	12
	local.set	6
.Ltmp171:
	.loc	15 119 34 prologue_end          # emscripten/cache/sysroot/include/c++/v1/__memory/compressed_pair.h:119:34
	local.get	5
	i32.load	8
	local.set	7
	.loc	15 119 9 is_stmt 0              # emscripten/cache/sysroot/include/c++/v1/__memory/compressed_pair.h:119:9
	local.get	6
	local.get	7
	call	_ZNSt3__222__compressed_pair_elemIPNS_15__thread_structELi0ELb0EEC2B8ne190106IS2_TnNS_9enable_ifIXntsr7is_sameIS3_u7__decayIT_EEE5valueEiE4typeELi0EEEOS6_
	drop
	.loc	15 119 67                       # emscripten/cache/sysroot/include/c++/v1/__memory/compressed_pair.h:119:67
	local.get	5
	i32.load	4
	local.set	8
	.loc	15 119 42                       # emscripten/cache/sysroot/include/c++/v1/__memory/compressed_pair.h:119:42
	local.get	6
	local.get	8
	call	_ZNSt3__222__compressed_pair_elemINS_14default_deleteINS_15__thread_structEEELi1ELb1EEC2B8ne190106IS3_TnNS_9enable_ifIXntsr7is_sameIS4_u7__decayIT_EEE5valueEiE4typeELi0EEEOS7_
	drop
	.loc	15 119 75                       # emscripten/cache/sysroot/include/c++/v1/__memory/compressed_pair.h:119:75
	i32.const	16
	local.set	9
	local.get	5
	local.get	9
	i32.add 
	local.set	10
	local.get	10
	global.set	__stack_pointer
	local.get	6
	return
	end_function
.Ltmp172:
.Lfunc_end71:
                                        # -- End function
	.section	.text._ZNSt3__217__compressed_pairIPNS_15__thread_structENS_14default_deleteIS1_EEE5firstB8ne190106Ev,"G",@,_ZNSt3__217__compressed_pairIPNS_15__thread_structENS_14default_deleteIS1_EEE5firstB8ne190106Ev,comdat
	.hidden	_ZNSt3__217__compressed_pairIPNS_15__thread_structENS_14default_deleteIS1_EEE5firstB8ne190106Ev # -- Begin function _ZNSt3__217__compressed_pairIPNS_15__thread_structENS_14default_deleteIS1_EEE5firstB8ne190106Ev
	.weak	_ZNSt3__217__compressed_pairIPNS_15__thread_structENS_14default_deleteIS1_EEE5firstB8ne190106Ev
	.type	_ZNSt3__217__compressed_pairIPNS_15__thread_structENS_14default_deleteIS1_EEE5firstB8ne190106Ev,@function
_ZNSt3__217__compressed_pairIPNS_15__thread_structENS_14default_deleteIS1_EEE5firstB8ne190106Ev: # @_ZNSt3__217__compressed_pairIPNS_15__thread_structENS_14default_deleteIS1_EEE5firstB8ne190106Ev
.Lfunc_begin72:
	.loc	15 129 0 is_stmt 1              # emscripten/cache/sysroot/include/c++/v1/__memory/compressed_pair.h:129:0
	.functype	_ZNSt3__217__compressed_pairIPNS_15__thread_structENS_14default_deleteIS1_EEE5firstB8ne190106Ev (i32) -> (i32)
	.local  	i32, i32, i32, i32, i32, i32, i32
# %bb.0:                                # %entry
	global.get	__stack_pointer
	local.set	1
	i32.const	16
	local.set	2
	local.get	1
	local.get	2
	i32.sub 
	local.set	3
	local.get	3
	global.set	__stack_pointer
	local.get	3
	local.get	0
	i32.store	12
	local.get	3
	i32.load	12
	local.set	4
.Ltmp173:
	.loc	15 130 40 prologue_end          # emscripten/cache/sysroot/include/c++/v1/__memory/compressed_pair.h:130:40
	local.get	4
	call	_ZNSt3__222__compressed_pair_elemIPNS_15__thread_structELi0ELb0EE5__getB8ne190106Ev
	local.set	5
	.loc	15 130 5 is_stmt 0              # emscripten/cache/sysroot/include/c++/v1/__memory/compressed_pair.h:130:5
	i32.const	16
	local.set	6
	local.get	3
	local.get	6
	i32.add 
	local.set	7
	local.get	7
	global.set	__stack_pointer
	local.get	5
	return
	end_function
.Ltmp174:
.Lfunc_end72:
                                        # -- End function
	.section	.text._ZNSt3__222__compressed_pair_elemIPNS_15__thread_structELi0ELb0EE5__getB8ne190106Ev,"G",@,_ZNSt3__222__compressed_pair_elemIPNS_15__thread_structELi0ELb0EE5__getB8ne190106Ev,comdat
	.hidden	_ZNSt3__222__compressed_pair_elemIPNS_15__thread_structELi0ELb0EE5__getB8ne190106Ev # -- Begin function _ZNSt3__222__compressed_pair_elemIPNS_15__thread_structELi0ELb0EE5__getB8ne190106Ev
	.weak	_ZNSt3__222__compressed_pair_elemIPNS_15__thread_structELi0ELb0EE5__getB8ne190106Ev
	.type	_ZNSt3__222__compressed_pair_elemIPNS_15__thread_structELi0ELb0EE5__getB8ne190106Ev,@function
_ZNSt3__222__compressed_pair_elemIPNS_15__thread_structELi0ELb0EE5__getB8ne190106Ev: # @_ZNSt3__222__compressed_pair_elemIPNS_15__thread_structELi0ELb0EE5__getB8ne190106Ev
.Lfunc_begin73:
	.loc	15 62 0 is_stmt 1               # emscripten/cache/sysroot/include/c++/v1/__memory/compressed_pair.h:62:0
	.functype	_ZNSt3__222__compressed_pair_elemIPNS_15__thread_structELi0ELb0EE5__getB8ne190106Ev (i32) -> (i32)
	.local  	i32, i32, i32, i32
# %bb.0:                                # %entry
	global.get	__stack_pointer
	local.set	1
	i32.const	16
	local.set	2
	local.get	1
	local.get	2
	i32.sub 
	local.set	3
	local.get	3
	local.get	0
	i32.store	12
	local.get	3
	i32.load	12
	local.set	4
.Ltmp175:
	.loc	15 62 85 prologue_end           # emscripten/cache/sysroot/include/c++/v1/__memory/compressed_pair.h:62:85
	local.get	4
	return
	end_function
.Ltmp176:
.Lfunc_end73:
                                        # -- End function
	.section	.text._ZNSt3__217__compressed_pairIPNS_15__thread_structENS_14default_deleteIS1_EEE6secondB8ne190106Ev,"G",@,_ZNSt3__217__compressed_pairIPNS_15__thread_structENS_14default_deleteIS1_EEE6secondB8ne190106Ev,comdat
	.hidden	_ZNSt3__217__compressed_pairIPNS_15__thread_structENS_14default_deleteIS1_EEE6secondB8ne190106Ev # -- Begin function _ZNSt3__217__compressed_pairIPNS_15__thread_structENS_14default_deleteIS1_EEE6secondB8ne190106Ev
	.weak	_ZNSt3__217__compressed_pairIPNS_15__thread_structENS_14default_deleteIS1_EEE6secondB8ne190106Ev
	.type	_ZNSt3__217__compressed_pairIPNS_15__thread_structENS_14default_deleteIS1_EEE6secondB8ne190106Ev,@function
_ZNSt3__217__compressed_pairIPNS_15__thread_structENS_14default_deleteIS1_EEE6secondB8ne190106Ev: # @_ZNSt3__217__compressed_pairIPNS_15__thread_structENS_14default_deleteIS1_EEE6secondB8ne190106Ev
.Lfunc_begin74:
	.loc	15 137 0                        # emscripten/cache/sysroot/include/c++/v1/__memory/compressed_pair.h:137:0
	.functype	_ZNSt3__217__compressed_pairIPNS_15__thread_structENS_14default_deleteIS1_EEE6secondB8ne190106Ev (i32) -> (i32)
	.local  	i32, i32, i32, i32, i32, i32, i32
# %bb.0:                                # %entry
	global.get	__stack_pointer
	local.set	1
	i32.const	16
	local.set	2
	local.get	1
	local.get	2
	i32.sub 
	local.set	3
	local.get	3
	global.set	__stack_pointer
	local.get	3
	local.get	0
	i32.store	12
	local.get	3
	i32.load	12
	local.set	4
.Ltmp177:
	.loc	15 138 40 prologue_end          # emscripten/cache/sysroot/include/c++/v1/__memory/compressed_pair.h:138:40
	local.get	4
	call	_ZNSt3__222__compressed_pair_elemINS_14default_deleteINS_15__thread_structEEELi1ELb1EE5__getB8ne190106Ev
	local.set	5
	.loc	15 138 5 is_stmt 0              # emscripten/cache/sysroot/include/c++/v1/__memory/compressed_pair.h:138:5
	i32.const	16
	local.set	6
	local.get	3
	local.get	6
	i32.add 
	local.set	7
	local.get	7
	global.set	__stack_pointer
	local.get	5
	return
	end_function
.Ltmp178:
.Lfunc_end74:
                                        # -- End function
	.section	.text._ZNSt3__222__compressed_pair_elemINS_14default_deleteINS_15__thread_structEEELi1ELb1EE5__getB8ne190106Ev,"G",@,_ZNSt3__222__compressed_pair_elemINS_14default_deleteINS_15__thread_structEEELi1ELb1EE5__getB8ne190106Ev,comdat
	.hidden	_ZNSt3__222__compressed_pair_elemINS_14default_deleteINS_15__thread_structEEELi1ELb1EE5__getB8ne190106Ev # -- Begin function _ZNSt3__222__compressed_pair_elemINS_14default_deleteINS_15__thread_structEEELi1ELb1EE5__getB8ne190106Ev
	.weak	_ZNSt3__222__compressed_pair_elemINS_14default_deleteINS_15__thread_structEEELi1ELb1EE5__getB8ne190106Ev
	.type	_ZNSt3__222__compressed_pair_elemINS_14default_deleteINS_15__thread_structEEELi1ELb1EE5__getB8ne190106Ev,@function
_ZNSt3__222__compressed_pair_elemINS_14default_deleteINS_15__thread_structEEELi1ELb1EE5__getB8ne190106Ev: # @_ZNSt3__222__compressed_pair_elemINS_14default_deleteINS_15__thread_structEEELi1ELb1EE5__getB8ne190106Ev
.Lfunc_begin75:
	.loc	15 91 0 is_stmt 1               # emscripten/cache/sysroot/include/c++/v1/__memory/compressed_pair.h:91:0
	.functype	_ZNSt3__222__compressed_pair_elemINS_14default_deleteINS_15__thread_structEEELi1ELb1EE5__getB8ne190106Ev (i32) -> (i32)
	.local  	i32, i32, i32, i32
# %bb.0:                                # %entry
	global.get	__stack_pointer
	local.set	1
	i32.const	16
	local.set	2
	local.get	1
	local.get	2
	i32.sub 
	local.set	3
	local.get	3
	local.get	0
	i32.store	12
	local.get	3
	i32.load	12
	local.set	4
.Ltmp179:
	.loc	15 91 85 prologue_end           # emscripten/cache/sysroot/include/c++/v1/__memory/compressed_pair.h:91:85
	local.get	4
	return
	end_function
.Ltmp180:
.Lfunc_end75:
                                        # -- End function
	.section	.text._ZNSt3__222__compressed_pair_elemIPNS_15__thread_structELi0ELb0EEC2B8ne190106IS2_TnNS_9enable_ifIXntsr7is_sameIS3_u7__decayIT_EEE5valueEiE4typeELi0EEEOS6_,"G",@,_ZNSt3__222__compressed_pair_elemIPNS_15__thread_structELi0ELb0EEC2B8ne190106IS2_TnNS_9enable_ifIXntsr7is_sameIS3_u7__decayIT_EEE5valueEiE4typeELi0EEEOS6_,comdat
	.hidden	_ZNSt3__222__compressed_pair_elemIPNS_15__thread_structELi0ELb0EEC2B8ne190106IS2_TnNS_9enable_ifIXntsr7is_sameIS3_u7__decayIT_EEE5valueEiE4typeELi0EEEOS6_ # -- Begin function _ZNSt3__222__compressed_pair_elemIPNS_15__thread_structELi0ELb0EEC2B8ne190106IS2_TnNS_9enable_ifIXntsr7is_sameIS3_u7__decayIT_EEE5valueEiE4typeELi0EEEOS6_
	.weak	_ZNSt3__222__compressed_pair_elemIPNS_15__thread_structELi0ELb0EEC2B8ne190106IS2_TnNS_9enable_ifIXntsr7is_sameIS3_u7__decayIT_EEE5valueEiE4typeELi0EEEOS6_
	.type	_ZNSt3__222__compressed_pair_elemIPNS_15__thread_structELi0ELb0EEC2B8ne190106IS2_TnNS_9enable_ifIXntsr7is_sameIS3_u7__decayIT_EEE5valueEiE4typeELi0EEEOS6_,@function
_ZNSt3__222__compressed_pair_elemIPNS_15__thread_structELi0ELb0EEC2B8ne190106IS2_TnNS_9enable_ifIXntsr7is_sameIS3_u7__decayIT_EEE5valueEiE4typeELi0EEEOS6_: # @_ZNSt3__222__compressed_pair_elemIPNS_15__thread_structELi0ELb0EEC2B8ne190106IS2_TnNS_9enable_ifIXntsr7is_sameIS3_u7__decayIT_EEE5valueEiE4typeELi0EEEOS6_
.Lfunc_begin76:
	.loc	15 53 0                         # emscripten/cache/sysroot/include/c++/v1/__memory/compressed_pair.h:53:0
	.functype	_ZNSt3__222__compressed_pair_elemIPNS_15__thread_structELi0ELb0EEC2B8ne190106IS2_TnNS_9enable_ifIXntsr7is_sameIS3_u7__decayIT_EEE5valueEiE4typeELi0EEEOS6_ (i32, i32) -> (i32)
	.local  	i32, i32, i32, i32, i32, i32
# %bb.0:                                # %entry
	global.get	__stack_pointer
	local.set	2
	i32.const	16
	local.set	3
	local.get	2
	local.get	3
	i32.sub 
	local.set	4
	local.get	4
	local.get	0
	i32.store	12
	local.get	4
	local.get	1
	i32.store	8
	local.get	4
	i32.load	12
	local.set	5
.Ltmp181:
	.loc	15 53 36 prologue_end           # emscripten/cache/sysroot/include/c++/v1/__memory/compressed_pair.h:53:36
	local.get	4
	i32.load	8
	local.set	6
	.loc	15 53 18 is_stmt 0              # emscripten/cache/sysroot/include/c++/v1/__memory/compressed_pair.h:53:18
	local.get	6
	i32.load	0
	local.set	7
	.loc	15 53 9                         # emscripten/cache/sysroot/include/c++/v1/__memory/compressed_pair.h:53:9
	local.get	5
	local.get	7
	i32.store	0
	.loc	15 53 43                        # emscripten/cache/sysroot/include/c++/v1/__memory/compressed_pair.h:53:43
	local.get	5
	return
	end_function
.Ltmp182:
.Lfunc_end76:
                                        # -- End function
	.section	.text._ZNSt3__222__compressed_pair_elemINS_14default_deleteINS_15__thread_structEEELi1ELb1EEC2B8ne190106IS3_TnNS_9enable_ifIXntsr7is_sameIS4_u7__decayIT_EEE5valueEiE4typeELi0EEEOS7_,"G",@,_ZNSt3__222__compressed_pair_elemINS_14default_deleteINS_15__thread_structEEELi1ELb1EEC2B8ne190106IS3_TnNS_9enable_ifIXntsr7is_sameIS4_u7__decayIT_EEE5valueEiE4typeELi0EEEOS7_,comdat
	.hidden	_ZNSt3__222__compressed_pair_elemINS_14default_deleteINS_15__thread_structEEELi1ELb1EEC2B8ne190106IS3_TnNS_9enable_ifIXntsr7is_sameIS4_u7__decayIT_EEE5valueEiE4typeELi0EEEOS7_ # -- Begin function _ZNSt3__222__compressed_pair_elemINS_14default_deleteINS_15__thread_structEEELi1ELb1EEC2B8ne190106IS3_TnNS_9enable_ifIXntsr7is_sameIS4_u7__decayIT_EEE5valueEiE4typeELi0EEEOS7_
	.weak	_ZNSt3__222__compressed_pair_elemINS_14default_deleteINS_15__thread_structEEELi1ELb1EEC2B8ne190106IS3_TnNS_9enable_ifIXntsr7is_sameIS4_u7__decayIT_EEE5valueEiE4typeELi0EEEOS7_
	.type	_ZNSt3__222__compressed_pair_elemINS_14default_deleteINS_15__thread_structEEELi1ELb1EEC2B8ne190106IS3_TnNS_9enable_ifIXntsr7is_sameIS4_u7__decayIT_EEE5valueEiE4typeELi0EEEOS7_,@function
_ZNSt3__222__compressed_pair_elemINS_14default_deleteINS_15__thread_structEEELi1ELb1EEC2B8ne190106IS3_TnNS_9enable_ifIXntsr7is_sameIS4_u7__decayIT_EEE5valueEiE4typeELi0EEEOS7_: # @_ZNSt3__222__compressed_pair_elemINS_14default_deleteINS_15__thread_structEEELi1ELb1EEC2B8ne190106IS3_TnNS_9enable_ifIXntsr7is_sameIS4_u7__decayIT_EEE5valueEiE4typeELi0EEEOS7_
.Lfunc_begin77:
	.loc	15 82 0 is_stmt 1               # emscripten/cache/sysroot/include/c++/v1/__memory/compressed_pair.h:82:0
	.functype	_ZNSt3__222__compressed_pair_elemINS_14default_deleteINS_15__thread_structEEELi1ELb1EEC2B8ne190106IS3_TnNS_9enable_ifIXntsr7is_sameIS4_u7__decayIT_EEE5valueEiE4typeELi0EEEOS7_ (i32, i32) -> (i32)
	.local  	i32, i32, i32, i32
# %bb.0:                                # %entry
	global.get	__stack_pointer
	local.set	2
	i32.const	16
	local.set	3
	local.get	2
	local.get	3
	i32.sub 
	local.set	4
	local.get	4
	local.get	0
	i32.store	12
	local.get	4
	local.get	1
	i32.store	8
	local.get	4
	i32.load	12
	local.set	5
.Ltmp183:
	.loc	15 82 47 prologue_end           # emscripten/cache/sysroot/include/c++/v1/__memory/compressed_pair.h:82:47
	local.get	5
	return
	end_function
.Ltmp184:
.Lfunc_end77:
                                        # -- End function
	.section	.text._ZNSt3__217__compressed_pairIPNS_5tupleIJNS_10unique_ptrINS_15__thread_structENS_14default_deleteIS3_EEEEPFvvEEEENS4_IS9_EEEC2B8ne190106IRSA_NS_16__value_init_tagEEEOT_OT0_,"G",@,_ZNSt3__217__compressed_pairIPNS_5tupleIJNS_10unique_ptrINS_15__thread_structENS_14default_deleteIS3_EEEEPFvvEEEENS4_IS9_EEEC2B8ne190106IRSA_NS_16__value_init_tagEEEOT_OT0_,comdat
	.hidden	_ZNSt3__217__compressed_pairIPNS_5tupleIJNS_10unique_ptrINS_15__thread_structENS_14default_deleteIS3_EEEEPFvvEEEENS4_IS9_EEEC2B8ne190106IRSA_NS_16__value_init_tagEEEOT_OT0_ # -- Begin function _ZNSt3__217__compressed_pairIPNS_5tupleIJNS_10unique_ptrINS_15__thread_structENS_14default_deleteIS3_EEEEPFvvEEEENS4_IS9_EEEC2B8ne190106IRSA_NS_16__value_init_tagEEEOT_OT0_
	.weak	_ZNSt3__217__compressed_pairIPNS_5tupleIJNS_10unique_ptrINS_15__thread_structENS_14default_deleteIS3_EEEEPFvvEEEENS4_IS9_EEEC2B8ne190106IRSA_NS_16__value_init_tagEEEOT_OT0_
	.type	_ZNSt3__217__compressed_pairIPNS_5tupleIJNS_10unique_ptrINS_15__thread_structENS_14default_deleteIS3_EEEEPFvvEEEENS4_IS9_EEEC2B8ne190106IRSA_NS_16__value_init_tagEEEOT_OT0_,@function
_ZNSt3__217__compressed_pairIPNS_5tupleIJNS_10unique_ptrINS_15__thread_structENS_14default_deleteIS3_EEEEPFvvEEEENS4_IS9_EEEC2B8ne190106IRSA_NS_16__value_init_tagEEEOT_OT0_: # @_ZNSt3__217__compressed_pairIPNS_5tupleIJNS_10unique_ptrINS_15__thread_structENS_14default_deleteIS3_EEEEPFvvEEEENS4_IS9_EEEC2B8ne190106IRSA_NS_16__value_init_tagEEEOT_OT0_
.Lfunc_begin78:
	.loc	15 119 0                        # emscripten/cache/sysroot/include/c++/v1/__memory/compressed_pair.h:119:0
	.functype	_ZNSt3__217__compressed_pairIPNS_5tupleIJNS_10unique_ptrINS_15__thread_structENS_14default_deleteIS3_EEEEPFvvEEEENS4_IS9_EEEC2B8ne190106IRSA_NS_16__value_init_tagEEEOT_OT0_ (i32, i32, i32) -> (i32)
	.local  	i32, i32, i32, i32, i32, i32, i32
# %bb.0:                                # %entry
	global.get	__stack_pointer
	local.set	3
	i32.const	16
	local.set	4
	local.get	3
	local.get	4
	i32.sub 
	local.set	5
	local.get	5
	global.set	__stack_pointer
	local.get	5
	local.get	0
	i32.store	12
	local.get	5
	local.get	1
	i32.store	8
	local.get	5
	local.get	2
	i32.store	4
	local.get	5
	i32.load	12
	local.set	6
.Ltmp185:
	.loc	15 119 34 prologue_end          # emscripten/cache/sysroot/include/c++/v1/__memory/compressed_pair.h:119:34
	local.get	5
	i32.load	8
	local.set	7
	.loc	15 119 9 is_stmt 0              # emscripten/cache/sysroot/include/c++/v1/__memory/compressed_pair.h:119:9
	local.get	6
	local.get	7
	call	_ZNSt3__222__compressed_pair_elemIPNS_5tupleIJNS_10unique_ptrINS_15__thread_structENS_14default_deleteIS3_EEEEPFvvEEEELi0ELb0EEC2B8ne190106IRSA_TnNS_9enable_ifIXntsr7is_sameISB_u7__decayIT_EEE5valueEiE4typeELi0EEEOSF_
	drop
	.loc	15 119 42                       # emscripten/cache/sysroot/include/c++/v1/__memory/compressed_pair.h:119:42
	local.get	6
	call	_ZNSt3__222__compressed_pair_elemINS_14default_deleteINS_5tupleIJNS_10unique_ptrINS_15__thread_structENS1_IS4_EEEEPFvvEEEEEELi1ELb1EEC2B8ne190106ENS_16__value_init_tagE
	drop
	.loc	15 119 75                       # emscripten/cache/sysroot/include/c++/v1/__memory/compressed_pair.h:119:75
	i32.const	16
	local.set	8
	local.get	5
	local.get	8
	i32.add 
	local.set	9
	local.get	9
	global.set	__stack_pointer
	local.get	6
	return
	end_function
.Ltmp186:
.Lfunc_end78:
                                        # -- End function
	.section	.text._ZNSt3__222__compressed_pair_elemIPNS_5tupleIJNS_10unique_ptrINS_15__thread_structENS_14default_deleteIS3_EEEEPFvvEEEELi0ELb0EEC2B8ne190106IRSA_TnNS_9enable_ifIXntsr7is_sameISB_u7__decayIT_EEE5valueEiE4typeELi0EEEOSF_,"G",@,_ZNSt3__222__compressed_pair_elemIPNS_5tupleIJNS_10unique_ptrINS_15__thread_structENS_14default_deleteIS3_EEEEPFvvEEEELi0ELb0EEC2B8ne190106IRSA_TnNS_9enable_ifIXntsr7is_sameISB_u7__decayIT_EEE5valueEiE4typeELi0EEEOSF_,comdat
	.hidden	_ZNSt3__222__compressed_pair_elemIPNS_5tupleIJNS_10unique_ptrINS_15__thread_structENS_14default_deleteIS3_EEEEPFvvEEEELi0ELb0EEC2B8ne190106IRSA_TnNS_9enable_ifIXntsr7is_sameISB_u7__decayIT_EEE5valueEiE4typeELi0EEEOSF_ # -- Begin function _ZNSt3__222__compressed_pair_elemIPNS_5tupleIJNS_10unique_ptrINS_15__thread_structENS_14default_deleteIS3_EEEEPFvvEEEELi0ELb0EEC2B8ne190106IRSA_TnNS_9enable_ifIXntsr7is_sameISB_u7__decayIT_EEE5valueEiE4typeELi0EEEOSF_
	.weak	_ZNSt3__222__compressed_pair_elemIPNS_5tupleIJNS_10unique_ptrINS_15__thread_structENS_14default_deleteIS3_EEEEPFvvEEEELi0ELb0EEC2B8ne190106IRSA_TnNS_9enable_ifIXntsr7is_sameISB_u7__decayIT_EEE5valueEiE4typeELi0EEEOSF_
	.type	_ZNSt3__222__compressed_pair_elemIPNS_5tupleIJNS_10unique_ptrINS_15__thread_structENS_14default_deleteIS3_EEEEPFvvEEEELi0ELb0EEC2B8ne190106IRSA_TnNS_9enable_ifIXntsr7is_sameISB_u7__decayIT_EEE5valueEiE4typeELi0EEEOSF_,@function
_ZNSt3__222__compressed_pair_elemIPNS_5tupleIJNS_10unique_ptrINS_15__thread_structENS_14default_deleteIS3_EEEEPFvvEEEELi0ELb0EEC2B8ne190106IRSA_TnNS_9enable_ifIXntsr7is_sameISB_u7__decayIT_EEE5valueEiE4typeELi0EEEOSF_: # @_ZNSt3__222__compressed_pair_elemIPNS_5tupleIJNS_10unique_ptrINS_15__thread_structENS_14default_deleteIS3_EEEEPFvvEEEELi0ELb0EEC2B8ne190106IRSA_TnNS_9enable_ifIXntsr7is_sameISB_u7__decayIT_EEE5valueEiE4typeELi0EEEOSF_
.Lfunc_begin79:
	.loc	15 53 0 is_stmt 1               # emscripten/cache/sysroot/include/c++/v1/__memory/compressed_pair.h:53:0
	.functype	_ZNSt3__222__compressed_pair_elemIPNS_5tupleIJNS_10unique_ptrINS_15__thread_structENS_14default_deleteIS3_EEEEPFvvEEEELi0ELb0EEC2B8ne190106IRSA_TnNS_9enable_ifIXntsr7is_sameISB_u7__decayIT_EEE5valueEiE4typeELi0EEEOSF_ (i32, i32) -> (i32)
	.local  	i32, i32, i32, i32, i32, i32
# %bb.0:                                # %entry
	global.get	__stack_pointer
	local.set	2
	i32.const	16
	local.set	3
	local.get	2
	local.get	3
	i32.sub 
	local.set	4
	local.get	4
	local.get	0
	i32.store	12
	local.get	4
	local.get	1
	i32.store	8
	local.get	4
	i32.load	12
	local.set	5
.Ltmp187:
	.loc	15 53 36 prologue_end           # emscripten/cache/sysroot/include/c++/v1/__memory/compressed_pair.h:53:36
	local.get	4
	i32.load	8
	local.set	6
	.loc	15 53 18 is_stmt 0              # emscripten/cache/sysroot/include/c++/v1/__memory/compressed_pair.h:53:18
	local.get	6
	i32.load	0
	local.set	7
	.loc	15 53 9                         # emscripten/cache/sysroot/include/c++/v1/__memory/compressed_pair.h:53:9
	local.get	5
	local.get	7
	i32.store	0
	.loc	15 53 43                        # emscripten/cache/sysroot/include/c++/v1/__memory/compressed_pair.h:53:43
	local.get	5
	return
	end_function
.Ltmp188:
.Lfunc_end79:
                                        # -- End function
	.section	.text._ZNSt3__222__compressed_pair_elemINS_14default_deleteINS_5tupleIJNS_10unique_ptrINS_15__thread_structENS1_IS4_EEEEPFvvEEEEEELi1ELb1EEC2B8ne190106ENS_16__value_init_tagE,"G",@,_ZNSt3__222__compressed_pair_elemINS_14default_deleteINS_5tupleIJNS_10unique_ptrINS_15__thread_structENS1_IS4_EEEEPFvvEEEEEELi1ELb1EEC2B8ne190106ENS_16__value_init_tagE,comdat
	.hidden	_ZNSt3__222__compressed_pair_elemINS_14default_deleteINS_5tupleIJNS_10unique_ptrINS_15__thread_structENS1_IS4_EEEEPFvvEEEEEELi1ELb1EEC2B8ne190106ENS_16__value_init_tagE # -- Begin function _ZNSt3__222__compressed_pair_elemINS_14default_deleteINS_5tupleIJNS_10unique_ptrINS_15__thread_structENS1_IS4_EEEEPFvvEEEEEELi1ELb1EEC2B8ne190106ENS_16__value_init_tagE
	.weak	_ZNSt3__222__compressed_pair_elemINS_14default_deleteINS_5tupleIJNS_10unique_ptrINS_15__thread_structENS1_IS4_EEEEPFvvEEEEEELi1ELb1EEC2B8ne190106ENS_16__value_init_tagE
	.type	_ZNSt3__222__compressed_pair_elemINS_14default_deleteINS_5tupleIJNS_10unique_ptrINS_15__thread_structENS1_IS4_EEEEPFvvEEEEEELi1ELb1EEC2B8ne190106ENS_16__value_init_tagE,@function
_ZNSt3__222__compressed_pair_elemINS_14default_deleteINS_5tupleIJNS_10unique_ptrINS_15__thread_structENS1_IS4_EEEEPFvvEEEEEELi1ELb1EEC2B8ne190106ENS_16__value_init_tagE: # @_ZNSt3__222__compressed_pair_elemINS_14default_deleteINS_5tupleIJNS_10unique_ptrINS_15__thread_structENS1_IS4_EEEEPFvvEEEEEELi1ELb1EEC2B8ne190106ENS_16__value_init_tagE
.Lfunc_begin80:
	.loc	15 78 0 is_stmt 1               # emscripten/cache/sysroot/include/c++/v1/__memory/compressed_pair.h:78:0
	.functype	_ZNSt3__222__compressed_pair_elemINS_14default_deleteINS_5tupleIJNS_10unique_ptrINS_15__thread_structENS1_IS4_EEEEPFvvEEEEEELi1ELb1EEC2B8ne190106ENS_16__value_init_tagE (i32) -> (i32)
	.local  	i32, i32, i32, i32
# %bb.0:                                # %entry
	global.get	__stack_pointer
	local.set	1
	i32.const	16
	local.set	2
	local.get	1
	local.get	2
	i32.sub 
	local.set	3
	local.get	3
	local.get	0
	i32.store	8
	local.get	3
	i32.load	8
	local.set	4
.Ltmp189:
	.loc	15 78 111 prologue_end          # emscripten/cache/sysroot/include/c++/v1/__memory/compressed_pair.h:78:111
	local.get	4
	return
	end_function
.Ltmp190:
.Lfunc_end80:
                                        # -- End function
	.section	.text._ZNSt3__221__thread_specific_ptrINS_15__thread_structEE11set_pointerEPS1_,"G",@,_ZNSt3__221__thread_specific_ptrINS_15__thread_structEE11set_pointerEPS1_,comdat
	.hidden	_ZNSt3__221__thread_specific_ptrINS_15__thread_structEE11set_pointerEPS1_ # -- Begin function _ZNSt3__221__thread_specific_ptrINS_15__thread_structEE11set_pointerEPS1_
	.weak	_ZNSt3__221__thread_specific_ptrINS_15__thread_structEE11set_pointerEPS1_
	.type	_ZNSt3__221__thread_specific_ptrINS_15__thread_structEE11set_pointerEPS1_,@function
_ZNSt3__221__thread_specific_ptrINS_15__thread_structEE11set_pointerEPS1_: # @_ZNSt3__221__thread_specific_ptrINS_15__thread_structEE11set_pointerEPS1_
.Lfunc_begin81:
	.loc	6 108 0                         # emscripten/cache/sysroot/include/c++/v1/__thread/thread.h:108:0
	.functype	_ZNSt3__221__thread_specific_ptrINS_15__thread_structEE11set_pointerEPS1_ (i32, i32) -> ()
	.local  	i32, i32, i32, i32, i32, i32, i32, i32
# %bb.0:                                # %entry
	global.get	__stack_pointer
	local.set	2
	i32.const	16
	local.set	3
	local.get	2
	local.get	3
	i32.sub 
	local.set	4
	local.get	4
	global.set	__stack_pointer
	local.get	4
	local.get	0
	i32.store	12
	local.get	4
	local.get	1
	i32.store	8
	local.get	4
	i32.load	12
	local.set	5
.Ltmp191:
	.loc	6 110 25 prologue_end           # emscripten/cache/sysroot/include/c++/v1/__thread/thread.h:110:25
	local.get	5
	i32.load	0
	local.set	6
	.loc	6 110 33 is_stmt 0              # emscripten/cache/sysroot/include/c++/v1/__thread/thread.h:110:33
	local.get	4
	i32.load	8
	local.set	7
	.loc	6 110 3                         # emscripten/cache/sysroot/include/c++/v1/__thread/thread.h:110:3
	local.get	6
	local.get	7
	call	_ZNSt3__216__libcpp_tls_setB8ne190106EjPv
	drop
	.loc	6 111 1 is_stmt 1               # emscripten/cache/sysroot/include/c++/v1/__thread/thread.h:111:1
	i32.const	16
	local.set	8
	local.get	4
	local.get	8
	i32.add 
	local.set	9
	local.get	9
	global.set	__stack_pointer
	return
	end_function
.Ltmp192:
.Lfunc_end81:
                                        # -- End function
	.section	.text._ZNSt3__23getB8ne190106ILm0EJNS_10unique_ptrINS_15__thread_structENS_14default_deleteIS2_EEEEPFvvEEEERNS_13tuple_elementIXT_ENS_5tupleIJDpT0_EEEE4typeERSC_,"G",@,_ZNSt3__23getB8ne190106ILm0EJNS_10unique_ptrINS_15__thread_structENS_14default_deleteIS2_EEEEPFvvEEEERNS_13tuple_elementIXT_ENS_5tupleIJDpT0_EEEE4typeERSC_,comdat
	.hidden	_ZNSt3__23getB8ne190106ILm0EJNS_10unique_ptrINS_15__thread_structENS_14default_deleteIS2_EEEEPFvvEEEERNS_13tuple_elementIXT_ENS_5tupleIJDpT0_EEEE4typeERSC_ # -- Begin function _ZNSt3__23getB8ne190106ILm0EJNS_10unique_ptrINS_15__thread_structENS_14default_deleteIS2_EEEEPFvvEEEERNS_13tuple_elementIXT_ENS_5tupleIJDpT0_EEEE4typeERSC_
	.weak	_ZNSt3__23getB8ne190106ILm0EJNS_10unique_ptrINS_15__thread_structENS_14default_deleteIS2_EEEEPFvvEEEERNS_13tuple_elementIXT_ENS_5tupleIJDpT0_EEEE4typeERSC_
	.type	_ZNSt3__23getB8ne190106ILm0EJNS_10unique_ptrINS_15__thread_structENS_14default_deleteIS2_EEEEPFvvEEEERNS_13tuple_elementIXT_ENS_5tupleIJDpT0_EEEE4typeERSC_,@function
_ZNSt3__23getB8ne190106ILm0EJNS_10unique_ptrINS_15__thread_structENS_14default_deleteIS2_EEEEPFvvEEEERNS_13tuple_elementIXT_ENS_5tupleIJDpT0_EEEE4typeERSC_: # @_ZNSt3__23getB8ne190106ILm0EJNS_10unique_ptrINS_15__thread_structENS_14default_deleteIS2_EEEEPFvvEEEERNS_13tuple_elementIXT_ENS_5tupleIJDpT0_EEEE4typeERSC_
.Lfunc_begin82:
	.loc	27 1064 0                       # emscripten/cache/sysroot/include/c++/v1/tuple:1064:0
	.functype	_ZNSt3__23getB8ne190106ILm0EJNS_10unique_ptrINS_15__thread_structENS_14default_deleteIS2_EEEEPFvvEEEERNS_13tuple_elementIXT_ENS_5tupleIJDpT0_EEEE4typeERSC_ (i32) -> (i32)
	.local  	i32, i32, i32, i32, i32, i32, i32
# %bb.0:                                # %entry
	global.get	__stack_pointer
	local.set	1
	i32.const	16
	local.set	2
	local.get	1
	local.get	2
	i32.sub 
	local.set	3
	local.get	3
	global.set	__stack_pointer
	local.get	3
	local.get	0
	i32.store	12
.Ltmp193:
	.loc	27 1066 48 prologue_end         # emscripten/cache/sysroot/include/c++/v1/tuple:1066:48
	local.get	3
	i32.load	12
	local.set	4
	.loc	27 1066 61 is_stmt 0            # emscripten/cache/sysroot/include/c++/v1/tuple:1066:61
	local.get	4
	call	_ZNSt3__212__tuple_leafILm0ENS_10unique_ptrINS_15__thread_structENS_14default_deleteIS2_EEEELb0EE3getB8ne190106Ev
	local.set	5
	.loc	27 1066 3                       # emscripten/cache/sysroot/include/c++/v1/tuple:1066:3
	i32.const	16
	local.set	6
	local.get	3
	local.get	6
	i32.add 
	local.set	7
	local.get	7
	global.set	__stack_pointer
	local.get	5
	return
	end_function
.Ltmp194:
.Lfunc_end82:
                                        # -- End function
	.section	.text._ZNSt3__216__thread_executeB8ne190106INS_10unique_ptrINS_15__thread_structENS_14default_deleteIS2_EEEEPFvvEJETpTnmJEEEvRNS_5tupleIJT_T0_DpT1_EEENS_15__tuple_indicesIJXspT2_EEEE,"G",@,_ZNSt3__216__thread_executeB8ne190106INS_10unique_ptrINS_15__thread_structENS_14default_deleteIS2_EEEEPFvvEJETpTnmJEEEvRNS_5tupleIJT_T0_DpT1_EEENS_15__tuple_indicesIJXspT2_EEEE,comdat
	.hidden	_ZNSt3__216__thread_executeB8ne190106INS_10unique_ptrINS_15__thread_structENS_14default_deleteIS2_EEEEPFvvEJETpTnmJEEEvRNS_5tupleIJT_T0_DpT1_EEENS_15__tuple_indicesIJXspT2_EEEE # -- Begin function _ZNSt3__216__thread_executeB8ne190106INS_10unique_ptrINS_15__thread_structENS_14default_deleteIS2_EEEEPFvvEJETpTnmJEEEvRNS_5tupleIJT_T0_DpT1_EEENS_15__tuple_indicesIJXspT2_EEEE
	.weak	_ZNSt3__216__thread_executeB8ne190106INS_10unique_ptrINS_15__thread_structENS_14default_deleteIS2_EEEEPFvvEJETpTnmJEEEvRNS_5tupleIJT_T0_DpT1_EEENS_15__tuple_indicesIJXspT2_EEEE
	.type	_ZNSt3__216__thread_executeB8ne190106INS_10unique_ptrINS_15__thread_structENS_14default_deleteIS2_EEEEPFvvEJETpTnmJEEEvRNS_5tupleIJT_T0_DpT1_EEENS_15__tuple_indicesIJXspT2_EEEE,@function
_ZNSt3__216__thread_executeB8ne190106INS_10unique_ptrINS_15__thread_structENS_14default_deleteIS2_EEEEPFvvEJETpTnmJEEEvRNS_5tupleIJT_T0_DpT1_EEENS_15__tuple_indicesIJXspT2_EEEE: # @_ZNSt3__216__thread_executeB8ne190106INS_10unique_ptrINS_15__thread_structENS_14default_deleteIS2_EEEEPFvvEJETpTnmJEEEvRNS_5tupleIJT_T0_DpT1_EEENS_15__tuple_indicesIJXspT2_EEEE
.Lfunc_begin83:
	.loc	6 191 0 is_stmt 1               # emscripten/cache/sysroot/include/c++/v1/__thread/thread.h:191:0
	.functype	_ZNSt3__216__thread_executeB8ne190106INS_10unique_ptrINS_15__thread_structENS_14default_deleteIS2_EEEEPFvvEJETpTnmJEEEvRNS_5tupleIJT_T0_DpT1_EEENS_15__tuple_indicesIJXspT2_EEEE (i32) -> ()
	.local  	i32, i32, i32, i32, i32, i32, i32
# %bb.0:                                # %entry
	global.get	__stack_pointer
	local.set	1
	i32.const	16
	local.set	2
	local.get	1
	local.get	2
	i32.sub 
	local.set	3
	local.get	3
	global.set	__stack_pointer
	local.get	3
	local.get	0
	i32.store	8
.Ltmp195:
	.loc	6 192 39 prologue_end           # emscripten/cache/sysroot/include/c++/v1/__thread/thread.h:192:39
	local.get	3
	i32.load	8
	local.set	4
	.loc	6 192 27 is_stmt 0              # emscripten/cache/sysroot/include/c++/v1/__thread/thread.h:192:27
	local.get	4
	call	_ZNSt3__23getB8ne190106ILm1EJNS_10unique_ptrINS_15__thread_structENS_14default_deleteIS2_EEEEPFvvEEEERNS_13tuple_elementIXT_ENS_5tupleIJDpT0_EEEE4typeERSC_
	local.set	5
	.loc	6 192 3                         # emscripten/cache/sysroot/include/c++/v1/__thread/thread.h:192:3
	local.get	5
	call	_ZNSt3__28__invokeB8ne190106IPFvvEJEEEDTclclsr3stdE7declvalIT_EEspclsr3stdE7declvalIT0_EEEEOS3_DpOS4_
	.loc	6 193 1 is_stmt 1               # emscripten/cache/sysroot/include/c++/v1/__thread/thread.h:193:1
	i32.const	16
	local.set	6
	local.get	3
	local.get	6
	i32.add 
	local.set	7
	local.get	7
	global.set	__stack_pointer
	return
	end_function
.Ltmp196:
.Lfunc_end83:
                                        # -- End function
	.section	.text._ZNSt3__216__libcpp_tls_setB8ne190106EjPv,"G",@,_ZNSt3__216__libcpp_tls_setB8ne190106EjPv,comdat
	.hidden	_ZNSt3__216__libcpp_tls_setB8ne190106EjPv # -- Begin function _ZNSt3__216__libcpp_tls_setB8ne190106EjPv
	.weak	_ZNSt3__216__libcpp_tls_setB8ne190106EjPv
	.type	_ZNSt3__216__libcpp_tls_setB8ne190106EjPv,@function
_ZNSt3__216__libcpp_tls_setB8ne190106EjPv: # @_ZNSt3__216__libcpp_tls_setB8ne190106EjPv
.Lfunc_begin84:
	.loc	12 215 0                        # emscripten/cache/sysroot/include/c++/v1/__thread/support/pthread.h:215:0
	.functype	_ZNSt3__216__libcpp_tls_setB8ne190106EjPv (i32, i32) -> (i32)
	.local  	i32, i32, i32, i32, i32, i32, i32, i32
# %bb.0:                                # %entry
	global.get	__stack_pointer
	local.set	2
	i32.const	16
	local.set	3
	local.get	2
	local.get	3
	i32.sub 
	local.set	4
	local.get	4
	global.set	__stack_pointer
	local.get	4
	local.get	0
	i32.store	12
	local.get	4
	local.get	1
	i32.store	8
.Ltmp197:
	.loc	12 216 30 prologue_end          # emscripten/cache/sysroot/include/c++/v1/__thread/support/pthread.h:216:30
	local.get	4
	i32.load	12
	local.set	5
	.loc	12 216 37 is_stmt 0             # emscripten/cache/sysroot/include/c++/v1/__thread/support/pthread.h:216:37
	local.get	4
	i32.load	8
	local.set	6
	.loc	12 216 10                       # emscripten/cache/sysroot/include/c++/v1/__thread/support/pthread.h:216:10
	local.get	5
	local.get	6
	call	pthread_setspecific
	local.set	7
	.loc	12 216 3                        # emscripten/cache/sysroot/include/c++/v1/__thread/support/pthread.h:216:3
	i32.const	16
	local.set	8
	local.get	4
	local.get	8
	i32.add 
	local.set	9
	local.get	9
	global.set	__stack_pointer
	local.get	7
	return
	end_function
.Ltmp198:
.Lfunc_end84:
                                        # -- End function
	.section	.text._ZNSt3__212__tuple_leafILm0ENS_10unique_ptrINS_15__thread_structENS_14default_deleteIS2_EEEELb0EE3getB8ne190106Ev,"G",@,_ZNSt3__212__tuple_leafILm0ENS_10unique_ptrINS_15__thread_structENS_14default_deleteIS2_EEEELb0EE3getB8ne190106Ev,comdat
	.hidden	_ZNSt3__212__tuple_leafILm0ENS_10unique_ptrINS_15__thread_structENS_14default_deleteIS2_EEEELb0EE3getB8ne190106Ev # -- Begin function _ZNSt3__212__tuple_leafILm0ENS_10unique_ptrINS_15__thread_structENS_14default_deleteIS2_EEEELb0EE3getB8ne190106Ev
	.weak	_ZNSt3__212__tuple_leafILm0ENS_10unique_ptrINS_15__thread_structENS_14default_deleteIS2_EEEELb0EE3getB8ne190106Ev
	.type	_ZNSt3__212__tuple_leafILm0ENS_10unique_ptrINS_15__thread_structENS_14default_deleteIS2_EEEELb0EE3getB8ne190106Ev,@function
_ZNSt3__212__tuple_leafILm0ENS_10unique_ptrINS_15__thread_structENS_14default_deleteIS2_EEEELb0EE3getB8ne190106Ev: # @_ZNSt3__212__tuple_leafILm0ENS_10unique_ptrINS_15__thread_structENS_14default_deleteIS2_EEEELb0EE3getB8ne190106Ev
.Lfunc_begin85:
	.loc	27 382 0 is_stmt 1              # emscripten/cache/sysroot/include/c++/v1/tuple:382:0
	.functype	_ZNSt3__212__tuple_leafILm0ENS_10unique_ptrINS_15__thread_structENS_14default_deleteIS2_EEEELb0EE3getB8ne190106Ev (i32) -> (i32)
	.local  	i32, i32, i32, i32
# %bb.0:                                # %entry
	global.get	__stack_pointer
	local.set	1
	i32.const	16
	local.set	2
	local.get	1
	local.get	2
	i32.sub 
	local.set	3
	local.get	3
	local.get	0
	i32.store	12
	local.get	3
	i32.load	12
	local.set	4
.Ltmp199:
	.loc	27 382 78 prologue_end          # emscripten/cache/sysroot/include/c++/v1/tuple:382:78
	local.get	4
	return
	end_function
.Ltmp200:
.Lfunc_end85:
                                        # -- End function
	.section	.text._ZNSt3__28__invokeB8ne190106IPFvvEJEEEDTclclsr3stdE7declvalIT_EEspclsr3stdE7declvalIT0_EEEEOS3_DpOS4_,"G",@,_ZNSt3__28__invokeB8ne190106IPFvvEJEEEDTclclsr3stdE7declvalIT_EEspclsr3stdE7declvalIT0_EEEEOS3_DpOS4_,comdat
	.hidden	_ZNSt3__28__invokeB8ne190106IPFvvEJEEEDTclclsr3stdE7declvalIT_EEspclsr3stdE7declvalIT0_EEEEOS3_DpOS4_ # -- Begin function _ZNSt3__28__invokeB8ne190106IPFvvEJEEEDTclclsr3stdE7declvalIT_EEspclsr3stdE7declvalIT0_EEEEOS3_DpOS4_
	.weak	_ZNSt3__28__invokeB8ne190106IPFvvEJEEEDTclclsr3stdE7declvalIT_EEspclsr3stdE7declvalIT0_EEEEOS3_DpOS4_
	.type	_ZNSt3__28__invokeB8ne190106IPFvvEJEEEDTclclsr3stdE7declvalIT_EEspclsr3stdE7declvalIT0_EEEEOS3_DpOS4_,@function
_ZNSt3__28__invokeB8ne190106IPFvvEJEEEDTclclsr3stdE7declvalIT_EEspclsr3stdE7declvalIT0_EEEEOS3_DpOS4_: # @_ZNSt3__28__invokeB8ne190106IPFvvEJEEEDTclclsr3stdE7declvalIT_EEspclsr3stdE7declvalIT0_EEEEOS3_DpOS4_
.Lfunc_begin86:
	.file	34 "/home/kay/Documents/Code/toolchain-wasm" "emscripten/cache/sysroot/include/c++/v1/__type_traits/invoke.h"
	.loc	34 149 0                        # emscripten/cache/sysroot/include/c++/v1/__type_traits/invoke.h:149:0
	.functype	_ZNSt3__28__invokeB8ne190106IPFvvEJEEEDTclclsr3stdE7declvalIT_EEspclsr3stdE7declvalIT0_EEEEOS3_DpOS4_ (i32) -> ()
	.local  	i32, i32, i32, i32, i32, i32, i32
# %bb.0:                                # %entry
	global.get	__stack_pointer
	local.set	1
	i32.const	16
	local.set	2
	local.get	1
	local.get	2
	i32.sub 
	local.set	3
	local.get	3
	global.set	__stack_pointer
	local.get	3
	local.get	0
	i32.store	12
.Ltmp201:
	.loc	34 149 44 prologue_end          # emscripten/cache/sysroot/include/c++/v1/__type_traits/invoke.h:149:44
	local.get	3
	i32.load	12
	local.set	4
	local.get	4
	i32.load	0
	local.set	5
	.loc	34 149 25 is_stmt 0             # emscripten/cache/sysroot/include/c++/v1/__type_traits/invoke.h:149:25
	local.get	5
	call_indirect	 __indirect_function_table, () -> ()
	.loc	34 149 18                       # emscripten/cache/sysroot/include/c++/v1/__type_traits/invoke.h:149:18
	i32.const	16
	local.set	6
	local.get	3
	local.get	6
	i32.add 
	local.set	7
	local.get	7
	global.set	__stack_pointer
	return
	end_function
.Ltmp202:
.Lfunc_end86:
                                        # -- End function
	.section	.text._ZNSt3__23getB8ne190106ILm1EJNS_10unique_ptrINS_15__thread_structENS_14default_deleteIS2_EEEEPFvvEEEERNS_13tuple_elementIXT_ENS_5tupleIJDpT0_EEEE4typeERSC_,"G",@,_ZNSt3__23getB8ne190106ILm1EJNS_10unique_ptrINS_15__thread_structENS_14default_deleteIS2_EEEEPFvvEEEERNS_13tuple_elementIXT_ENS_5tupleIJDpT0_EEEE4typeERSC_,comdat
	.hidden	_ZNSt3__23getB8ne190106ILm1EJNS_10unique_ptrINS_15__thread_structENS_14default_deleteIS2_EEEEPFvvEEEERNS_13tuple_elementIXT_ENS_5tupleIJDpT0_EEEE4typeERSC_ # -- Begin function _ZNSt3__23getB8ne190106ILm1EJNS_10unique_ptrINS_15__thread_structENS_14default_deleteIS2_EEEEPFvvEEEERNS_13tuple_elementIXT_ENS_5tupleIJDpT0_EEEE4typeERSC_
	.weak	_ZNSt3__23getB8ne190106ILm1EJNS_10unique_ptrINS_15__thread_structENS_14default_deleteIS2_EEEEPFvvEEEERNS_13tuple_elementIXT_ENS_5tupleIJDpT0_EEEE4typeERSC_
	.type	_ZNSt3__23getB8ne190106ILm1EJNS_10unique_ptrINS_15__thread_structENS_14default_deleteIS2_EEEEPFvvEEEERNS_13tuple_elementIXT_ENS_5tupleIJDpT0_EEEE4typeERSC_,@function
_ZNSt3__23getB8ne190106ILm1EJNS_10unique_ptrINS_15__thread_structENS_14default_deleteIS2_EEEEPFvvEEEERNS_13tuple_elementIXT_ENS_5tupleIJDpT0_EEEE4typeERSC_: # @_ZNSt3__23getB8ne190106ILm1EJNS_10unique_ptrINS_15__thread_structENS_14default_deleteIS2_EEEEPFvvEEEERNS_13tuple_elementIXT_ENS_5tupleIJDpT0_EEEE4typeERSC_
.Lfunc_begin87:
	.loc	27 1064 0 is_stmt 1             # emscripten/cache/sysroot/include/c++/v1/tuple:1064:0
	.functype	_ZNSt3__23getB8ne190106ILm1EJNS_10unique_ptrINS_15__thread_structENS_14default_deleteIS2_EEEEPFvvEEEERNS_13tuple_elementIXT_ENS_5tupleIJDpT0_EEEE4typeERSC_ (i32) -> (i32)
	.local  	i32, i32, i32, i32, i32, i32, i32, i32, i32
# %bb.0:                                # %entry
	global.get	__stack_pointer
	local.set	1
	i32.const	16
	local.set	2
	local.get	1
	local.get	2
	i32.sub 
	local.set	3
	local.get	3
	global.set	__stack_pointer
	local.get	3
	local.get	0
	i32.store	12
.Ltmp203:
	.loc	27 1066 48 prologue_end         # emscripten/cache/sysroot/include/c++/v1/tuple:1066:48
	local.get	3
	i32.load	12
	local.set	4
	i32.const	4
	local.set	5
	local.get	4
	local.get	5
	i32.add 
	local.set	6
	.loc	27 1066 61 is_stmt 0            # emscripten/cache/sysroot/include/c++/v1/tuple:1066:61
	local.get	6
	call	_ZNSt3__212__tuple_leafILm1EPFvvELb0EE3getB8ne190106Ev
	local.set	7
	.loc	27 1066 3                       # emscripten/cache/sysroot/include/c++/v1/tuple:1066:3
	i32.const	16
	local.set	8
	local.get	3
	local.get	8
	i32.add 
	local.set	9
	local.get	9
	global.set	__stack_pointer
	local.get	7
	return
	end_function
.Ltmp204:
.Lfunc_end87:
                                        # -- End function
	.section	.text._ZNSt3__212__tuple_leafILm1EPFvvELb0EE3getB8ne190106Ev,"G",@,_ZNSt3__212__tuple_leafILm1EPFvvELb0EE3getB8ne190106Ev,comdat
	.hidden	_ZNSt3__212__tuple_leafILm1EPFvvELb0EE3getB8ne190106Ev # -- Begin function _ZNSt3__212__tuple_leafILm1EPFvvELb0EE3getB8ne190106Ev
	.weak	_ZNSt3__212__tuple_leafILm1EPFvvELb0EE3getB8ne190106Ev
	.type	_ZNSt3__212__tuple_leafILm1EPFvvELb0EE3getB8ne190106Ev,@function
_ZNSt3__212__tuple_leafILm1EPFvvELb0EE3getB8ne190106Ev: # @_ZNSt3__212__tuple_leafILm1EPFvvELb0EE3getB8ne190106Ev
.Lfunc_begin88:
	.loc	27 382 0 is_stmt 1              # emscripten/cache/sysroot/include/c++/v1/tuple:382:0
	.functype	_ZNSt3__212__tuple_leafILm1EPFvvELb0EE3getB8ne190106Ev (i32) -> (i32)
	.local  	i32, i32, i32, i32
# %bb.0:                                # %entry
	global.get	__stack_pointer
	local.set	1
	i32.const	16
	local.set	2
	local.get	1
	local.get	2
	i32.sub 
	local.set	3
	local.get	3
	local.get	0
	i32.store	12
	local.get	3
	i32.load	12
	local.set	4
.Ltmp205:
	.loc	27 382 78 prologue_end          # emscripten/cache/sysroot/include/c++/v1/tuple:382:78
	local.get	4
	return
	end_function
.Ltmp206:
.Lfunc_end88:
                                        # -- End function
	.section	.text._ZNKSt3__217__compressed_pairIPNS_5tupleIJNS_10unique_ptrINS_15__thread_structENS_14default_deleteIS3_EEEEPFvvEEEENS4_IS9_EEE5firstB8ne190106Ev,"G",@,_ZNKSt3__217__compressed_pairIPNS_5tupleIJNS_10unique_ptrINS_15__thread_structENS_14default_deleteIS3_EEEEPFvvEEEENS4_IS9_EEE5firstB8ne190106Ev,comdat
	.hidden	_ZNKSt3__217__compressed_pairIPNS_5tupleIJNS_10unique_ptrINS_15__thread_structENS_14default_deleteIS3_EEEEPFvvEEEENS4_IS9_EEE5firstB8ne190106Ev # -- Begin function _ZNKSt3__217__compressed_pairIPNS_5tupleIJNS_10unique_ptrINS_15__thread_structENS_14default_deleteIS3_EEEEPFvvEEEENS4_IS9_EEE5firstB8ne190106Ev
	.weak	_ZNKSt3__217__compressed_pairIPNS_5tupleIJNS_10unique_ptrINS_15__thread_structENS_14default_deleteIS3_EEEEPFvvEEEENS4_IS9_EEE5firstB8ne190106Ev
	.type	_ZNKSt3__217__compressed_pairIPNS_5tupleIJNS_10unique_ptrINS_15__thread_structENS_14default_deleteIS3_EEEEPFvvEEEENS4_IS9_EEE5firstB8ne190106Ev,@function
_ZNKSt3__217__compressed_pairIPNS_5tupleIJNS_10unique_ptrINS_15__thread_structENS_14default_deleteIS3_EEEEPFvvEEEENS4_IS9_EEE5firstB8ne190106Ev: # @_ZNKSt3__217__compressed_pairIPNS_5tupleIJNS_10unique_ptrINS_15__thread_structENS_14default_deleteIS3_EEEEPFvvEEEENS4_IS9_EEE5firstB8ne190106Ev
.Lfunc_begin89:
	.loc	15 133 0                        # emscripten/cache/sysroot/include/c++/v1/__memory/compressed_pair.h:133:0
	.functype	_ZNKSt3__217__compressed_pairIPNS_5tupleIJNS_10unique_ptrINS_15__thread_structENS_14default_deleteIS3_EEEEPFvvEEEENS4_IS9_EEE5firstB8ne190106Ev (i32) -> (i32)
	.local  	i32, i32, i32, i32, i32, i32, i32
# %bb.0:                                # %entry
	global.get	__stack_pointer
	local.set	1
	i32.const	16
	local.set	2
	local.get	1
	local.get	2
	i32.sub 
	local.set	3
	local.get	3
	global.set	__stack_pointer
	local.get	3
	local.get	0
	i32.store	12
	local.get	3
	i32.load	12
	local.set	4
.Ltmp207:
	.loc	15 134 46 prologue_end          # emscripten/cache/sysroot/include/c++/v1/__memory/compressed_pair.h:134:46
	local.get	4
	call	_ZNKSt3__222__compressed_pair_elemIPNS_5tupleIJNS_10unique_ptrINS_15__thread_structENS_14default_deleteIS3_EEEEPFvvEEEELi0ELb0EE5__getB8ne190106Ev
	local.set	5
	.loc	15 134 5 is_stmt 0              # emscripten/cache/sysroot/include/c++/v1/__memory/compressed_pair.h:134:5
	i32.const	16
	local.set	6
	local.get	3
	local.get	6
	i32.add 
	local.set	7
	local.get	7
	global.set	__stack_pointer
	local.get	5
	return
	end_function
.Ltmp208:
.Lfunc_end89:
                                        # -- End function
	.section	.text._ZNKSt3__222__compressed_pair_elemIPNS_5tupleIJNS_10unique_ptrINS_15__thread_structENS_14default_deleteIS3_EEEEPFvvEEEELi0ELb0EE5__getB8ne190106Ev,"G",@,_ZNKSt3__222__compressed_pair_elemIPNS_5tupleIJNS_10unique_ptrINS_15__thread_structENS_14default_deleteIS3_EEEEPFvvEEEELi0ELb0EE5__getB8ne190106Ev,comdat
	.hidden	_ZNKSt3__222__compressed_pair_elemIPNS_5tupleIJNS_10unique_ptrINS_15__thread_structENS_14default_deleteIS3_EEEEPFvvEEEELi0ELb0EE5__getB8ne190106Ev # -- Begin function _ZNKSt3__222__compressed_pair_elemIPNS_5tupleIJNS_10unique_ptrINS_15__thread_structENS_14default_deleteIS3_EEEEPFvvEEEELi0ELb0EE5__getB8ne190106Ev
	.weak	_ZNKSt3__222__compressed_pair_elemIPNS_5tupleIJNS_10unique_ptrINS_15__thread_structENS_14default_deleteIS3_EEEEPFvvEEEELi0ELb0EE5__getB8ne190106Ev
	.type	_ZNKSt3__222__compressed_pair_elemIPNS_5tupleIJNS_10unique_ptrINS_15__thread_structENS_14default_deleteIS3_EEEEPFvvEEEELi0ELb0EE5__getB8ne190106Ev,@function
_ZNKSt3__222__compressed_pair_elemIPNS_5tupleIJNS_10unique_ptrINS_15__thread_structENS_14default_deleteIS3_EEEEPFvvEEEELi0ELb0EE5__getB8ne190106Ev: # @_ZNKSt3__222__compressed_pair_elemIPNS_5tupleIJNS_10unique_ptrINS_15__thread_structENS_14default_deleteIS3_EEEEPFvvEEEELi0ELb0EE5__getB8ne190106Ev
.Lfunc_begin90:
	.loc	15 63 0 is_stmt 1               # emscripten/cache/sysroot/include/c++/v1/__memory/compressed_pair.h:63:0
	.functype	_ZNKSt3__222__compressed_pair_elemIPNS_5tupleIJNS_10unique_ptrINS_15__thread_structENS_14default_deleteIS3_EEEEPFvvEEEELi0ELb0EE5__getB8ne190106Ev (i32) -> (i32)
	.local  	i32, i32, i32, i32
# %bb.0:                                # %entry
	global.get	__stack_pointer
	local.set	1
	i32.const	16
	local.set	2
	local.get	1
	local.get	2
	i32.sub 
	local.set	3
	local.get	3
	local.get	0
	i32.store	12
	local.get	3
	i32.load	12
	local.set	4
.Ltmp209:
	.loc	15 63 85 prologue_end           # emscripten/cache/sysroot/include/c++/v1/__memory/compressed_pair.h:63:85
	local.get	4
	return
	end_function
.Ltmp210:
.Lfunc_end90:
                                        # -- End function
	.section	.text._ZNSt3__217__compressed_pairIPNS_5tupleIJNS_10unique_ptrINS_15__thread_structENS_14default_deleteIS3_EEEEPFvvEEEENS4_IS9_EEE5firstB8ne190106Ev,"G",@,_ZNSt3__217__compressed_pairIPNS_5tupleIJNS_10unique_ptrINS_15__thread_structENS_14default_deleteIS3_EEEEPFvvEEEENS4_IS9_EEE5firstB8ne190106Ev,comdat
	.hidden	_ZNSt3__217__compressed_pairIPNS_5tupleIJNS_10unique_ptrINS_15__thread_structENS_14default_deleteIS3_EEEEPFvvEEEENS4_IS9_EEE5firstB8ne190106Ev # -- Begin function _ZNSt3__217__compressed_pairIPNS_5tupleIJNS_10unique_ptrINS_15__thread_structENS_14default_deleteIS3_EEEEPFvvEEEENS4_IS9_EEE5firstB8ne190106Ev
	.weak	_ZNSt3__217__compressed_pairIPNS_5tupleIJNS_10unique_ptrINS_15__thread_structENS_14default_deleteIS3_EEEEPFvvEEEENS4_IS9_EEE5firstB8ne190106Ev
	.type	_ZNSt3__217__compressed_pairIPNS_5tupleIJNS_10unique_ptrINS_15__thread_structENS_14default_deleteIS3_EEEEPFvvEEEENS4_IS9_EEE5firstB8ne190106Ev,@function
_ZNSt3__217__compressed_pairIPNS_5tupleIJNS_10unique_ptrINS_15__thread_structENS_14default_deleteIS3_EEEEPFvvEEEENS4_IS9_EEE5firstB8ne190106Ev: # @_ZNSt3__217__compressed_pairIPNS_5tupleIJNS_10unique_ptrINS_15__thread_structENS_14default_deleteIS3_EEEEPFvvEEEENS4_IS9_EEE5firstB8ne190106Ev
.Lfunc_begin91:
	.loc	15 129 0                        # emscripten/cache/sysroot/include/c++/v1/__memory/compressed_pair.h:129:0
	.functype	_ZNSt3__217__compressed_pairIPNS_5tupleIJNS_10unique_ptrINS_15__thread_structENS_14default_deleteIS3_EEEEPFvvEEEENS4_IS9_EEE5firstB8ne190106Ev (i32) -> (i32)
	.local  	i32, i32, i32, i32, i32, i32, i32
# %bb.0:                                # %entry
	global.get	__stack_pointer
	local.set	1
	i32.const	16
	local.set	2
	local.get	1
	local.get	2
	i32.sub 
	local.set	3
	local.get	3
	global.set	__stack_pointer
	local.get	3
	local.get	0
	i32.store	12
	local.get	3
	i32.load	12
	local.set	4
.Ltmp211:
	.loc	15 130 40 prologue_end          # emscripten/cache/sysroot/include/c++/v1/__memory/compressed_pair.h:130:40
	local.get	4
	call	_ZNSt3__222__compressed_pair_elemIPNS_5tupleIJNS_10unique_ptrINS_15__thread_structENS_14default_deleteIS3_EEEEPFvvEEEELi0ELb0EE5__getB8ne190106Ev
	local.set	5
	.loc	15 130 5 is_stmt 0              # emscripten/cache/sysroot/include/c++/v1/__memory/compressed_pair.h:130:5
	i32.const	16
	local.set	6
	local.get	3
	local.get	6
	i32.add 
	local.set	7
	local.get	7
	global.set	__stack_pointer
	local.get	5
	return
	end_function
.Ltmp212:
.Lfunc_end91:
                                        # -- End function
	.section	.text._ZNSt3__222__compressed_pair_elemIPNS_5tupleIJNS_10unique_ptrINS_15__thread_structENS_14default_deleteIS3_EEEEPFvvEEEELi0ELb0EE5__getB8ne190106Ev,"G",@,_ZNSt3__222__compressed_pair_elemIPNS_5tupleIJNS_10unique_ptrINS_15__thread_structENS_14default_deleteIS3_EEEEPFvvEEEELi0ELb0EE5__getB8ne190106Ev,comdat
	.hidden	_ZNSt3__222__compressed_pair_elemIPNS_5tupleIJNS_10unique_ptrINS_15__thread_structENS_14default_deleteIS3_EEEEPFvvEEEELi0ELb0EE5__getB8ne190106Ev # -- Begin function _ZNSt3__222__compressed_pair_elemIPNS_5tupleIJNS_10unique_ptrINS_15__thread_structENS_14default_deleteIS3_EEEEPFvvEEEELi0ELb0EE5__getB8ne190106Ev
	.weak	_ZNSt3__222__compressed_pair_elemIPNS_5tupleIJNS_10unique_ptrINS_15__thread_structENS_14default_deleteIS3_EEEEPFvvEEEELi0ELb0EE5__getB8ne190106Ev
	.type	_ZNSt3__222__compressed_pair_elemIPNS_5tupleIJNS_10unique_ptrINS_15__thread_structENS_14default_deleteIS3_EEEEPFvvEEEELi0ELb0EE5__getB8ne190106Ev,@function
_ZNSt3__222__compressed_pair_elemIPNS_5tupleIJNS_10unique_ptrINS_15__thread_structENS_14default_deleteIS3_EEEEPFvvEEEELi0ELb0EE5__getB8ne190106Ev: # @_ZNSt3__222__compressed_pair_elemIPNS_5tupleIJNS_10unique_ptrINS_15__thread_structENS_14default_deleteIS3_EEEEPFvvEEEELi0ELb0EE5__getB8ne190106Ev
.Lfunc_begin92:
	.loc	15 62 0 is_stmt 1               # emscripten/cache/sysroot/include/c++/v1/__memory/compressed_pair.h:62:0
	.functype	_ZNSt3__222__compressed_pair_elemIPNS_5tupleIJNS_10unique_ptrINS_15__thread_structENS_14default_deleteIS3_EEEEPFvvEEEELi0ELb0EE5__getB8ne190106Ev (i32) -> (i32)
	.local  	i32, i32, i32, i32
# %bb.0:                                # %entry
	global.get	__stack_pointer
	local.set	1
	i32.const	16
	local.set	2
	local.get	1
	local.get	2
	i32.sub 
	local.set	3
	local.get	3
	local.get	0
	i32.store	12
	local.get	3
	i32.load	12
	local.set	4
.Ltmp213:
	.loc	15 62 85 prologue_end           # emscripten/cache/sysroot/include/c++/v1/__memory/compressed_pair.h:62:85
	local.get	4
	return
	end_function
.Ltmp214:
.Lfunc_end92:
                                        # -- End function
	.section	.text._ZNSt3__210unique_ptrINS_5tupleIJNS0_INS_15__thread_structENS_14default_deleteIS2_EEEEPFvvEEEENS3_IS8_EEE5resetB8ne190106EPS8_,"G",@,_ZNSt3__210unique_ptrINS_5tupleIJNS0_INS_15__thread_structENS_14default_deleteIS2_EEEEPFvvEEEENS3_IS8_EEE5resetB8ne190106EPS8_,comdat
	.hidden	_ZNSt3__210unique_ptrINS_5tupleIJNS0_INS_15__thread_structENS_14default_deleteIS2_EEEEPFvvEEEENS3_IS8_EEE5resetB8ne190106EPS8_ # -- Begin function _ZNSt3__210unique_ptrINS_5tupleIJNS0_INS_15__thread_structENS_14default_deleteIS2_EEEEPFvvEEEENS3_IS8_EEE5resetB8ne190106EPS8_
	.weak	_ZNSt3__210unique_ptrINS_5tupleIJNS0_INS_15__thread_structENS_14default_deleteIS2_EEEEPFvvEEEENS3_IS8_EEE5resetB8ne190106EPS8_
	.type	_ZNSt3__210unique_ptrINS_5tupleIJNS0_INS_15__thread_structENS_14default_deleteIS2_EEEEPFvvEEEENS3_IS8_EEE5resetB8ne190106EPS8_,@function
_ZNSt3__210unique_ptrINS_5tupleIJNS0_INS_15__thread_structENS_14default_deleteIS2_EEEEPFvvEEEENS3_IS8_EEE5resetB8ne190106EPS8_: # @_ZNSt3__210unique_ptrINS_5tupleIJNS0_INS_15__thread_structENS_14default_deleteIS2_EEEEPFvvEEEENS3_IS8_EEE5resetB8ne190106EPS8_
.Lfunc_begin93:
	.loc	23 288 0                        # emscripten/cache/sysroot/include/c++/v1/__memory/unique_ptr.h:288:0
	.functype	_ZNSt3__210unique_ptrINS_5tupleIJNS0_INS_15__thread_structENS_14default_deleteIS2_EEEEPFvvEEEENS3_IS8_EEE5resetB8ne190106EPS8_ (i32, i32) -> ()
	.local  	i32, i32, i32, i32, i32, i32, i32, i32, i32, i32, i32, i32, i32, i32, i32, i32, i32
# %bb.0:                                # %entry
	global.get	__stack_pointer
	local.set	2
	i32.const	16
	local.set	3
	local.get	2
	local.get	3
	i32.sub 
	local.set	4
	local.get	4
	global.set	__stack_pointer
	local.get	4
	local.get	0
	i32.store	12
	local.get	4
	local.get	1
	i32.store	8
	local.get	4
	i32.load	12
	local.set	5
.Ltmp215:
	.loc	23 289 29 prologue_end          # emscripten/cache/sysroot/include/c++/v1/__memory/unique_ptr.h:289:29
	local.get	5
	call	_ZNSt3__217__compressed_pairIPNS_5tupleIJNS_10unique_ptrINS_15__thread_structENS_14default_deleteIS3_EEEEPFvvEEEENS4_IS9_EEE5firstB8ne190106Ev
	local.set	6
	local.get	6
	i32.load	0
	local.set	7
	.loc	23 289 13 is_stmt 0             # emscripten/cache/sysroot/include/c++/v1/__memory/unique_ptr.h:289:13
	local.get	4
	local.get	7
	i32.store	4
	.loc	23 290 22 is_stmt 1             # emscripten/cache/sysroot/include/c++/v1/__memory/unique_ptr.h:290:22
	local.get	4
	i32.load	8
	local.set	8
	.loc	23 290 12 is_stmt 0             # emscripten/cache/sysroot/include/c++/v1/__memory/unique_ptr.h:290:12
	local.get	5
	call	_ZNSt3__217__compressed_pairIPNS_5tupleIJNS_10unique_ptrINS_15__thread_structENS_14default_deleteIS3_EEEEPFvvEEEENS4_IS9_EEE5firstB8ne190106Ev
	local.set	9
	.loc	23 290 20                       # emscripten/cache/sysroot/include/c++/v1/__memory/unique_ptr.h:290:20
	local.get	9
	local.get	8
	i32.store	0
.Ltmp216:
	.loc	23 291 9 is_stmt 1              # emscripten/cache/sysroot/include/c++/v1/__memory/unique_ptr.h:291:9
	local.get	4
	i32.load	4
	local.set	10
	i32.const	0
	local.set	11
	local.get	10
	local.get	11
	i32.ne  
	local.set	12
	i32.const	1
	local.set	13
	local.get	12
	local.get	13
	i32.and 
	local.set	14
	block   	
	local.get	14
	i32.eqz
	br_if   	0                               # 0: down to label17
# %bb.1:                                # %if.then
	.loc	23 292 14                       # emscripten/cache/sysroot/include/c++/v1/__memory/unique_ptr.h:292:14
	local.get	5
	call	_ZNSt3__217__compressed_pairIPNS_5tupleIJNS_10unique_ptrINS_15__thread_structENS_14default_deleteIS3_EEEEPFvvEEEENS4_IS9_EEE6secondB8ne190106Ev
	local.set	15
	.loc	23 292 23 is_stmt 0             # emscripten/cache/sysroot/include/c++/v1/__memory/unique_ptr.h:292:23
	local.get	4
	i32.load	4
	local.set	16
	.loc	23 292 7                        # emscripten/cache/sysroot/include/c++/v1/__memory/unique_ptr.h:292:7
	local.get	15
	local.get	16
	call	_ZNKSt3__214default_deleteINS_5tupleIJNS_10unique_ptrINS_15__thread_structENS0_IS3_EEEEPFvvEEEEEclB8ne190106EPS8_
.Ltmp217:
.LBB93_2:                               # %if.end
	.loc	23 0 7                          # emscripten/cache/sysroot/include/c++/v1/__memory/unique_ptr.h:0:7
	end_block                               # label17:
	.loc	23 293 3 is_stmt 1              # emscripten/cache/sysroot/include/c++/v1/__memory/unique_ptr.h:293:3
	i32.const	16
	local.set	17
	local.get	4
	local.get	17
	i32.add 
	local.set	18
	local.get	18
	global.set	__stack_pointer
	return
	end_function
.Ltmp218:
.Lfunc_end93:
                                        # -- End function
	.section	.text._ZNSt3__217__compressed_pairIPNS_5tupleIJNS_10unique_ptrINS_15__thread_structENS_14default_deleteIS3_EEEEPFvvEEEENS4_IS9_EEE6secondB8ne190106Ev,"G",@,_ZNSt3__217__compressed_pairIPNS_5tupleIJNS_10unique_ptrINS_15__thread_structENS_14default_deleteIS3_EEEEPFvvEEEENS4_IS9_EEE6secondB8ne190106Ev,comdat
	.hidden	_ZNSt3__217__compressed_pairIPNS_5tupleIJNS_10unique_ptrINS_15__thread_structENS_14default_deleteIS3_EEEEPFvvEEEENS4_IS9_EEE6secondB8ne190106Ev # -- Begin function _ZNSt3__217__compressed_pairIPNS_5tupleIJNS_10unique_ptrINS_15__thread_structENS_14default_deleteIS3_EEEEPFvvEEEENS4_IS9_EEE6secondB8ne190106Ev
	.weak	_ZNSt3__217__compressed_pairIPNS_5tupleIJNS_10unique_ptrINS_15__thread_structENS_14default_deleteIS3_EEEEPFvvEEEENS4_IS9_EEE6secondB8ne190106Ev
	.type	_ZNSt3__217__compressed_pairIPNS_5tupleIJNS_10unique_ptrINS_15__thread_structENS_14default_deleteIS3_EEEEPFvvEEEENS4_IS9_EEE6secondB8ne190106Ev,@function
_ZNSt3__217__compressed_pairIPNS_5tupleIJNS_10unique_ptrINS_15__thread_structENS_14default_deleteIS3_EEEEPFvvEEEENS4_IS9_EEE6secondB8ne190106Ev: # @_ZNSt3__217__compressed_pairIPNS_5tupleIJNS_10unique_ptrINS_15__thread_structENS_14default_deleteIS3_EEEEPFvvEEEENS4_IS9_EEE6secondB8ne190106Ev
.Lfunc_begin94:
	.loc	15 137 0                        # emscripten/cache/sysroot/include/c++/v1/__memory/compressed_pair.h:137:0
	.functype	_ZNSt3__217__compressed_pairIPNS_5tupleIJNS_10unique_ptrINS_15__thread_structENS_14default_deleteIS3_EEEEPFvvEEEENS4_IS9_EEE6secondB8ne190106Ev (i32) -> (i32)
	.local  	i32, i32, i32, i32, i32, i32, i32
# %bb.0:                                # %entry
	global.get	__stack_pointer
	local.set	1
	i32.const	16
	local.set	2
	local.get	1
	local.get	2
	i32.sub 
	local.set	3
	local.get	3
	global.set	__stack_pointer
	local.get	3
	local.get	0
	i32.store	12
	local.get	3
	i32.load	12
	local.set	4
.Ltmp219:
	.loc	15 138 40 prologue_end          # emscripten/cache/sysroot/include/c++/v1/__memory/compressed_pair.h:138:40
	local.get	4
	call	_ZNSt3__222__compressed_pair_elemINS_14default_deleteINS_5tupleIJNS_10unique_ptrINS_15__thread_structENS1_IS4_EEEEPFvvEEEEEELi1ELb1EE5__getB8ne190106Ev
	local.set	5
	.loc	15 138 5 is_stmt 0              # emscripten/cache/sysroot/include/c++/v1/__memory/compressed_pair.h:138:5
	i32.const	16
	local.set	6
	local.get	3
	local.get	6
	i32.add 
	local.set	7
	local.get	7
	global.set	__stack_pointer
	local.get	5
	return
	end_function
.Ltmp220:
.Lfunc_end94:
                                        # -- End function
	.section	.text._ZNKSt3__214default_deleteINS_5tupleIJNS_10unique_ptrINS_15__thread_structENS0_IS3_EEEEPFvvEEEEEclB8ne190106EPS8_,"G",@,_ZNKSt3__214default_deleteINS_5tupleIJNS_10unique_ptrINS_15__thread_structENS0_IS3_EEEEPFvvEEEEEclB8ne190106EPS8_,comdat
	.hidden	_ZNKSt3__214default_deleteINS_5tupleIJNS_10unique_ptrINS_15__thread_structENS0_IS3_EEEEPFvvEEEEEclB8ne190106EPS8_ # -- Begin function _ZNKSt3__214default_deleteINS_5tupleIJNS_10unique_ptrINS_15__thread_structENS0_IS3_EEEEPFvvEEEEEclB8ne190106EPS8_
	.weak	_ZNKSt3__214default_deleteINS_5tupleIJNS_10unique_ptrINS_15__thread_structENS0_IS3_EEEEPFvvEEEEEclB8ne190106EPS8_
	.type	_ZNKSt3__214default_deleteINS_5tupleIJNS_10unique_ptrINS_15__thread_structENS0_IS3_EEEEPFvvEEEEEclB8ne190106EPS8_,@function
_ZNKSt3__214default_deleteINS_5tupleIJNS_10unique_ptrINS_15__thread_structENS0_IS3_EEEEPFvvEEEEEclB8ne190106EPS8_: # @_ZNKSt3__214default_deleteINS_5tupleIJNS_10unique_ptrINS_15__thread_structENS0_IS3_EEEEPFvvEEEEEclB8ne190106EPS8_
.Lfunc_begin95:
	.loc	23 77 0 is_stmt 1               # emscripten/cache/sysroot/include/c++/v1/__memory/unique_ptr.h:77:0
	.functype	_ZNKSt3__214default_deleteINS_5tupleIJNS_10unique_ptrINS_15__thread_structENS0_IS3_EEEEPFvvEEEEEclB8ne190106EPS8_ (i32, i32) -> ()
	.local  	i32, i32, i32, i32, i32, i32, i32, i32, i32, i32, i32
# %bb.0:                                # %entry
	global.get	__stack_pointer
	local.set	2
	i32.const	16
	local.set	3
	local.get	2
	local.get	3
	i32.sub 
	local.set	4
	local.get	4
	global.set	__stack_pointer
	local.get	4
	local.get	0
	i32.store	12
	local.get	4
	local.get	1
	i32.store	8
.Ltmp221:
	.loc	23 80 12 prologue_end           # emscripten/cache/sysroot/include/c++/v1/__memory/unique_ptr.h:80:12
	local.get	4
	i32.load	8
	local.set	5
	.loc	23 80 5 is_stmt 0               # emscripten/cache/sysroot/include/c++/v1/__memory/unique_ptr.h:80:5
	i32.const	0
	local.set	6
	local.get	5
	local.get	6
	i32.eq  
	local.set	7
	i32.const	1
	local.set	8
	local.get	7
	local.get	8
	i32.and 
	local.set	9
	block   	
	local.get	9
	br_if   	0                               # 0: down to label18
# %bb.1:                                # %delete.notnull
	local.get	5
	call	_ZNSt3__25tupleIJNS_10unique_ptrINS_15__thread_structENS_14default_deleteIS2_EEEEPFvvEEED2Ev
	drop
	i32.const	8
	local.set	10
	local.get	5
	local.get	10
	call	_ZdlPvm
.LBB95_2:                               # %delete.end
	.loc	23 0 5                          # emscripten/cache/sysroot/include/c++/v1/__memory/unique_ptr.h:0:5
	end_block                               # label18:
	.loc	23 81 3 is_stmt 1               # emscripten/cache/sysroot/include/c++/v1/__memory/unique_ptr.h:81:3
	i32.const	16
	local.set	11
	local.get	4
	local.get	11
	i32.add 
	local.set	12
	local.get	12
	global.set	__stack_pointer
	return
	end_function
.Ltmp222:
.Lfunc_end95:
                                        # -- End function
	.section	.text._ZNSt3__222__compressed_pair_elemINS_14default_deleteINS_5tupleIJNS_10unique_ptrINS_15__thread_structENS1_IS4_EEEEPFvvEEEEEELi1ELb1EE5__getB8ne190106Ev,"G",@,_ZNSt3__222__compressed_pair_elemINS_14default_deleteINS_5tupleIJNS_10unique_ptrINS_15__thread_structENS1_IS4_EEEEPFvvEEEEEELi1ELb1EE5__getB8ne190106Ev,comdat
	.hidden	_ZNSt3__222__compressed_pair_elemINS_14default_deleteINS_5tupleIJNS_10unique_ptrINS_15__thread_structENS1_IS4_EEEEPFvvEEEEEELi1ELb1EE5__getB8ne190106Ev # -- Begin function _ZNSt3__222__compressed_pair_elemINS_14default_deleteINS_5tupleIJNS_10unique_ptrINS_15__thread_structENS1_IS4_EEEEPFvvEEEEEELi1ELb1EE5__getB8ne190106Ev
	.weak	_ZNSt3__222__compressed_pair_elemINS_14default_deleteINS_5tupleIJNS_10unique_ptrINS_15__thread_structENS1_IS4_EEEEPFvvEEEEEELi1ELb1EE5__getB8ne190106Ev
	.type	_ZNSt3__222__compressed_pair_elemINS_14default_deleteINS_5tupleIJNS_10unique_ptrINS_15__thread_structENS1_IS4_EEEEPFvvEEEEEELi1ELb1EE5__getB8ne190106Ev,@function
_ZNSt3__222__compressed_pair_elemINS_14default_deleteINS_5tupleIJNS_10unique_ptrINS_15__thread_structENS1_IS4_EEEEPFvvEEEEEELi1ELb1EE5__getB8ne190106Ev: # @_ZNSt3__222__compressed_pair_elemINS_14default_deleteINS_5tupleIJNS_10unique_ptrINS_15__thread_structENS1_IS4_EEEEPFvvEEEEEELi1ELb1EE5__getB8ne190106Ev
.Lfunc_begin96:
	.loc	15 91 0                         # emscripten/cache/sysroot/include/c++/v1/__memory/compressed_pair.h:91:0
	.functype	_ZNSt3__222__compressed_pair_elemINS_14default_deleteINS_5tupleIJNS_10unique_ptrINS_15__thread_structENS1_IS4_EEEEPFvvEEEEEELi1ELb1EE5__getB8ne190106Ev (i32) -> (i32)
	.local  	i32, i32, i32, i32
# %bb.0:                                # %entry
	global.get	__stack_pointer
	local.set	1
	i32.const	16
	local.set	2
	local.get	1
	local.get	2
	i32.sub 
	local.set	3
	local.get	3
	local.get	0
	i32.store	12
	local.get	3
	i32.load	12
	local.set	4
.Ltmp223:
	.loc	15 91 85 prologue_end           # emscripten/cache/sysroot/include/c++/v1/__memory/compressed_pair.h:91:85
	local.get	4
	return
	end_function
.Ltmp224:
.Lfunc_end96:
                                        # -- End function
	.section	.text._ZNSt3__25tupleIJNS_10unique_ptrINS_15__thread_structENS_14default_deleteIS2_EEEEPFvvEEED2Ev,"G",@,_ZNSt3__25tupleIJNS_10unique_ptrINS_15__thread_structENS_14default_deleteIS2_EEEEPFvvEEED2Ev,comdat
	.hidden	_ZNSt3__25tupleIJNS_10unique_ptrINS_15__thread_structENS_14default_deleteIS2_EEEEPFvvEEED2Ev # -- Begin function _ZNSt3__25tupleIJNS_10unique_ptrINS_15__thread_structENS_14default_deleteIS2_EEEEPFvvEEED2Ev
	.weak	_ZNSt3__25tupleIJNS_10unique_ptrINS_15__thread_structENS_14default_deleteIS2_EEEEPFvvEEED2Ev
	.type	_ZNSt3__25tupleIJNS_10unique_ptrINS_15__thread_structENS_14default_deleteIS2_EEEEPFvvEEED2Ev,@function
_ZNSt3__25tupleIJNS_10unique_ptrINS_15__thread_structENS_14default_deleteIS2_EEEEPFvvEEED2Ev: # @_ZNSt3__25tupleIJNS_10unique_ptrINS_15__thread_structENS_14default_deleteIS2_EEEEPFvvEEED2Ev
.Lfunc_begin97:
	.loc	27 531 0                        # emscripten/cache/sysroot/include/c++/v1/tuple:531:0
	.functype	_ZNSt3__25tupleIJNS_10unique_ptrINS_15__thread_structENS_14default_deleteIS2_EEEEPFvvEEED2Ev (i32) -> (i32)
	.local  	i32, i32, i32, i32, i32, i32
# %bb.0:                                # %entry
	global.get	__stack_pointer
	local.set	1
	i32.const	16
	local.set	2
	local.get	1
	local.get	2
	i32.sub 
	local.set	3
	local.get	3
	global.set	__stack_pointer
	local.get	3
	local.get	0
	i32.store	12
	local.get	3
	i32.load	12
	local.set	4
.Ltmp225:
	.loc	27 531 28 prologue_end          # emscripten/cache/sysroot/include/c++/v1/tuple:531:28
	local.get	4
	call	_ZNSt3__212__tuple_implINS_15__tuple_indicesIJLm0ELm1EEEEJNS_10unique_ptrINS_15__thread_structENS_14default_deleteIS4_EEEEPFvvEEED2Ev
	drop
.Ltmp226:
	.loc	27 531 28 is_stmt 0             # emscripten/cache/sysroot/include/c++/v1/tuple:531:28
	i32.const	16
	local.set	5
	local.get	3
	local.get	5
	i32.add 
	local.set	6
	local.get	6
	global.set	__stack_pointer
	local.get	4
	return
	end_function
.Ltmp227:
.Lfunc_end97:
                                        # -- End function
	.section	.text._ZNSt3__212__tuple_implINS_15__tuple_indicesIJLm0ELm1EEEEJNS_10unique_ptrINS_15__thread_structENS_14default_deleteIS4_EEEEPFvvEEED2Ev,"G",@,_ZNSt3__212__tuple_implINS_15__tuple_indicesIJLm0ELm1EEEEJNS_10unique_ptrINS_15__thread_structENS_14default_deleteIS4_EEEEPFvvEEED2Ev,comdat
	.hidden	_ZNSt3__212__tuple_implINS_15__tuple_indicesIJLm0ELm1EEEEJNS_10unique_ptrINS_15__thread_structENS_14default_deleteIS4_EEEEPFvvEEED2Ev # -- Begin function _ZNSt3__212__tuple_implINS_15__tuple_indicesIJLm0ELm1EEEEJNS_10unique_ptrINS_15__thread_structENS_14default_deleteIS4_EEEEPFvvEEED2Ev
	.weak	_ZNSt3__212__tuple_implINS_15__tuple_indicesIJLm0ELm1EEEEJNS_10unique_ptrINS_15__thread_structENS_14default_deleteIS4_EEEEPFvvEEED2Ev
	.type	_ZNSt3__212__tuple_implINS_15__tuple_indicesIJLm0ELm1EEEEJNS_10unique_ptrINS_15__thread_structENS_14default_deleteIS4_EEEEPFvvEEED2Ev,@function
_ZNSt3__212__tuple_implINS_15__tuple_indicesIJLm0ELm1EEEEJNS_10unique_ptrINS_15__thread_structENS_14default_deleteIS4_EEEEPFvvEEED2Ev: # @_ZNSt3__212__tuple_implINS_15__tuple_indicesIJLm0ELm1EEEEJNS_10unique_ptrINS_15__thread_structENS_14default_deleteIS4_EEEEPFvvEEED2Ev
.Lfunc_begin98:
	.loc	27 458 0 is_stmt 1              # emscripten/cache/sysroot/include/c++/v1/tuple:458:0
	.functype	_ZNSt3__212__tuple_implINS_15__tuple_indicesIJLm0ELm1EEEEJNS_10unique_ptrINS_15__thread_structENS_14default_deleteIS4_EEEEPFvvEEED2Ev (i32) -> (i32)
	.local  	i32, i32, i32, i32, i32, i32
# %bb.0:                                # %entry
	global.get	__stack_pointer
	local.set	1
	i32.const	16
	local.set	2
	local.get	1
	local.get	2
	i32.sub 
	local.set	3
	local.get	3
	global.set	__stack_pointer
	local.get	3
	local.get	0
	i32.store	12
	local.get	3
	i32.load	12
	local.set	4
.Ltmp228:
	.loc	27 458 37 prologue_end          # emscripten/cache/sysroot/include/c++/v1/tuple:458:37
	local.get	4
	call	_ZNSt3__212__tuple_leafILm0ENS_10unique_ptrINS_15__thread_structENS_14default_deleteIS2_EEEELb0EED2Ev
	drop
.Ltmp229:
	.loc	27 458 37 is_stmt 0             # emscripten/cache/sysroot/include/c++/v1/tuple:458:37
	i32.const	16
	local.set	5
	local.get	3
	local.get	5
	i32.add 
	local.set	6
	local.get	6
	global.set	__stack_pointer
	local.get	4
	return
	end_function
.Ltmp230:
.Lfunc_end98:
                                        # -- End function
	.section	.text._ZNSt3__212__tuple_leafILm0ENS_10unique_ptrINS_15__thread_structENS_14default_deleteIS2_EEEELb0EED2Ev,"G",@,_ZNSt3__212__tuple_leafILm0ENS_10unique_ptrINS_15__thread_structENS_14default_deleteIS2_EEEELb0EED2Ev,comdat
	.hidden	_ZNSt3__212__tuple_leafILm0ENS_10unique_ptrINS_15__thread_structENS_14default_deleteIS2_EEEELb0EED2Ev # -- Begin function _ZNSt3__212__tuple_leafILm0ENS_10unique_ptrINS_15__thread_structENS_14default_deleteIS2_EEEELb0EED2Ev
	.weak	_ZNSt3__212__tuple_leafILm0ENS_10unique_ptrINS_15__thread_structENS_14default_deleteIS2_EEEELb0EED2Ev
	.type	_ZNSt3__212__tuple_leafILm0ENS_10unique_ptrINS_15__thread_structENS_14default_deleteIS2_EEEELb0EED2Ev,@function
_ZNSt3__212__tuple_leafILm0ENS_10unique_ptrINS_15__thread_structENS_14default_deleteIS2_EEEELb0EED2Ev: # @_ZNSt3__212__tuple_leafILm0ENS_10unique_ptrINS_15__thread_structENS_14default_deleteIS2_EEEELb0EED2Ev
.Lfunc_begin99:
	.loc	27 300 0 is_stmt 1              # emscripten/cache/sysroot/include/c++/v1/tuple:300:0
	.functype	_ZNSt3__212__tuple_leafILm0ENS_10unique_ptrINS_15__thread_structENS_14default_deleteIS2_EEEELb0EED2Ev (i32) -> (i32)
	.local  	i32, i32, i32, i32, i32, i32
# %bb.0:                                # %entry
	global.get	__stack_pointer
	local.set	1
	i32.const	16
	local.set	2
	local.get	1
	local.get	2
	i32.sub 
	local.set	3
	local.get	3
	global.set	__stack_pointer
	local.get	3
	local.get	0
	i32.store	12
	local.get	3
	i32.load	12
	local.set	4
.Ltmp231:
	.loc	27 300 7 prologue_end           # emscripten/cache/sysroot/include/c++/v1/tuple:300:7
	local.get	4
	call	_ZNSt3__210unique_ptrINS_15__thread_structENS_14default_deleteIS1_EEED2B8ne190106Ev
	drop
.Ltmp232:
	.loc	27 300 7 is_stmt 0              # emscripten/cache/sysroot/include/c++/v1/tuple:300:7
	i32.const	16
	local.set	5
	local.get	3
	local.get	5
	i32.add 
	local.set	6
	local.get	6
	global.set	__stack_pointer
	local.get	4
	return
	end_function
.Ltmp233:
.Lfunc_end99:
                                        # -- End function
	.section	.text._ZNSt3__210unique_ptrINS_15__thread_structENS_14default_deleteIS1_EEE5resetB8ne190106EPS1_,"G",@,_ZNSt3__210unique_ptrINS_15__thread_structENS_14default_deleteIS1_EEE5resetB8ne190106EPS1_,comdat
	.hidden	_ZNSt3__210unique_ptrINS_15__thread_structENS_14default_deleteIS1_EEE5resetB8ne190106EPS1_ # -- Begin function _ZNSt3__210unique_ptrINS_15__thread_structENS_14default_deleteIS1_EEE5resetB8ne190106EPS1_
	.weak	_ZNSt3__210unique_ptrINS_15__thread_structENS_14default_deleteIS1_EEE5resetB8ne190106EPS1_
	.type	_ZNSt3__210unique_ptrINS_15__thread_structENS_14default_deleteIS1_EEE5resetB8ne190106EPS1_,@function
_ZNSt3__210unique_ptrINS_15__thread_structENS_14default_deleteIS1_EEE5resetB8ne190106EPS1_: # @_ZNSt3__210unique_ptrINS_15__thread_structENS_14default_deleteIS1_EEE5resetB8ne190106EPS1_
.Lfunc_begin100:
	.loc	23 288 0 is_stmt 1              # emscripten/cache/sysroot/include/c++/v1/__memory/unique_ptr.h:288:0
	.functype	_ZNSt3__210unique_ptrINS_15__thread_structENS_14default_deleteIS1_EEE5resetB8ne190106EPS1_ (i32, i32) -> ()
	.local  	i32, i32, i32, i32, i32, i32, i32, i32, i32, i32, i32, i32, i32, i32, i32, i32, i32
# %bb.0:                                # %entry
	global.get	__stack_pointer
	local.set	2
	i32.const	16
	local.set	3
	local.get	2
	local.get	3
	i32.sub 
	local.set	4
	local.get	4
	global.set	__stack_pointer
	local.get	4
	local.get	0
	i32.store	12
	local.get	4
	local.get	1
	i32.store	8
	local.get	4
	i32.load	12
	local.set	5
.Ltmp234:
	.loc	23 289 29 prologue_end          # emscripten/cache/sysroot/include/c++/v1/__memory/unique_ptr.h:289:29
	local.get	5
	call	_ZNSt3__217__compressed_pairIPNS_15__thread_structENS_14default_deleteIS1_EEE5firstB8ne190106Ev
	local.set	6
	local.get	6
	i32.load	0
	local.set	7
	.loc	23 289 13 is_stmt 0             # emscripten/cache/sysroot/include/c++/v1/__memory/unique_ptr.h:289:13
	local.get	4
	local.get	7
	i32.store	4
	.loc	23 290 22 is_stmt 1             # emscripten/cache/sysroot/include/c++/v1/__memory/unique_ptr.h:290:22
	local.get	4
	i32.load	8
	local.set	8
	.loc	23 290 12 is_stmt 0             # emscripten/cache/sysroot/include/c++/v1/__memory/unique_ptr.h:290:12
	local.get	5
	call	_ZNSt3__217__compressed_pairIPNS_15__thread_structENS_14default_deleteIS1_EEE5firstB8ne190106Ev
	local.set	9
	.loc	23 290 20                       # emscripten/cache/sysroot/include/c++/v1/__memory/unique_ptr.h:290:20
	local.get	9
	local.get	8
	i32.store	0
.Ltmp235:
	.loc	23 291 9 is_stmt 1              # emscripten/cache/sysroot/include/c++/v1/__memory/unique_ptr.h:291:9
	local.get	4
	i32.load	4
	local.set	10
	i32.const	0
	local.set	11
	local.get	10
	local.get	11
	i32.ne  
	local.set	12
	i32.const	1
	local.set	13
	local.get	12
	local.get	13
	i32.and 
	local.set	14
	block   	
	local.get	14
	i32.eqz
	br_if   	0                               # 0: down to label19
# %bb.1:                                # %if.then
	.loc	23 292 14                       # emscripten/cache/sysroot/include/c++/v1/__memory/unique_ptr.h:292:14
	local.get	5
	call	_ZNSt3__217__compressed_pairIPNS_15__thread_structENS_14default_deleteIS1_EEE6secondB8ne190106Ev
	local.set	15
	.loc	23 292 23 is_stmt 0             # emscripten/cache/sysroot/include/c++/v1/__memory/unique_ptr.h:292:23
	local.get	4
	i32.load	4
	local.set	16
	.loc	23 292 7                        # emscripten/cache/sysroot/include/c++/v1/__memory/unique_ptr.h:292:7
	local.get	15
	local.get	16
	call	_ZNKSt3__214default_deleteINS_15__thread_structEEclB8ne190106EPS1_
.Ltmp236:
.LBB100_2:                              # %if.end
	.loc	23 0 7                          # emscripten/cache/sysroot/include/c++/v1/__memory/unique_ptr.h:0:7
	end_block                               # label19:
	.loc	23 293 3 is_stmt 1              # emscripten/cache/sysroot/include/c++/v1/__memory/unique_ptr.h:293:3
	i32.const	16
	local.set	17
	local.get	4
	local.get	17
	i32.add 
	local.set	18
	local.get	18
	global.set	__stack_pointer
	return
	end_function
.Ltmp237:
.Lfunc_end100:
                                        # -- End function
	.section	.text._ZNKSt3__214default_deleteINS_15__thread_structEEclB8ne190106EPS1_,"G",@,_ZNKSt3__214default_deleteINS_15__thread_structEEclB8ne190106EPS1_,comdat
	.hidden	_ZNKSt3__214default_deleteINS_15__thread_structEEclB8ne190106EPS1_ # -- Begin function _ZNKSt3__214default_deleteINS_15__thread_structEEclB8ne190106EPS1_
	.weak	_ZNKSt3__214default_deleteINS_15__thread_structEEclB8ne190106EPS1_
	.type	_ZNKSt3__214default_deleteINS_15__thread_structEEclB8ne190106EPS1_,@function
_ZNKSt3__214default_deleteINS_15__thread_structEEclB8ne190106EPS1_: # @_ZNKSt3__214default_deleteINS_15__thread_structEEclB8ne190106EPS1_
.Lfunc_begin101:
	.loc	23 77 0                         # emscripten/cache/sysroot/include/c++/v1/__memory/unique_ptr.h:77:0
	.functype	_ZNKSt3__214default_deleteINS_15__thread_structEEclB8ne190106EPS1_ (i32, i32) -> ()
	.local  	i32, i32, i32, i32, i32, i32, i32, i32, i32, i32, i32
# %bb.0:                                # %entry
	global.get	__stack_pointer
	local.set	2
	i32.const	16
	local.set	3
	local.get	2
	local.get	3
	i32.sub 
	local.set	4
	local.get	4
	global.set	__stack_pointer
	local.get	4
	local.get	0
	i32.store	12
	local.get	4
	local.get	1
	i32.store	8
.Ltmp238:
	.loc	23 80 12 prologue_end           # emscripten/cache/sysroot/include/c++/v1/__memory/unique_ptr.h:80:12
	local.get	4
	i32.load	8
	local.set	5
	.loc	23 80 5 is_stmt 0               # emscripten/cache/sysroot/include/c++/v1/__memory/unique_ptr.h:80:5
	i32.const	0
	local.set	6
	local.get	5
	local.get	6
	i32.eq  
	local.set	7
	i32.const	1
	local.set	8
	local.get	7
	local.get	8
	i32.and 
	local.set	9
	block   	
	local.get	9
	br_if   	0                               # 0: down to label20
# %bb.1:                                # %delete.notnull
	local.get	5
	call	_ZNSt3__215__thread_structD1Ev
	drop
	i32.const	4
	local.set	10
	local.get	5
	local.get	10
	call	_ZdlPvm
.LBB101_2:                              # %delete.end
	.loc	23 0 5                          # emscripten/cache/sysroot/include/c++/v1/__memory/unique_ptr.h:0:5
	end_block                               # label20:
	.loc	23 81 3 is_stmt 1               # emscripten/cache/sysroot/include/c++/v1/__memory/unique_ptr.h:81:3
	i32.const	16
	local.set	11
	local.get	4
	local.get	11
	i32.add 
	local.set	12
	local.get	12
	global.set	__stack_pointer
	return
	end_function
.Ltmp239:
.Lfunc_end101:
                                        # -- End function
	.section	.text._ZNKSt3__26vectorINS_6threadENS_9allocatorIS1_EEE11__recommendB8ne190106Em,"G",@,_ZNKSt3__26vectorINS_6threadENS_9allocatorIS1_EEE11__recommendB8ne190106Em,comdat
	.hidden	_ZNKSt3__26vectorINS_6threadENS_9allocatorIS1_EEE11__recommendB8ne190106Em # -- Begin function _ZNKSt3__26vectorINS_6threadENS_9allocatorIS1_EEE11__recommendB8ne190106Em
	.weak	_ZNKSt3__26vectorINS_6threadENS_9allocatorIS1_EEE11__recommendB8ne190106Em
	.type	_ZNKSt3__26vectorINS_6threadENS_9allocatorIS1_EEE11__recommendB8ne190106Em,@function
_ZNKSt3__26vectorINS_6threadENS_9allocatorIS1_EEE11__recommendB8ne190106Em: # @_ZNKSt3__26vectorINS_6threadENS_9allocatorIS1_EEE11__recommendB8ne190106Em
.Lfunc_begin102:
	.loc	7 1113 0                        # emscripten/cache/sysroot/include/c++/v1/vector:1113:0
	.functype	_ZNKSt3__26vectorINS_6threadENS_9allocatorIS1_EEE11__recommendB8ne190106Em (i32, i32) -> (i32)
	.local  	i32, i32, i32, i32, i32, i32, i32, i32, i32, i32, i32, i32, i32, i32, i32, i32, i32, i32, i32, i32, i32, i32, i32, i32, i32, i32, i32, i32, i32, i32, i32, i32, i32
# %bb.0:                                # %entry
	global.get	__stack_pointer
	local.set	2
	i32.const	32
	local.set	3
	local.get	2
	local.get	3
	i32.sub 
	local.set	4
	local.get	4
	global.set	__stack_pointer
	local.get	4
	local.get	0
	i32.store	24
	local.get	4
	local.get	1
	i32.store	20
	local.get	4
	i32.load	24
	local.set	5
.Ltmp240:
	.loc	7 1114 26 prologue_end          # emscripten/cache/sysroot/include/c++/v1/vector:1114:26
	local.get	5
	call	_ZNKSt3__26vectorINS_6threadENS_9allocatorIS1_EEE8max_sizeEv
	local.set	6
	.loc	7 1114 19 is_stmt 0             # emscripten/cache/sysroot/include/c++/v1/vector:1114:19
	local.get	4
	local.get	6
	i32.store	16
.Ltmp241:
	.loc	7 1115 7 is_stmt 1              # emscripten/cache/sysroot/include/c++/v1/vector:1115:7
	local.get	4
	i32.load	20
	local.set	7
	.loc	7 1115 20 is_stmt 0             # emscripten/cache/sysroot/include/c++/v1/vector:1115:20
	local.get	4
	i32.load	16
	local.set	8
	.loc	7 1115 18                       # emscripten/cache/sysroot/include/c++/v1/vector:1115:18
	local.get	7
	local.get	8
	i32.gt_u
	local.set	9
	i32.const	1
	local.set	10
	local.get	9
	local.get	10
	i32.and 
	local.set	11
	block   	
	local.get	11
	i32.eqz
	br_if   	0                               # 0: down to label21
# %bb.1:                                # %if.then
	.loc	7 1116 11 is_stmt 1             # emscripten/cache/sysroot/include/c++/v1/vector:1116:11
	local.get	5
	call	_ZNKSt3__26vectorINS_6threadENS_9allocatorIS1_EEE20__throw_length_errorB8ne190106Ev
	unreachable
.Ltmp242:
.LBB102_2:                              # %if.end
	.loc	7 0 11 is_stmt 0                # emscripten/cache/sysroot/include/c++/v1/vector:0:11
	end_block                               # label21:
	.loc	7 1117 27 is_stmt 1             # emscripten/cache/sysroot/include/c++/v1/vector:1117:27
	local.get	5
	call	_ZNKSt3__26vectorINS_6threadENS_9allocatorIS1_EEE8capacityB8ne190106Ev
	local.set	12
	.loc	7 1117 19 is_stmt 0             # emscripten/cache/sysroot/include/c++/v1/vector:1117:19
	local.get	4
	local.get	12
	i32.store	12
.Ltmp243:
	.loc	7 1118 7 is_stmt 1              # emscripten/cache/sysroot/include/c++/v1/vector:1118:7
	local.get	4
	i32.load	12
	local.set	13
	.loc	7 1118 16 is_stmt 0             # emscripten/cache/sysroot/include/c++/v1/vector:1118:16
	local.get	4
	i32.load	16
	local.set	14
	.loc	7 1118 21                       # emscripten/cache/sysroot/include/c++/v1/vector:1118:21
	i32.const	1
	local.set	15
	local.get	14
	local.get	15
	i32.shr_u
	local.set	16
	.loc	7 1118 13                       # emscripten/cache/sysroot/include/c++/v1/vector:1118:13
	local.get	13
	local.get	16
	i32.ge_u
	local.set	17
	i32.const	1
	local.set	18
	local.get	17
	local.get	18
	i32.and 
	local.set	19
	block   	
	block   	
	local.get	19
	i32.eqz
	br_if   	0                               # 0: down to label23
# %bb.3:                                # %if.then4
	.loc	7 1119 12 is_stmt 1             # emscripten/cache/sysroot/include/c++/v1/vector:1119:12
	local.get	4
	i32.load	16
	local.set	20
	.loc	7 1119 5 is_stmt 0              # emscripten/cache/sysroot/include/c++/v1/vector:1119:5
	local.get	4
	local.get	20
	i32.store	28
	br      	1                               # 1: down to label22
.Ltmp244:
.LBB102_4:                              # %if.end5
	.loc	7 0 5                           # emscripten/cache/sysroot/include/c++/v1/vector:0:5
	end_block                               # label23:
	.loc	7 1120 34 is_stmt 1             # emscripten/cache/sysroot/include/c++/v1/vector:1120:34
	local.get	4
	i32.load	12
	local.set	21
	.loc	7 1120 32 is_stmt 0             # emscripten/cache/sysroot/include/c++/v1/vector:1120:32
	i32.const	1
	local.set	22
	local.get	21
	local.get	22
	i32.shl 
	local.set	23
	.loc	7 1120 30                       # emscripten/cache/sysroot/include/c++/v1/vector:1120:30
	local.get	4
	local.get	23
	i32.store	8
	.loc	7 1120 10                       # emscripten/cache/sysroot/include/c++/v1/vector:1120:10
	i32.const	8
	local.set	24
	local.get	4
	local.get	24
	i32.add 
	local.set	25
	local.get	25
	local.set	26
	i32.const	20
	local.set	27
	local.get	4
	local.get	27
	i32.add 
	local.set	28
	local.get	28
	local.set	29
	local.get	26
	local.get	29
	call	_ZNSt3__23maxB8ne190106ImEERKT_S3_S3_
	local.set	30
	local.get	30
	i32.load	0
	local.set	31
	.loc	7 1120 3                        # emscripten/cache/sysroot/include/c++/v1/vector:1120:3
	local.get	4
	local.get	31
	i32.store	28
.LBB102_5:                              # %return
	.loc	7 0 3                           # emscripten/cache/sysroot/include/c++/v1/vector:0:3
	end_block                               # label22:
	.loc	7 1121 1 is_stmt 1              # emscripten/cache/sysroot/include/c++/v1/vector:1121:1
	local.get	4
	i32.load	28
	local.set	32
	i32.const	32
	local.set	33
	local.get	4
	local.get	33
	i32.add 
	local.set	34
	local.get	34
	global.set	__stack_pointer
	local.get	32
	return
	end_function
.Ltmp245:
.Lfunc_end102:
                                        # -- End function
	.section	.text._ZNKSt3__26vectorINS_6threadENS_9allocatorIS1_EEE4sizeB8ne190106Ev,"G",@,_ZNKSt3__26vectorINS_6threadENS_9allocatorIS1_EEE4sizeB8ne190106Ev,comdat
	.hidden	_ZNKSt3__26vectorINS_6threadENS_9allocatorIS1_EEE4sizeB8ne190106Ev # -- Begin function _ZNKSt3__26vectorINS_6threadENS_9allocatorIS1_EEE4sizeB8ne190106Ev
	.weak	_ZNKSt3__26vectorINS_6threadENS_9allocatorIS1_EEE4sizeB8ne190106Ev
	.type	_ZNKSt3__26vectorINS_6threadENS_9allocatorIS1_EEE4sizeB8ne190106Ev,@function
_ZNKSt3__26vectorINS_6threadENS_9allocatorIS1_EEE4sizeB8ne190106Ev: # @_ZNKSt3__26vectorINS_6threadENS_9allocatorIS1_EEE4sizeB8ne190106Ev
.Lfunc_begin103:
	.loc	7 634 0                         # emscripten/cache/sysroot/include/c++/v1/vector:634:0
	.functype	_ZNKSt3__26vectorINS_6threadENS_9allocatorIS1_EEE4sizeB8ne190106Ev (i32) -> (i32)
	.local  	i32, i32, i32, i32, i32, i32, i32, i32, i32
# %bb.0:                                # %entry
	global.get	__stack_pointer
	local.set	1
	i32.const	16
	local.set	2
	local.get	1
	local.get	2
	i32.sub 
	local.set	3
	local.get	3
	local.get	0
	i32.store	12
	local.get	3
	i32.load	12
	local.set	4
.Ltmp246:
	.loc	7 635 41 prologue_end           # emscripten/cache/sysroot/include/c++/v1/vector:635:41
	local.get	4
	i32.load	4
	local.set	5
	.loc	7 635 56 is_stmt 0              # emscripten/cache/sysroot/include/c++/v1/vector:635:56
	local.get	4
	i32.load	0
	local.set	6
	.loc	7 635 48                        # emscripten/cache/sysroot/include/c++/v1/vector:635:48
	local.get	5
	local.get	6
	i32.sub 
	local.set	7
	i32.const	2
	local.set	8
	local.get	7
	local.get	8
	i32.shr_s
	local.set	9
	.loc	7 635 5                         # emscripten/cache/sysroot/include/c++/v1/vector:635:5
	local.get	9
	return
	end_function
.Ltmp247:
.Lfunc_end103:
                                        # -- End function
	.section	.text._ZNSt3__214__split_bufferINS_6threadERNS_9allocatorIS1_EEEC2EmmS4_,"G",@,_ZNSt3__214__split_bufferINS_6threadERNS_9allocatorIS1_EEEC2EmmS4_,comdat
	.hidden	_ZNSt3__214__split_bufferINS_6threadERNS_9allocatorIS1_EEEC2EmmS4_ # -- Begin function _ZNSt3__214__split_bufferINS_6threadERNS_9allocatorIS1_EEEC2EmmS4_
	.weak	_ZNSt3__214__split_bufferINS_6threadERNS_9allocatorIS1_EEEC2EmmS4_
	.type	_ZNSt3__214__split_bufferINS_6threadERNS_9allocatorIS1_EEEC2EmmS4_,@function
_ZNSt3__214__split_bufferINS_6threadERNS_9allocatorIS1_EEEC2EmmS4_: # @_ZNSt3__214__split_bufferINS_6threadERNS_9allocatorIS1_EEEC2EmmS4_
.Lfunc_begin104:
	.loc	20 349 0 is_stmt 1              # emscripten/cache/sysroot/include/c++/v1/__split_buffer:349:0
	.functype	_ZNSt3__214__split_bufferINS_6threadERNS_9allocatorIS1_EEEC2EmmS4_ (i32, i32, i32, i32) -> (i32)
	.local  	i32, i32, i32, i32, i32, i32, i32, i32, i32, i32, i32, i32, i32, i32, i32, i32, i32, i32, i32, i32, i32, i32, i32, i32, i32, i32, i32, i32, i32, i32, i32, i32
# %bb.0:                                # %entry
	global.get	__stack_pointer
	local.set	4
	i32.const	32
	local.set	5
	local.get	4
	local.get	5
	i32.sub 
	local.set	6
	local.get	6
	global.set	__stack_pointer
	local.get	6
	local.get	0
	i32.store	24
	local.get	6
	local.get	1
	i32.store	20
	local.get	6
	local.get	2
	i32.store	16
	local.get	6
	local.get	3
	i32.store	12
	local.get	6
	i32.load	24
	local.set	7
	local.get	6
	local.get	7
	i32.store	28
.Ltmp248:
	.loc	20 349 7 prologue_end           # emscripten/cache/sysroot/include/c++/v1/__split_buffer:349:7
	i32.const	12
	local.set	8
	local.get	7
	local.get	8
	i32.add 
	local.set	9
	.loc	20 349 18 is_stmt 0             # emscripten/cache/sysroot/include/c++/v1/__split_buffer:349:18
	i32.const	0
	local.set	10
	local.get	6
	local.get	10
	i32.store	8
	.loc	20 349 27                       # emscripten/cache/sysroot/include/c++/v1/__split_buffer:349:27
	local.get	6
	i32.load	12
	local.set	11
	.loc	20 349 7                        # emscripten/cache/sysroot/include/c++/v1/__split_buffer:349:7
	i32.const	8
	local.set	12
	local.get	6
	local.get	12
	i32.add 
	local.set	13
	local.get	13
	local.set	14
	local.get	9
	local.get	14
	local.get	11
	call	_ZNSt3__217__compressed_pairIPNS_6threadERNS_9allocatorIS1_EEEC2B8ne190106IDnS5_EEOT_OT0_
	drop
.Ltmp249:
	.loc	20 350 7 is_stmt 1              # emscripten/cache/sysroot/include/c++/v1/__split_buffer:350:7
	local.get	6
	i32.load	20
	local.set	15
	.loc	20 350 13 is_stmt 0             # emscripten/cache/sysroot/include/c++/v1/__split_buffer:350:13
	block   	
	block   	
	local.get	15
	br_if   	0                               # 0: down to label25
# %bb.1:                                # %if.then
.Ltmp250:
	.loc	20 351 14 is_stmt 1             # emscripten/cache/sysroot/include/c++/v1/__split_buffer:351:14
	i32.const	0
	local.set	16
	local.get	7
	local.get	16
	i32.store	0
	.loc	20 352 3                        # emscripten/cache/sysroot/include/c++/v1/__split_buffer:352:3
	br      	1                               # 1: down to label24
.Ltmp251:
.LBB104_2:                              # %if.else
	.loc	20 0 3 is_stmt 0                # emscripten/cache/sysroot/include/c++/v1/__split_buffer:0:3
	end_block                               # label25:
.Ltmp252:
	.loc	20 353 50 is_stmt 1             # emscripten/cache/sysroot/include/c++/v1/__split_buffer:353:50
	local.get	7
	call	_ZNSt3__214__split_bufferINS_6threadERNS_9allocatorIS1_EEE7__allocB8ne190106Ev
	local.set	17
	.loc	20 353 61 is_stmt 0             # emscripten/cache/sysroot/include/c++/v1/__split_buffer:353:61
	local.get	6
	i32.load	20
	local.set	18
	.loc	20 353 25                       # emscripten/cache/sysroot/include/c++/v1/__split_buffer:353:25
	local.get	6
	local.set	19
	local.get	19
	local.get	17
	local.get	18
	call	_ZNSt3__219__allocate_at_leastB8ne190106INS_9allocatorINS_6threadEEEEENS_19__allocation_resultINS_16allocator_traitsIT_E7pointerEEERS6_m
	.loc	20 354 38 is_stmt 1             # emscripten/cache/sysroot/include/c++/v1/__split_buffer:354:38
	local.get	6
	i32.load	0
	local.set	20
	.loc	20 354 23 is_stmt 0             # emscripten/cache/sysroot/include/c++/v1/__split_buffer:354:23
	local.get	7
	local.get	20
	i32.store	0
	.loc	20 355 38 is_stmt 1             # emscripten/cache/sysroot/include/c++/v1/__split_buffer:355:38
	local.get	6
	i32.load	4
	local.set	21
	.loc	20 355 23 is_stmt 0             # emscripten/cache/sysroot/include/c++/v1/__split_buffer:355:23
	local.get	6
	local.get	21
	i32.store	20
.Ltmp253:
.LBB104_3:                              # %if.end
	.loc	20 0 23                         # emscripten/cache/sysroot/include/c++/v1/__split_buffer:0:23
	end_block                               # label24:
	.loc	20 357 23 is_stmt 1             # emscripten/cache/sysroot/include/c++/v1/__split_buffer:357:23
	local.get	7
	i32.load	0
	local.set	22
	.loc	20 357 34 is_stmt 0             # emscripten/cache/sysroot/include/c++/v1/__split_buffer:357:34
	local.get	6
	i32.load	16
	local.set	23
	.loc	20 357 32                       # emscripten/cache/sysroot/include/c++/v1/__split_buffer:357:32
	i32.const	2
	local.set	24
	local.get	23
	local.get	24
	i32.shl 
	local.set	25
	local.get	22
	local.get	25
	i32.add 
	local.set	26
	.loc	20 357 21                       # emscripten/cache/sysroot/include/c++/v1/__split_buffer:357:21
	local.get	7
	local.get	26
	i32.store	8
	.loc	20 357 12                       # emscripten/cache/sysroot/include/c++/v1/__split_buffer:357:12
	local.get	7
	local.get	26
	i32.store	4
	.loc	20 358 23 is_stmt 1             # emscripten/cache/sysroot/include/c++/v1/__split_buffer:358:23
	local.get	7
	i32.load	0
	local.set	27
	.loc	20 358 34 is_stmt 0             # emscripten/cache/sysroot/include/c++/v1/__split_buffer:358:34
	local.get	6
	i32.load	20
	local.set	28
	.loc	20 358 32                       # emscripten/cache/sysroot/include/c++/v1/__split_buffer:358:32
	i32.const	2
	local.set	29
	local.get	28
	local.get	29
	i32.shl 
	local.set	30
	local.get	27
	local.get	30
	i32.add 
	local.set	31
	.loc	20 358 3                        # emscripten/cache/sysroot/include/c++/v1/__split_buffer:358:3
	local.get	7
	call	_ZNSt3__214__split_bufferINS_6threadERNS_9allocatorIS1_EEE9__end_capB8ne190106Ev
	local.set	32
	.loc	20 358 21                       # emscripten/cache/sysroot/include/c++/v1/__split_buffer:358:21
	local.get	32
	local.get	31
	i32.store	0
.Ltmp254:
	.loc	20 359 1 is_stmt 1              # emscripten/cache/sysroot/include/c++/v1/__split_buffer:359:1
	local.get	6
	i32.load	28
	local.set	33
	i32.const	32
	local.set	34
	local.get	6
	local.get	34
	i32.add 
	local.set	35
	local.get	35
	global.set	__stack_pointer
	local.get	33
	return
	end_function
.Ltmp255:
.Lfunc_end104:
                                        # -- End function
	.section	.text._ZNSt3__26vectorINS_6threadENS_9allocatorIS1_EEE26__swap_out_circular_bufferERNS_14__split_bufferIS1_RS3_EE,"G",@,_ZNSt3__26vectorINS_6threadENS_9allocatorIS1_EEE26__swap_out_circular_bufferERNS_14__split_bufferIS1_RS3_EE,comdat
	.hidden	_ZNSt3__26vectorINS_6threadENS_9allocatorIS1_EEE26__swap_out_circular_bufferERNS_14__split_bufferIS1_RS3_EE # -- Begin function _ZNSt3__26vectorINS_6threadENS_9allocatorIS1_EEE26__swap_out_circular_bufferERNS_14__split_bufferIS1_RS3_EE
	.weak	_ZNSt3__26vectorINS_6threadENS_9allocatorIS1_EEE26__swap_out_circular_bufferERNS_14__split_bufferIS1_RS3_EE
	.type	_ZNSt3__26vectorINS_6threadENS_9allocatorIS1_EEE26__swap_out_circular_bufferERNS_14__split_bufferIS1_RS3_EE,@function
_ZNSt3__26vectorINS_6threadENS_9allocatorIS1_EEE26__swap_out_circular_bufferERNS_14__split_bufferIS1_RS3_EE: # @_ZNSt3__26vectorINS_6threadENS_9allocatorIS1_EEE26__swap_out_circular_bufferERNS_14__split_bufferIS1_RS3_EE
.Lfunc_begin105:
	.loc	7 1049 0                        # emscripten/cache/sysroot/include/c++/v1/vector:1049:0
	.functype	_ZNSt3__26vectorINS_6threadENS_9allocatorIS1_EEE26__swap_out_circular_bufferERNS_14__split_bufferIS1_RS3_EE (i32, i32) -> ()
	.local  	i32, i32, i32, i32, i32, i32, i32, i32, i32, i32, i32, i32, i32, i32, i32, i32, i32, i32, i32, i32, i32, i32, i32, i32, i32, i32, i32, i32, i32, i32, i32, i32, i32, i32, i32, i32, i32, i32, i32, i32, i32, i32, i32
# %bb.0:                                # %entry
	global.get	__stack_pointer
	local.set	2
	i32.const	16
	local.set	3
	local.get	2
	local.get	3
	i32.sub 
	local.set	4
	local.get	4
	global.set	__stack_pointer
	local.get	4
	local.get	0
	i32.store	12
	local.get	4
	local.get	1
	i32.store	8
	local.get	4
	i32.load	12
	local.set	5
.Ltmp256:
	.loc	7 1050 3 prologue_end           # emscripten/cache/sysroot/include/c++/v1/vector:1050:3
	local.get	5
	call	_ZNKSt3__26vectorINS_6threadENS_9allocatorIS1_EEE17__annotate_deleteB8ne190106Ev
	.loc	7 1051 22                       # emscripten/cache/sysroot/include/c++/v1/vector:1051:22
	local.get	4
	i32.load	8
	local.set	6
	.loc	7 1051 26 is_stmt 0             # emscripten/cache/sysroot/include/c++/v1/vector:1051:26
	local.get	6
	i32.load	4
	local.set	7
	.loc	7 1051 38                       # emscripten/cache/sysroot/include/c++/v1/vector:1051:38
	local.get	5
	i32.load	4
	local.set	8
	.loc	7 1051 47                       # emscripten/cache/sysroot/include/c++/v1/vector:1051:47
	local.get	5
	i32.load	0
	local.set	9
	.loc	7 1051 45                       # emscripten/cache/sysroot/include/c++/v1/vector:1051:45
	local.get	8
	local.get	9
	i32.sub 
	local.set	10
	i32.const	2
	local.set	11
	local.get	10
	local.get	11
	i32.shr_s
	local.set	12
	.loc	7 1051 35                       # emscripten/cache/sysroot/include/c++/v1/vector:1051:35
	i32.const	0
	local.set	13
	local.get	13
	local.get	12
	i32.sub 
	local.set	14
	i32.const	2
	local.set	15
	local.get	14
	local.get	15
	i32.shl 
	local.set	16
	local.get	7
	local.get	16
	i32.add 
	local.set	17
	.loc	7 1051 8                        # emscripten/cache/sysroot/include/c++/v1/vector:1051:8
	local.get	4
	local.get	17
	i32.store	4
	.loc	7 1053 7 is_stmt 1              # emscripten/cache/sysroot/include/c++/v1/vector:1053:7
	local.get	5
	call	_ZNSt3__26vectorINS_6threadENS_9allocatorIS1_EEE7__allocB8ne190106Ev
	local.set	18
	.loc	7 1053 36 is_stmt 0             # emscripten/cache/sysroot/include/c++/v1/vector:1053:36
	local.get	5
	i32.load	0
	local.set	19
	.loc	7 1053 18                       # emscripten/cache/sysroot/include/c++/v1/vector:1053:18
	local.get	19
	call	_ZNSt3__212__to_addressB8ne190106INS_6threadEEEPT_S3_
	local.set	20
	.loc	7 1053 65                       # emscripten/cache/sysroot/include/c++/v1/vector:1053:65
	local.get	5
	i32.load	4
	local.set	21
	.loc	7 1053 47                       # emscripten/cache/sysroot/include/c++/v1/vector:1053:47
	local.get	21
	call	_ZNSt3__212__to_addressB8ne190106INS_6threadEEEPT_S3_
	local.set	22
	.loc	7 1053 92                       # emscripten/cache/sysroot/include/c++/v1/vector:1053:92
	local.get	4
	i32.load	4
	local.set	23
	.loc	7 1053 74                       # emscripten/cache/sysroot/include/c++/v1/vector:1053:74
	local.get	23
	call	_ZNSt3__212__to_addressB8ne190106INS_6threadEEEPT_S3_
	local.set	24
	.loc	7 1052 3 is_stmt 1              # emscripten/cache/sysroot/include/c++/v1/vector:1052:3
	local.get	18
	local.get	20
	local.get	22
	local.get	24
	call	_ZNSt3__234__uninitialized_allocator_relocateB8ne190106INS_9allocatorINS_6threadEEES2_EEvRT_PT0_S7_S7_
	.loc	7 1054 18                       # emscripten/cache/sysroot/include/c++/v1/vector:1054:18
	local.get	4
	i32.load	4
	local.set	25
	.loc	7 1054 3 is_stmt 0              # emscripten/cache/sysroot/include/c++/v1/vector:1054:3
	local.get	4
	i32.load	8
	local.set	26
	.loc	7 1054 16                       # emscripten/cache/sysroot/include/c++/v1/vector:1054:16
	local.get	26
	local.get	25
	i32.store	4
	.loc	7 1055 18 is_stmt 1             # emscripten/cache/sysroot/include/c++/v1/vector:1055:18
	local.get	5
	i32.load	0
	local.set	27
	.loc	7 1055 16 is_stmt 0             # emscripten/cache/sysroot/include/c++/v1/vector:1055:16
	local.get	5
	local.get	27
	i32.store	4
	.loc	7 1056 29 is_stmt 1             # emscripten/cache/sysroot/include/c++/v1/vector:1056:29
	local.get	4
	i32.load	8
	local.set	28
	.loc	7 1056 33 is_stmt 0             # emscripten/cache/sysroot/include/c++/v1/vector:1056:33
	i32.const	4
	local.set	29
	local.get	28
	local.get	29
	i32.add 
	local.set	30
	.loc	7 1056 3                        # emscripten/cache/sysroot/include/c++/v1/vector:1056:3
	local.get	5
	local.get	30
	call	_ZNSt3__24swapB8ne190106IPNS_6threadEEENS_9enable_ifIXaasr21is_move_constructibleIT_EE5valuesr18is_move_assignableIS4_EE5valueEvE4typeERS4_S7_
	.loc	7 1057 19 is_stmt 1             # emscripten/cache/sysroot/include/c++/v1/vector:1057:19
	i32.const	4
	local.set	31
	local.get	5
	local.get	31
	i32.add 
	local.set	32
	.loc	7 1057 27 is_stmt 0             # emscripten/cache/sysroot/include/c++/v1/vector:1057:27
	local.get	4
	i32.load	8
	local.set	33
	.loc	7 1057 31                       # emscripten/cache/sysroot/include/c++/v1/vector:1057:31
	i32.const	8
	local.set	34
	local.get	33
	local.get	34
	i32.add 
	local.set	35
	.loc	7 1057 3                        # emscripten/cache/sysroot/include/c++/v1/vector:1057:3
	local.get	32
	local.get	35
	call	_ZNSt3__24swapB8ne190106IPNS_6threadEEENS_9enable_ifIXaasr21is_move_constructibleIT_EE5valuesr18is_move_assignableIS4_EE5valueEvE4typeERS4_S7_
	.loc	7 1058 19 is_stmt 1             # emscripten/cache/sysroot/include/c++/v1/vector:1058:19
	local.get	5
	call	_ZNSt3__26vectorINS_6threadENS_9allocatorIS1_EEE9__end_capB8ne190106Ev
	local.set	36
	.loc	7 1058 32 is_stmt 0             # emscripten/cache/sysroot/include/c++/v1/vector:1058:32
	local.get	4
	i32.load	8
	local.set	37
	.loc	7 1058 36                       # emscripten/cache/sysroot/include/c++/v1/vector:1058:36
	local.get	37
	call	_ZNSt3__214__split_bufferINS_6threadERNS_9allocatorIS1_EEE9__end_capB8ne190106Ev
	local.set	38
	.loc	7 1058 3                        # emscripten/cache/sysroot/include/c++/v1/vector:1058:3
	local.get	36
	local.get	38
	call	_ZNSt3__24swapB8ne190106IPNS_6threadEEENS_9enable_ifIXaasr21is_move_constructibleIT_EE5valuesr18is_move_assignableIS4_EE5valueEvE4typeERS4_S7_
	.loc	7 1059 18 is_stmt 1             # emscripten/cache/sysroot/include/c++/v1/vector:1059:18
	local.get	4
	i32.load	8
	local.set	39
	.loc	7 1059 22 is_stmt 0             # emscripten/cache/sysroot/include/c++/v1/vector:1059:22
	local.get	39
	i32.load	4
	local.set	40
	.loc	7 1059 3                        # emscripten/cache/sysroot/include/c++/v1/vector:1059:3
	local.get	4
	i32.load	8
	local.set	41
	.loc	7 1059 16                       # emscripten/cache/sysroot/include/c++/v1/vector:1059:16
	local.get	41
	local.get	40
	i32.store	0
	.loc	7 1060 18 is_stmt 1             # emscripten/cache/sysroot/include/c++/v1/vector:1060:18
	local.get	5
	call	_ZNKSt3__26vectorINS_6threadENS_9allocatorIS1_EEE4sizeB8ne190106Ev
	local.set	42
	.loc	7 1060 3 is_stmt 0              # emscripten/cache/sysroot/include/c++/v1/vector:1060:3
	local.get	5
	local.get	42
	call	_ZNKSt3__26vectorINS_6threadENS_9allocatorIS1_EEE14__annotate_newB8ne190106Em
	.loc	7 1061 1 is_stmt 1              # emscripten/cache/sysroot/include/c++/v1/vector:1061:1
	i32.const	16
	local.set	43
	local.get	4
	local.get	43
	i32.add 
	local.set	44
	local.get	44
	global.set	__stack_pointer
	return
	end_function
.Ltmp257:
.Lfunc_end105:
                                        # -- End function
	.section	.text._ZNSt3__214__split_bufferINS_6threadERNS_9allocatorIS1_EEED2Ev,"G",@,_ZNSt3__214__split_bufferINS_6threadERNS_9allocatorIS1_EEED2Ev,comdat
	.hidden	_ZNSt3__214__split_bufferINS_6threadERNS_9allocatorIS1_EEED2Ev # -- Begin function _ZNSt3__214__split_bufferINS_6threadERNS_9allocatorIS1_EEED2Ev
	.weak	_ZNSt3__214__split_bufferINS_6threadERNS_9allocatorIS1_EEED2Ev
	.type	_ZNSt3__214__split_bufferINS_6threadERNS_9allocatorIS1_EEED2Ev,@function
_ZNSt3__214__split_bufferINS_6threadERNS_9allocatorIS1_EEED2Ev: # @_ZNSt3__214__split_bufferINS_6threadERNS_9allocatorIS1_EEED2Ev
.Lfunc_begin106:
	.loc	20 362 0                        # emscripten/cache/sysroot/include/c++/v1/__split_buffer:362:0
	.functype	_ZNSt3__214__split_bufferINS_6threadERNS_9allocatorIS1_EEED2Ev (i32) -> (i32)
	.local  	i32, i32, i32, i32, i32, i32, i32, i32, i32, i32, i32, i32, i32, i32, i32
# %bb.0:                                # %entry
	global.get	__stack_pointer
	local.set	1
	i32.const	16
	local.set	2
	local.get	1
	local.get	2
	i32.sub 
	local.set	3
	local.get	3
	global.set	__stack_pointer
	local.get	3
	local.get	0
	i32.store	8
	local.get	3
	i32.load	8
	local.set	4
	local.get	3
	local.get	4
	i32.store	12
.Ltmp258:
	.loc	20 363 3 prologue_end           # emscripten/cache/sysroot/include/c++/v1/__split_buffer:363:3
	local.get	4
	call	_ZNSt3__214__split_bufferINS_6threadERNS_9allocatorIS1_EEE5clearB8ne190106Ev
.Ltmp259:
	.loc	20 364 7                        # emscripten/cache/sysroot/include/c++/v1/__split_buffer:364:7
	local.get	4
	i32.load	0
	local.set	5
	i32.const	0
	local.set	6
	local.get	5
	local.get	6
	i32.ne  
	local.set	7
	i32.const	1
	local.set	8
	local.get	7
	local.get	8
	i32.and 
	local.set	9
	block   	
	local.get	9
	i32.eqz
	br_if   	0                               # 0: down to label26
# %bb.1:                                # %if.then
	.loc	20 365 32                       # emscripten/cache/sysroot/include/c++/v1/__split_buffer:365:32
	local.get	4
	call	_ZNSt3__214__split_bufferINS_6threadERNS_9allocatorIS1_EEE7__allocB8ne190106Ev
	local.set	10
	.loc	20 365 43 is_stmt 0             # emscripten/cache/sysroot/include/c++/v1/__split_buffer:365:43
	local.get	4
	i32.load	0
	local.set	11
	.loc	20 365 53                       # emscripten/cache/sysroot/include/c++/v1/__split_buffer:365:53
	local.get	4
	call	_ZNKSt3__214__split_bufferINS_6threadERNS_9allocatorIS1_EEE8capacityB8ne190106Ev
	local.set	12
	.loc	20 365 5                        # emscripten/cache/sysroot/include/c++/v1/__split_buffer:365:5
	local.get	10
	local.get	11
	local.get	12
	call	_ZNSt3__216allocator_traitsINS_9allocatorINS_6threadEEEE10deallocateB8ne190106ERS3_PS2_m
.Ltmp260:
.LBB106_2:                              # %if.end
	.loc	20 0 5                          # emscripten/cache/sysroot/include/c++/v1/__split_buffer:0:5
	end_block                               # label26:
	.loc	20 366 1 is_stmt 1              # emscripten/cache/sysroot/include/c++/v1/__split_buffer:366:1
	local.get	3
	i32.load	12
	local.set	13
	i32.const	16
	local.set	14
	local.get	3
	local.get	14
	i32.add 
	local.set	15
	local.get	15
	global.set	__stack_pointer
	local.get	13
	return
	end_function
.Ltmp261:
.Lfunc_end106:
                                        # -- End function
	.section	.text._ZNKSt3__26vectorINS_6threadENS_9allocatorIS1_EEE8max_sizeEv,"G",@,_ZNKSt3__26vectorINS_6threadENS_9allocatorIS1_EEE8max_sizeEv,comdat
	.hidden	_ZNKSt3__26vectorINS_6threadENS_9allocatorIS1_EEE8max_sizeEv # -- Begin function _ZNKSt3__26vectorINS_6threadENS_9allocatorIS1_EEE8max_sizeEv
	.weak	_ZNKSt3__26vectorINS_6threadENS_9allocatorIS1_EEE8max_sizeEv
	.type	_ZNKSt3__26vectorINS_6threadENS_9allocatorIS1_EEE8max_sizeEv,@function
_ZNKSt3__26vectorINS_6threadENS_9allocatorIS1_EEE8max_sizeEv: # @_ZNKSt3__26vectorINS_6threadENS_9allocatorIS1_EEE8max_sizeEv
.Lfunc_begin107:
	.loc	7 1106 0                        # emscripten/cache/sysroot/include/c++/v1/vector:1106:0
	.functype	_ZNKSt3__26vectorINS_6threadENS_9allocatorIS1_EEE8max_sizeEv (i32) -> (i32)
	.local  	i32, i32, i32, i32, i32, i32, i32, i32, i32, i32, i32, i32, i32, i32, i32, i32, i32
# %bb.0:                                # %entry
	global.get	__stack_pointer
	local.set	1
	i32.const	16
	local.set	2
	local.get	1
	local.get	2
	i32.sub 
	local.set	3
	local.get	3
	global.set	__stack_pointer
	local.get	3
	local.get	0
	i32.store	12
	local.get	3
	i32.load	12
	local.set	4
.Ltmp262:
	.loc	7 1107 61 prologue_end          # emscripten/cache/sysroot/include/c++/v1/vector:1107:61
	local.get	4
	call	_ZNKSt3__26vectorINS_6threadENS_9allocatorIS1_EEE7__allocB8ne190106Ev
	local.set	5
	.loc	7 1107 30 is_stmt 0             # emscripten/cache/sysroot/include/c++/v1/vector:1107:30
	local.get	5
	call	_ZNSt3__216allocator_traitsINS_9allocatorINS_6threadEEEE8max_sizeB8ne190106IS3_TnNS_9enable_ifIXsr14__has_max_sizeIKT_EE5valueEiE4typeELi0EEEmRKS3_
	local.set	6
	local.get	3
	local.get	6
	i32.store	8
	.loc	7 1107 73                       # emscripten/cache/sysroot/include/c++/v1/vector:1107:73
	call	_ZNSt3__214numeric_limitsIlE3maxB8ne190106Ev
	local.set	7
	local.get	3
	local.get	7
	i32.store	4
	.loc	7 1107 10                       # emscripten/cache/sysroot/include/c++/v1/vector:1107:10
	i32.const	8
	local.set	8
	local.get	3
	local.get	8
	i32.add 
	local.set	9
	local.get	9
	local.set	10
	i32.const	4
	local.set	11
	local.get	3
	local.get	11
	i32.add 
	local.set	12
	local.get	12
	local.set	13
	local.get	10
	local.get	13
	call	_ZNSt3__23minB8ne190106ImEERKT_S3_S3_
	local.set	14
	local.get	14
	i32.load	0
	local.set	15
	.loc	7 1107 3                        # emscripten/cache/sysroot/include/c++/v1/vector:1107:3
	i32.const	16
	local.set	16
	local.get	3
	local.get	16
	i32.add 
	local.set	17
	local.get	17
	global.set	__stack_pointer
	local.get	15
	return
	end_function
.Ltmp263:
.Lfunc_end107:
                                        # -- End function
	.section	.text._ZNKSt3__26vectorINS_6threadENS_9allocatorIS1_EEE20__throw_length_errorB8ne190106Ev,"G",@,_ZNKSt3__26vectorINS_6threadENS_9allocatorIS1_EEE20__throw_length_errorB8ne190106Ev,comdat
	.hidden	_ZNKSt3__26vectorINS_6threadENS_9allocatorIS1_EEE20__throw_length_errorB8ne190106Ev # -- Begin function _ZNKSt3__26vectorINS_6threadENS_9allocatorIS1_EEE20__throw_length_errorB8ne190106Ev
	.weak	_ZNKSt3__26vectorINS_6threadENS_9allocatorIS1_EEE20__throw_length_errorB8ne190106Ev
	.type	_ZNKSt3__26vectorINS_6threadENS_9allocatorIS1_EEE20__throw_length_errorB8ne190106Ev,@function
_ZNKSt3__26vectorINS_6threadENS_9allocatorIS1_EEE20__throw_length_errorB8ne190106Ev: # @_ZNKSt3__26vectorINS_6threadENS_9allocatorIS1_EEE20__throw_length_errorB8ne190106Ev
.Lfunc_begin108:
	.loc	7 999 0 is_stmt 1               # emscripten/cache/sysroot/include/c++/v1/vector:999:0
	.functype	_ZNKSt3__26vectorINS_6threadENS_9allocatorIS1_EEE20__throw_length_errorB8ne190106Ev (i32) -> ()
	.local  	i32, i32, i32, i32
# %bb.0:                                # %entry
	global.get	__stack_pointer
	local.set	1
	i32.const	16
	local.set	2
	local.get	1
	local.get	2
	i32.sub 
	local.set	3
	local.get	3
	global.set	__stack_pointer
	local.get	3
	local.get	0
	i32.store	12
.Ltmp264:
	.loc	7 999 78 prologue_end           # emscripten/cache/sysroot/include/c++/v1/vector:999:78
	i32.const	.L.str.2
	local.set	4
	local.get	4
	call	_ZNSt3__220__throw_length_errorB8ne190106EPKc
	unreachable
	end_function
.Ltmp265:
.Lfunc_end108:
                                        # -- End function
	.section	.text._ZNSt3__23maxB8ne190106ImEERKT_S3_S3_,"G",@,_ZNSt3__23maxB8ne190106ImEERKT_S3_S3_,comdat
	.hidden	_ZNSt3__23maxB8ne190106ImEERKT_S3_S3_ # -- Begin function _ZNSt3__23maxB8ne190106ImEERKT_S3_S3_
	.weak	_ZNSt3__23maxB8ne190106ImEERKT_S3_S3_
	.type	_ZNSt3__23maxB8ne190106ImEERKT_S3_S3_,@function
_ZNSt3__23maxB8ne190106ImEERKT_S3_S3_:  # @_ZNSt3__23maxB8ne190106ImEERKT_S3_S3_
.Lfunc_begin109:
	.file	35 "/home/kay/Documents/Code/toolchain-wasm" "emscripten/cache/sysroot/include/c++/v1/__algorithm/max.h"
	.loc	35 35 0                         # emscripten/cache/sysroot/include/c++/v1/__algorithm/max.h:35:0
	.functype	_ZNSt3__23maxB8ne190106ImEERKT_S3_S3_ (i32, i32) -> (i32)
	.local  	i32, i32, i32, i32, i32, i32, i32, i32
# %bb.0:                                # %entry
	global.get	__stack_pointer
	local.set	2
	i32.const	16
	local.set	3
	local.get	2
	local.get	3
	i32.sub 
	local.set	4
	local.get	4
	global.set	__stack_pointer
	local.get	4
	local.get	0
	i32.store	12
	local.get	4
	local.get	1
	i32.store	8
.Ltmp266:
	.loc	35 36 19 prologue_end           # emscripten/cache/sysroot/include/c++/v1/__algorithm/max.h:36:19
	local.get	4
	i32.load	12
	local.set	5
	.loc	35 36 24 is_stmt 0              # emscripten/cache/sysroot/include/c++/v1/__algorithm/max.h:36:24
	local.get	4
	i32.load	8
	local.set	6
	.loc	35 36 10                        # emscripten/cache/sysroot/include/c++/v1/__algorithm/max.h:36:10
	local.get	5
	local.get	6
	call	_ZNSt3__23maxB8ne190106ImNS_6__lessIvvEEEERKT_S5_S5_T0_
	local.set	7
	.loc	35 36 3                         # emscripten/cache/sysroot/include/c++/v1/__algorithm/max.h:36:3
	i32.const	16
	local.set	8
	local.get	4
	local.get	8
	i32.add 
	local.set	9
	local.get	9
	global.set	__stack_pointer
	local.get	7
	return
	end_function
.Ltmp267:
.Lfunc_end109:
                                        # -- End function
	.section	.text._ZNSt3__23minB8ne190106ImEERKT_S3_S3_,"G",@,_ZNSt3__23minB8ne190106ImEERKT_S3_S3_,comdat
	.hidden	_ZNSt3__23minB8ne190106ImEERKT_S3_S3_ # -- Begin function _ZNSt3__23minB8ne190106ImEERKT_S3_S3_
	.weak	_ZNSt3__23minB8ne190106ImEERKT_S3_S3_
	.type	_ZNSt3__23minB8ne190106ImEERKT_S3_S3_,@function
_ZNSt3__23minB8ne190106ImEERKT_S3_S3_:  # @_ZNSt3__23minB8ne190106ImEERKT_S3_S3_
.Lfunc_begin110:
	.file	36 "/home/kay/Documents/Code/toolchain-wasm" "emscripten/cache/sysroot/include/c++/v1/__algorithm/min.h"
	.loc	36 35 0 is_stmt 1               # emscripten/cache/sysroot/include/c++/v1/__algorithm/min.h:35:0
	.functype	_ZNSt3__23minB8ne190106ImEERKT_S3_S3_ (i32, i32) -> (i32)
	.local  	i32, i32, i32, i32, i32, i32, i32, i32
# %bb.0:                                # %entry
	global.get	__stack_pointer
	local.set	2
	i32.const	16
	local.set	3
	local.get	2
	local.get	3
	i32.sub 
	local.set	4
	local.get	4
	global.set	__stack_pointer
	local.get	4
	local.get	0
	i32.store	12
	local.get	4
	local.get	1
	i32.store	8
.Ltmp268:
	.loc	36 36 19 prologue_end           # emscripten/cache/sysroot/include/c++/v1/__algorithm/min.h:36:19
	local.get	4
	i32.load	12
	local.set	5
	.loc	36 36 24 is_stmt 0              # emscripten/cache/sysroot/include/c++/v1/__algorithm/min.h:36:24
	local.get	4
	i32.load	8
	local.set	6
	.loc	36 36 10                        # emscripten/cache/sysroot/include/c++/v1/__algorithm/min.h:36:10
	local.get	5
	local.get	6
	call	_ZNSt3__23minB8ne190106ImNS_6__lessIvvEEEERKT_S5_S5_T0_
	local.set	7
	.loc	36 36 3                         # emscripten/cache/sysroot/include/c++/v1/__algorithm/min.h:36:3
	i32.const	16
	local.set	8
	local.get	4
	local.get	8
	i32.add 
	local.set	9
	local.get	9
	global.set	__stack_pointer
	local.get	7
	return
	end_function
.Ltmp269:
.Lfunc_end110:
                                        # -- End function
	.section	.text._ZNSt3__216allocator_traitsINS_9allocatorINS_6threadEEEE8max_sizeB8ne190106IS3_TnNS_9enable_ifIXsr14__has_max_sizeIKT_EE5valueEiE4typeELi0EEEmRKS3_,"G",@,_ZNSt3__216allocator_traitsINS_9allocatorINS_6threadEEEE8max_sizeB8ne190106IS3_TnNS_9enable_ifIXsr14__has_max_sizeIKT_EE5valueEiE4typeELi0EEEmRKS3_,comdat
	.hidden	_ZNSt3__216allocator_traitsINS_9allocatorINS_6threadEEEE8max_sizeB8ne190106IS3_TnNS_9enable_ifIXsr14__has_max_sizeIKT_EE5valueEiE4typeELi0EEEmRKS3_ # -- Begin function _ZNSt3__216allocator_traitsINS_9allocatorINS_6threadEEEE8max_sizeB8ne190106IS3_TnNS_9enable_ifIXsr14__has_max_sizeIKT_EE5valueEiE4typeELi0EEEmRKS3_
	.weak	_ZNSt3__216allocator_traitsINS_9allocatorINS_6threadEEEE8max_sizeB8ne190106IS3_TnNS_9enable_ifIXsr14__has_max_sizeIKT_EE5valueEiE4typeELi0EEEmRKS3_
	.type	_ZNSt3__216allocator_traitsINS_9allocatorINS_6threadEEEE8max_sizeB8ne190106IS3_TnNS_9enable_ifIXsr14__has_max_sizeIKT_EE5valueEiE4typeELi0EEEmRKS3_,@function
_ZNSt3__216allocator_traitsINS_9allocatorINS_6threadEEEE8max_sizeB8ne190106IS3_TnNS_9enable_ifIXsr14__has_max_sizeIKT_EE5valueEiE4typeELi0EEEmRKS3_: # @_ZNSt3__216allocator_traitsINS_9allocatorINS_6threadEEEE8max_sizeB8ne190106IS3_TnNS_9enable_ifIXsr14__has_max_sizeIKT_EE5valueEiE4typeELi0EEEmRKS3_
.Lfunc_begin111:
	.loc	14 343 0 is_stmt 1              # emscripten/cache/sysroot/include/c++/v1/__memory/allocator_traits.h:343:0
	.functype	_ZNSt3__216allocator_traitsINS_9allocatorINS_6threadEEEE8max_sizeB8ne190106IS3_TnNS_9enable_ifIXsr14__has_max_sizeIKT_EE5valueEiE4typeELi0EEEmRKS3_ (i32) -> (i32)
	.local  	i32, i32, i32, i32, i32, i32, i32
# %bb.0:                                # %entry
	global.get	__stack_pointer
	local.set	1
	i32.const	16
	local.set	2
	local.get	1
	local.get	2
	i32.sub 
	local.set	3
	local.get	3
	global.set	__stack_pointer
	local.get	3
	local.get	0
	i32.store	12
.Ltmp270:
	.loc	14 345 12 prologue_end          # emscripten/cache/sysroot/include/c++/v1/__memory/allocator_traits.h:345:12
	local.get	3
	i32.load	12
	local.set	4
	.loc	14 345 16 is_stmt 0             # emscripten/cache/sysroot/include/c++/v1/__memory/allocator_traits.h:345:16
	local.get	4
	call	_ZNKSt3__29allocatorINS_6threadEE8max_sizeB8ne190106Ev
	local.set	5
	.loc	14 345 5                        # emscripten/cache/sysroot/include/c++/v1/__memory/allocator_traits.h:345:5
	i32.const	16
	local.set	6
	local.get	3
	local.get	6
	i32.add 
	local.set	7
	local.get	7
	global.set	__stack_pointer
	local.get	5
	return
	end_function
.Ltmp271:
.Lfunc_end111:
                                        # -- End function
	.section	.text._ZNKSt3__26vectorINS_6threadENS_9allocatorIS1_EEE7__allocB8ne190106Ev,"G",@,_ZNKSt3__26vectorINS_6threadENS_9allocatorIS1_EEE7__allocB8ne190106Ev,comdat
	.hidden	_ZNKSt3__26vectorINS_6threadENS_9allocatorIS1_EEE7__allocB8ne190106Ev # -- Begin function _ZNKSt3__26vectorINS_6threadENS_9allocatorIS1_EEE7__allocB8ne190106Ev
	.weak	_ZNKSt3__26vectorINS_6threadENS_9allocatorIS1_EEE7__allocB8ne190106Ev
	.type	_ZNKSt3__26vectorINS_6threadENS_9allocatorIS1_EEE7__allocB8ne190106Ev,@function
_ZNKSt3__26vectorINS_6threadENS_9allocatorIS1_EEE7__allocB8ne190106Ev: # @_ZNKSt3__26vectorINS_6threadENS_9allocatorIS1_EEE7__allocB8ne190106Ev
.Lfunc_begin112:
	.loc	7 968 0 is_stmt 1               # emscripten/cache/sysroot/include/c++/v1/vector:968:0
	.functype	_ZNKSt3__26vectorINS_6threadENS_9allocatorIS1_EEE7__allocB8ne190106Ev (i32) -> (i32)
	.local  	i32, i32, i32, i32, i32, i32, i32, i32, i32
# %bb.0:                                # %entry
	global.get	__stack_pointer
	local.set	1
	i32.const	16
	local.set	2
	local.get	1
	local.get	2
	i32.sub 
	local.set	3
	local.get	3
	global.set	__stack_pointer
	local.get	3
	local.get	0
	i32.store	12
	local.get	3
	i32.load	12
	local.set	4
.Ltmp272:
	.loc	7 969 18 prologue_end           # emscripten/cache/sysroot/include/c++/v1/vector:969:18
	i32.const	8
	local.set	5
	local.get	4
	local.get	5
	i32.add 
	local.set	6
	.loc	7 969 29 is_stmt 0              # emscripten/cache/sysroot/include/c++/v1/vector:969:29
	local.get	6
	call	_ZNKSt3__217__compressed_pairIPNS_6threadENS_9allocatorIS1_EEE6secondB8ne190106Ev
	local.set	7
	.loc	7 969 5                         # emscripten/cache/sysroot/include/c++/v1/vector:969:5
	i32.const	16
	local.set	8
	local.get	3
	local.get	8
	i32.add 
	local.set	9
	local.get	9
	global.set	__stack_pointer
	local.get	7
	return
	end_function
.Ltmp273:
.Lfunc_end112:
                                        # -- End function
	.section	.text._ZNSt3__214numeric_limitsIlE3maxB8ne190106Ev,"G",@,_ZNSt3__214numeric_limitsIlE3maxB8ne190106Ev,comdat
	.hidden	_ZNSt3__214numeric_limitsIlE3maxB8ne190106Ev # -- Begin function _ZNSt3__214numeric_limitsIlE3maxB8ne190106Ev
	.weak	_ZNSt3__214numeric_limitsIlE3maxB8ne190106Ev
	.type	_ZNSt3__214numeric_limitsIlE3maxB8ne190106Ev,@function
_ZNSt3__214numeric_limitsIlE3maxB8ne190106Ev: # @_ZNSt3__214numeric_limitsIlE3maxB8ne190106Ev
.Lfunc_begin113:
	.functype	_ZNSt3__214numeric_limitsIlE3maxB8ne190106Ev () -> (i32)
	.local  	i32
# %bb.0:                                # %entry
	.loc	10 469 98 prologue_end is_stmt 1 # emscripten/cache/sysroot/include/c++/v1/limits:469:98
	call	_ZNSt3__223__libcpp_numeric_limitsIlLb1EE3maxB8ne190106Ev
	local.set	0
	.loc	10 469 91 is_stmt 0             # emscripten/cache/sysroot/include/c++/v1/limits:469:91
	local.get	0
	return
	end_function
.Ltmp274:
.Lfunc_end113:
                                        # -- End function
	.section	.text._ZNSt3__23minB8ne190106ImNS_6__lessIvvEEEERKT_S5_S5_T0_,"G",@,_ZNSt3__23minB8ne190106ImNS_6__lessIvvEEEERKT_S5_S5_T0_,comdat
	.hidden	_ZNSt3__23minB8ne190106ImNS_6__lessIvvEEEERKT_S5_S5_T0_ # -- Begin function _ZNSt3__23minB8ne190106ImNS_6__lessIvvEEEERKT_S5_S5_T0_
	.weak	_ZNSt3__23minB8ne190106ImNS_6__lessIvvEEEERKT_S5_S5_T0_
	.type	_ZNSt3__23minB8ne190106ImNS_6__lessIvvEEEERKT_S5_S5_T0_,@function
_ZNSt3__23minB8ne190106ImNS_6__lessIvvEEEERKT_S5_S5_T0_: # @_ZNSt3__23minB8ne190106ImNS_6__lessIvvEEEERKT_S5_S5_T0_
.Lfunc_begin114:
	.loc	36 29 0 is_stmt 1               # emscripten/cache/sysroot/include/c++/v1/__algorithm/min.h:29:0
	.functype	_ZNSt3__23minB8ne190106ImNS_6__lessIvvEEEERKT_S5_S5_T0_ (i32, i32) -> (i32)
	.local  	i32, i32, i32, i32, i32, i32, i32, i32, i32, i32, i32, i32, i32, i32, i32, i32, i32
# %bb.0:                                # %entry
	global.get	__stack_pointer
	local.set	2
	i32.const	16
	local.set	3
	local.get	2
	local.get	3
	i32.sub 
	local.set	4
	local.get	4
	global.set	__stack_pointer
	local.get	4
	local.get	0
	i32.store	8
	local.get	4
	local.get	1
	i32.store	4
.Ltmp275:
	.loc	36 30 17 prologue_end           # emscripten/cache/sysroot/include/c++/v1/__algorithm/min.h:30:17
	local.get	4
	i32.load	4
	local.set	5
	.loc	36 30 22 is_stmt 0              # emscripten/cache/sysroot/include/c++/v1/__algorithm/min.h:30:22
	local.get	4
	i32.load	8
	local.set	6
	.loc	36 30 10                        # emscripten/cache/sysroot/include/c++/v1/__algorithm/min.h:30:10
	i32.const	15
	local.set	7
	local.get	4
	local.get	7
	i32.add 
	local.set	8
	local.get	8
	local.set	9
	local.get	9
	local.get	5
	local.get	6
	call	_ZNKSt3__26__lessIvvEclB8ne190106ImmEEbRKT_RKT0_
	local.set	10
	i32.const	1
	local.set	11
	local.get	10
	local.get	11
	i32.and 
	local.set	12
	block   	
	block   	
	local.get	12
	i32.eqz
	br_if   	0                               # 0: down to label28
# %bb.1:                                # %cond.true
	.loc	36 30 29                        # emscripten/cache/sysroot/include/c++/v1/__algorithm/min.h:30:29
	local.get	4
	i32.load	4
	local.set	13
	local.get	13
	local.set	14
	.loc	36 30 10                        # emscripten/cache/sysroot/include/c++/v1/__algorithm/min.h:30:10
	br      	1                               # 1: down to label27
.LBB114_2:                              # %cond.false
	.loc	36 0 10                         # emscripten/cache/sysroot/include/c++/v1/__algorithm/min.h:0:10
	end_block                               # label28:
	.loc	36 30 35                        # emscripten/cache/sysroot/include/c++/v1/__algorithm/min.h:30:35
	local.get	4
	i32.load	8
	local.set	15
	local.get	15
	local.set	14
.LBB114_3:                              # %cond.end
	.loc	36 0 35                         # emscripten/cache/sysroot/include/c++/v1/__algorithm/min.h:0:35
	end_block                               # label27:
	.loc	36 30 10                        # emscripten/cache/sysroot/include/c++/v1/__algorithm/min.h:30:10
	local.get	14
	local.set	16
	.loc	36 30 3                         # emscripten/cache/sysroot/include/c++/v1/__algorithm/min.h:30:3
	i32.const	16
	local.set	17
	local.get	4
	local.get	17
	i32.add 
	local.set	18
	local.get	18
	global.set	__stack_pointer
	local.get	16
	return
	end_function
.Ltmp276:
.Lfunc_end114:
                                        # -- End function
	.section	.text._ZNKSt3__26__lessIvvEclB8ne190106ImmEEbRKT_RKT0_,"G",@,_ZNKSt3__26__lessIvvEclB8ne190106ImmEEbRKT_RKT0_,comdat
	.hidden	_ZNKSt3__26__lessIvvEclB8ne190106ImmEEbRKT_RKT0_ # -- Begin function _ZNKSt3__26__lessIvvEclB8ne190106ImmEEbRKT_RKT0_
	.weak	_ZNKSt3__26__lessIvvEclB8ne190106ImmEEbRKT_RKT0_
	.type	_ZNKSt3__26__lessIvvEclB8ne190106ImmEEbRKT_RKT0_,@function
_ZNKSt3__26__lessIvvEclB8ne190106ImmEEbRKT_RKT0_: # @_ZNKSt3__26__lessIvvEclB8ne190106ImmEEbRKT_RKT0_
.Lfunc_begin115:
	.file	37 "/home/kay/Documents/Code/toolchain-wasm" "emscripten/cache/sysroot/include/c++/v1/__algorithm/comp.h"
	.loc	37 39 0 is_stmt 1               # emscripten/cache/sysroot/include/c++/v1/__algorithm/comp.h:39:0
	.functype	_ZNKSt3__26__lessIvvEclB8ne190106ImmEEbRKT_RKT0_ (i32, i32, i32) -> (i32)
	.local  	i32, i32, i32, i32, i32, i32, i32, i32, i32, i32
# %bb.0:                                # %entry
	global.get	__stack_pointer
	local.set	3
	i32.const	16
	local.set	4
	local.get	3
	local.get	4
	i32.sub 
	local.set	5
	local.get	5
	local.get	0
	i32.store	12
	local.get	5
	local.get	1
	i32.store	8
	local.get	5
	local.get	2
	i32.store	4
.Ltmp277:
	.loc	37 40 12 prologue_end           # emscripten/cache/sysroot/include/c++/v1/__algorithm/comp.h:40:12
	local.get	5
	i32.load	8
	local.set	6
	local.get	6
	i32.load	0
	local.set	7
	.loc	37 40 20 is_stmt 0              # emscripten/cache/sysroot/include/c++/v1/__algorithm/comp.h:40:20
	local.get	5
	i32.load	4
	local.set	8
	local.get	8
	i32.load	0
	local.set	9
	.loc	37 40 18                        # emscripten/cache/sysroot/include/c++/v1/__algorithm/comp.h:40:18
	local.get	7
	local.get	9
	i32.lt_u
	local.set	10
	.loc	37 40 5                         # emscripten/cache/sysroot/include/c++/v1/__algorithm/comp.h:40:5
	i32.const	1
	local.set	11
	local.get	10
	local.get	11
	i32.and 
	local.set	12
	local.get	12
	return
	end_function
.Ltmp278:
.Lfunc_end115:
                                        # -- End function
	.section	.text._ZNKSt3__29allocatorINS_6threadEE8max_sizeB8ne190106Ev,"G",@,_ZNKSt3__29allocatorINS_6threadEE8max_sizeB8ne190106Ev,comdat
	.hidden	_ZNKSt3__29allocatorINS_6threadEE8max_sizeB8ne190106Ev # -- Begin function _ZNKSt3__29allocatorINS_6threadEE8max_sizeB8ne190106Ev
	.weak	_ZNKSt3__29allocatorINS_6threadEE8max_sizeB8ne190106Ev
	.type	_ZNKSt3__29allocatorINS_6threadEE8max_sizeB8ne190106Ev,@function
_ZNKSt3__29allocatorINS_6threadEE8max_sizeB8ne190106Ev: # @_ZNKSt3__29allocatorINS_6threadEE8max_sizeB8ne190106Ev
.Lfunc_begin116:
	.loc	13 159 0 is_stmt 1              # emscripten/cache/sysroot/include/c++/v1/__memory/allocator.h:159:0
	.functype	_ZNKSt3__29allocatorINS_6threadEE8max_sizeB8ne190106Ev (i32) -> (i32)
	.local  	i32, i32, i32, i32
# %bb.0:                                # %entry
	global.get	__stack_pointer
	local.set	1
	i32.const	16
	local.set	2
	local.get	1
	local.get	2
	i32.sub 
	local.set	3
	local.get	3
	local.get	0
	i32.store	12
.Ltmp279:
	.loc	13 160 5 prologue_end           # emscripten/cache/sysroot/include/c++/v1/__memory/allocator.h:160:5
	i32.const	1073741823
	local.set	4
	local.get	4
	return
	end_function
.Ltmp280:
.Lfunc_end116:
                                        # -- End function
	.section	.text._ZNKSt3__217__compressed_pairIPNS_6threadENS_9allocatorIS1_EEE6secondB8ne190106Ev,"G",@,_ZNKSt3__217__compressed_pairIPNS_6threadENS_9allocatorIS1_EEE6secondB8ne190106Ev,comdat
	.hidden	_ZNKSt3__217__compressed_pairIPNS_6threadENS_9allocatorIS1_EEE6secondB8ne190106Ev # -- Begin function _ZNKSt3__217__compressed_pairIPNS_6threadENS_9allocatorIS1_EEE6secondB8ne190106Ev
	.weak	_ZNKSt3__217__compressed_pairIPNS_6threadENS_9allocatorIS1_EEE6secondB8ne190106Ev
	.type	_ZNKSt3__217__compressed_pairIPNS_6threadENS_9allocatorIS1_EEE6secondB8ne190106Ev,@function
_ZNKSt3__217__compressed_pairIPNS_6threadENS_9allocatorIS1_EEE6secondB8ne190106Ev: # @_ZNKSt3__217__compressed_pairIPNS_6threadENS_9allocatorIS1_EEE6secondB8ne190106Ev
.Lfunc_begin117:
	.loc	15 141 0                        # emscripten/cache/sysroot/include/c++/v1/__memory/compressed_pair.h:141:0
	.functype	_ZNKSt3__217__compressed_pairIPNS_6threadENS_9allocatorIS1_EEE6secondB8ne190106Ev (i32) -> (i32)
	.local  	i32, i32, i32, i32, i32, i32, i32
# %bb.0:                                # %entry
	global.get	__stack_pointer
	local.set	1
	i32.const	16
	local.set	2
	local.get	1
	local.get	2
	i32.sub 
	local.set	3
	local.get	3
	global.set	__stack_pointer
	local.get	3
	local.get	0
	i32.store	12
	local.get	3
	i32.load	12
	local.set	4
.Ltmp281:
	.loc	15 142 46 prologue_end          # emscripten/cache/sysroot/include/c++/v1/__memory/compressed_pair.h:142:46
	local.get	4
	call	_ZNKSt3__222__compressed_pair_elemINS_9allocatorINS_6threadEEELi1ELb1EE5__getB8ne190106Ev
	local.set	5
	.loc	15 142 5 is_stmt 0              # emscripten/cache/sysroot/include/c++/v1/__memory/compressed_pair.h:142:5
	i32.const	16
	local.set	6
	local.get	3
	local.get	6
	i32.add 
	local.set	7
	local.get	7
	global.set	__stack_pointer
	local.get	5
	return
	end_function
.Ltmp282:
.Lfunc_end117:
                                        # -- End function
	.section	.text._ZNKSt3__222__compressed_pair_elemINS_9allocatorINS_6threadEEELi1ELb1EE5__getB8ne190106Ev,"G",@,_ZNKSt3__222__compressed_pair_elemINS_9allocatorINS_6threadEEELi1ELb1EE5__getB8ne190106Ev,comdat
	.hidden	_ZNKSt3__222__compressed_pair_elemINS_9allocatorINS_6threadEEELi1ELb1EE5__getB8ne190106Ev # -- Begin function _ZNKSt3__222__compressed_pair_elemINS_9allocatorINS_6threadEEELi1ELb1EE5__getB8ne190106Ev
	.weak	_ZNKSt3__222__compressed_pair_elemINS_9allocatorINS_6threadEEELi1ELb1EE5__getB8ne190106Ev
	.type	_ZNKSt3__222__compressed_pair_elemINS_9allocatorINS_6threadEEELi1ELb1EE5__getB8ne190106Ev,@function
_ZNKSt3__222__compressed_pair_elemINS_9allocatorINS_6threadEEELi1ELb1EE5__getB8ne190106Ev: # @_ZNKSt3__222__compressed_pair_elemINS_9allocatorINS_6threadEEELi1ELb1EE5__getB8ne190106Ev
.Lfunc_begin118:
	.loc	15 92 0 is_stmt 1               # emscripten/cache/sysroot/include/c++/v1/__memory/compressed_pair.h:92:0
	.functype	_ZNKSt3__222__compressed_pair_elemINS_9allocatorINS_6threadEEELi1ELb1EE5__getB8ne190106Ev (i32) -> (i32)
	.local  	i32, i32, i32, i32
# %bb.0:                                # %entry
	global.get	__stack_pointer
	local.set	1
	i32.const	16
	local.set	2
	local.get	1
	local.get	2
	i32.sub 
	local.set	3
	local.get	3
	local.get	0
	i32.store	12
	local.get	3
	i32.load	12
	local.set	4
.Ltmp283:
	.loc	15 92 85 prologue_end           # emscripten/cache/sysroot/include/c++/v1/__memory/compressed_pair.h:92:85
	local.get	4
	return
	end_function
.Ltmp284:
.Lfunc_end118:
                                        # -- End function
	.section	.text._ZNSt3__223__libcpp_numeric_limitsIlLb1EE3maxB8ne190106Ev,"G",@,_ZNSt3__223__libcpp_numeric_limitsIlLb1EE3maxB8ne190106Ev,comdat
	.hidden	_ZNSt3__223__libcpp_numeric_limitsIlLb1EE3maxB8ne190106Ev # -- Begin function _ZNSt3__223__libcpp_numeric_limitsIlLb1EE3maxB8ne190106Ev
	.weak	_ZNSt3__223__libcpp_numeric_limitsIlLb1EE3maxB8ne190106Ev
	.type	_ZNSt3__223__libcpp_numeric_limitsIlLb1EE3maxB8ne190106Ev,@function
_ZNSt3__223__libcpp_numeric_limitsIlLb1EE3maxB8ne190106Ev: # @_ZNSt3__223__libcpp_numeric_limitsIlLb1EE3maxB8ne190106Ev
.Lfunc_begin119:
	.functype	_ZNSt3__223__libcpp_numeric_limitsIlLb1EE3maxB8ne190106Ev () -> (i32)
	.local  	i32
# %bb.0:                                # %entry
	.loc	10 202 91 prologue_end          # emscripten/cache/sysroot/include/c++/v1/limits:202:91
	i32.const	2147483647
	local.set	0
	local.get	0
	return
	end_function
.Ltmp285:
.Lfunc_end119:
                                        # -- End function
	.section	.text._ZNSt3__220__throw_length_errorB8ne190106EPKc,"G",@,_ZNSt3__220__throw_length_errorB8ne190106EPKc,comdat
	.hidden	_ZNSt3__220__throw_length_errorB8ne190106EPKc # -- Begin function _ZNSt3__220__throw_length_errorB8ne190106EPKc
	.weak	_ZNSt3__220__throw_length_errorB8ne190106EPKc
	.type	_ZNSt3__220__throw_length_errorB8ne190106EPKc,@function
_ZNSt3__220__throw_length_errorB8ne190106EPKc: # @_ZNSt3__220__throw_length_errorB8ne190106EPKc
.Lfunc_begin120:
	.file	38 "/home/kay/Documents/Code/toolchain-wasm" "emscripten/cache/sysroot/include/c++/v1/stdexcept"
	.loc	38 238 0                        # emscripten/cache/sysroot/include/c++/v1/stdexcept:238:0
	.functype	_ZNSt3__220__throw_length_errorB8ne190106EPKc (i32) -> ()
	.local  	i32, i32, i32, i32, i32, i32, i32, i32
# %bb.0:                                # %entry
	global.get	__stack_pointer
	local.set	1
	i32.const	16
	local.set	2
	local.get	1
	local.get	2
	i32.sub 
	local.set	3
	local.get	3
	global.set	__stack_pointer
	local.get	3
	local.get	0
	i32.store	12
.Ltmp286:
	.loc	38 240 3 prologue_end           # emscripten/cache/sysroot/include/c++/v1/stdexcept:240:3
	i32.const	8
	local.set	4
	local.get	4
	call	__cxa_allocate_exception
	local.set	5
	.loc	38 240 22 is_stmt 0             # emscripten/cache/sysroot/include/c++/v1/stdexcept:240:22
	local.get	3
	i32.load	12
	local.set	6
	.loc	38 240 9                        # emscripten/cache/sysroot/include/c++/v1/stdexcept:240:9
	local.get	5
	local.get	6
	call	_ZNSt12length_errorC2B8ne190106EPKc
	drop
	.loc	38 240 3                        # emscripten/cache/sysroot/include/c++/v1/stdexcept:240:3
	i32.const	_ZTISt12length_error
	local.set	7
	i32.const	_ZNSt12length_errorD1Ev
	local.set	8
	local.get	5
	local.get	7
	local.get	8
	call	__cxa_throw
	unreachable
	end_function
.Ltmp287:
.Lfunc_end120:
                                        # -- End function
	.section	.text._ZNSt12length_errorC2B8ne190106EPKc,"G",@,_ZNSt12length_errorC2B8ne190106EPKc,comdat
	.hidden	_ZNSt12length_errorC2B8ne190106EPKc # -- Begin function _ZNSt12length_errorC2B8ne190106EPKc
	.weak	_ZNSt12length_errorC2B8ne190106EPKc
	.type	_ZNSt12length_errorC2B8ne190106EPKc,@function
_ZNSt12length_errorC2B8ne190106EPKc:    # @_ZNSt12length_errorC2B8ne190106EPKc
.Lfunc_begin121:
	.loc	38 151 0 is_stmt 1              # emscripten/cache/sysroot/include/c++/v1/stdexcept:151:0
	.functype	_ZNSt12length_errorC2B8ne190106EPKc (i32, i32) -> (i32)
	.local  	i32, i32, i32, i32, i32, i32, i32, i32, i32, i32
# %bb.0:                                # %entry
	global.get	__stack_pointer
	local.set	2
	i32.const	16
	local.set	3
	local.get	2
	local.get	3
	i32.sub 
	local.set	4
	local.get	4
	global.set	__stack_pointer
	local.get	4
	local.get	0
	i32.store	12
	local.get	4
	local.get	1
	i32.store	8
	local.get	4
	i32.load	12
	local.set	5
.Ltmp288:
	.loc	38 151 78 prologue_end          # emscripten/cache/sysroot/include/c++/v1/stdexcept:151:78
	local.get	4
	i32.load	8
	local.set	6
	.loc	38 151 66 is_stmt 0             # emscripten/cache/sysroot/include/c++/v1/stdexcept:151:66
	local.get	5
	local.get	6
	call	_ZNSt11logic_errorC2EPKc
	drop
	.loc	38 151 83                       # emscripten/cache/sysroot/include/c++/v1/stdexcept:151:83
	i32.const	_ZTVSt12length_error
	local.set	7
	i32.const	8
	local.set	8
	local.get	7
	local.get	8
	i32.add 
	local.set	9
	local.get	5
	local.get	9
	i32.store	0
	.loc	38 151 84                       # emscripten/cache/sysroot/include/c++/v1/stdexcept:151:84
	i32.const	16
	local.set	10
	local.get	4
	local.get	10
	i32.add 
	local.set	11
	local.get	11
	global.set	__stack_pointer
	local.get	5
	return
	end_function
.Ltmp289:
.Lfunc_end121:
                                        # -- End function
	.section	.text._ZNSt3__23maxB8ne190106ImNS_6__lessIvvEEEERKT_S5_S5_T0_,"G",@,_ZNSt3__23maxB8ne190106ImNS_6__lessIvvEEEERKT_S5_S5_T0_,comdat
	.hidden	_ZNSt3__23maxB8ne190106ImNS_6__lessIvvEEEERKT_S5_S5_T0_ # -- Begin function _ZNSt3__23maxB8ne190106ImNS_6__lessIvvEEEERKT_S5_S5_T0_
	.weak	_ZNSt3__23maxB8ne190106ImNS_6__lessIvvEEEERKT_S5_S5_T0_
	.type	_ZNSt3__23maxB8ne190106ImNS_6__lessIvvEEEERKT_S5_S5_T0_,@function
_ZNSt3__23maxB8ne190106ImNS_6__lessIvvEEEERKT_S5_S5_T0_: # @_ZNSt3__23maxB8ne190106ImNS_6__lessIvvEEEERKT_S5_S5_T0_
.Lfunc_begin122:
	.loc	35 29 0 is_stmt 1               # emscripten/cache/sysroot/include/c++/v1/__algorithm/max.h:29:0
	.functype	_ZNSt3__23maxB8ne190106ImNS_6__lessIvvEEEERKT_S5_S5_T0_ (i32, i32) -> (i32)
	.local  	i32, i32, i32, i32, i32, i32, i32, i32, i32, i32, i32, i32, i32, i32, i32, i32, i32
# %bb.0:                                # %entry
	global.get	__stack_pointer
	local.set	2
	i32.const	16
	local.set	3
	local.get	2
	local.get	3
	i32.sub 
	local.set	4
	local.get	4
	global.set	__stack_pointer
	local.get	4
	local.get	0
	i32.store	8
	local.get	4
	local.get	1
	i32.store	4
.Ltmp290:
	.loc	35 30 17 prologue_end           # emscripten/cache/sysroot/include/c++/v1/__algorithm/max.h:30:17
	local.get	4
	i32.load	8
	local.set	5
	.loc	35 30 22 is_stmt 0              # emscripten/cache/sysroot/include/c++/v1/__algorithm/max.h:30:22
	local.get	4
	i32.load	4
	local.set	6
	.loc	35 30 10                        # emscripten/cache/sysroot/include/c++/v1/__algorithm/max.h:30:10
	i32.const	15
	local.set	7
	local.get	4
	local.get	7
	i32.add 
	local.set	8
	local.get	8
	local.set	9
	local.get	9
	local.get	5
	local.get	6
	call	_ZNKSt3__26__lessIvvEclB8ne190106ImmEEbRKT_RKT0_
	local.set	10
	i32.const	1
	local.set	11
	local.get	10
	local.get	11
	i32.and 
	local.set	12
	block   	
	block   	
	local.get	12
	i32.eqz
	br_if   	0                               # 0: down to label30
# %bb.1:                                # %cond.true
	.loc	35 30 29                        # emscripten/cache/sysroot/include/c++/v1/__algorithm/max.h:30:29
	local.get	4
	i32.load	4
	local.set	13
	local.get	13
	local.set	14
	.loc	35 30 10                        # emscripten/cache/sysroot/include/c++/v1/__algorithm/max.h:30:10
	br      	1                               # 1: down to label29
.LBB122_2:                              # %cond.false
	.loc	35 0 10                         # emscripten/cache/sysroot/include/c++/v1/__algorithm/max.h:0:10
	end_block                               # label30:
	.loc	35 30 35                        # emscripten/cache/sysroot/include/c++/v1/__algorithm/max.h:30:35
	local.get	4
	i32.load	8
	local.set	15
	local.get	15
	local.set	14
.LBB122_3:                              # %cond.end
	.loc	35 0 35                         # emscripten/cache/sysroot/include/c++/v1/__algorithm/max.h:0:35
	end_block                               # label29:
	.loc	35 30 10                        # emscripten/cache/sysroot/include/c++/v1/__algorithm/max.h:30:10
	local.get	14
	local.set	16
	.loc	35 30 3                         # emscripten/cache/sysroot/include/c++/v1/__algorithm/max.h:30:3
	i32.const	16
	local.set	17
	local.get	4
	local.get	17
	i32.add 
	local.set	18
	local.get	18
	global.set	__stack_pointer
	local.get	16
	return
	end_function
.Ltmp291:
.Lfunc_end122:
                                        # -- End function
	.section	.text._ZNSt3__217__compressed_pairIPNS_6threadERNS_9allocatorIS1_EEEC2B8ne190106IDnS5_EEOT_OT0_,"G",@,_ZNSt3__217__compressed_pairIPNS_6threadERNS_9allocatorIS1_EEEC2B8ne190106IDnS5_EEOT_OT0_,comdat
	.hidden	_ZNSt3__217__compressed_pairIPNS_6threadERNS_9allocatorIS1_EEEC2B8ne190106IDnS5_EEOT_OT0_ # -- Begin function _ZNSt3__217__compressed_pairIPNS_6threadERNS_9allocatorIS1_EEEC2B8ne190106IDnS5_EEOT_OT0_
	.weak	_ZNSt3__217__compressed_pairIPNS_6threadERNS_9allocatorIS1_EEEC2B8ne190106IDnS5_EEOT_OT0_
	.type	_ZNSt3__217__compressed_pairIPNS_6threadERNS_9allocatorIS1_EEEC2B8ne190106IDnS5_EEOT_OT0_,@function
_ZNSt3__217__compressed_pairIPNS_6threadERNS_9allocatorIS1_EEEC2B8ne190106IDnS5_EEOT_OT0_: # @_ZNSt3__217__compressed_pairIPNS_6threadERNS_9allocatorIS1_EEEC2B8ne190106IDnS5_EEOT_OT0_
.Lfunc_begin123:
	.loc	15 119 0 is_stmt 1              # emscripten/cache/sysroot/include/c++/v1/__memory/compressed_pair.h:119:0
	.functype	_ZNSt3__217__compressed_pairIPNS_6threadERNS_9allocatorIS1_EEEC2B8ne190106IDnS5_EEOT_OT0_ (i32, i32, i32) -> (i32)
	.local  	i32, i32, i32, i32, i32, i32, i32, i32, i32, i32
# %bb.0:                                # %entry
	global.get	__stack_pointer
	local.set	3
	i32.const	16
	local.set	4
	local.get	3
	local.get	4
	i32.sub 
	local.set	5
	local.get	5
	global.set	__stack_pointer
	local.get	5
	local.get	0
	i32.store	12
	local.get	5
	local.get	1
	i32.store	8
	local.get	5
	local.get	2
	i32.store	4
	local.get	5
	i32.load	12
	local.set	6
.Ltmp292:
	.loc	15 119 34 prologue_end          # emscripten/cache/sysroot/include/c++/v1/__memory/compressed_pair.h:119:34
	local.get	5
	i32.load	8
	local.set	7
	.loc	15 119 9 is_stmt 0              # emscripten/cache/sysroot/include/c++/v1/__memory/compressed_pair.h:119:9
	local.get	6
	local.get	7
	call	_ZNSt3__222__compressed_pair_elemIPNS_6threadELi0ELb0EEC2B8ne190106IDnTnNS_9enable_ifIXntsr7is_sameIS3_u7__decayIT_EEE5valueEiE4typeELi0EEEOS6_
	drop
	.loc	15 119 74                       # emscripten/cache/sysroot/include/c++/v1/__memory/compressed_pair.h:119:74
	i32.const	4
	local.set	8
	local.get	6
	local.get	8
	i32.add 
	local.set	9
	.loc	15 119 67                       # emscripten/cache/sysroot/include/c++/v1/__memory/compressed_pair.h:119:67
	local.get	5
	i32.load	4
	local.set	10
	.loc	15 119 42                       # emscripten/cache/sysroot/include/c++/v1/__memory/compressed_pair.h:119:42
	local.get	9
	local.get	10
	call	_ZNSt3__222__compressed_pair_elemIRNS_9allocatorINS_6threadEEELi1ELb0EEC2B8ne190106IS4_TnNS_9enable_ifIXntsr7is_sameIS5_u7__decayIT_EEE5valueEiE4typeELi0EEEOS8_
	drop
	.loc	15 119 75                       # emscripten/cache/sysroot/include/c++/v1/__memory/compressed_pair.h:119:75
	i32.const	16
	local.set	11
	local.get	5
	local.get	11
	i32.add 
	local.set	12
	local.get	12
	global.set	__stack_pointer
	local.get	6
	return
	end_function
.Ltmp293:
.Lfunc_end123:
                                        # -- End function
	.section	.text._ZNSt3__219__allocate_at_leastB8ne190106INS_9allocatorINS_6threadEEEEENS_19__allocation_resultINS_16allocator_traitsIT_E7pointerEEERS6_m,"G",@,_ZNSt3__219__allocate_at_leastB8ne190106INS_9allocatorINS_6threadEEEEENS_19__allocation_resultINS_16allocator_traitsIT_E7pointerEEERS6_m,comdat
	.hidden	_ZNSt3__219__allocate_at_leastB8ne190106INS_9allocatorINS_6threadEEEEENS_19__allocation_resultINS_16allocator_traitsIT_E7pointerEEERS6_m # -- Begin function _ZNSt3__219__allocate_at_leastB8ne190106INS_9allocatorINS_6threadEEEEENS_19__allocation_resultINS_16allocator_traitsIT_E7pointerEEERS6_m
	.weak	_ZNSt3__219__allocate_at_leastB8ne190106INS_9allocatorINS_6threadEEEEENS_19__allocation_resultINS_16allocator_traitsIT_E7pointerEEERS6_m
	.type	_ZNSt3__219__allocate_at_leastB8ne190106INS_9allocatorINS_6threadEEEEENS_19__allocation_resultINS_16allocator_traitsIT_E7pointerEEERS6_m,@function
_ZNSt3__219__allocate_at_leastB8ne190106INS_9allocatorINS_6threadEEEEENS_19__allocation_resultINS_16allocator_traitsIT_E7pointerEEERS6_m: # @_ZNSt3__219__allocate_at_leastB8ne190106INS_9allocatorINS_6threadEEEEENS_19__allocation_resultINS_16allocator_traitsIT_E7pointerEEERS6_m
.Lfunc_begin124:
	.file	39 "/home/kay/Documents/Code/toolchain-wasm" "emscripten/cache/sysroot/include/c++/v1/__memory/allocate_at_least.h"
	.loc	39 40 0 is_stmt 1               # emscripten/cache/sysroot/include/c++/v1/__memory/allocate_at_least.h:40:0
	.functype	_ZNSt3__219__allocate_at_leastB8ne190106INS_9allocatorINS_6threadEEEEENS_19__allocation_resultINS_16allocator_traitsIT_E7pointerEEERS6_m (i32, i32, i32) -> ()
	.local  	i32, i32, i32, i32, i32, i32, i32, i32, i32
# %bb.0:                                # %entry
	global.get	__stack_pointer
	local.set	3
	i32.const	16
	local.set	4
	local.get	3
	local.get	4
	i32.sub 
	local.set	5
	local.get	5
	global.set	__stack_pointer
	local.get	5
	local.get	1
	i32.store	12
	local.get	5
	local.get	2
	i32.store	8
.Ltmp294:
	.loc	39 41 11 prologue_end           # emscripten/cache/sysroot/include/c++/v1/__memory/allocate_at_least.h:41:11
	local.get	5
	i32.load	12
	local.set	6
	.loc	39 41 28 is_stmt 0              # emscripten/cache/sysroot/include/c++/v1/__memory/allocate_at_least.h:41:28
	local.get	5
	i32.load	8
	local.set	7
	.loc	39 41 19                        # emscripten/cache/sysroot/include/c++/v1/__memory/allocate_at_least.h:41:19
	local.get	6
	local.get	7
	call	_ZNSt3__29allocatorINS_6threadEE8allocateB8ne190106Em
	local.set	8
	.loc	39 41 10                        # emscripten/cache/sysroot/include/c++/v1/__memory/allocate_at_least.h:41:10
	local.get	0
	local.get	8
	i32.store	0
	.loc	39 41 34                        # emscripten/cache/sysroot/include/c++/v1/__memory/allocate_at_least.h:41:34
	local.get	5
	i32.load	8
	local.set	9
	.loc	39 41 10                        # emscripten/cache/sysroot/include/c++/v1/__memory/allocate_at_least.h:41:10
	local.get	0
	local.get	9
	i32.store	4
	.loc	39 41 3                         # emscripten/cache/sysroot/include/c++/v1/__memory/allocate_at_least.h:41:3
	i32.const	16
	local.set	10
	local.get	5
	local.get	10
	i32.add 
	local.set	11
	local.get	11
	global.set	__stack_pointer
	return
	end_function
.Ltmp295:
.Lfunc_end124:
                                        # -- End function
	.section	.text._ZNSt3__214__split_bufferINS_6threadERNS_9allocatorIS1_EEE7__allocB8ne190106Ev,"G",@,_ZNSt3__214__split_bufferINS_6threadERNS_9allocatorIS1_EEE7__allocB8ne190106Ev,comdat
	.hidden	_ZNSt3__214__split_bufferINS_6threadERNS_9allocatorIS1_EEE7__allocB8ne190106Ev # -- Begin function _ZNSt3__214__split_bufferINS_6threadERNS_9allocatorIS1_EEE7__allocB8ne190106Ev
	.weak	_ZNSt3__214__split_bufferINS_6threadERNS_9allocatorIS1_EEE7__allocB8ne190106Ev
	.type	_ZNSt3__214__split_bufferINS_6threadERNS_9allocatorIS1_EEE7__allocB8ne190106Ev,@function
_ZNSt3__214__split_bufferINS_6threadERNS_9allocatorIS1_EEE7__allocB8ne190106Ev: # @_ZNSt3__214__split_bufferINS_6threadERNS_9allocatorIS1_EEE7__allocB8ne190106Ev
.Lfunc_begin125:
	.loc	20 114 0 is_stmt 1              # emscripten/cache/sysroot/include/c++/v1/__split_buffer:114:0
	.functype	_ZNSt3__214__split_bufferINS_6threadERNS_9allocatorIS1_EEE7__allocB8ne190106Ev (i32) -> (i32)
	.local  	i32, i32, i32, i32, i32, i32, i32, i32, i32
# %bb.0:                                # %entry
	global.get	__stack_pointer
	local.set	1
	i32.const	16
	local.set	2
	local.get	1
	local.get	2
	i32.sub 
	local.set	3
	local.get	3
	global.set	__stack_pointer
	local.get	3
	local.get	0
	i32.store	12
	local.get	3
	i32.load	12
	local.set	4
.Ltmp296:
	.loc	20 114 96 prologue_end          # emscripten/cache/sysroot/include/c++/v1/__split_buffer:114:96
	i32.const	12
	local.set	5
	local.get	4
	local.get	5
	i32.add 
	local.set	6
	.loc	20 114 107 is_stmt 0            # emscripten/cache/sysroot/include/c++/v1/__split_buffer:114:107
	local.get	6
	call	_ZNSt3__217__compressed_pairIPNS_6threadERNS_9allocatorIS1_EEE6secondB8ne190106Ev
	local.set	7
	.loc	20 114 89                       # emscripten/cache/sysroot/include/c++/v1/__split_buffer:114:89
	i32.const	16
	local.set	8
	local.get	3
	local.get	8
	i32.add 
	local.set	9
	local.get	9
	global.set	__stack_pointer
	local.get	7
	return
	end_function
.Ltmp297:
.Lfunc_end125:
                                        # -- End function
	.section	.text._ZNSt3__214__split_bufferINS_6threadERNS_9allocatorIS1_EEE9__end_capB8ne190106Ev,"G",@,_ZNSt3__214__split_bufferINS_6threadERNS_9allocatorIS1_EEE9__end_capB8ne190106Ev,comdat
	.hidden	_ZNSt3__214__split_bufferINS_6threadERNS_9allocatorIS1_EEE9__end_capB8ne190106Ev # -- Begin function _ZNSt3__214__split_bufferINS_6threadERNS_9allocatorIS1_EEE9__end_capB8ne190106Ev
	.weak	_ZNSt3__214__split_bufferINS_6threadERNS_9allocatorIS1_EEE9__end_capB8ne190106Ev
	.type	_ZNSt3__214__split_bufferINS_6threadERNS_9allocatorIS1_EEE9__end_capB8ne190106Ev,@function
_ZNSt3__214__split_bufferINS_6threadERNS_9allocatorIS1_EEE9__end_capB8ne190106Ev: # @_ZNSt3__214__split_bufferINS_6threadERNS_9allocatorIS1_EEE9__end_capB8ne190106Ev
.Lfunc_begin126:
	.loc	20 119 0 is_stmt 1              # emscripten/cache/sysroot/include/c++/v1/__split_buffer:119:0
	.functype	_ZNSt3__214__split_bufferINS_6threadERNS_9allocatorIS1_EEE9__end_capB8ne190106Ev (i32) -> (i32)
	.local  	i32, i32, i32, i32, i32, i32, i32, i32, i32
# %bb.0:                                # %entry
	global.get	__stack_pointer
	local.set	1
	i32.const	16
	local.set	2
	local.get	1
	local.get	2
	i32.sub 
	local.set	3
	local.get	3
	global.set	__stack_pointer
	local.get	3
	local.get	0
	i32.store	12
	local.get	3
	i32.load	12
	local.set	4
.Ltmp298:
	.loc	20 119 95 prologue_end          # emscripten/cache/sysroot/include/c++/v1/__split_buffer:119:95
	i32.const	12
	local.set	5
	local.get	4
	local.get	5
	i32.add 
	local.set	6
	.loc	20 119 106 is_stmt 0            # emscripten/cache/sysroot/include/c++/v1/__split_buffer:119:106
	local.get	6
	call	_ZNSt3__217__compressed_pairIPNS_6threadERNS_9allocatorIS1_EEE5firstB8ne190106Ev
	local.set	7
	.loc	20 119 88                       # emscripten/cache/sysroot/include/c++/v1/__split_buffer:119:88
	i32.const	16
	local.set	8
	local.get	3
	local.get	8
	i32.add 
	local.set	9
	local.get	9
	global.set	__stack_pointer
	local.get	7
	return
	end_function
.Ltmp299:
.Lfunc_end126:
                                        # -- End function
	.section	.text._ZNSt3__222__compressed_pair_elemIRNS_9allocatorINS_6threadEEELi1ELb0EEC2B8ne190106IS4_TnNS_9enable_ifIXntsr7is_sameIS5_u7__decayIT_EEE5valueEiE4typeELi0EEEOS8_,"G",@,_ZNSt3__222__compressed_pair_elemIRNS_9allocatorINS_6threadEEELi1ELb0EEC2B8ne190106IS4_TnNS_9enable_ifIXntsr7is_sameIS5_u7__decayIT_EEE5valueEiE4typeELi0EEEOS8_,comdat
	.hidden	_ZNSt3__222__compressed_pair_elemIRNS_9allocatorINS_6threadEEELi1ELb0EEC2B8ne190106IS4_TnNS_9enable_ifIXntsr7is_sameIS5_u7__decayIT_EEE5valueEiE4typeELi0EEEOS8_ # -- Begin function _ZNSt3__222__compressed_pair_elemIRNS_9allocatorINS_6threadEEELi1ELb0EEC2B8ne190106IS4_TnNS_9enable_ifIXntsr7is_sameIS5_u7__decayIT_EEE5valueEiE4typeELi0EEEOS8_
	.weak	_ZNSt3__222__compressed_pair_elemIRNS_9allocatorINS_6threadEEELi1ELb0EEC2B8ne190106IS4_TnNS_9enable_ifIXntsr7is_sameIS5_u7__decayIT_EEE5valueEiE4typeELi0EEEOS8_
	.type	_ZNSt3__222__compressed_pair_elemIRNS_9allocatorINS_6threadEEELi1ELb0EEC2B8ne190106IS4_TnNS_9enable_ifIXntsr7is_sameIS5_u7__decayIT_EEE5valueEiE4typeELi0EEEOS8_,@function
_ZNSt3__222__compressed_pair_elemIRNS_9allocatorINS_6threadEEELi1ELb0EEC2B8ne190106IS4_TnNS_9enable_ifIXntsr7is_sameIS5_u7__decayIT_EEE5valueEiE4typeELi0EEEOS8_: # @_ZNSt3__222__compressed_pair_elemIRNS_9allocatorINS_6threadEEELi1ELb0EEC2B8ne190106IS4_TnNS_9enable_ifIXntsr7is_sameIS5_u7__decayIT_EEE5valueEiE4typeELi0EEEOS8_
.Lfunc_begin127:
	.loc	15 53 0 is_stmt 1               # emscripten/cache/sysroot/include/c++/v1/__memory/compressed_pair.h:53:0
	.functype	_ZNSt3__222__compressed_pair_elemIRNS_9allocatorINS_6threadEEELi1ELb0EEC2B8ne190106IS4_TnNS_9enable_ifIXntsr7is_sameIS5_u7__decayIT_EEE5valueEiE4typeELi0EEEOS8_ (i32, i32) -> (i32)
	.local  	i32, i32, i32, i32, i32
# %bb.0:                                # %entry
	global.get	__stack_pointer
	local.set	2
	i32.const	16
	local.set	3
	local.get	2
	local.get	3
	i32.sub 
	local.set	4
	local.get	4
	local.get	0
	i32.store	12
	local.get	4
	local.get	1
	i32.store	8
	local.get	4
	i32.load	12
	local.set	5
.Ltmp300:
	.loc	15 53 36 prologue_end           # emscripten/cache/sysroot/include/c++/v1/__memory/compressed_pair.h:53:36
	local.get	4
	i32.load	8
	local.set	6
	.loc	15 53 9 is_stmt 0               # emscripten/cache/sysroot/include/c++/v1/__memory/compressed_pair.h:53:9
	local.get	5
	local.get	6
	i32.store	0
	.loc	15 53 43                        # emscripten/cache/sysroot/include/c++/v1/__memory/compressed_pair.h:53:43
	local.get	5
	return
	end_function
.Ltmp301:
.Lfunc_end127:
                                        # -- End function
	.section	.text._ZNSt3__29allocatorINS_6threadEE8allocateB8ne190106Em,"G",@,_ZNSt3__29allocatorINS_6threadEE8allocateB8ne190106Em,comdat
	.hidden	_ZNSt3__29allocatorINS_6threadEE8allocateB8ne190106Em # -- Begin function _ZNSt3__29allocatorINS_6threadEE8allocateB8ne190106Em
	.weak	_ZNSt3__29allocatorINS_6threadEE8allocateB8ne190106Em
	.type	_ZNSt3__29allocatorINS_6threadEE8allocateB8ne190106Em,@function
_ZNSt3__29allocatorINS_6threadEE8allocateB8ne190106Em: # @_ZNSt3__29allocatorINS_6threadEE8allocateB8ne190106Em
.Lfunc_begin128:
	.loc	13 112 0 is_stmt 1              # emscripten/cache/sysroot/include/c++/v1/__memory/allocator.h:112:0
	.functype	_ZNSt3__29allocatorINS_6threadEE8allocateB8ne190106Em (i32, i32) -> (i32)
	.local  	i32, i32, i32, i32, i32, i32, i32, i32, i32, i32, i32, i32, i32, i32, i32, i32
# %bb.0:                                # %entry
	global.get	__stack_pointer
	local.set	2
	i32.const	16
	local.set	3
	local.get	2
	local.get	3
	i32.sub 
	local.set	4
	local.get	4
	global.set	__stack_pointer
	local.get	4
	local.get	0
	i32.store	12
	local.get	4
	local.get	1
	i32.store	8
	local.get	4
	i32.load	12
	local.set	5
.Ltmp302:
	.loc	13 113 9 prologue_end           # emscripten/cache/sysroot/include/c++/v1/__memory/allocator.h:113:9
	local.get	4
	i32.load	8
	local.set	6
	.loc	13 113 15 is_stmt 0             # emscripten/cache/sysroot/include/c++/v1/__memory/allocator.h:113:15
	local.get	5
	call	_ZNSt3__216allocator_traitsINS_9allocatorINS_6threadEEEE8max_sizeB8ne190106IS3_TnNS_9enable_ifIXsr14__has_max_sizeIKT_EE5valueEiE4typeELi0EEEmRKS3_
	local.set	7
	.loc	13 113 13                       # emscripten/cache/sysroot/include/c++/v1/__memory/allocator.h:113:13
	local.get	6
	local.get	7
	i32.gt_u
	local.set	8
	i32.const	1
	local.set	9
	local.get	8
	local.get	9
	i32.and 
	local.set	10
	block   	
	local.get	10
	i32.eqz
	br_if   	0                               # 0: down to label31
# %bb.1:                                # %if.then
	.loc	13 114 7 is_stmt 1              # emscripten/cache/sysroot/include/c++/v1/__memory/allocator.h:114:7
	call	_ZSt28__throw_bad_array_new_lengthB8ne190106v
	unreachable
.Ltmp303:
.LBB128_2:                              # %if.end
	.loc	13 0 7 is_stmt 0                # emscripten/cache/sysroot/include/c++/v1/__memory/allocator.h:0:7
	end_block                               # label31:
.Ltmp304:
	.loc	13 118 55 is_stmt 1             # emscripten/cache/sysroot/include/c++/v1/__memory/allocator.h:118:55
	local.get	4
	i32.load	8
	local.set	11
	.loc	13 118 59 is_stmt 0             # emscripten/cache/sysroot/include/c++/v1/__memory/allocator.h:118:59
	i32.const	2
	local.set	12
	local.get	11
	local.get	12
	i32.shl 
	local.set	13
	.loc	13 118 32                       # emscripten/cache/sysroot/include/c++/v1/__memory/allocator.h:118:32
	i32.const	4
	local.set	14
	local.get	13
	local.get	14
	call	_ZNSt3__217__libcpp_allocateB8ne190106Emm
	local.set	15
	.loc	13 118 7                        # emscripten/cache/sysroot/include/c++/v1/__memory/allocator.h:118:7
	i32.const	16
	local.set	16
	local.get	4
	local.get	16
	i32.add 
	local.set	17
	local.get	17
	global.set	__stack_pointer
	local.get	15
	return
	end_function
.Ltmp305:
.Lfunc_end128:
                                        # -- End function
	.section	.text._ZSt28__throw_bad_array_new_lengthB8ne190106v,"G",@,_ZSt28__throw_bad_array_new_lengthB8ne190106v,comdat
	.hidden	_ZSt28__throw_bad_array_new_lengthB8ne190106v # -- Begin function _ZSt28__throw_bad_array_new_lengthB8ne190106v
	.weak	_ZSt28__throw_bad_array_new_lengthB8ne190106v
	.type	_ZSt28__throw_bad_array_new_lengthB8ne190106v,@function
_ZSt28__throw_bad_array_new_lengthB8ne190106v: # @_ZSt28__throw_bad_array_new_lengthB8ne190106v
.Lfunc_begin129:
	.functype	_ZSt28__throw_bad_array_new_lengthB8ne190106v () -> ()
	.local  	i32, i32, i32, i32
# %bb.0:                                # %entry
	.loc	9 173 3 prologue_end is_stmt 1  # emscripten/cache/sysroot/include/c++/v1/new:173:3
	i32.const	4
	local.set	0
	local.get	0
	call	__cxa_allocate_exception
	local.set	1
	.loc	9 173 9 is_stmt 0               # emscripten/cache/sysroot/include/c++/v1/new:173:9
	local.get	1
	call	_ZNSt20bad_array_new_lengthC1Ev
	drop
	.loc	9 173 3                         # emscripten/cache/sysroot/include/c++/v1/new:173:3
	i32.const	_ZTISt20bad_array_new_length
	local.set	2
	i32.const	_ZNSt20bad_array_new_lengthD1Ev
	local.set	3
	local.get	1
	local.get	2
	local.get	3
	call	__cxa_throw
	unreachable
	end_function
.Ltmp306:
.Lfunc_end129:
                                        # -- End function
	.section	.text._ZNSt3__217__libcpp_allocateB8ne190106Emm,"G",@,_ZNSt3__217__libcpp_allocateB8ne190106Emm,comdat
	.hidden	_ZNSt3__217__libcpp_allocateB8ne190106Emm # -- Begin function _ZNSt3__217__libcpp_allocateB8ne190106Emm
	.weak	_ZNSt3__217__libcpp_allocateB8ne190106Emm
	.type	_ZNSt3__217__libcpp_allocateB8ne190106Emm,@function
_ZNSt3__217__libcpp_allocateB8ne190106Emm: # @_ZNSt3__217__libcpp_allocateB8ne190106Emm
.Lfunc_begin130:
	.loc	9 280 0 is_stmt 1               # emscripten/cache/sysroot/include/c++/v1/new:280:0
	.functype	_ZNSt3__217__libcpp_allocateB8ne190106Emm (i32, i32) -> (i32)
	.local  	i32, i32, i32, i32, i32, i32, i32, i32, i32, i32, i32, i32, i32, i32, i32, i32
# %bb.0:                                # %entry
	global.get	__stack_pointer
	local.set	2
	i32.const	16
	local.set	3
	local.get	2
	local.get	3
	i32.sub 
	local.set	4
	local.get	4
	global.set	__stack_pointer
	local.get	4
	local.get	0
	i32.store	8
	local.get	4
	local.get	1
	i32.store	4
.Ltmp307:
	.loc	9 282 32 prologue_end           # emscripten/cache/sysroot/include/c++/v1/new:282:32
	local.get	4
	i32.load	4
	local.set	5
	.loc	9 282 7 is_stmt 0               # emscripten/cache/sysroot/include/c++/v1/new:282:7
	local.get	5
	call	_ZNSt3__224__is_overaligned_for_newB8ne190106Em
	local.set	6
	i32.const	1
	local.set	7
	local.get	6
	local.get	7
	i32.and 
	local.set	8
	block   	
	block   	
	local.get	8
	i32.eqz
	br_if   	0                               # 0: down to label33
# %bb.1:                                # %if.then
.Ltmp308:
	.loc	9 283 62 is_stmt 1              # emscripten/cache/sysroot/include/c++/v1/new:283:62
	local.get	4
	i32.load	4
	local.set	9
	.loc	9 283 23 is_stmt 0              # emscripten/cache/sysroot/include/c++/v1/new:283:23
	local.get	4
	local.get	9
	i32.store	0
	.loc	9 284 34 is_stmt 1              # emscripten/cache/sysroot/include/c++/v1/new:284:34
	local.get	4
	i32.load	8
	local.set	10
	.loc	9 284 42 is_stmt 0              # emscripten/cache/sysroot/include/c++/v1/new:284:42
	local.get	4
	i32.load	0
	local.set	11
	.loc	9 284 12                        # emscripten/cache/sysroot/include/c++/v1/new:284:12
	local.get	10
	local.get	11
	call	_ZNSt3__221__libcpp_operator_newB8ne190106IJmSt11align_val_tEEEPvDpT_
	local.set	12
	.loc	9 284 5                         # emscripten/cache/sysroot/include/c++/v1/new:284:5
	local.get	4
	local.get	12
	i32.store	12
	br      	1                               # 1: down to label32
.Ltmp309:
.LBB130_2:                              # %if.end
	.loc	9 0 5                           # emscripten/cache/sysroot/include/c++/v1/new:0:5
	end_block                               # label33:
	.loc	9 289 32 is_stmt 1              # emscripten/cache/sysroot/include/c++/v1/new:289:32
	local.get	4
	i32.load	8
	local.set	13
	.loc	9 289 10 is_stmt 0              # emscripten/cache/sysroot/include/c++/v1/new:289:10
	local.get	13
	call	_ZNSt3__221__libcpp_operator_newB8ne190106IJmEEEPvDpT_
	local.set	14
	.loc	9 289 3                         # emscripten/cache/sysroot/include/c++/v1/new:289:3
	local.get	4
	local.get	14
	i32.store	12
.LBB130_3:                              # %return
	.loc	9 0 3                           # emscripten/cache/sysroot/include/c++/v1/new:0:3
	end_block                               # label32:
	.loc	9 290 1 is_stmt 1               # emscripten/cache/sysroot/include/c++/v1/new:290:1
	local.get	4
	i32.load	12
	local.set	15
	i32.const	16
	local.set	16
	local.get	4
	local.get	16
	i32.add 
	local.set	17
	local.get	17
	global.set	__stack_pointer
	local.get	15
	return
	end_function
.Ltmp310:
.Lfunc_end130:
                                        # -- End function
	.section	.text._ZNSt3__221__libcpp_operator_newB8ne190106IJmSt11align_val_tEEEPvDpT_,"G",@,_ZNSt3__221__libcpp_operator_newB8ne190106IJmSt11align_val_tEEEPvDpT_,comdat
	.hidden	_ZNSt3__221__libcpp_operator_newB8ne190106IJmSt11align_val_tEEEPvDpT_ # -- Begin function _ZNSt3__221__libcpp_operator_newB8ne190106IJmSt11align_val_tEEEPvDpT_
	.weak	_ZNSt3__221__libcpp_operator_newB8ne190106IJmSt11align_val_tEEEPvDpT_
	.type	_ZNSt3__221__libcpp_operator_newB8ne190106IJmSt11align_val_tEEEPvDpT_,@function
_ZNSt3__221__libcpp_operator_newB8ne190106IJmSt11align_val_tEEEPvDpT_: # @_ZNSt3__221__libcpp_operator_newB8ne190106IJmSt11align_val_tEEEPvDpT_
.Lfunc_begin131:
	.loc	9 263 0                         # emscripten/cache/sysroot/include/c++/v1/new:263:0
	.functype	_ZNSt3__221__libcpp_operator_newB8ne190106IJmSt11align_val_tEEEPvDpT_ (i32, i32) -> (i32)
	.local  	i32, i32, i32, i32, i32, i32, i32, i32
# %bb.0:                                # %entry
	global.get	__stack_pointer
	local.set	2
	i32.const	16
	local.set	3
	local.get	2
	local.get	3
	i32.sub 
	local.set	4
	local.get	4
	global.set	__stack_pointer
	local.get	4
	local.get	0
	i32.store	12
	local.get	4
	local.get	1
	i32.store	8
.Ltmp311:
	.loc	9 265 33 prologue_end           # emscripten/cache/sysroot/include/c++/v1/new:265:33
	local.get	4
	i32.load	12
	local.set	5
	local.get	4
	i32.load	8
	local.set	6
	.loc	9 265 10 is_stmt 0              # emscripten/cache/sysroot/include/c++/v1/new:265:10
	local.get	5
	local.get	6
	call	_ZnwmSt11align_val_t
	local.set	7
	.loc	9 265 3                         # emscripten/cache/sysroot/include/c++/v1/new:265:3
	i32.const	16
	local.set	8
	local.get	4
	local.get	8
	i32.add 
	local.set	9
	local.get	9
	global.set	__stack_pointer
	local.get	7
	return
	end_function
.Ltmp312:
.Lfunc_end131:
                                        # -- End function
	.section	.text._ZNSt3__221__libcpp_operator_newB8ne190106IJmEEEPvDpT_,"G",@,_ZNSt3__221__libcpp_operator_newB8ne190106IJmEEEPvDpT_,comdat
	.hidden	_ZNSt3__221__libcpp_operator_newB8ne190106IJmEEEPvDpT_ # -- Begin function _ZNSt3__221__libcpp_operator_newB8ne190106IJmEEEPvDpT_
	.weak	_ZNSt3__221__libcpp_operator_newB8ne190106IJmEEEPvDpT_
	.type	_ZNSt3__221__libcpp_operator_newB8ne190106IJmEEEPvDpT_,@function
_ZNSt3__221__libcpp_operator_newB8ne190106IJmEEEPvDpT_: # @_ZNSt3__221__libcpp_operator_newB8ne190106IJmEEEPvDpT_
.Lfunc_begin132:
	.loc	9 263 0 is_stmt 1               # emscripten/cache/sysroot/include/c++/v1/new:263:0
	.functype	_ZNSt3__221__libcpp_operator_newB8ne190106IJmEEEPvDpT_ (i32) -> (i32)
	.local  	i32, i32, i32, i32, i32, i32, i32
# %bb.0:                                # %entry
	global.get	__stack_pointer
	local.set	1
	i32.const	16
	local.set	2
	local.get	1
	local.get	2
	i32.sub 
	local.set	3
	local.get	3
	global.set	__stack_pointer
	local.get	3
	local.get	0
	i32.store	12
.Ltmp313:
	.loc	9 265 33 prologue_end           # emscripten/cache/sysroot/include/c++/v1/new:265:33
	local.get	3
	i32.load	12
	local.set	4
	.loc	9 265 10 is_stmt 0              # emscripten/cache/sysroot/include/c++/v1/new:265:10
	local.get	4
	call	_Znwm
	local.set	5
	.loc	9 265 3                         # emscripten/cache/sysroot/include/c++/v1/new:265:3
	i32.const	16
	local.set	6
	local.get	3
	local.get	6
	i32.add 
	local.set	7
	local.get	7
	global.set	__stack_pointer
	local.get	5
	return
	end_function
.Ltmp314:
.Lfunc_end132:
                                        # -- End function
	.section	.text._ZNSt3__217__compressed_pairIPNS_6threadERNS_9allocatorIS1_EEE6secondB8ne190106Ev,"G",@,_ZNSt3__217__compressed_pairIPNS_6threadERNS_9allocatorIS1_EEE6secondB8ne190106Ev,comdat
	.hidden	_ZNSt3__217__compressed_pairIPNS_6threadERNS_9allocatorIS1_EEE6secondB8ne190106Ev # -- Begin function _ZNSt3__217__compressed_pairIPNS_6threadERNS_9allocatorIS1_EEE6secondB8ne190106Ev
	.weak	_ZNSt3__217__compressed_pairIPNS_6threadERNS_9allocatorIS1_EEE6secondB8ne190106Ev
	.type	_ZNSt3__217__compressed_pairIPNS_6threadERNS_9allocatorIS1_EEE6secondB8ne190106Ev,@function
_ZNSt3__217__compressed_pairIPNS_6threadERNS_9allocatorIS1_EEE6secondB8ne190106Ev: # @_ZNSt3__217__compressed_pairIPNS_6threadERNS_9allocatorIS1_EEE6secondB8ne190106Ev
.Lfunc_begin133:
	.loc	15 137 0 is_stmt 1              # emscripten/cache/sysroot/include/c++/v1/__memory/compressed_pair.h:137:0
	.functype	_ZNSt3__217__compressed_pairIPNS_6threadERNS_9allocatorIS1_EEE6secondB8ne190106Ev (i32) -> (i32)
	.local  	i32, i32, i32, i32, i32, i32, i32, i32, i32
# %bb.0:                                # %entry
	global.get	__stack_pointer
	local.set	1
	i32.const	16
	local.set	2
	local.get	1
	local.get	2
	i32.sub 
	local.set	3
	local.get	3
	global.set	__stack_pointer
	local.get	3
	local.get	0
	i32.store	12
	local.get	3
	i32.load	12
	local.set	4
.Ltmp315:
	.loc	15 138 33 prologue_end          # emscripten/cache/sysroot/include/c++/v1/__memory/compressed_pair.h:138:33
	i32.const	4
	local.set	5
	local.get	4
	local.get	5
	i32.add 
	local.set	6
	.loc	15 138 40 is_stmt 0             # emscripten/cache/sysroot/include/c++/v1/__memory/compressed_pair.h:138:40
	local.get	6
	call	_ZNSt3__222__compressed_pair_elemIRNS_9allocatorINS_6threadEEELi1ELb0EE5__getB8ne190106Ev
	local.set	7
	.loc	15 138 5                        # emscripten/cache/sysroot/include/c++/v1/__memory/compressed_pair.h:138:5
	i32.const	16
	local.set	8
	local.get	3
	local.get	8
	i32.add 
	local.set	9
	local.get	9
	global.set	__stack_pointer
	local.get	7
	return
	end_function
.Ltmp316:
.Lfunc_end133:
                                        # -- End function
	.section	.text._ZNSt3__222__compressed_pair_elemIRNS_9allocatorINS_6threadEEELi1ELb0EE5__getB8ne190106Ev,"G",@,_ZNSt3__222__compressed_pair_elemIRNS_9allocatorINS_6threadEEELi1ELb0EE5__getB8ne190106Ev,comdat
	.hidden	_ZNSt3__222__compressed_pair_elemIRNS_9allocatorINS_6threadEEELi1ELb0EE5__getB8ne190106Ev # -- Begin function _ZNSt3__222__compressed_pair_elemIRNS_9allocatorINS_6threadEEELi1ELb0EE5__getB8ne190106Ev
	.weak	_ZNSt3__222__compressed_pair_elemIRNS_9allocatorINS_6threadEEELi1ELb0EE5__getB8ne190106Ev
	.type	_ZNSt3__222__compressed_pair_elemIRNS_9allocatorINS_6threadEEELi1ELb0EE5__getB8ne190106Ev,@function
_ZNSt3__222__compressed_pair_elemIRNS_9allocatorINS_6threadEEELi1ELb0EE5__getB8ne190106Ev: # @_ZNSt3__222__compressed_pair_elemIRNS_9allocatorINS_6threadEEELi1ELb0EE5__getB8ne190106Ev
.Lfunc_begin134:
	.loc	15 62 0 is_stmt 1               # emscripten/cache/sysroot/include/c++/v1/__memory/compressed_pair.h:62:0
	.functype	_ZNSt3__222__compressed_pair_elemIRNS_9allocatorINS_6threadEEELi1ELb0EE5__getB8ne190106Ev (i32) -> (i32)
	.local  	i32, i32, i32, i32, i32
# %bb.0:                                # %entry
	global.get	__stack_pointer
	local.set	1
	i32.const	16
	local.set	2
	local.get	1
	local.get	2
	i32.sub 
	local.set	3
	local.get	3
	local.get	0
	i32.store	12
	local.get	3
	i32.load	12
	local.set	4
.Ltmp317:
	.loc	15 62 92 prologue_end           # emscripten/cache/sysroot/include/c++/v1/__memory/compressed_pair.h:62:92
	local.get	4
	i32.load	0
	local.set	5
	.loc	15 62 85 is_stmt 0              # emscripten/cache/sysroot/include/c++/v1/__memory/compressed_pair.h:62:85
	local.get	5
	return
	end_function
.Ltmp318:
.Lfunc_end134:
                                        # -- End function
	.section	.text._ZNSt3__217__compressed_pairIPNS_6threadERNS_9allocatorIS1_EEE5firstB8ne190106Ev,"G",@,_ZNSt3__217__compressed_pairIPNS_6threadERNS_9allocatorIS1_EEE5firstB8ne190106Ev,comdat
	.hidden	_ZNSt3__217__compressed_pairIPNS_6threadERNS_9allocatorIS1_EEE5firstB8ne190106Ev # -- Begin function _ZNSt3__217__compressed_pairIPNS_6threadERNS_9allocatorIS1_EEE5firstB8ne190106Ev
	.weak	_ZNSt3__217__compressed_pairIPNS_6threadERNS_9allocatorIS1_EEE5firstB8ne190106Ev
	.type	_ZNSt3__217__compressed_pairIPNS_6threadERNS_9allocatorIS1_EEE5firstB8ne190106Ev,@function
_ZNSt3__217__compressed_pairIPNS_6threadERNS_9allocatorIS1_EEE5firstB8ne190106Ev: # @_ZNSt3__217__compressed_pairIPNS_6threadERNS_9allocatorIS1_EEE5firstB8ne190106Ev
.Lfunc_begin135:
	.loc	15 129 0 is_stmt 1              # emscripten/cache/sysroot/include/c++/v1/__memory/compressed_pair.h:129:0
	.functype	_ZNSt3__217__compressed_pairIPNS_6threadERNS_9allocatorIS1_EEE5firstB8ne190106Ev (i32) -> (i32)
	.local  	i32, i32, i32, i32, i32, i32, i32
# %bb.0:                                # %entry
	global.get	__stack_pointer
	local.set	1
	i32.const	16
	local.set	2
	local.get	1
	local.get	2
	i32.sub 
	local.set	3
	local.get	3
	global.set	__stack_pointer
	local.get	3
	local.get	0
	i32.store	12
	local.get	3
	i32.load	12
	local.set	4
.Ltmp319:
	.loc	15 130 40 prologue_end          # emscripten/cache/sysroot/include/c++/v1/__memory/compressed_pair.h:130:40
	local.get	4
	call	_ZNSt3__222__compressed_pair_elemIPNS_6threadELi0ELb0EE5__getB8ne190106Ev
	local.set	5
	.loc	15 130 5 is_stmt 0              # emscripten/cache/sysroot/include/c++/v1/__memory/compressed_pair.h:130:5
	i32.const	16
	local.set	6
	local.get	3
	local.get	6
	i32.add 
	local.set	7
	local.get	7
	global.set	__stack_pointer
	local.get	5
	return
	end_function
.Ltmp320:
.Lfunc_end135:
                                        # -- End function
	.section	.text._ZNSt3__234__uninitialized_allocator_relocateB8ne190106INS_9allocatorINS_6threadEEES2_EEvRT_PT0_S7_S7_,"G",@,_ZNSt3__234__uninitialized_allocator_relocateB8ne190106INS_9allocatorINS_6threadEEES2_EEvRT_PT0_S7_S7_,comdat
	.hidden	_ZNSt3__234__uninitialized_allocator_relocateB8ne190106INS_9allocatorINS_6threadEEES2_EEvRT_PT0_S7_S7_ # -- Begin function _ZNSt3__234__uninitialized_allocator_relocateB8ne190106INS_9allocatorINS_6threadEEES2_EEvRT_PT0_S7_S7_
	.weak	_ZNSt3__234__uninitialized_allocator_relocateB8ne190106INS_9allocatorINS_6threadEEES2_EEvRT_PT0_S7_S7_
	.type	_ZNSt3__234__uninitialized_allocator_relocateB8ne190106INS_9allocatorINS_6threadEEES2_EEvRT_PT0_S7_S7_,@function
_ZNSt3__234__uninitialized_allocator_relocateB8ne190106INS_9allocatorINS_6threadEEES2_EEvRT_PT0_S7_S7_: # @_ZNSt3__234__uninitialized_allocator_relocateB8ne190106INS_9allocatorINS_6threadEEES2_EEvRT_PT0_S7_S7_
.Lfunc_begin136:
	.loc	28 623 0 is_stmt 1              # emscripten/cache/sysroot/include/c++/v1/__memory/uninitialized_algorithms.h:623:0
	.functype	_ZNSt3__234__uninitialized_allocator_relocateB8ne190106INS_9allocatorINS_6threadEEES2_EEvRT_PT0_S7_S7_ (i32, i32, i32, i32) -> ()
	.local  	i32, i32, i32, i32, i32, i32, i32, i32, i32, i32, i32, i32, i32, i32, i32, i32, i32, i32, i32, i32, i32, i32, i64, i32, i32, i32, i32, i32, i32, i32, i32, i32, i32, i32, i32, i32, i32, i32, i32, i32, i32, i32, i32, i32, i32, i32, i32, i32, i32, i32, i32
# %bb.0:                                # %entry
	global.get	__stack_pointer
	local.set	4
	i32.const	64
	local.set	5
	local.get	4
	local.get	5
	i32.sub 
	local.set	6
	local.get	6
	global.set	__stack_pointer
	local.get	6
	local.get	0
	i32.store	60
	local.get	6
	local.get	1
	i32.store	56
	local.get	6
	local.get	2
	i32.store	52
	local.get	6
	local.get	3
	i32.store	48
.Ltmp321:
	.loc	28 629 29 prologue_end          # emscripten/cache/sysroot/include/c++/v1/__memory/uninitialized_algorithms.h:629:29
	local.get	6
	i32.load	48
	local.set	7
	.loc	28 629 10 is_stmt 0             # emscripten/cache/sysroot/include/c++/v1/__memory/uninitialized_algorithms.h:629:10
	local.get	6
	local.get	7
	i32.store	44
	.loc	28 631 81 is_stmt 1             # emscripten/cache/sysroot/include/c++/v1/__memory/uninitialized_algorithms.h:631:81
	local.get	6
	i32.load	60
	local.set	8
	.loc	28 631 37 is_stmt 0             # emscripten/cache/sysroot/include/c++/v1/__memory/uninitialized_algorithms.h:631:37
	i32.const	16
	local.set	9
	local.get	6
	local.get	9
	i32.add 
	local.set	10
	local.get	10
	local.set	11
	i32.const	44
	local.set	12
	local.get	6
	local.get	12
	i32.add 
	local.set	13
	local.get	13
	local.set	14
	i32.const	48
	local.set	15
	local.get	6
	local.get	15
	i32.add 
	local.set	16
	local.get	16
	local.set	17
	local.get	11
	local.get	8
	local.get	14
	local.get	17
	call	_ZNSt3__229_AllocatorDestroyRangeReverseINS_9allocatorINS_6threadEEEPS2_EC2B8ne190106ERS3_RS4_S7_
	drop
	.loc	28 631 9                        # emscripten/cache/sysroot/include/c++/v1/__memory/uninitialized_algorithms.h:631:9
	i32.const	28
	local.set	18
	local.get	6
	local.get	18
	i32.add 
	local.set	19
	local.get	19
	drop
	i32.const	8
	local.set	20
	local.get	6
	local.get	20
	i32.add 
	local.set	21
	i32.const	16
	local.set	22
	local.get	6
	local.get	22
	i32.add 
	local.set	23
	local.get	23
	local.get	20
	i32.add 
	local.set	24
	local.get	24
	i32.load	0
	local.set	25
	local.get	21
	local.get	25
	i32.store	0
	local.get	6
	i64.load	16:p2align=2
	local.set	26
	local.get	6
	local.get	26
	i64.store	0
	i32.const	28
	local.set	27
	local.get	6
	local.get	27
	i32.add 
	local.set	28
	local.get	28
	local.get	6
	call	_ZNSt3__222__make_exception_guardB8ne190106INS_29_AllocatorDestroyRangeReverseINS_9allocatorINS_6threadEEEPS3_EEEENS_28__exception_guard_exceptionsIT_EES8_
	.loc	28 632 19 is_stmt 1             # emscripten/cache/sysroot/include/c++/v1/__memory/uninitialized_algorithms.h:632:19
	local.get	6
	i32.load	56
	local.set	29
	.loc	28 632 10 is_stmt 0             # emscripten/cache/sysroot/include/c++/v1/__memory/uninitialized_algorithms.h:632:10
	local.get	6
	local.get	29
	i32.store	12
.LBB136_1:                              # %while.cond
                                        # =>This Inner Loop Header: Depth=1
	.loc	28 633 12 is_stmt 1             # emscripten/cache/sysroot/include/c++/v1/__memory/uninitialized_algorithms.h:633:12
	block   	
	loop    	                                # label35:
	local.get	6
	i32.load	12
	local.set	30
	.loc	28 633 22 is_stmt 0             # emscripten/cache/sysroot/include/c++/v1/__memory/uninitialized_algorithms.h:633:22
	local.get	6
	i32.load	52
	local.set	31
	.loc	28 633 19                       # emscripten/cache/sysroot/include/c++/v1/__memory/uninitialized_algorithms.h:633:19
	local.get	30
	local.get	31
	i32.ne  
	local.set	32
	.loc	28 633 5                        # emscripten/cache/sysroot/include/c++/v1/__memory/uninitialized_algorithms.h:633:5
	i32.const	1
	local.set	33
	local.get	32
	local.get	33
	i32.and 
	local.set	34
	local.get	34
	i32.eqz
	br_if   	1                               # 1: down to label34
# %bb.2:                                # %while.body
                                        #   in Loop: Header=BB136_1 Depth=1
.Ltmp322:
	.loc	28 635 43 is_stmt 1             # emscripten/cache/sysroot/include/c++/v1/__memory/uninitialized_algorithms.h:635:43
	local.get	6
	i32.load	60
	local.set	35
	.loc	28 635 52 is_stmt 0             # emscripten/cache/sysroot/include/c++/v1/__memory/uninitialized_algorithms.h:635:52
	local.get	6
	i32.load	48
	local.set	36
	.loc	28 635 85                       # emscripten/cache/sysroot/include/c++/v1/__memory/uninitialized_algorithms.h:635:85
	local.get	6
	i32.load	12
	local.set	37
	.loc	28 635 7                        # emscripten/cache/sysroot/include/c++/v1/__memory/uninitialized_algorithms.h:635:7
	local.get	35
	local.get	36
	local.get	37
	call	_ZNSt3__216allocator_traitsINS_9allocatorINS_6threadEEEE9constructB8ne190106IS2_JS2_ETnNS_9enable_ifIXsr15__has_constructIS3_PT_DpT0_EE5valueEiE4typeELi0EEEvRS3_S8_DpOS9_
	.loc	28 639 7 is_stmt 1              # emscripten/cache/sysroot/include/c++/v1/__memory/uninitialized_algorithms.h:639:7
	local.get	6
	i32.load	12
	local.set	38
	i32.const	4
	local.set	39
	local.get	38
	local.get	39
	i32.add 
	local.set	40
	local.get	6
	local.get	40
	i32.store	12
	.loc	28 640 7                        # emscripten/cache/sysroot/include/c++/v1/__memory/uninitialized_algorithms.h:640:7
	local.get	6
	i32.load	48
	local.set	41
	i32.const	4
	local.set	42
	local.get	41
	local.get	42
	i32.add 
	local.set	43
	local.get	6
	local.get	43
	i32.store	48
.Ltmp323:
	.loc	28 633 5                        # emscripten/cache/sysroot/include/c++/v1/__memory/uninitialized_algorithms.h:633:5
	br      	0                               # 0: up to label35
.LBB136_3:                              # %while.end
	end_loop
	end_block                               # label34:
	.loc	28 642 13                       # emscripten/cache/sysroot/include/c++/v1/__memory/uninitialized_algorithms.h:642:13
	i32.const	28
	local.set	44
	local.get	6
	local.get	44
	i32.add 
	local.set	45
	local.get	45
	local.set	46
	local.get	46
	call	_ZNSt3__228__exception_guard_exceptionsINS_29_AllocatorDestroyRangeReverseINS_9allocatorINS_6threadEEEPS3_EEE10__completeB8ne190106Ev
	.loc	28 643 30                       # emscripten/cache/sysroot/include/c++/v1/__memory/uninitialized_algorithms.h:643:30
	local.get	6
	i32.load	60
	local.set	47
	.loc	28 643 39 is_stmt 0             # emscripten/cache/sysroot/include/c++/v1/__memory/uninitialized_algorithms.h:643:39
	local.get	6
	i32.load	56
	local.set	48
	.loc	28 643 48                       # emscripten/cache/sysroot/include/c++/v1/__memory/uninitialized_algorithms.h:643:48
	local.get	6
	i32.load	52
	local.set	49
	.loc	28 643 5                        # emscripten/cache/sysroot/include/c++/v1/__memory/uninitialized_algorithms.h:643:5
	local.get	47
	local.get	48
	local.get	49
	call	_ZNSt3__219__allocator_destroyB8ne190106INS_9allocatorINS_6threadEEEPS2_S4_EEvRT_T0_T1_
.Ltmp324:
	.loc	28 644 3 is_stmt 1              # emscripten/cache/sysroot/include/c++/v1/__memory/uninitialized_algorithms.h:644:3
	i32.const	28
	local.set	50
	local.get	6
	local.get	50
	i32.add 
	local.set	51
	local.get	51
	local.set	52
	local.get	52
	call	_ZNSt3__228__exception_guard_exceptionsINS_29_AllocatorDestroyRangeReverseINS_9allocatorINS_6threadEEEPS3_EEED2B8ne190106Ev
	drop
.Ltmp325:
	.loc	28 647 1                        # emscripten/cache/sysroot/include/c++/v1/__memory/uninitialized_algorithms.h:647:1
	i32.const	64
	local.set	53
	local.get	6
	local.get	53
	i32.add 
	local.set	54
	local.get	54
	global.set	__stack_pointer
	return
	end_function
.Ltmp326:
.Lfunc_end136:
                                        # -- End function
	.section	.text._ZNSt3__24swapB8ne190106IPNS_6threadEEENS_9enable_ifIXaasr21is_move_constructibleIT_EE5valuesr18is_move_assignableIS4_EE5valueEvE4typeERS4_S7_,"G",@,_ZNSt3__24swapB8ne190106IPNS_6threadEEENS_9enable_ifIXaasr21is_move_constructibleIT_EE5valuesr18is_move_assignableIS4_EE5valueEvE4typeERS4_S7_,comdat
	.hidden	_ZNSt3__24swapB8ne190106IPNS_6threadEEENS_9enable_ifIXaasr21is_move_constructibleIT_EE5valuesr18is_move_assignableIS4_EE5valueEvE4typeERS4_S7_ # -- Begin function _ZNSt3__24swapB8ne190106IPNS_6threadEEENS_9enable_ifIXaasr21is_move_constructibleIT_EE5valuesr18is_move_assignableIS4_EE5valueEvE4typeERS4_S7_
	.weak	_ZNSt3__24swapB8ne190106IPNS_6threadEEENS_9enable_ifIXaasr21is_move_constructibleIT_EE5valuesr18is_move_assignableIS4_EE5valueEvE4typeERS4_S7_
	.type	_ZNSt3__24swapB8ne190106IPNS_6threadEEENS_9enable_ifIXaasr21is_move_constructibleIT_EE5valuesr18is_move_assignableIS4_EE5valueEvE4typeERS4_S7_,@function
_ZNSt3__24swapB8ne190106IPNS_6threadEEENS_9enable_ifIXaasr21is_move_constructibleIT_EE5valuesr18is_move_assignableIS4_EE5valueEvE4typeERS4_S7_: # @_ZNSt3__24swapB8ne190106IPNS_6threadEEENS_9enable_ifIXaasr21is_move_constructibleIT_EE5valuesr18is_move_assignableIS4_EE5valueEvE4typeERS4_S7_
.Lfunc_begin137:
	.file	40 "/home/kay/Documents/Code/toolchain-wasm" "emscripten/cache/sysroot/include/c++/v1/__utility/swap.h"
	.loc	40 41 0                         # emscripten/cache/sysroot/include/c++/v1/__utility/swap.h:41:0
	.functype	_ZNSt3__24swapB8ne190106IPNS_6threadEEENS_9enable_ifIXaasr21is_move_constructibleIT_EE5valuesr18is_move_assignableIS4_EE5valueEvE4typeERS4_S7_ (i32, i32) -> ()
	.local  	i32, i32, i32, i32, i32, i32, i32, i32, i32, i32
# %bb.0:                                # %entry
	global.get	__stack_pointer
	local.set	2
	i32.const	16
	local.set	3
	local.get	2
	local.get	3
	i32.sub 
	local.set	4
	local.get	4
	local.get	0
	i32.store	12
	local.get	4
	local.get	1
	i32.store	8
.Ltmp327:
	.loc	40 42 21 prologue_end           # emscripten/cache/sysroot/include/c++/v1/__utility/swap.h:42:21
	local.get	4
	i32.load	12
	local.set	5
	.loc	40 42 11 is_stmt 0              # emscripten/cache/sysroot/include/c++/v1/__utility/swap.h:42:11
	local.get	5
	i32.load	0
	local.set	6
	.loc	40 42 7                         # emscripten/cache/sysroot/include/c++/v1/__utility/swap.h:42:7
	local.get	4
	local.get	6
	i32.store	4
	.loc	40 43 19 is_stmt 1              # emscripten/cache/sysroot/include/c++/v1/__utility/swap.h:43:19
	local.get	4
	i32.load	8
	local.set	7
	.loc	40 43 9 is_stmt 0               # emscripten/cache/sysroot/include/c++/v1/__utility/swap.h:43:9
	local.get	7
	i32.load	0
	local.set	8
	.loc	40 43 3                         # emscripten/cache/sysroot/include/c++/v1/__utility/swap.h:43:3
	local.get	4
	i32.load	12
	local.set	9
	.loc	40 43 7                         # emscripten/cache/sysroot/include/c++/v1/__utility/swap.h:43:7
	local.get	9
	local.get	8
	i32.store	0
	.loc	40 44 9 is_stmt 1               # emscripten/cache/sysroot/include/c++/v1/__utility/swap.h:44:9
	local.get	4
	i32.load	4
	local.set	10
	.loc	40 44 3 is_stmt 0               # emscripten/cache/sysroot/include/c++/v1/__utility/swap.h:44:3
	local.get	4
	i32.load	8
	local.set	11
	.loc	40 44 7                         # emscripten/cache/sysroot/include/c++/v1/__utility/swap.h:44:7
	local.get	11
	local.get	10
	i32.store	0
	.loc	40 45 1 is_stmt 1               # emscripten/cache/sysroot/include/c++/v1/__utility/swap.h:45:1
	return
	end_function
.Ltmp328:
.Lfunc_end137:
                                        # -- End function
	.section	.text._ZNKSt3__26vectorINS_6threadENS_9allocatorIS1_EEE14__annotate_newB8ne190106Em,"G",@,_ZNKSt3__26vectorINS_6threadENS_9allocatorIS1_EEE14__annotate_newB8ne190106Em,comdat
	.hidden	_ZNKSt3__26vectorINS_6threadENS_9allocatorIS1_EEE14__annotate_newB8ne190106Em # -- Begin function _ZNKSt3__26vectorINS_6threadENS_9allocatorIS1_EEE14__annotate_newB8ne190106Em
	.weak	_ZNKSt3__26vectorINS_6threadENS_9allocatorIS1_EEE14__annotate_newB8ne190106Em
	.type	_ZNKSt3__26vectorINS_6threadENS_9allocatorIS1_EEE14__annotate_newB8ne190106Em,@function
_ZNKSt3__26vectorINS_6threadENS_9allocatorIS1_EEE14__annotate_newB8ne190106Em: # @_ZNKSt3__26vectorINS_6threadENS_9allocatorIS1_EEE14__annotate_newB8ne190106Em
.Lfunc_begin138:
	.loc	7 906 0                         # emscripten/cache/sysroot/include/c++/v1/vector:906:0
	.functype	_ZNKSt3__26vectorINS_6threadENS_9allocatorIS1_EEE14__annotate_newB8ne190106Em (i32, i32) -> ()
	.local  	i32, i32, i32
# %bb.0:                                # %entry
	global.get	__stack_pointer
	local.set	2
	i32.const	16
	local.set	3
	local.get	2
	local.get	3
	i32.sub 
	local.set	4
	local.get	4
	local.get	0
	i32.store	12
	local.get	4
	local.get	1
	i32.store	8
.Ltmp329:
	.loc	7 911 3 prologue_end            # emscripten/cache/sysroot/include/c++/v1/vector:911:3
	return
	end_function
.Ltmp330:
.Lfunc_end138:
                                        # -- End function
	.section	.text._ZNSt3__222__make_exception_guardB8ne190106INS_29_AllocatorDestroyRangeReverseINS_9allocatorINS_6threadEEEPS3_EEEENS_28__exception_guard_exceptionsIT_EES8_,"G",@,_ZNSt3__222__make_exception_guardB8ne190106INS_29_AllocatorDestroyRangeReverseINS_9allocatorINS_6threadEEEPS3_EEEENS_28__exception_guard_exceptionsIT_EES8_,comdat
	.hidden	_ZNSt3__222__make_exception_guardB8ne190106INS_29_AllocatorDestroyRangeReverseINS_9allocatorINS_6threadEEEPS3_EEEENS_28__exception_guard_exceptionsIT_EES8_ # -- Begin function _ZNSt3__222__make_exception_guardB8ne190106INS_29_AllocatorDestroyRangeReverseINS_9allocatorINS_6threadEEEPS3_EEEENS_28__exception_guard_exceptionsIT_EES8_
	.weak	_ZNSt3__222__make_exception_guardB8ne190106INS_29_AllocatorDestroyRangeReverseINS_9allocatorINS_6threadEEEPS3_EEEENS_28__exception_guard_exceptionsIT_EES8_
	.type	_ZNSt3__222__make_exception_guardB8ne190106INS_29_AllocatorDestroyRangeReverseINS_9allocatorINS_6threadEEEPS3_EEEENS_28__exception_guard_exceptionsIT_EES8_,@function
_ZNSt3__222__make_exception_guardB8ne190106INS_29_AllocatorDestroyRangeReverseINS_9allocatorINS_6threadEEEPS3_EEEENS_28__exception_guard_exceptionsIT_EES8_: # @_ZNSt3__222__make_exception_guardB8ne190106INS_29_AllocatorDestroyRangeReverseINS_9allocatorINS_6threadEEEPS3_EEEENS_28__exception_guard_exceptionsIT_EES8_
.Lfunc_begin139:
	.loc	29 136 0                        # emscripten/cache/sysroot/include/c++/v1/__utility/exception_guard.h:136:0
	.functype	_ZNSt3__222__make_exception_guardB8ne190106INS_29_AllocatorDestroyRangeReverseINS_9allocatorINS_6threadEEEPS3_EEEENS_28__exception_guard_exceptionsIT_EES8_ (i32, i32) -> ()
	.local  	i32, i32, i32, i32, i32, i32, i32, i32, i32, i64, i32, i32, i32, i32, i32, i32, i64, i32, i32
# %bb.0:                                # %entry
	global.get	__stack_pointer
	local.set	2
	i32.const	32
	local.set	3
	local.get	2
	local.get	3
	i32.sub 
	local.set	4
	local.get	4
	global.set	__stack_pointer
	#DEBUG_VALUE: __make_exception_guard<std::__2::_AllocatorDestroyRangeReverse<std::__2::allocator<std::__2::thread>, std::__2::thread *> >:__rollback <- !target-index(4,1)
	local.get	4
	local.get	0
	i32.store	28
	i32.const	8
	local.set	5
.Ltmp331:
	.loc	29 137 39 prologue_end          # emscripten/cache/sysroot/include/c++/v1/__utility/exception_guard.h:137:39
	local.get	1
	local.get	5
	i32.add 
	local.set	6
	local.get	6
	i32.load	0
	local.set	7
	i32.const	16
	local.set	8
	local.get	4
	local.get	8
	i32.add 
	local.set	9
	local.get	9
	local.get	5
	i32.add 
	local.set	10
	local.get	10
	local.get	7
	i32.store	0
	local.get	1
	i64.load	0:p2align=2
	local.set	11
	local.get	4
	local.get	11
	i64.store	16
	i32.const	8
	local.set	12
	.loc	29 137 10 is_stmt 0             # emscripten/cache/sysroot/include/c++/v1/__utility/exception_guard.h:137:10
	local.get	4
	local.get	12
	i32.add 
	local.set	13
	i32.const	16
	local.set	14
	local.get	4
	local.get	14
	i32.add 
	local.set	15
	local.get	15
	local.get	12
	i32.add 
	local.set	16
	local.get	16
	i32.load	0
	local.set	17
	local.get	13
	local.get	17
	i32.store	0
	local.get	4
	i64.load	16:p2align=2
	local.set	18
	local.get	4
	local.get	18
	i64.store	0
	local.get	0
	local.get	4
	call	_ZNSt3__228__exception_guard_exceptionsINS_29_AllocatorDestroyRangeReverseINS_9allocatorINS_6threadEEEPS3_EEEC2B8ne190106ES6_
	drop
	.loc	29 137 3                        # emscripten/cache/sysroot/include/c++/v1/__utility/exception_guard.h:137:3
	i32.const	32
	local.set	19
	local.get	4
	local.get	19
	i32.add 
	local.set	20
	local.get	20
	global.set	__stack_pointer
	return
	end_function
.Ltmp332:
.Lfunc_end139:
                                        # -- End function
	.section	.text._ZNSt3__229_AllocatorDestroyRangeReverseINS_9allocatorINS_6threadEEEPS2_EC2B8ne190106ERS3_RS4_S7_,"G",@,_ZNSt3__229_AllocatorDestroyRangeReverseINS_9allocatorINS_6threadEEEPS2_EC2B8ne190106ERS3_RS4_S7_,comdat
	.hidden	_ZNSt3__229_AllocatorDestroyRangeReverseINS_9allocatorINS_6threadEEEPS2_EC2B8ne190106ERS3_RS4_S7_ # -- Begin function _ZNSt3__229_AllocatorDestroyRangeReverseINS_9allocatorINS_6threadEEEPS2_EC2B8ne190106ERS3_RS4_S7_
	.weak	_ZNSt3__229_AllocatorDestroyRangeReverseINS_9allocatorINS_6threadEEEPS2_EC2B8ne190106ERS3_RS4_S7_
	.type	_ZNSt3__229_AllocatorDestroyRangeReverseINS_9allocatorINS_6threadEEEPS2_EC2B8ne190106ERS3_RS4_S7_,@function
_ZNSt3__229_AllocatorDestroyRangeReverseINS_9allocatorINS_6threadEEEPS2_EC2B8ne190106ERS3_RS4_S7_: # @_ZNSt3__229_AllocatorDestroyRangeReverseINS_9allocatorINS_6threadEEEPS2_EC2B8ne190106ERS3_RS4_S7_
.Lfunc_begin140:
	.loc	28 526 0 is_stmt 1              # emscripten/cache/sysroot/include/c++/v1/__memory/uninitialized_algorithms.h:526:0
	.functype	_ZNSt3__229_AllocatorDestroyRangeReverseINS_9allocatorINS_6threadEEEPS2_EC2B8ne190106ERS3_RS4_S7_ (i32, i32, i32, i32) -> (i32)
	.local  	i32, i32, i32, i32, i32, i32, i32
# %bb.0:                                # %entry
	global.get	__stack_pointer
	local.set	4
	i32.const	16
	local.set	5
	local.get	4
	local.get	5
	i32.sub 
	local.set	6
	local.get	6
	local.get	0
	i32.store	12
	local.get	6
	local.get	1
	i32.store	8
	local.get	6
	local.get	2
	i32.store	4
	local.get	6
	local.get	3
	i32.store	0
	local.get	6
	i32.load	12
	local.set	7
.Ltmp333:
	.loc	28 526 18 prologue_end          # emscripten/cache/sysroot/include/c++/v1/__memory/uninitialized_algorithms.h:526:18
	local.get	6
	i32.load	8
	local.set	8
	.loc	28 526 9 is_stmt 0              # emscripten/cache/sysroot/include/c++/v1/__memory/uninitialized_algorithms.h:526:9
	local.get	7
	local.get	8
	i32.store	0
	.loc	28 526 37                       # emscripten/cache/sysroot/include/c++/v1/__memory/uninitialized_algorithms.h:526:37
	local.get	6
	i32.load	4
	local.set	9
	.loc	28 526 28                       # emscripten/cache/sysroot/include/c++/v1/__memory/uninitialized_algorithms.h:526:28
	local.get	7
	local.get	9
	i32.store	4
	.loc	28 526 55                       # emscripten/cache/sysroot/include/c++/v1/__memory/uninitialized_algorithms.h:526:55
	local.get	6
	i32.load	0
	local.set	10
	.loc	28 526 47                       # emscripten/cache/sysroot/include/c++/v1/__memory/uninitialized_algorithms.h:526:47
	local.get	7
	local.get	10
	i32.store	8
	.loc	28 526 64                       # emscripten/cache/sysroot/include/c++/v1/__memory/uninitialized_algorithms.h:526:64
	local.get	7
	return
	end_function
.Ltmp334:
.Lfunc_end140:
                                        # -- End function
	.section	.text._ZNSt3__216allocator_traitsINS_9allocatorINS_6threadEEEE9constructB8ne190106IS2_JS2_ETnNS_9enable_ifIXsr15__has_constructIS3_PT_DpT0_EE5valueEiE4typeELi0EEEvRS3_S8_DpOS9_,"G",@,_ZNSt3__216allocator_traitsINS_9allocatorINS_6threadEEEE9constructB8ne190106IS2_JS2_ETnNS_9enable_ifIXsr15__has_constructIS3_PT_DpT0_EE5valueEiE4typeELi0EEEvRS3_S8_DpOS9_,comdat
	.hidden	_ZNSt3__216allocator_traitsINS_9allocatorINS_6threadEEEE9constructB8ne190106IS2_JS2_ETnNS_9enable_ifIXsr15__has_constructIS3_PT_DpT0_EE5valueEiE4typeELi0EEEvRS3_S8_DpOS9_ # -- Begin function _ZNSt3__216allocator_traitsINS_9allocatorINS_6threadEEEE9constructB8ne190106IS2_JS2_ETnNS_9enable_ifIXsr15__has_constructIS3_PT_DpT0_EE5valueEiE4typeELi0EEEvRS3_S8_DpOS9_
	.weak	_ZNSt3__216allocator_traitsINS_9allocatorINS_6threadEEEE9constructB8ne190106IS2_JS2_ETnNS_9enable_ifIXsr15__has_constructIS3_PT_DpT0_EE5valueEiE4typeELi0EEEvRS3_S8_DpOS9_
	.type	_ZNSt3__216allocator_traitsINS_9allocatorINS_6threadEEEE9constructB8ne190106IS2_JS2_ETnNS_9enable_ifIXsr15__has_constructIS3_PT_DpT0_EE5valueEiE4typeELi0EEEvRS3_S8_DpOS9_,@function
_ZNSt3__216allocator_traitsINS_9allocatorINS_6threadEEEE9constructB8ne190106IS2_JS2_ETnNS_9enable_ifIXsr15__has_constructIS3_PT_DpT0_EE5valueEiE4typeELi0EEEvRS3_S8_DpOS9_: # @_ZNSt3__216allocator_traitsINS_9allocatorINS_6threadEEEE9constructB8ne190106IS2_JS2_ETnNS_9enable_ifIXsr15__has_constructIS3_PT_DpT0_EE5valueEiE4typeELi0EEEvRS3_S8_DpOS9_
.Lfunc_begin141:
	.loc	14 317 0 is_stmt 1              # emscripten/cache/sysroot/include/c++/v1/__memory/allocator_traits.h:317:0
	.functype	_ZNSt3__216allocator_traitsINS_9allocatorINS_6threadEEEE9constructB8ne190106IS2_JS2_ETnNS_9enable_ifIXsr15__has_constructIS3_PT_DpT0_EE5valueEiE4typeELi0EEEvRS3_S8_DpOS9_ (i32, i32, i32) -> ()
	.local  	i32, i32, i32, i32, i32, i32, i32, i32
# %bb.0:                                # %entry
	global.get	__stack_pointer
	local.set	3
	i32.const	16
	local.set	4
	local.get	3
	local.get	4
	i32.sub 
	local.set	5
	local.get	5
	global.set	__stack_pointer
	local.get	5
	local.get	0
	i32.store	12
	local.get	5
	local.get	1
	i32.store	8
	local.get	5
	local.get	2
	i32.store	4
.Ltmp335:
	.loc	14 319 5 prologue_end           # emscripten/cache/sysroot/include/c++/v1/__memory/allocator_traits.h:319:5
	local.get	5
	i32.load	12
	local.set	6
	.loc	14 319 19 is_stmt 0             # emscripten/cache/sysroot/include/c++/v1/__memory/allocator_traits.h:319:19
	local.get	5
	i32.load	8
	local.set	7
	.loc	14 319 44                       # emscripten/cache/sysroot/include/c++/v1/__memory/allocator_traits.h:319:44
	local.get	5
	i32.load	4
	local.set	8
	.loc	14 319 9                        # emscripten/cache/sysroot/include/c++/v1/__memory/allocator_traits.h:319:9
	local.get	6
	local.get	7
	local.get	8
	call	_ZNSt3__29allocatorINS_6threadEE9constructB8ne190106IS1_JS1_EEEvPT_DpOT0_
	.loc	14 321 3 is_stmt 1              # emscripten/cache/sysroot/include/c++/v1/__memory/allocator_traits.h:321:3
	i32.const	16
	local.set	9
	local.get	5
	local.get	9
	i32.add 
	local.set	10
	local.get	10
	global.set	__stack_pointer
	return
	end_function
.Ltmp336:
.Lfunc_end141:
                                        # -- End function
	.section	.text._ZNSt3__228__exception_guard_exceptionsINS_29_AllocatorDestroyRangeReverseINS_9allocatorINS_6threadEEEPS3_EEE10__completeB8ne190106Ev,"G",@,_ZNSt3__228__exception_guard_exceptionsINS_29_AllocatorDestroyRangeReverseINS_9allocatorINS_6threadEEEPS3_EEE10__completeB8ne190106Ev,comdat
	.hidden	_ZNSt3__228__exception_guard_exceptionsINS_29_AllocatorDestroyRangeReverseINS_9allocatorINS_6threadEEEPS3_EEE10__completeB8ne190106Ev # -- Begin function _ZNSt3__228__exception_guard_exceptionsINS_29_AllocatorDestroyRangeReverseINS_9allocatorINS_6threadEEEPS3_EEE10__completeB8ne190106Ev
	.weak	_ZNSt3__228__exception_guard_exceptionsINS_29_AllocatorDestroyRangeReverseINS_9allocatorINS_6threadEEEPS3_EEE10__completeB8ne190106Ev
	.type	_ZNSt3__228__exception_guard_exceptionsINS_29_AllocatorDestroyRangeReverseINS_9allocatorINS_6threadEEEPS3_EEE10__completeB8ne190106Ev,@function
_ZNSt3__228__exception_guard_exceptionsINS_29_AllocatorDestroyRangeReverseINS_9allocatorINS_6threadEEEPS3_EEE10__completeB8ne190106Ev: # @_ZNSt3__228__exception_guard_exceptionsINS_29_AllocatorDestroyRangeReverseINS_9allocatorINS_6threadEEEPS3_EEE10__completeB8ne190106Ev
.Lfunc_begin142:
	.loc	29 82 0                         # emscripten/cache/sysroot/include/c++/v1/__utility/exception_guard.h:82:0
	.functype	_ZNSt3__228__exception_guard_exceptionsINS_29_AllocatorDestroyRangeReverseINS_9allocatorINS_6threadEEEPS3_EEE10__completeB8ne190106Ev (i32) -> ()
	.local  	i32, i32, i32, i32, i32
# %bb.0:                                # %entry
	global.get	__stack_pointer
	local.set	1
	i32.const	16
	local.set	2
	local.get	1
	local.get	2
	i32.sub 
	local.set	3
	local.get	3
	local.get	0
	i32.store	12
	local.get	3
	i32.load	12
	local.set	4
.Ltmp337:
	.loc	29 82 98 prologue_end           # emscripten/cache/sysroot/include/c++/v1/__utility/exception_guard.h:82:98
	i32.const	1
	local.set	5
	local.get	4
	local.get	5
	i32.store8	12
	.loc	29 82 106 is_stmt 0             # emscripten/cache/sysroot/include/c++/v1/__utility/exception_guard.h:82:106
	return
	end_function
.Ltmp338:
.Lfunc_end142:
                                        # -- End function
	.section	.text._ZNSt3__219__allocator_destroyB8ne190106INS_9allocatorINS_6threadEEEPS2_S4_EEvRT_T0_T1_,"G",@,_ZNSt3__219__allocator_destroyB8ne190106INS_9allocatorINS_6threadEEEPS2_S4_EEvRT_T0_T1_,comdat
	.hidden	_ZNSt3__219__allocator_destroyB8ne190106INS_9allocatorINS_6threadEEEPS2_S4_EEvRT_T0_T1_ # -- Begin function _ZNSt3__219__allocator_destroyB8ne190106INS_9allocatorINS_6threadEEEPS2_S4_EEvRT_T0_T1_
	.weak	_ZNSt3__219__allocator_destroyB8ne190106INS_9allocatorINS_6threadEEEPS2_S4_EEvRT_T0_T1_
	.type	_ZNSt3__219__allocator_destroyB8ne190106INS_9allocatorINS_6threadEEEPS2_S4_EEvRT_T0_T1_,@function
_ZNSt3__219__allocator_destroyB8ne190106INS_9allocatorINS_6threadEEEPS2_S4_EEvRT_T0_T1_: # @_ZNSt3__219__allocator_destroyB8ne190106INS_9allocatorINS_6threadEEEPS2_S4_EEvRT_T0_T1_
.Lfunc_begin143:
	.loc	28 516 0 is_stmt 1              # emscripten/cache/sysroot/include/c++/v1/__memory/uninitialized_algorithms.h:516:0
	.functype	_ZNSt3__219__allocator_destroyB8ne190106INS_9allocatorINS_6threadEEEPS2_S4_EEvRT_T0_T1_ (i32, i32, i32) -> ()
	.local  	i32, i32, i32, i32, i32, i32, i32, i32, i32, i32, i32, i32, i32, i32, i32, i32
# %bb.0:                                # %entry
	global.get	__stack_pointer
	local.set	3
	i32.const	16
	local.set	4
	local.get	3
	local.get	4
	i32.sub 
	local.set	5
	local.get	5
	global.set	__stack_pointer
	local.get	5
	local.get	0
	i32.store	12
	local.get	5
	local.get	1
	i32.store	8
	local.get	5
	local.get	2
	i32.store	4
.LBB143_1:                              # %for.cond
                                        # =>This Inner Loop Header: Depth=1
.Ltmp339:
	.loc	28 517 10 prologue_end          # emscripten/cache/sysroot/include/c++/v1/__memory/uninitialized_algorithms.h:517:10
	block   	
	loop    	                                # label37:
	local.get	5
	i32.load	8
	local.set	6
	.loc	28 517 21 is_stmt 0             # emscripten/cache/sysroot/include/c++/v1/__memory/uninitialized_algorithms.h:517:21
	local.get	5
	i32.load	4
	local.set	7
	.loc	28 517 18                       # emscripten/cache/sysroot/include/c++/v1/__memory/uninitialized_algorithms.h:517:18
	local.get	6
	local.get	7
	i32.ne  
	local.set	8
.Ltmp340:
	.loc	28 517 3                        # emscripten/cache/sysroot/include/c++/v1/__memory/uninitialized_algorithms.h:517:3
	i32.const	1
	local.set	9
	local.get	8
	local.get	9
	i32.and 
	local.set	10
	local.get	10
	i32.eqz
	br_if   	1                               # 1: down to label36
# %bb.2:                                # %for.body
                                        #   in Loop: Header=BB143_1 Depth=1
.Ltmp341:
	.loc	28 518 39 is_stmt 1             # emscripten/cache/sysroot/include/c++/v1/__memory/uninitialized_algorithms.h:518:39
	local.get	5
	i32.load	12
	local.set	11
	.loc	28 518 66 is_stmt 0             # emscripten/cache/sysroot/include/c++/v1/__memory/uninitialized_algorithms.h:518:66
	local.get	5
	i32.load	8
	local.set	12
	.loc	28 518 48                       # emscripten/cache/sysroot/include/c++/v1/__memory/uninitialized_algorithms.h:518:48
	local.get	12
	call	_ZNSt3__212__to_addressB8ne190106INS_6threadEEEPT_S3_
	local.set	13
	.loc	28 518 5                        # emscripten/cache/sysroot/include/c++/v1/__memory/uninitialized_algorithms.h:518:5
	local.get	11
	local.get	13
	call	_ZNSt3__216allocator_traitsINS_9allocatorINS_6threadEEEE7destroyB8ne190106IS2_TnNS_9enable_ifIXsr13__has_destroyIS3_PT_EE5valueEiE4typeELi0EEEvRS3_S8_
# %bb.3:                                # %for.inc
                                        #   in Loop: Header=BB143_1 Depth=1
	.loc	28 517 29 is_stmt 1             # emscripten/cache/sysroot/include/c++/v1/__memory/uninitialized_algorithms.h:517:29
	local.get	5
	i32.load	8
	local.set	14
	i32.const	4
	local.set	15
	local.get	14
	local.get	15
	i32.add 
	local.set	16
	local.get	5
	local.get	16
	i32.store	8
	.loc	28 517 3 is_stmt 0              # emscripten/cache/sysroot/include/c++/v1/__memory/uninitialized_algorithms.h:517:3
	br      	0                               # 0: up to label37
.Ltmp342:
.LBB143_4:                              # %for.end
	.loc	28 517 3                        # emscripten/cache/sysroot/include/c++/v1/__memory/uninitialized_algorithms.h:517:3
	end_loop
	end_block                               # label36:
.Ltmp343:
	.loc	28 519 1 is_stmt 1              # emscripten/cache/sysroot/include/c++/v1/__memory/uninitialized_algorithms.h:519:1
	i32.const	16
	local.set	17
	local.get	5
	local.get	17
	i32.add 
	local.set	18
	local.get	18
	global.set	__stack_pointer
	return
	end_function
.Ltmp344:
.Lfunc_end143:
                                        # -- End function
	.section	.text._ZNSt3__228__exception_guard_exceptionsINS_29_AllocatorDestroyRangeReverseINS_9allocatorINS_6threadEEEPS3_EEED2B8ne190106Ev,"G",@,_ZNSt3__228__exception_guard_exceptionsINS_29_AllocatorDestroyRangeReverseINS_9allocatorINS_6threadEEEPS3_EEED2B8ne190106Ev,comdat
	.hidden	_ZNSt3__228__exception_guard_exceptionsINS_29_AllocatorDestroyRangeReverseINS_9allocatorINS_6threadEEEPS3_EEED2B8ne190106Ev # -- Begin function _ZNSt3__228__exception_guard_exceptionsINS_29_AllocatorDestroyRangeReverseINS_9allocatorINS_6threadEEEPS3_EEED2B8ne190106Ev
	.weak	_ZNSt3__228__exception_guard_exceptionsINS_29_AllocatorDestroyRangeReverseINS_9allocatorINS_6threadEEEPS3_EEED2B8ne190106Ev
	.type	_ZNSt3__228__exception_guard_exceptionsINS_29_AllocatorDestroyRangeReverseINS_9allocatorINS_6threadEEEPS3_EEED2B8ne190106Ev,@function
_ZNSt3__228__exception_guard_exceptionsINS_29_AllocatorDestroyRangeReverseINS_9allocatorINS_6threadEEEPS3_EEED2B8ne190106Ev: # @_ZNSt3__228__exception_guard_exceptionsINS_29_AllocatorDestroyRangeReverseINS_9allocatorINS_6threadEEEPS3_EEED2B8ne190106Ev
.Lfunc_begin144:
	.loc	29 84 0                         # emscripten/cache/sysroot/include/c++/v1/__utility/exception_guard.h:84:0
	.functype	_ZNSt3__228__exception_guard_exceptionsINS_29_AllocatorDestroyRangeReverseINS_9allocatorINS_6threadEEEPS3_EEED2B8ne190106Ev (i32) -> (i32)
	.local  	i32, i32, i32, i32, i32, i32, i32, i32, i32, i32
# %bb.0:                                # %entry
	global.get	__stack_pointer
	local.set	1
	i32.const	16
	local.set	2
	local.get	1
	local.get	2
	i32.sub 
	local.set	3
	local.get	3
	global.set	__stack_pointer
	local.get	3
	local.get	0
	i32.store	8
	local.get	3
	i32.load	8
	local.set	4
	local.get	3
	local.get	4
	i32.store	12
.Ltmp345:
	.loc	29 85 10 prologue_end           # emscripten/cache/sysroot/include/c++/v1/__utility/exception_guard.h:85:10
	local.get	4
	i32.load8_u	12
	local.set	5
	.loc	29 85 9 is_stmt 0               # emscripten/cache/sysroot/include/c++/v1/__utility/exception_guard.h:85:9
	i32.const	1
	local.set	6
	local.get	5
	local.get	6
	i32.and 
	local.set	7
	block   	
	local.get	7
	br_if   	0                               # 0: down to label38
# %bb.1:                                # %if.then
	.loc	29 86 7 is_stmt 1               # emscripten/cache/sysroot/include/c++/v1/__utility/exception_guard.h:86:7
	local.get	4
	call	_ZNKSt3__229_AllocatorDestroyRangeReverseINS_9allocatorINS_6threadEEEPS2_EclB8ne190106Ev
.Ltmp346:
.LBB144_2:                              # %if.end
	.loc	29 0 7 is_stmt 0                # emscripten/cache/sysroot/include/c++/v1/__utility/exception_guard.h:0:7
	end_block                               # label38:
	.loc	29 87 3 is_stmt 1               # emscripten/cache/sysroot/include/c++/v1/__utility/exception_guard.h:87:3
	local.get	3
	i32.load	12
	local.set	8
	i32.const	16
	local.set	9
	local.get	3
	local.get	9
	i32.add 
	local.set	10
	local.get	10
	global.set	__stack_pointer
	local.get	8
	return
	end_function
.Ltmp347:
.Lfunc_end144:
                                        # -- End function
	.section	.text._ZNSt3__228__exception_guard_exceptionsINS_29_AllocatorDestroyRangeReverseINS_9allocatorINS_6threadEEEPS3_EEEC2B8ne190106ES6_,"G",@,_ZNSt3__228__exception_guard_exceptionsINS_29_AllocatorDestroyRangeReverseINS_9allocatorINS_6threadEEEPS3_EEEC2B8ne190106ES6_,comdat
	.hidden	_ZNSt3__228__exception_guard_exceptionsINS_29_AllocatorDestroyRangeReverseINS_9allocatorINS_6threadEEEPS3_EEEC2B8ne190106ES6_ # -- Begin function _ZNSt3__228__exception_guard_exceptionsINS_29_AllocatorDestroyRangeReverseINS_9allocatorINS_6threadEEEPS3_EEEC2B8ne190106ES6_
	.weak	_ZNSt3__228__exception_guard_exceptionsINS_29_AllocatorDestroyRangeReverseINS_9allocatorINS_6threadEEEPS3_EEEC2B8ne190106ES6_
	.type	_ZNSt3__228__exception_guard_exceptionsINS_29_AllocatorDestroyRangeReverseINS_9allocatorINS_6threadEEEPS3_EEEC2B8ne190106ES6_,@function
_ZNSt3__228__exception_guard_exceptionsINS_29_AllocatorDestroyRangeReverseINS_9allocatorINS_6threadEEEPS3_EEEC2B8ne190106ES6_: # @_ZNSt3__228__exception_guard_exceptionsINS_29_AllocatorDestroyRangeReverseINS_9allocatorINS_6threadEEEPS3_EEEC2B8ne190106ES6_
.Lfunc_begin145:
	.loc	29 69 0                         # emscripten/cache/sysroot/include/c++/v1/__utility/exception_guard.h:69:0
	.functype	_ZNSt3__228__exception_guard_exceptionsINS_29_AllocatorDestroyRangeReverseINS_9allocatorINS_6threadEEEPS3_EEEC2B8ne190106ES6_ (i32, i32) -> (i32)
	.local  	i32, i32, i32, i32, i64, i32, i32, i32, i32, i32
# %bb.0:                                # %entry
	global.get	__stack_pointer
	local.set	2
	i32.const	16
	local.set	3
	local.get	2
	local.get	3
	i32.sub 
	local.set	4
	local.get	4
	local.get	0
	i32.store	12
	#DEBUG_VALUE: __exception_guard_exceptions:__rollback <- !target-index(4,1)
	local.get	4
	i32.load	12
	local.set	5
.Ltmp348:
	.loc	29 69 9 prologue_end            # emscripten/cache/sysroot/include/c++/v1/__utility/exception_guard.h:69:9
	local.get	1
	i64.load	0:p2align=2
	local.set	6
	local.get	5
	local.get	6
	i64.store	0:p2align=2
	i32.const	8
	local.set	7
	local.get	5
	local.get	7
	i32.add 
	local.set	8
	local.get	1
	local.get	7
	i32.add 
	local.set	9
	local.get	9
	i32.load	0
	local.set	10
	local.get	8
	local.get	10
	i32.store	0
	.loc	29 69 45 is_stmt 0              # emscripten/cache/sysroot/include/c++/v1/__utility/exception_guard.h:69:45
	i32.const	0
	local.set	11
	local.get	5
	local.get	11
	i32.store8	12
	.loc	29 69 66                        # emscripten/cache/sysroot/include/c++/v1/__utility/exception_guard.h:69:66
	local.get	5
	return
	end_function
.Ltmp349:
.Lfunc_end145:
                                        # -- End function
	.section	.text._ZNSt3__29allocatorINS_6threadEE9constructB8ne190106IS1_JS1_EEEvPT_DpOT0_,"G",@,_ZNSt3__29allocatorINS_6threadEE9constructB8ne190106IS1_JS1_EEEvPT_DpOT0_,comdat
	.hidden	_ZNSt3__29allocatorINS_6threadEE9constructB8ne190106IS1_JS1_EEEvPT_DpOT0_ # -- Begin function _ZNSt3__29allocatorINS_6threadEE9constructB8ne190106IS1_JS1_EEEvPT_DpOT0_
	.weak	_ZNSt3__29allocatorINS_6threadEE9constructB8ne190106IS1_JS1_EEEvPT_DpOT0_
	.type	_ZNSt3__29allocatorINS_6threadEE9constructB8ne190106IS1_JS1_EEEvPT_DpOT0_,@function
_ZNSt3__29allocatorINS_6threadEE9constructB8ne190106IS1_JS1_EEEvPT_DpOT0_: # @_ZNSt3__29allocatorINS_6threadEE9constructB8ne190106IS1_JS1_EEEvPT_DpOT0_
.Lfunc_begin146:
	.loc	13 164 0 is_stmt 1              # emscripten/cache/sysroot/include/c++/v1/__memory/allocator.h:164:0
	.functype	_ZNSt3__29allocatorINS_6threadEE9constructB8ne190106IS1_JS1_EEEvPT_DpOT0_ (i32, i32, i32) -> ()
	.local  	i32, i32, i32, i32, i32, i32, i32
# %bb.0:                                # %entry
	global.get	__stack_pointer
	local.set	3
	i32.const	16
	local.set	4
	local.get	3
	local.get	4
	i32.sub 
	local.set	5
	local.get	5
	global.set	__stack_pointer
	local.get	5
	local.get	0
	i32.store	12
	local.get	5
	local.get	1
	i32.store	8
	local.get	5
	local.get	2
	i32.store	4
.Ltmp350:
	.loc	13 165 19 prologue_end          # emscripten/cache/sysroot/include/c++/v1/__memory/allocator.h:165:19
	local.get	5
	i32.load	8
	local.set	6
	.loc	13 165 48 is_stmt 0             # emscripten/cache/sysroot/include/c++/v1/__memory/allocator.h:165:48
	local.get	5
	i32.load	4
	local.set	7
	.loc	13 165 24                       # emscripten/cache/sysroot/include/c++/v1/__memory/allocator.h:165:24
	local.get	6
	local.get	7
	call	_ZNSt3__26threadC2B8ne190106EOS0_
	drop
	.loc	13 166 3 is_stmt 1              # emscripten/cache/sysroot/include/c++/v1/__memory/allocator.h:166:3
	i32.const	16
	local.set	8
	local.get	5
	local.get	8
	i32.add 
	local.set	9
	local.get	9
	global.set	__stack_pointer
	return
	end_function
.Ltmp351:
.Lfunc_end146:
                                        # -- End function
	.section	.text._ZNSt3__26threadC2B8ne190106EOS0_,"G",@,_ZNSt3__26threadC2B8ne190106EOS0_,comdat
	.hidden	_ZNSt3__26threadC2B8ne190106EOS0_ # -- Begin function _ZNSt3__26threadC2B8ne190106EOS0_
	.weak	_ZNSt3__26threadC2B8ne190106EOS0_
	.type	_ZNSt3__26threadC2B8ne190106EOS0_,@function
_ZNSt3__26threadC2B8ne190106EOS0_:      # @_ZNSt3__26threadC2B8ne190106EOS0_
.Lfunc_begin147:
	.loc	6 167 0                         # emscripten/cache/sysroot/include/c++/v1/__thread/thread.h:167:0
	.functype	_ZNSt3__26threadC2B8ne190106EOS0_ (i32, i32) -> (i32)
	.local  	i32, i32, i32, i32, i32, i32, i32, i32
# %bb.0:                                # %entry
	global.get	__stack_pointer
	local.set	2
	i32.const	16
	local.set	3
	local.get	2
	local.get	3
	i32.sub 
	local.set	4
	local.get	4
	local.get	0
	i32.store	12
	local.get	4
	local.get	1
	i32.store	8
	local.get	4
	i32.load	12
	local.set	5
.Ltmp352:
	.loc	6 167 63 prologue_end           # emscripten/cache/sysroot/include/c++/v1/__thread/thread.h:167:63
	local.get	4
	i32.load	8
	local.set	6
	.loc	6 167 67 is_stmt 0              # emscripten/cache/sysroot/include/c++/v1/__thread/thread.h:167:67
	local.get	6
	i32.load	0
	local.set	7
	.loc	6 167 58                        # emscripten/cache/sysroot/include/c++/v1/__thread/thread.h:167:58
	local.get	5
	local.get	7
	i32.store	0
.Ltmp353:
	.loc	6 167 75                        # emscripten/cache/sysroot/include/c++/v1/__thread/thread.h:167:75
	local.get	4
	i32.load	8
	local.set	8
	.loc	6 167 84                        # emscripten/cache/sysroot/include/c++/v1/__thread/thread.h:167:84
	i32.const	0
	local.set	9
	local.get	8
	local.get	9
	i32.store	0
.Ltmp354:
	.loc	6 167 107                       # emscripten/cache/sysroot/include/c++/v1/__thread/thread.h:167:107
	local.get	5
	return
	end_function
.Ltmp355:
.Lfunc_end147:
                                        # -- End function
	.section	.text._ZNKSt3__229_AllocatorDestroyRangeReverseINS_9allocatorINS_6threadEEEPS2_EclB8ne190106Ev,"G",@,_ZNKSt3__229_AllocatorDestroyRangeReverseINS_9allocatorINS_6threadEEEPS2_EclB8ne190106Ev,comdat
	.hidden	_ZNKSt3__229_AllocatorDestroyRangeReverseINS_9allocatorINS_6threadEEEPS2_EclB8ne190106Ev # -- Begin function _ZNKSt3__229_AllocatorDestroyRangeReverseINS_9allocatorINS_6threadEEEPS2_EclB8ne190106Ev
	.weak	_ZNKSt3__229_AllocatorDestroyRangeReverseINS_9allocatorINS_6threadEEEPS2_EclB8ne190106Ev
	.type	_ZNKSt3__229_AllocatorDestroyRangeReverseINS_9allocatorINS_6threadEEEPS2_EclB8ne190106Ev,@function
_ZNKSt3__229_AllocatorDestroyRangeReverseINS_9allocatorINS_6threadEEEPS2_EclB8ne190106Ev: # @_ZNKSt3__229_AllocatorDestroyRangeReverseINS_9allocatorINS_6threadEEEPS2_EclB8ne190106Ev
.Lfunc_begin148:
	.loc	28 528 0 is_stmt 1              # emscripten/cache/sysroot/include/c++/v1/__memory/uninitialized_algorithms.h:528:0
	.functype	_ZNKSt3__229_AllocatorDestroyRangeReverseINS_9allocatorINS_6threadEEEPS2_EclB8ne190106Ev (i32) -> ()
	.local  	i32, i32, i32, i32, i32, i32, i32, i32, i32, i32, i32, i32, i32, i32, i32, i32, i32, i32, i32
# %bb.0:                                # %entry
	global.get	__stack_pointer
	local.set	1
	i32.const	16
	local.set	2
	local.get	1
	local.get	2
	i32.sub 
	local.set	3
	local.get	3
	global.set	__stack_pointer
	local.get	3
	local.get	0
	i32.store	12
	local.get	3
	i32.load	12
	local.set	4
.Ltmp356:
	.loc	28 529 30 prologue_end          # emscripten/cache/sysroot/include/c++/v1/__memory/uninitialized_algorithms.h:529:30
	local.get	4
	i32.load	0
	local.set	5
	.loc	28 529 69 is_stmt 0             # emscripten/cache/sysroot/include/c++/v1/__memory/uninitialized_algorithms.h:529:69
	local.get	4
	i32.load	8
	local.set	6
	local.get	6
	i32.load	0
	local.set	7
	.loc	28 529 40                       # emscripten/cache/sysroot/include/c++/v1/__memory/uninitialized_algorithms.h:529:40
	i32.const	8
	local.set	8
	local.get	3
	local.get	8
	i32.add 
	local.set	9
	local.get	9
	local.set	10
	local.get	10
	local.get	7
	call	_ZNSt3__216reverse_iteratorIPNS_6threadEEC2B8ne190106ES2_
	drop
	.loc	28 529 108                      # emscripten/cache/sysroot/include/c++/v1/__memory/uninitialized_algorithms.h:529:108
	local.get	4
	i32.load	4
	local.set	11
	local.get	11
	i32.load	0
	local.set	12
	.loc	28 529 79                       # emscripten/cache/sysroot/include/c++/v1/__memory/uninitialized_algorithms.h:529:79
	i32.const	4
	local.set	13
	local.get	3
	local.get	13
	i32.add 
	local.set	14
	local.get	14
	local.set	15
	local.get	15
	local.get	12
	call	_ZNSt3__216reverse_iteratorIPNS_6threadEEC2B8ne190106ES2_
	drop
	.loc	28 529 5                        # emscripten/cache/sysroot/include/c++/v1/__memory/uninitialized_algorithms.h:529:5
	local.get	3
	i32.load	8
	local.set	16
	local.get	3
	i32.load	4
	local.set	17
	local.get	5
	local.get	16
	local.get	17
	call	_ZNSt3__219__allocator_destroyB8ne190106INS_9allocatorINS_6threadEEENS_16reverse_iteratorIPS2_EES6_EEvRT_T0_T1_
	.loc	28 530 3 is_stmt 1              # emscripten/cache/sysroot/include/c++/v1/__memory/uninitialized_algorithms.h:530:3
	i32.const	16
	local.set	18
	local.get	3
	local.get	18
	i32.add 
	local.set	19
	local.get	19
	global.set	__stack_pointer
	return
	end_function
.Ltmp357:
.Lfunc_end148:
                                        # -- End function
	.section	.text._ZNSt3__219__allocator_destroyB8ne190106INS_9allocatorINS_6threadEEENS_16reverse_iteratorIPS2_EES6_EEvRT_T0_T1_,"G",@,_ZNSt3__219__allocator_destroyB8ne190106INS_9allocatorINS_6threadEEENS_16reverse_iteratorIPS2_EES6_EEvRT_T0_T1_,comdat
	.hidden	_ZNSt3__219__allocator_destroyB8ne190106INS_9allocatorINS_6threadEEENS_16reverse_iteratorIPS2_EES6_EEvRT_T0_T1_ # -- Begin function _ZNSt3__219__allocator_destroyB8ne190106INS_9allocatorINS_6threadEEENS_16reverse_iteratorIPS2_EES6_EEvRT_T0_T1_
	.weak	_ZNSt3__219__allocator_destroyB8ne190106INS_9allocatorINS_6threadEEENS_16reverse_iteratorIPS2_EES6_EEvRT_T0_T1_
	.type	_ZNSt3__219__allocator_destroyB8ne190106INS_9allocatorINS_6threadEEENS_16reverse_iteratorIPS2_EES6_EEvRT_T0_T1_,@function
_ZNSt3__219__allocator_destroyB8ne190106INS_9allocatorINS_6threadEEENS_16reverse_iteratorIPS2_EES6_EEvRT_T0_T1_: # @_ZNSt3__219__allocator_destroyB8ne190106INS_9allocatorINS_6threadEEENS_16reverse_iteratorIPS2_EES6_EEvRT_T0_T1_
.Lfunc_begin149:
	.loc	28 516 0                        # emscripten/cache/sysroot/include/c++/v1/__memory/uninitialized_algorithms.h:516:0
	.functype	_ZNSt3__219__allocator_destroyB8ne190106INS_9allocatorINS_6threadEEENS_16reverse_iteratorIPS2_EES6_EEvRT_T0_T1_ (i32, i32, i32) -> ()
	.local  	i32, i32, i32, i32, i32, i32, i32, i32, i32, i32, i32, i32, i32, i32, i32, i32, i32, i32, i32, i32, i32, i32
# %bb.0:                                # %entry
	global.get	__stack_pointer
	local.set	3
	i32.const	16
	local.set	4
	local.get	3
	local.get	4
	i32.sub 
	local.set	5
	local.get	5
	global.set	__stack_pointer
	local.get	5
	local.get	1
	i32.store	12
	local.get	5
	local.get	2
	i32.store	8
	local.get	5
	local.get	0
	i32.store	4
.LBB149_1:                              # %for.cond
                                        # =>This Inner Loop Header: Depth=1
.Ltmp358:
	.loc	28 517 18 prologue_end          # emscripten/cache/sysroot/include/c++/v1/__memory/uninitialized_algorithms.h:517:18
	block   	
	loop    	                                # label40:
	i32.const	12
	local.set	6
	local.get	5
	local.get	6
	i32.add 
	local.set	7
	local.get	7
	local.set	8
	i32.const	8
	local.set	9
	local.get	5
	local.get	9
	i32.add 
	local.set	10
	local.get	10
	local.set	11
	local.get	8
	local.get	11
	call	_ZNSt3__2neB8ne190106IPNS_6threadES2_EEbRKNS_16reverse_iteratorIT_EERKNS3_IT0_EE
	local.set	12
.Ltmp359:
	.loc	28 517 3 is_stmt 0              # emscripten/cache/sysroot/include/c++/v1/__memory/uninitialized_algorithms.h:517:3
	i32.const	1
	local.set	13
	local.get	12
	local.get	13
	i32.and 
	local.set	14
	local.get	14
	i32.eqz
	br_if   	1                               # 1: down to label39
# %bb.2:                                # %for.body
                                        #   in Loop: Header=BB149_1 Depth=1
.Ltmp360:
	.loc	28 518 39 is_stmt 1             # emscripten/cache/sysroot/include/c++/v1/__memory/uninitialized_algorithms.h:518:39
	local.get	5
	i32.load	4
	local.set	15
	.loc	28 518 48 is_stmt 0             # emscripten/cache/sysroot/include/c++/v1/__memory/uninitialized_algorithms.h:518:48
	i32.const	12
	local.set	16
	local.get	5
	local.get	16
	i32.add 
	local.set	17
	local.get	17
	local.set	18
	local.get	18
	call	_ZNSt3__212__to_addressB8ne190106INS_16reverse_iteratorIPNS_6threadEEETnNS_9enable_ifIXsr4_AndINS_8is_classIT_EENS_15_IsFancyPointerIS7_EEEE5valueEiE4typeELi0EEEu7__decayIDTclsr19__to_address_helperIS7_EE6__callclsr3stdE7declvalIRKS7_EEEEESE_
	local.set	19
	.loc	28 518 5                        # emscripten/cache/sysroot/include/c++/v1/__memory/uninitialized_algorithms.h:518:5
	local.get	15
	local.get	19
	call	_ZNSt3__216allocator_traitsINS_9allocatorINS_6threadEEEE7destroyB8ne190106IS2_TnNS_9enable_ifIXsr13__has_destroyIS3_PT_EE5valueEiE4typeELi0EEEvRS3_S8_
# %bb.3:                                # %for.inc
                                        #   in Loop: Header=BB149_1 Depth=1
	.loc	28 517 29 is_stmt 1             # emscripten/cache/sysroot/include/c++/v1/__memory/uninitialized_algorithms.h:517:29
	i32.const	12
	local.set	20
	local.get	5
	local.get	20
	i32.add 
	local.set	21
	local.get	21
	local.set	22
	local.get	22
	call	_ZNSt3__216reverse_iteratorIPNS_6threadEEppB8ne190106Ev
	drop
	.loc	28 517 3 is_stmt 0              # emscripten/cache/sysroot/include/c++/v1/__memory/uninitialized_algorithms.h:517:3
	br      	0                               # 0: up to label40
.Ltmp361:
.LBB149_4:                              # %for.end
	.loc	28 517 3                        # emscripten/cache/sysroot/include/c++/v1/__memory/uninitialized_algorithms.h:517:3
	end_loop
	end_block                               # label39:
.Ltmp362:
	.loc	28 519 1 is_stmt 1              # emscripten/cache/sysroot/include/c++/v1/__memory/uninitialized_algorithms.h:519:1
	i32.const	16
	local.set	23
	local.get	5
	local.get	23
	i32.add 
	local.set	24
	local.get	24
	global.set	__stack_pointer
	return
	end_function
.Ltmp363:
.Lfunc_end149:
                                        # -- End function
	.section	.text._ZNSt3__216reverse_iteratorIPNS_6threadEEC2B8ne190106ES2_,"G",@,_ZNSt3__216reverse_iteratorIPNS_6threadEEC2B8ne190106ES2_,comdat
	.hidden	_ZNSt3__216reverse_iteratorIPNS_6threadEEC2B8ne190106ES2_ # -- Begin function _ZNSt3__216reverse_iteratorIPNS_6threadEEC2B8ne190106ES2_
	.weak	_ZNSt3__216reverse_iteratorIPNS_6threadEEC2B8ne190106ES2_
	.type	_ZNSt3__216reverse_iteratorIPNS_6threadEEC2B8ne190106ES2_,@function
_ZNSt3__216reverse_iteratorIPNS_6threadEEC2B8ne190106ES2_: # @_ZNSt3__216reverse_iteratorIPNS_6threadEEC2B8ne190106ES2_
.Lfunc_begin150:
	.loc	30 114 0                        # emscripten/cache/sysroot/include/c++/v1/__iterator/reverse_iterator.h:114:0
	.functype	_ZNSt3__216reverse_iteratorIPNS_6threadEEC2B8ne190106ES2_ (i32, i32) -> (i32)
	.local  	i32, i32, i32, i32, i32
# %bb.0:                                # %entry
	global.get	__stack_pointer
	local.set	2
	i32.const	16
	local.set	3
	local.get	2
	local.get	3
	i32.sub 
	local.set	4
	local.get	4
	local.get	0
	i32.store	12
	local.get	4
	local.get	1
	i32.store	8
	local.get	4
	i32.load	12
	local.set	5
.Ltmp364:
	.loc	30 114 102 prologue_end         # emscripten/cache/sysroot/include/c++/v1/__iterator/reverse_iterator.h:114:102
	local.get	4
	i32.load	8
	local.set	6
	.loc	30 114 94 is_stmt 0             # emscripten/cache/sysroot/include/c++/v1/__iterator/reverse_iterator.h:114:94
	local.get	5
	local.get	6
	i32.store	0
	.loc	30 114 108                      # emscripten/cache/sysroot/include/c++/v1/__iterator/reverse_iterator.h:114:108
	local.get	5
	return
	end_function
.Ltmp365:
.Lfunc_end150:
                                        # -- End function
	.section	.text._ZNSt3__2neB8ne190106IPNS_6threadES2_EEbRKNS_16reverse_iteratorIT_EERKNS3_IT0_EE,"G",@,_ZNSt3__2neB8ne190106IPNS_6threadES2_EEbRKNS_16reverse_iteratorIT_EERKNS3_IT0_EE,comdat
	.hidden	_ZNSt3__2neB8ne190106IPNS_6threadES2_EEbRKNS_16reverse_iteratorIT_EERKNS3_IT0_EE # -- Begin function _ZNSt3__2neB8ne190106IPNS_6threadES2_EEbRKNS_16reverse_iteratorIT_EERKNS3_IT0_EE
	.weak	_ZNSt3__2neB8ne190106IPNS_6threadES2_EEbRKNS_16reverse_iteratorIT_EERKNS3_IT0_EE
	.type	_ZNSt3__2neB8ne190106IPNS_6threadES2_EEbRKNS_16reverse_iteratorIT_EERKNS3_IT0_EE,@function
_ZNSt3__2neB8ne190106IPNS_6threadES2_EEbRKNS_16reverse_iteratorIT_EERKNS3_IT0_EE: # @_ZNSt3__2neB8ne190106IPNS_6threadES2_EEbRKNS_16reverse_iteratorIT_EERKNS3_IT0_EE
.Lfunc_begin151:
	.loc	30 236 0 is_stmt 1              # emscripten/cache/sysroot/include/c++/v1/__iterator/reverse_iterator.h:236:0
	.functype	_ZNSt3__2neB8ne190106IPNS_6threadES2_EEbRKNS_16reverse_iteratorIT_EERKNS3_IT0_EE (i32, i32) -> (i32)
	.local  	i32, i32, i32, i32, i32, i32, i32, i32, i32, i32, i32, i32
# %bb.0:                                # %entry
	global.get	__stack_pointer
	local.set	2
	i32.const	16
	local.set	3
	local.get	2
	local.get	3
	i32.sub 
	local.set	4
	local.get	4
	global.set	__stack_pointer
	local.get	4
	local.get	0
	i32.store	12
	local.get	4
	local.get	1
	i32.store	8
.Ltmp366:
	.loc	30 237 10 prologue_end          # emscripten/cache/sysroot/include/c++/v1/__iterator/reverse_iterator.h:237:10
	local.get	4
	i32.load	12
	local.set	5
	.loc	30 237 14 is_stmt 0             # emscripten/cache/sysroot/include/c++/v1/__iterator/reverse_iterator.h:237:14
	local.get	5
	call	_ZNKSt3__216reverse_iteratorIPNS_6threadEE4baseB8ne190106Ev
	local.set	6
	.loc	30 237 24                       # emscripten/cache/sysroot/include/c++/v1/__iterator/reverse_iterator.h:237:24
	local.get	4
	i32.load	8
	local.set	7
	.loc	30 237 28                       # emscripten/cache/sysroot/include/c++/v1/__iterator/reverse_iterator.h:237:28
	local.get	7
	call	_ZNKSt3__216reverse_iteratorIPNS_6threadEE4baseB8ne190106Ev
	local.set	8
	.loc	30 237 21                       # emscripten/cache/sysroot/include/c++/v1/__iterator/reverse_iterator.h:237:21
	local.get	6
	local.get	8
	i32.ne  
	local.set	9
	.loc	30 237 3                        # emscripten/cache/sysroot/include/c++/v1/__iterator/reverse_iterator.h:237:3
	i32.const	1
	local.set	10
	local.get	9
	local.get	10
	i32.and 
	local.set	11
	i32.const	16
	local.set	12
	local.get	4
	local.get	12
	i32.add 
	local.set	13
	local.get	13
	global.set	__stack_pointer
	local.get	11
	return
	end_function
.Ltmp367:
.Lfunc_end151:
                                        # -- End function
	.section	.text._ZNSt3__212__to_addressB8ne190106INS_16reverse_iteratorIPNS_6threadEEETnNS_9enable_ifIXsr4_AndINS_8is_classIT_EENS_15_IsFancyPointerIS7_EEEE5valueEiE4typeELi0EEEu7__decayIDTclsr19__to_address_helperIS7_EE6__callclsr3stdE7declvalIRKS7_EEEEESE_,"G",@,_ZNSt3__212__to_addressB8ne190106INS_16reverse_iteratorIPNS_6threadEEETnNS_9enable_ifIXsr4_AndINS_8is_classIT_EENS_15_IsFancyPointerIS7_EEEE5valueEiE4typeELi0EEEu7__decayIDTclsr19__to_address_helperIS7_EE6__callclsr3stdE7declvalIRKS7_EEEEESE_,comdat
	.hidden	_ZNSt3__212__to_addressB8ne190106INS_16reverse_iteratorIPNS_6threadEEETnNS_9enable_ifIXsr4_AndINS_8is_classIT_EENS_15_IsFancyPointerIS7_EEEE5valueEiE4typeELi0EEEu7__decayIDTclsr19__to_address_helperIS7_EE6__callclsr3stdE7declvalIRKS7_EEEEESE_ # -- Begin function _ZNSt3__212__to_addressB8ne190106INS_16reverse_iteratorIPNS_6threadEEETnNS_9enable_ifIXsr4_AndINS_8is_classIT_EENS_15_IsFancyPointerIS7_EEEE5valueEiE4typeELi0EEEu7__decayIDTclsr19__to_address_helperIS7_EE6__callclsr3stdE7declvalIRKS7_EEEEESE_
	.weak	_ZNSt3__212__to_addressB8ne190106INS_16reverse_iteratorIPNS_6threadEEETnNS_9enable_ifIXsr4_AndINS_8is_classIT_EENS_15_IsFancyPointerIS7_EEEE5valueEiE4typeELi0EEEu7__decayIDTclsr19__to_address_helperIS7_EE6__callclsr3stdE7declvalIRKS7_EEEEESE_
	.type	_ZNSt3__212__to_addressB8ne190106INS_16reverse_iteratorIPNS_6threadEEETnNS_9enable_ifIXsr4_AndINS_8is_classIT_EENS_15_IsFancyPointerIS7_EEEE5valueEiE4typeELi0EEEu7__decayIDTclsr19__to_address_helperIS7_EE6__callclsr3stdE7declvalIRKS7_EEEEESE_,@function
_ZNSt3__212__to_addressB8ne190106INS_16reverse_iteratorIPNS_6threadEEETnNS_9enable_ifIXsr4_AndINS_8is_classIT_EENS_15_IsFancyPointerIS7_EEEE5valueEiE4typeELi0EEEu7__decayIDTclsr19__to_address_helperIS7_EE6__callclsr3stdE7declvalIRKS7_EEEEESE_: # @_ZNSt3__212__to_addressB8ne190106INS_16reverse_iteratorIPNS_6threadEEETnNS_9enable_ifIXsr4_AndINS_8is_classIT_EENS_15_IsFancyPointerIS7_EEEE5valueEiE4typeELi0EEEu7__decayIDTclsr19__to_address_helperIS7_EE6__callclsr3stdE7declvalIRKS7_EEEEESE_
.Lfunc_begin152:
	.loc	32 216 0 is_stmt 1              # emscripten/cache/sysroot/include/c++/v1/__memory/pointer_traits.h:216:0
	.functype	_ZNSt3__212__to_addressB8ne190106INS_16reverse_iteratorIPNS_6threadEEETnNS_9enable_ifIXsr4_AndINS_8is_classIT_EENS_15_IsFancyPointerIS7_EEEE5valueEiE4typeELi0EEEu7__decayIDTclsr19__to_address_helperIS7_EE6__callclsr3stdE7declvalIRKS7_EEEEESE_ (i32) -> (i32)
	.local  	i32, i32, i32, i32, i32, i32, i32
# %bb.0:                                # %entry
	global.get	__stack_pointer
	local.set	1
	i32.const	16
	local.set	2
	local.get	1
	local.get	2
	i32.sub 
	local.set	3
	local.get	3
	global.set	__stack_pointer
	local.get	3
	local.get	0
	i32.store	12
.Ltmp368:
	.loc	32 217 48 prologue_end          # emscripten/cache/sysroot/include/c++/v1/__memory/pointer_traits.h:217:48
	local.get	3
	i32.load	12
	local.set	4
	.loc	32 217 10 is_stmt 0             # emscripten/cache/sysroot/include/c++/v1/__memory/pointer_traits.h:217:10
	local.get	4
	call	_ZNSt3__219__to_address_helperINS_16reverse_iteratorIPNS_6threadEEEvE6__callB8ne190106ERKS4_
	local.set	5
	.loc	32 217 3                        # emscripten/cache/sysroot/include/c++/v1/__memory/pointer_traits.h:217:3
	i32.const	16
	local.set	6
	local.get	3
	local.get	6
	i32.add 
	local.set	7
	local.get	7
	global.set	__stack_pointer
	local.get	5
	return
	end_function
.Ltmp369:
.Lfunc_end152:
                                        # -- End function
	.section	.text._ZNSt3__216reverse_iteratorIPNS_6threadEEppB8ne190106Ev,"G",@,_ZNSt3__216reverse_iteratorIPNS_6threadEEppB8ne190106Ev,comdat
	.hidden	_ZNSt3__216reverse_iteratorIPNS_6threadEEppB8ne190106Ev # -- Begin function _ZNSt3__216reverse_iteratorIPNS_6threadEEppB8ne190106Ev
	.weak	_ZNSt3__216reverse_iteratorIPNS_6threadEEppB8ne190106Ev
	.type	_ZNSt3__216reverse_iteratorIPNS_6threadEEppB8ne190106Ev,@function
_ZNSt3__216reverse_iteratorIPNS_6threadEEppB8ne190106Ev: # @_ZNSt3__216reverse_iteratorIPNS_6threadEEppB8ne190106Ev
.Lfunc_begin153:
	.loc	30 149 0 is_stmt 1              # emscripten/cache/sysroot/include/c++/v1/__iterator/reverse_iterator.h:149:0
	.functype	_ZNSt3__216reverse_iteratorIPNS_6threadEEppB8ne190106Ev (i32) -> (i32)
	.local  	i32, i32, i32, i32, i32, i32, i32
# %bb.0:                                # %entry
	global.get	__stack_pointer
	local.set	1
	i32.const	16
	local.set	2
	local.get	1
	local.get	2
	i32.sub 
	local.set	3
	local.get	3
	local.get	0
	i32.store	12
	local.get	3
	i32.load	12
	local.set	4
.Ltmp370:
	.loc	30 150 5 prologue_end           # emscripten/cache/sysroot/include/c++/v1/__iterator/reverse_iterator.h:150:5
	local.get	4
	i32.load	0
	local.set	5
	i32.const	-4
	local.set	6
	local.get	5
	local.get	6
	i32.add 
	local.set	7
	local.get	4
	local.get	7
	i32.store	0
	.loc	30 151 5                        # emscripten/cache/sysroot/include/c++/v1/__iterator/reverse_iterator.h:151:5
	local.get	4
	return
	end_function
.Ltmp371:
.Lfunc_end153:
                                        # -- End function
	.section	.text._ZNKSt3__216reverse_iteratorIPNS_6threadEE4baseB8ne190106Ev,"G",@,_ZNKSt3__216reverse_iteratorIPNS_6threadEE4baseB8ne190106Ev,comdat
	.hidden	_ZNKSt3__216reverse_iteratorIPNS_6threadEE4baseB8ne190106Ev # -- Begin function _ZNKSt3__216reverse_iteratorIPNS_6threadEE4baseB8ne190106Ev
	.weak	_ZNKSt3__216reverse_iteratorIPNS_6threadEE4baseB8ne190106Ev
	.type	_ZNKSt3__216reverse_iteratorIPNS_6threadEE4baseB8ne190106Ev,@function
_ZNKSt3__216reverse_iteratorIPNS_6threadEE4baseB8ne190106Ev: # @_ZNKSt3__216reverse_iteratorIPNS_6threadEE4baseB8ne190106Ev
.Lfunc_begin154:
	.loc	30 129 0                        # emscripten/cache/sysroot/include/c++/v1/__iterator/reverse_iterator.h:129:0
	.functype	_ZNKSt3__216reverse_iteratorIPNS_6threadEE4baseB8ne190106Ev (i32) -> (i32)
	.local  	i32, i32, i32, i32, i32
# %bb.0:                                # %entry
	global.get	__stack_pointer
	local.set	1
	i32.const	16
	local.set	2
	local.get	1
	local.get	2
	i32.sub 
	local.set	3
	local.get	3
	local.get	0
	i32.store	12
	local.get	3
	i32.load	12
	local.set	4
.Ltmp372:
	.loc	30 129 83 prologue_end          # emscripten/cache/sysroot/include/c++/v1/__iterator/reverse_iterator.h:129:83
	local.get	4
	i32.load	0
	local.set	5
	.loc	30 129 76 is_stmt 0             # emscripten/cache/sysroot/include/c++/v1/__iterator/reverse_iterator.h:129:76
	local.get	5
	return
	end_function
.Ltmp373:
.Lfunc_end154:
                                        # -- End function
	.section	.text._ZNSt3__219__to_address_helperINS_16reverse_iteratorIPNS_6threadEEEvE6__callB8ne190106ERKS4_,"G",@,_ZNSt3__219__to_address_helperINS_16reverse_iteratorIPNS_6threadEEEvE6__callB8ne190106ERKS4_,comdat
	.hidden	_ZNSt3__219__to_address_helperINS_16reverse_iteratorIPNS_6threadEEEvE6__callB8ne190106ERKS4_ # -- Begin function _ZNSt3__219__to_address_helperINS_16reverse_iteratorIPNS_6threadEEEvE6__callB8ne190106ERKS4_
	.weak	_ZNSt3__219__to_address_helperINS_16reverse_iteratorIPNS_6threadEEEvE6__callB8ne190106ERKS4_
	.type	_ZNSt3__219__to_address_helperINS_16reverse_iteratorIPNS_6threadEEEvE6__callB8ne190106ERKS4_,@function
_ZNSt3__219__to_address_helperINS_16reverse_iteratorIPNS_6threadEEEvE6__callB8ne190106ERKS4_: # @_ZNSt3__219__to_address_helperINS_16reverse_iteratorIPNS_6threadEEEvE6__callB8ne190106ERKS4_
.Lfunc_begin155:
	.loc	32 224 0 is_stmt 1              # emscripten/cache/sysroot/include/c++/v1/__memory/pointer_traits.h:224:0
	.functype	_ZNSt3__219__to_address_helperINS_16reverse_iteratorIPNS_6threadEEEvE6__callB8ne190106ERKS4_ (i32) -> (i32)
	.local  	i32, i32, i32, i32, i32, i32, i32, i32
# %bb.0:                                # %entry
	global.get	__stack_pointer
	local.set	1
	i32.const	16
	local.set	2
	local.get	1
	local.get	2
	i32.sub 
	local.set	3
	local.get	3
	global.set	__stack_pointer
	local.get	3
	local.get	0
	i32.store	12
.Ltmp374:
	.loc	32 225 30 prologue_end          # emscripten/cache/sysroot/include/c++/v1/__memory/pointer_traits.h:225:30
	local.get	3
	i32.load	12
	local.set	4
	.loc	32 225 34 is_stmt 0             # emscripten/cache/sysroot/include/c++/v1/__memory/pointer_traits.h:225:34
	local.get	4
	call	_ZNKSt3__216reverse_iteratorIPNS_6threadEEptB8ne190106Ev
	local.set	5
	.loc	32 225 12                       # emscripten/cache/sysroot/include/c++/v1/__memory/pointer_traits.h:225:12
	local.get	5
	call	_ZNSt3__212__to_addressB8ne190106INS_6threadEEEPT_S3_
	local.set	6
	.loc	32 225 5                        # emscripten/cache/sysroot/include/c++/v1/__memory/pointer_traits.h:225:5
	i32.const	16
	local.set	7
	local.get	3
	local.get	7
	i32.add 
	local.set	8
	local.get	8
	global.set	__stack_pointer
	local.get	6
	return
	end_function
.Ltmp375:
.Lfunc_end155:
                                        # -- End function
	.section	.text._ZNKSt3__216reverse_iteratorIPNS_6threadEEptB8ne190106Ev,"G",@,_ZNKSt3__216reverse_iteratorIPNS_6threadEEptB8ne190106Ev,comdat
	.hidden	_ZNKSt3__216reverse_iteratorIPNS_6threadEEptB8ne190106Ev # -- Begin function _ZNKSt3__216reverse_iteratorIPNS_6threadEEptB8ne190106Ev
	.weak	_ZNKSt3__216reverse_iteratorIPNS_6threadEEptB8ne190106Ev
	.type	_ZNKSt3__216reverse_iteratorIPNS_6threadEEptB8ne190106Ev,@function
_ZNKSt3__216reverse_iteratorIPNS_6threadEEptB8ne190106Ev: # @_ZNKSt3__216reverse_iteratorIPNS_6threadEEptB8ne190106Ev
.Lfunc_begin156:
	.loc	30 146 0 is_stmt 1              # emscripten/cache/sysroot/include/c++/v1/__iterator/reverse_iterator.h:146:0
	.functype	_ZNKSt3__216reverse_iteratorIPNS_6threadEEptB8ne190106Ev (i32) -> (i32)
	.local  	i32, i32, i32, i32, i32, i32, i32
# %bb.0:                                # %entry
	global.get	__stack_pointer
	local.set	1
	i32.const	16
	local.set	2
	local.get	1
	local.get	2
	i32.sub 
	local.set	3
	local.get	3
	global.set	__stack_pointer
	local.get	3
	local.get	0
	i32.store	12
	local.get	3
	i32.load	12
	local.set	4
.Ltmp376:
	.loc	30 146 106 prologue_end         # emscripten/cache/sysroot/include/c++/v1/__iterator/reverse_iterator.h:146:106
	local.get	4
	call	_ZNKSt3__216reverse_iteratorIPNS_6threadEEdeB8ne190106Ev
	local.set	5
	.loc	30 146 84 is_stmt 0             # emscripten/cache/sysroot/include/c++/v1/__iterator/reverse_iterator.h:146:84
	i32.const	16
	local.set	6
	local.get	3
	local.get	6
	i32.add 
	local.set	7
	local.get	7
	global.set	__stack_pointer
	local.get	5
	return
	end_function
.Ltmp377:
.Lfunc_end156:
                                        # -- End function
	.section	.text._ZNKSt3__216reverse_iteratorIPNS_6threadEEdeB8ne190106Ev,"G",@,_ZNKSt3__216reverse_iteratorIPNS_6threadEEdeB8ne190106Ev,comdat
	.hidden	_ZNKSt3__216reverse_iteratorIPNS_6threadEEdeB8ne190106Ev # -- Begin function _ZNKSt3__216reverse_iteratorIPNS_6threadEEdeB8ne190106Ev
	.weak	_ZNKSt3__216reverse_iteratorIPNS_6threadEEdeB8ne190106Ev
	.type	_ZNKSt3__216reverse_iteratorIPNS_6threadEEdeB8ne190106Ev,@function
_ZNKSt3__216reverse_iteratorIPNS_6threadEEdeB8ne190106Ev: # @_ZNKSt3__216reverse_iteratorIPNS_6threadEEdeB8ne190106Ev
.Lfunc_begin157:
	.loc	30 130 0 is_stmt 1              # emscripten/cache/sysroot/include/c++/v1/__iterator/reverse_iterator.h:130:0
	.functype	_ZNKSt3__216reverse_iteratorIPNS_6threadEEdeB8ne190106Ev (i32) -> (i32)
	.local  	i32, i32, i32, i32, i32, i32, i32, i32
# %bb.0:                                # %entry
	global.get	__stack_pointer
	local.set	1
	i32.const	16
	local.set	2
	local.get	1
	local.get	2
	i32.sub 
	local.set	3
	local.get	3
	local.get	0
	i32.store	12
	local.get	3
	i32.load	12
	local.set	4
.Ltmp378:
	.loc	30 131 19 prologue_end          # emscripten/cache/sysroot/include/c++/v1/__iterator/reverse_iterator.h:131:19
	local.get	4
	i32.load	0
	local.set	5
	.loc	30 131 11 is_stmt 0             # emscripten/cache/sysroot/include/c++/v1/__iterator/reverse_iterator.h:131:11
	local.get	3
	local.get	5
	i32.store	8
	.loc	30 132 13 is_stmt 1             # emscripten/cache/sysroot/include/c++/v1/__iterator/reverse_iterator.h:132:13
	local.get	3
	i32.load	8
	local.set	6
	i32.const	-4
	local.set	7
	local.get	6
	local.get	7
	i32.add 
	local.set	8
	local.get	3
	local.get	8
	i32.store	8
	.loc	30 132 5 is_stmt 0              # emscripten/cache/sysroot/include/c++/v1/__iterator/reverse_iterator.h:132:5
	local.get	8
	return
	end_function
.Ltmp379:
.Lfunc_end157:
                                        # -- End function
	.section	.text._ZNSt3__214__split_bufferINS_6threadERNS_9allocatorIS1_EEE5clearB8ne190106Ev,"G",@,_ZNSt3__214__split_bufferINS_6threadERNS_9allocatorIS1_EEE5clearB8ne190106Ev,comdat
	.hidden	_ZNSt3__214__split_bufferINS_6threadERNS_9allocatorIS1_EEE5clearB8ne190106Ev # -- Begin function _ZNSt3__214__split_bufferINS_6threadERNS_9allocatorIS1_EEE5clearB8ne190106Ev
	.weak	_ZNSt3__214__split_bufferINS_6threadERNS_9allocatorIS1_EEE5clearB8ne190106Ev
	.type	_ZNSt3__214__split_bufferINS_6threadERNS_9allocatorIS1_EEE5clearB8ne190106Ev,@function
_ZNSt3__214__split_bufferINS_6threadERNS_9allocatorIS1_EEE5clearB8ne190106Ev: # @_ZNSt3__214__split_bufferINS_6threadERNS_9allocatorIS1_EEE5clearB8ne190106Ev
.Lfunc_begin158:
	.loc	20 130 0 is_stmt 1              # emscripten/cache/sysroot/include/c++/v1/__split_buffer:130:0
	.functype	_ZNSt3__214__split_bufferINS_6threadERNS_9allocatorIS1_EEE5clearB8ne190106Ev (i32) -> ()
	.local  	i32, i32, i32, i32, i32, i32, i32
# %bb.0:                                # %entry
	global.get	__stack_pointer
	local.set	1
	i32.const	16
	local.set	2
	local.get	1
	local.get	2
	i32.sub 
	local.set	3
	local.get	3
	global.set	__stack_pointer
	local.get	3
	local.get	0
	i32.store	12
	local.get	3
	i32.load	12
	local.set	4
.Ltmp380:
	.loc	20 130 98 prologue_end          # emscripten/cache/sysroot/include/c++/v1/__split_buffer:130:98
	local.get	4
	i32.load	4
	local.set	5
	.loc	20 130 80 is_stmt 0             # emscripten/cache/sysroot/include/c++/v1/__split_buffer:130:80
	local.get	4
	local.get	5
	call	_ZNSt3__214__split_bufferINS_6threadERNS_9allocatorIS1_EEE17__destruct_at_endB8ne190106EPS1_
	.loc	20 130 109                      # emscripten/cache/sysroot/include/c++/v1/__split_buffer:130:109
	i32.const	16
	local.set	6
	local.get	3
	local.get	6
	i32.add 
	local.set	7
	local.get	7
	global.set	__stack_pointer
	return
	end_function
.Ltmp381:
.Lfunc_end158:
                                        # -- End function
	.section	.text._ZNKSt3__214__split_bufferINS_6threadERNS_9allocatorIS1_EEE8capacityB8ne190106Ev,"G",@,_ZNKSt3__214__split_bufferINS_6threadERNS_9allocatorIS1_EEE8capacityB8ne190106Ev,comdat
	.hidden	_ZNKSt3__214__split_bufferINS_6threadERNS_9allocatorIS1_EEE8capacityB8ne190106Ev # -- Begin function _ZNKSt3__214__split_bufferINS_6threadERNS_9allocatorIS1_EEE8capacityB8ne190106Ev
	.weak	_ZNKSt3__214__split_bufferINS_6threadERNS_9allocatorIS1_EEE8capacityB8ne190106Ev
	.type	_ZNKSt3__214__split_bufferINS_6threadERNS_9allocatorIS1_EEE8capacityB8ne190106Ev,@function
_ZNKSt3__214__split_bufferINS_6threadERNS_9allocatorIS1_EEE8capacityB8ne190106Ev: # @_ZNKSt3__214__split_bufferINS_6threadERNS_9allocatorIS1_EEE8capacityB8ne190106Ev
.Lfunc_begin159:
	.loc	20 138 0 is_stmt 1              # emscripten/cache/sysroot/include/c++/v1/__split_buffer:138:0
	.functype	_ZNKSt3__214__split_bufferINS_6threadERNS_9allocatorIS1_EEE8capacityB8ne190106Ev (i32) -> (i32)
	.local  	i32, i32, i32, i32, i32, i32, i32, i32, i32, i32, i32, i32
# %bb.0:                                # %entry
	global.get	__stack_pointer
	local.set	1
	i32.const	16
	local.set	2
	local.get	1
	local.get	2
	i32.sub 
	local.set	3
	local.get	3
	global.set	__stack_pointer
	local.get	3
	local.get	0
	i32.store	12
	local.get	3
	i32.load	12
	local.set	4
.Ltmp382:
	.loc	20 139 35 prologue_end          # emscripten/cache/sysroot/include/c++/v1/__split_buffer:139:35
	local.get	4
	call	_ZNKSt3__214__split_bufferINS_6threadERNS_9allocatorIS1_EEE9__end_capB8ne190106Ev
	local.set	5
	local.get	5
	i32.load	0
	local.set	6
	.loc	20 139 49 is_stmt 0             # emscripten/cache/sysroot/include/c++/v1/__split_buffer:139:49
	local.get	4
	i32.load	0
	local.set	7
	.loc	20 139 47                       # emscripten/cache/sysroot/include/c++/v1/__split_buffer:139:47
	local.get	6
	local.get	7
	i32.sub 
	local.set	8
	i32.const	2
	local.set	9
	local.get	8
	local.get	9
	i32.shr_s
	local.set	10
	.loc	20 139 5                        # emscripten/cache/sysroot/include/c++/v1/__split_buffer:139:5
	i32.const	16
	local.set	11
	local.get	3
	local.get	11
	i32.add 
	local.set	12
	local.get	12
	global.set	__stack_pointer
	local.get	10
	return
	end_function
.Ltmp383:
.Lfunc_end159:
                                        # -- End function
	.section	.text._ZNSt3__214__split_bufferINS_6threadERNS_9allocatorIS1_EEE17__destruct_at_endB8ne190106EPS1_,"G",@,_ZNSt3__214__split_bufferINS_6threadERNS_9allocatorIS1_EEE17__destruct_at_endB8ne190106EPS1_,comdat
	.hidden	_ZNSt3__214__split_bufferINS_6threadERNS_9allocatorIS1_EEE17__destruct_at_endB8ne190106EPS1_ # -- Begin function _ZNSt3__214__split_bufferINS_6threadERNS_9allocatorIS1_EEE17__destruct_at_endB8ne190106EPS1_
	.weak	_ZNSt3__214__split_bufferINS_6threadERNS_9allocatorIS1_EEE17__destruct_at_endB8ne190106EPS1_
	.type	_ZNSt3__214__split_bufferINS_6threadERNS_9allocatorIS1_EEE17__destruct_at_endB8ne190106EPS1_,@function
_ZNSt3__214__split_bufferINS_6threadERNS_9allocatorIS1_EEE17__destruct_at_endB8ne190106EPS1_: # @_ZNSt3__214__split_bufferINS_6threadERNS_9allocatorIS1_EEE17__destruct_at_endB8ne190106EPS1_
.Lfunc_begin160:
	.loc	20 193 0 is_stmt 1              # emscripten/cache/sysroot/include/c++/v1/__split_buffer:193:0
	.functype	_ZNSt3__214__split_bufferINS_6threadERNS_9allocatorIS1_EEE17__destruct_at_endB8ne190106EPS1_ (i32, i32) -> ()
	.local  	i32, i32, i32, i32, i32, i32, i32
# %bb.0:                                # %entry
	global.get	__stack_pointer
	local.set	2
	i32.const	16
	local.set	3
	local.get	2
	local.get	3
	i32.sub 
	local.set	4
	local.get	4
	global.set	__stack_pointer
	local.get	4
	local.get	0
	i32.store	12
	local.get	4
	local.get	1
	i32.store	8
	local.get	4
	i32.load	12
	local.set	5
.Ltmp384:
	.loc	20 194 23 prologue_end          # emscripten/cache/sysroot/include/c++/v1/__split_buffer:194:23
	local.get	4
	i32.load	8
	local.set	6
	.loc	20 194 5 is_stmt 0              # emscripten/cache/sysroot/include/c++/v1/__split_buffer:194:5
	local.get	5
	local.get	6
	call	_ZNSt3__214__split_bufferINS_6threadERNS_9allocatorIS1_EEE17__destruct_at_endB8ne190106EPS1_NS_17integral_constantIbLb0EEE
	.loc	20 195 3 is_stmt 1              # emscripten/cache/sysroot/include/c++/v1/__split_buffer:195:3
	i32.const	16
	local.set	7
	local.get	4
	local.get	7
	i32.add 
	local.set	8
	local.get	8
	global.set	__stack_pointer
	return
	end_function
.Ltmp385:
.Lfunc_end160:
                                        # -- End function
	.section	.text._ZNSt3__214__split_bufferINS_6threadERNS_9allocatorIS1_EEE17__destruct_at_endB8ne190106EPS1_NS_17integral_constantIbLb0EEE,"G",@,_ZNSt3__214__split_bufferINS_6threadERNS_9allocatorIS1_EEE17__destruct_at_endB8ne190106EPS1_NS_17integral_constantIbLb0EEE,comdat
	.hidden	_ZNSt3__214__split_bufferINS_6threadERNS_9allocatorIS1_EEE17__destruct_at_endB8ne190106EPS1_NS_17integral_constantIbLb0EEE # -- Begin function _ZNSt3__214__split_bufferINS_6threadERNS_9allocatorIS1_EEE17__destruct_at_endB8ne190106EPS1_NS_17integral_constantIbLb0EEE
	.weak	_ZNSt3__214__split_bufferINS_6threadERNS_9allocatorIS1_EEE17__destruct_at_endB8ne190106EPS1_NS_17integral_constantIbLb0EEE
	.type	_ZNSt3__214__split_bufferINS_6threadERNS_9allocatorIS1_EEE17__destruct_at_endB8ne190106EPS1_NS_17integral_constantIbLb0EEE,@function
_ZNSt3__214__split_bufferINS_6threadERNS_9allocatorIS1_EEE17__destruct_at_endB8ne190106EPS1_NS_17integral_constantIbLb0EEE: # @_ZNSt3__214__split_bufferINS_6threadERNS_9allocatorIS1_EEE17__destruct_at_endB8ne190106EPS1_NS_17integral_constantIbLb0EEE
.Lfunc_begin161:
	.loc	20 335 0                        # emscripten/cache/sysroot/include/c++/v1/__split_buffer:335:0
	.functype	_ZNSt3__214__split_bufferINS_6threadERNS_9allocatorIS1_EEE17__destruct_at_endB8ne190106EPS1_NS_17integral_constantIbLb0EEE (i32, i32) -> ()
	.local  	i32, i32, i32, i32, i32, i32, i32, i32, i32, i32, i32, i32, i32, i32, i32, i32
# %bb.0:                                # %entry
	global.get	__stack_pointer
	local.set	2
	i32.const	16
	local.set	3
	local.get	2
	local.get	3
	i32.sub 
	local.set	4
	local.get	4
	global.set	__stack_pointer
	local.get	4
	local.get	0
	i32.store	8
	local.get	4
	local.get	1
	i32.store	4
	local.get	4
	i32.load	8
	local.set	5
.LBB161_1:                              # %while.cond
                                        # =>This Inner Loop Header: Depth=1
.Ltmp386:
	.loc	20 336 10 prologue_end          # emscripten/cache/sysroot/include/c++/v1/__split_buffer:336:10
	block   	
	loop    	                                # label42:
	local.get	4
	i32.load	4
	local.set	6
	.loc	20 336 24 is_stmt 0             # emscripten/cache/sysroot/include/c++/v1/__split_buffer:336:24
	local.get	5
	i32.load	8
	local.set	7
	.loc	20 336 21                       # emscripten/cache/sysroot/include/c++/v1/__split_buffer:336:21
	local.get	6
	local.get	7
	i32.ne  
	local.set	8
	.loc	20 336 3                        # emscripten/cache/sysroot/include/c++/v1/__split_buffer:336:3
	i32.const	1
	local.set	9
	local.get	8
	local.get	9
	i32.and 
	local.set	10
	local.get	10
	i32.eqz
	br_if   	1                               # 1: down to label41
# %bb.2:                                # %while.body
                                        #   in Loop: Header=BB161_1 Depth=1
	.loc	20 337 29 is_stmt 1             # emscripten/cache/sysroot/include/c++/v1/__split_buffer:337:29
	local.get	5
	call	_ZNSt3__214__split_bufferINS_6threadERNS_9allocatorIS1_EEE7__allocB8ne190106Ev
	local.set	11
	.loc	20 337 58 is_stmt 0             # emscripten/cache/sysroot/include/c++/v1/__split_buffer:337:58
	local.get	5
	i32.load	8
	local.set	12
	i32.const	-4
	local.set	13
	local.get	12
	local.get	13
	i32.add 
	local.set	14
	local.get	5
	local.get	14
	i32.store	8
	.loc	20 337 40                       # emscripten/cache/sysroot/include/c++/v1/__split_buffer:337:40
	local.get	14
	call	_ZNSt3__212__to_addressB8ne190106INS_6threadEEEPT_S3_
	local.set	15
	.loc	20 337 5                        # emscripten/cache/sysroot/include/c++/v1/__split_buffer:337:5
	local.get	11
	local.get	15
	call	_ZNSt3__216allocator_traitsINS_9allocatorINS_6threadEEEE7destroyB8ne190106IS2_TnNS_9enable_ifIXsr13__has_destroyIS3_PT_EE5valueEiE4typeELi0EEEvRS3_S8_
	.loc	20 336 3 is_stmt 1              # emscripten/cache/sysroot/include/c++/v1/__split_buffer:336:3
	br      	0                               # 0: up to label42
.LBB161_3:                              # %while.end
	end_loop
	end_block                               # label41:
	.loc	20 338 1                        # emscripten/cache/sysroot/include/c++/v1/__split_buffer:338:1
	i32.const	16
	local.set	16
	local.get	4
	local.get	16
	i32.add 
	local.set	17
	local.get	17
	global.set	__stack_pointer
	return
	end_function
.Ltmp387:
.Lfunc_end161:
                                        # -- End function
	.section	.text._ZNKSt3__214__split_bufferINS_6threadERNS_9allocatorIS1_EEE9__end_capB8ne190106Ev,"G",@,_ZNKSt3__214__split_bufferINS_6threadERNS_9allocatorIS1_EEE9__end_capB8ne190106Ev,comdat
	.hidden	_ZNKSt3__214__split_bufferINS_6threadERNS_9allocatorIS1_EEE9__end_capB8ne190106Ev # -- Begin function _ZNKSt3__214__split_bufferINS_6threadERNS_9allocatorIS1_EEE9__end_capB8ne190106Ev
	.weak	_ZNKSt3__214__split_bufferINS_6threadERNS_9allocatorIS1_EEE9__end_capB8ne190106Ev
	.type	_ZNKSt3__214__split_bufferINS_6threadERNS_9allocatorIS1_EEE9__end_capB8ne190106Ev,@function
_ZNKSt3__214__split_bufferINS_6threadERNS_9allocatorIS1_EEE9__end_capB8ne190106Ev: # @_ZNKSt3__214__split_bufferINS_6threadERNS_9allocatorIS1_EEE9__end_capB8ne190106Ev
.Lfunc_begin162:
	.loc	20 120 0                        # emscripten/cache/sysroot/include/c++/v1/__split_buffer:120:0
	.functype	_ZNKSt3__214__split_bufferINS_6threadERNS_9allocatorIS1_EEE9__end_capB8ne190106Ev (i32) -> (i32)
	.local  	i32, i32, i32, i32, i32, i32, i32, i32, i32
# %bb.0:                                # %entry
	global.get	__stack_pointer
	local.set	1
	i32.const	16
	local.set	2
	local.get	1
	local.get	2
	i32.sub 
	local.set	3
	local.get	3
	global.set	__stack_pointer
	local.get	3
	local.get	0
	i32.store	12
	local.get	3
	i32.load	12
	local.set	4
.Ltmp388:
	.loc	20 121 12 prologue_end          # emscripten/cache/sysroot/include/c++/v1/__split_buffer:121:12
	i32.const	12
	local.set	5
	local.get	4
	local.get	5
	i32.add 
	local.set	6
	.loc	20 121 23 is_stmt 0             # emscripten/cache/sysroot/include/c++/v1/__split_buffer:121:23
	local.get	6
	call	_ZNKSt3__217__compressed_pairIPNS_6threadERNS_9allocatorIS1_EEE5firstB8ne190106Ev
	local.set	7
	.loc	20 121 5                        # emscripten/cache/sysroot/include/c++/v1/__split_buffer:121:5
	i32.const	16
	local.set	8
	local.get	3
	local.get	8
	i32.add 
	local.set	9
	local.get	9
	global.set	__stack_pointer
	local.get	7
	return
	end_function
.Ltmp389:
.Lfunc_end162:
                                        # -- End function
	.section	.text._ZNKSt3__217__compressed_pairIPNS_6threadERNS_9allocatorIS1_EEE5firstB8ne190106Ev,"G",@,_ZNKSt3__217__compressed_pairIPNS_6threadERNS_9allocatorIS1_EEE5firstB8ne190106Ev,comdat
	.hidden	_ZNKSt3__217__compressed_pairIPNS_6threadERNS_9allocatorIS1_EEE5firstB8ne190106Ev # -- Begin function _ZNKSt3__217__compressed_pairIPNS_6threadERNS_9allocatorIS1_EEE5firstB8ne190106Ev
	.weak	_ZNKSt3__217__compressed_pairIPNS_6threadERNS_9allocatorIS1_EEE5firstB8ne190106Ev
	.type	_ZNKSt3__217__compressed_pairIPNS_6threadERNS_9allocatorIS1_EEE5firstB8ne190106Ev,@function
_ZNKSt3__217__compressed_pairIPNS_6threadERNS_9allocatorIS1_EEE5firstB8ne190106Ev: # @_ZNKSt3__217__compressed_pairIPNS_6threadERNS_9allocatorIS1_EEE5firstB8ne190106Ev
.Lfunc_begin163:
	.loc	15 133 0 is_stmt 1              # emscripten/cache/sysroot/include/c++/v1/__memory/compressed_pair.h:133:0
	.functype	_ZNKSt3__217__compressed_pairIPNS_6threadERNS_9allocatorIS1_EEE5firstB8ne190106Ev (i32) -> (i32)
	.local  	i32, i32, i32, i32, i32, i32, i32
# %bb.0:                                # %entry
	global.get	__stack_pointer
	local.set	1
	i32.const	16
	local.set	2
	local.get	1
	local.get	2
	i32.sub 
	local.set	3
	local.get	3
	global.set	__stack_pointer
	local.get	3
	local.get	0
	i32.store	12
	local.get	3
	i32.load	12
	local.set	4
.Ltmp390:
	.loc	15 134 46 prologue_end          # emscripten/cache/sysroot/include/c++/v1/__memory/compressed_pair.h:134:46
	local.get	4
	call	_ZNKSt3__222__compressed_pair_elemIPNS_6threadELi0ELb0EE5__getB8ne190106Ev
	local.set	5
	.loc	15 134 5 is_stmt 0              # emscripten/cache/sysroot/include/c++/v1/__memory/compressed_pair.h:134:5
	i32.const	16
	local.set	6
	local.get	3
	local.get	6
	i32.add 
	local.set	7
	local.get	7
	global.set	__stack_pointer
	local.get	5
	return
	end_function
.Ltmp391:
.Lfunc_end163:
                                        # -- End function
	.section	.text._ZNSt3__26vectorINS_6threadENS_9allocatorIS1_EEE11__make_iterB8ne190106EPS1_,"G",@,_ZNSt3__26vectorINS_6threadENS_9allocatorIS1_EEE11__make_iterB8ne190106EPS1_,comdat
	.hidden	_ZNSt3__26vectorINS_6threadENS_9allocatorIS1_EEE11__make_iterB8ne190106EPS1_ # -- Begin function _ZNSt3__26vectorINS_6threadENS_9allocatorIS1_EEE11__make_iterB8ne190106EPS1_
	.weak	_ZNSt3__26vectorINS_6threadENS_9allocatorIS1_EEE11__make_iterB8ne190106EPS1_
	.type	_ZNSt3__26vectorINS_6threadENS_9allocatorIS1_EEE11__make_iterB8ne190106EPS1_,@function
_ZNSt3__26vectorINS_6threadENS_9allocatorIS1_EEE11__make_iterB8ne190106EPS1_: # @_ZNSt3__26vectorINS_6threadENS_9allocatorIS1_EEE11__make_iterB8ne190106EPS1_
.Lfunc_begin164:
	.loc	7 839 0 is_stmt 1               # emscripten/cache/sysroot/include/c++/v1/vector:839:0
	.functype	_ZNSt3__26vectorINS_6threadENS_9allocatorIS1_EEE11__make_iterB8ne190106EPS1_ (i32, i32) -> (i32)
	.local  	i32, i32, i32, i32, i32, i32, i32, i32, i32, i32
# %bb.0:                                # %entry
	global.get	__stack_pointer
	local.set	2
	i32.const	16
	local.set	3
	local.get	2
	local.get	3
	i32.sub 
	local.set	4
	local.get	4
	global.set	__stack_pointer
	local.get	4
	local.get	0
	i32.store	8
	local.get	4
	local.get	1
	i32.store	4
.Ltmp392:
	.loc	7 855 21 prologue_end           # emscripten/cache/sysroot/include/c++/v1/vector:855:21
	local.get	4
	i32.load	4
	local.set	5
	.loc	7 855 12 is_stmt 0              # emscripten/cache/sysroot/include/c++/v1/vector:855:12
	i32.const	12
	local.set	6
	local.get	4
	local.get	6
	i32.add 
	local.set	7
	local.get	7
	local.set	8
	local.get	8
	local.get	5
	call	_ZNSt3__211__wrap_iterIPNS_6threadEEC2B8ne190106ES2_
	drop
	.loc	7 855 5                         # emscripten/cache/sysroot/include/c++/v1/vector:855:5
	local.get	4
	i32.load	12
	local.set	9
	i32.const	16
	local.set	10
	local.get	4
	local.get	10
	i32.add 
	local.set	11
	local.get	11
	global.set	__stack_pointer
	local.get	9
	return
	end_function
.Ltmp393:
.Lfunc_end164:
                                        # -- End function
	.section	.text._ZNSt3__211__wrap_iterIPNS_6threadEEC2B8ne190106ES2_,"G",@,_ZNSt3__211__wrap_iterIPNS_6threadEEC2B8ne190106ES2_,comdat
	.hidden	_ZNSt3__211__wrap_iterIPNS_6threadEEC2B8ne190106ES2_ # -- Begin function _ZNSt3__211__wrap_iterIPNS_6threadEEC2B8ne190106ES2_
	.weak	_ZNSt3__211__wrap_iterIPNS_6threadEEC2B8ne190106ES2_
	.type	_ZNSt3__211__wrap_iterIPNS_6threadEEC2B8ne190106ES2_,@function
_ZNSt3__211__wrap_iterIPNS_6threadEEC2B8ne190106ES2_: # @_ZNSt3__211__wrap_iterIPNS_6threadEEC2B8ne190106ES2_
.Lfunc_begin165:
	.loc	17 96 0 is_stmt 1               # emscripten/cache/sysroot/include/c++/v1/__iterator/wrap_iter.h:96:0
	.functype	_ZNSt3__211__wrap_iterIPNS_6threadEEC2B8ne190106ES2_ (i32, i32) -> (i32)
	.local  	i32, i32, i32, i32, i32
# %bb.0:                                # %entry
	global.get	__stack_pointer
	local.set	2
	i32.const	16
	local.set	3
	local.get	2
	local.get	3
	i32.sub 
	local.set	4
	local.get	4
	local.get	0
	i32.store	12
	local.get	4
	local.get	1
	i32.store	8
	local.get	4
	i32.load	12
	local.set	5
.Ltmp394:
	.loc	17 96 112 prologue_end          # emscripten/cache/sysroot/include/c++/v1/__iterator/wrap_iter.h:96:112
	local.get	4
	i32.load	8
	local.set	6
	.loc	17 96 107 is_stmt 0             # emscripten/cache/sysroot/include/c++/v1/__iterator/wrap_iter.h:96:107
	local.get	5
	local.get	6
	i32.store	0
	.loc	17 96 118                       # emscripten/cache/sysroot/include/c++/v1/__iterator/wrap_iter.h:96:118
	local.get	5
	return
	end_function
.Ltmp395:
.Lfunc_end165:
                                        # -- End function
	.section	.text._ZNSt3__217__cxx_atomic_loadB8ne190106IiEET_PKNS_22__cxx_atomic_base_implIS1_EENS_12memory_orderE,"G",@,_ZNSt3__217__cxx_atomic_loadB8ne190106IiEET_PKNS_22__cxx_atomic_base_implIS1_EENS_12memory_orderE,comdat
	.hidden	_ZNSt3__217__cxx_atomic_loadB8ne190106IiEET_PKNS_22__cxx_atomic_base_implIS1_EENS_12memory_orderE # -- Begin function _ZNSt3__217__cxx_atomic_loadB8ne190106IiEET_PKNS_22__cxx_atomic_base_implIS1_EENS_12memory_orderE
	.weak	_ZNSt3__217__cxx_atomic_loadB8ne190106IiEET_PKNS_22__cxx_atomic_base_implIS1_EENS_12memory_orderE
	.type	_ZNSt3__217__cxx_atomic_loadB8ne190106IiEET_PKNS_22__cxx_atomic_base_implIS1_EENS_12memory_orderE,@function
_ZNSt3__217__cxx_atomic_loadB8ne190106IiEET_PKNS_22__cxx_atomic_base_implIS1_EENS_12memory_orderE: # @_ZNSt3__217__cxx_atomic_loadB8ne190106IiEET_PKNS_22__cxx_atomic_base_implIS1_EENS_12memory_orderE
.Lfunc_begin166:
	.loc	1 315 0 is_stmt 1               # emscripten/cache/sysroot/include/c++/v1/__atomic/cxx_atomic_impl.h:315:0
	.functype	_ZNSt3__217__cxx_atomic_loadB8ne190106IiEET_PKNS_22__cxx_atomic_base_implIS1_EENS_12memory_orderE (i32, i32) -> (i32)
	.local  	i32, i32, i32, i32, i32, i32, i32, i32, i32, i32, i32, i32
# %bb.0:                                # %entry
	global.get	__stack_pointer
	local.set	2
	i32.const	16
	local.set	3
	local.get	2
	local.get	3
	i32.sub 
	local.set	4
	local.get	4
	local.get	0
	i32.store	12
	local.get	4
	local.get	1
	i32.store	8
.Ltmp396:
	.loc	1 318 45 prologue_end           # emscripten/cache/sysroot/include/c++/v1/__atomic/cxx_atomic_impl.h:318:45
	local.get	4
	i32.load	12
	local.set	5
	.loc	1 318 104 is_stmt 0             # emscripten/cache/sysroot/include/c++/v1/__atomic/cxx_atomic_impl.h:318:104
	local.get	4
	i32.load	8
	local.set	6
	i32.const	-1
	local.set	7
	.loc	1 317 10 is_stmt 1              # emscripten/cache/sysroot/include/c++/v1/__atomic/cxx_atomic_impl.h:317:10
	local.get	6
	local.get	7
	i32.add 
	local.set	8
	i32.const	4
	local.set	9
	local.get	8
	local.get	9
	i32.gt_u
	drop
	block   	
	block   	
	block   	
	block   	
	local.get	8
	br_table 	{1, 1, 0, 0, 2, 0}      # 1: down to label45
                                        # 0: down to label46
                                        # 2: down to label44
.LBB166_1:                              # %monotonic
	.loc	1 0 10 is_stmt 0                # emscripten/cache/sysroot/include/c++/v1/__atomic/cxx_atomic_impl.h:0:10
	end_block                               # label46:
	.loc	1 317 10                        # emscripten/cache/sysroot/include/c++/v1/__atomic/cxx_atomic_impl.h:317:10
	local.get	5
	i32.atomic.load	0
	local.set	10
	local.get	4
	local.get	10
	i32.store	4
	br      	2                               # 2: down to label43
.LBB166_2:                              # %acquire
	.loc	1 0 10                          # emscripten/cache/sysroot/include/c++/v1/__atomic/cxx_atomic_impl.h:0:10
	end_block                               # label45:
	.loc	1 317 10                        # emscripten/cache/sysroot/include/c++/v1/__atomic/cxx_atomic_impl.h:317:10
	local.get	5
	i32.atomic.load	0
	local.set	11
	local.get	4
	local.get	11
	i32.store	4
	br      	1                               # 1: down to label43
.LBB166_3:                              # %seqcst
	.loc	1 0 10                          # emscripten/cache/sysroot/include/c++/v1/__atomic/cxx_atomic_impl.h:0:10
	end_block                               # label44:
	.loc	1 317 10                        # emscripten/cache/sysroot/include/c++/v1/__atomic/cxx_atomic_impl.h:317:10
	local.get	5
	i32.atomic.load	0
	local.set	12
	local.get	4
	local.get	12
	i32.store	4
.LBB166_4:                              # %atomic.continue
	.loc	1 0 10                          # emscripten/cache/sysroot/include/c++/v1/__atomic/cxx_atomic_impl.h:0:10
	end_block                               # label43:
	.loc	1 317 10                        # emscripten/cache/sysroot/include/c++/v1/__atomic/cxx_atomic_impl.h:317:10
	local.get	4
	i32.load	4
	local.set	13
	.loc	1 317 3                         # emscripten/cache/sysroot/include/c++/v1/__atomic/cxx_atomic_impl.h:317:3
	local.get	13
	return
	end_function
.Ltmp397:
.Lfunc_end166:
                                        # -- End function
	.section	.text.main,"",@
	.hidden	main                            # -- Begin function main
	.globl	main
	.type	main,@function
main:                                   # @main
.Lfunc_begin167:
	.functype	main (i32, i32) -> (i32)
	.local  	i32
# %bb.0:                                # %body
	call	__original_main
	local.set	2
	local.get	2
	return
	end_function
.Lfunc_end167:
                                        # -- End function
	.hidden	global_value                    # @global_value
	.type	global_value,@object
	.section	.bss.global_value,"",@
	.globl	global_value
	.p2align	2, 0x0
global_value:
	.skip	4
	.size	global_value, 4

	.type	.L.str,@object                  # @.str
	.section	.rodata..L.str,"S",@
.L.str:
	.asciz	"Loaded value: %d\n"
	.size	.L.str, 18

	.type	.L.str.1,@object                # @.str.1
	.section	.rodata..L.str.1,"S",@
.L.str.1:
	.asciz	"thread constructor failed"
	.size	.L.str.1, 26

	.type	.L.str.2,@object                # @.str.2
	.section	.rodata..L.str.2,"S",@
.L.str.2:
	.asciz	"vector"
	.size	.L.str.2, 7

	.globl	__main_void
	.type	__main_void,@function
	.hidden	__main_void
.set __main_void, __original_main
	.file	41 "/home/kay/Documents/Code/toolchain-wasm" "emscripten/cache/sysroot/include/c++/v1/cstdint"
	.file	42 "/home/kay/Documents/Code/toolchain-wasm" "emscripten/cache/sysroot/include/stdint.h"
	.file	43 "/home/kay/Documents/Code/toolchain-wasm" "emscripten/cache/sysroot/include/bits/stdint.h"
	.file	44 "/home/kay/Documents/Code/toolchain-wasm" "emscripten/cache/sysroot/include/c++/v1/cstddef"
	.file	45 "/home/kay/Documents/Code/toolchain-wasm" "llvm-project/build_llvm/lib/clang/20/include/__stddef_size_t.h"
	.file	46 "/home/kay/Documents/Code/toolchain-wasm" "llvm-project/build_llvm/lib/clang/20/include/__stddef_max_align_t.h"
	.file	47 "/home/kay/Documents/Code/toolchain-wasm" "emscripten/cache/sysroot/include/c++/v1/__chrono/duration.h"
	.file	48 "/home/kay/Documents/Code/toolchain-wasm" "emscripten/cache/sysroot/include/c++/v1/ctime"
	.file	49 "/home/kay/Documents/Code/toolchain-wasm" "emscripten/cache/sysroot/include/time.h"
	.file	50 "/home/kay/Documents/Code/toolchain-wasm" "emscripten/cache/sysroot/include/c++/v1/cstring"
	.file	51 "/home/kay/Documents/Code/toolchain-wasm" "emscripten/cache/sysroot/include/string.h"
	.file	52 "/home/kay/Documents/Code/toolchain-wasm" "emscripten/cache/sysroot/include/c++/v1/string.h"
	.file	53 "/home/kay/Documents/Code/toolchain-wasm" "emscripten/cache/sysroot/include/c++/v1/__math/traits.h"
	.file	54 "/home/kay/Documents/Code/toolchain-wasm" "emscripten/cache/sysroot/include/c++/v1/math.h"
	.file	55 "/home/kay/Documents/Code/toolchain-wasm" "emscripten/cache/sysroot/include/c++/v1/__math/modulo.h"
	.file	56 "/home/kay/Documents/Code/toolchain-wasm" "emscripten/cache/sysroot/include/c++/v1/cmath"
	.file	57 "/home/kay/Documents/Code/toolchain-wasm" "emscripten/cache/sysroot/include/c++/v1/stdlib.h"
	.file	58 "/home/kay/Documents/Code/toolchain-wasm" "emscripten/cache/sysroot/include/math.h"
	.file	59 "/home/kay/Documents/Code/toolchain-wasm" "emscripten/cache/sysroot/include/c++/v1/cstdlib"
	.file	60 "/home/kay/Documents/Code/toolchain-wasm" "emscripten/cache/sysroot/include/stdlib.h"
	.file	61 "/home/kay/Documents/Code/toolchain-wasm" "emscripten/cache/sysroot/include/c++/v1/cstdio"
	.file	62 "/home/kay/Documents/Code/toolchain-wasm" "emscripten/cache/sysroot/include/stdio.h"
	.file	63 "/home/kay/Documents/Code/toolchain-wasm" "emscripten/cache/sysroot/include/c++/v1/__std_mbstate_t.h"
	.file	64 "/home/kay/Documents/Code/toolchain-wasm" "emscripten/cache/sysroot/include/ctype.h"
	.file	65 "/home/kay/Documents/Code/toolchain-wasm" "emscripten/cache/sysroot/include/c++/v1/cctype"
	.file	66 "/home/kay/Documents/Code/toolchain-wasm" "emscripten/cache/sysroot/include/c++/v1/cwctype"
	.file	67 "/home/kay/Documents/Code/toolchain-wasm" "emscripten/cache/sysroot/include/wctype.h"
	.file	68 "/home/kay/Documents/Code/toolchain-wasm" "emscripten/cache/sysroot/include/c++/v1/cwchar"
	.file	69 "/home/kay/Documents/Code/toolchain-wasm" "emscripten/cache/sysroot/include/wchar.h"
	.file	70 "/home/kay/Documents/Code/toolchain-wasm" "emscripten/cache/sysroot/include/c++/v1/wchar.h"
	.file	71 "/home/kay/Documents/Code/toolchain-wasm" "emscripten/cache/sysroot/include/c++/v1/clocale"
	.file	72 "/home/kay/Documents/Code/toolchain-wasm" "emscripten/cache/sysroot/include/locale.h"
	.file	73 "/home/kay/Documents/Code/toolchain-wasm" "llvm-project/build_llvm/lib/clang/20/include/__stdarg_va_list.h"
	.file	74 "/home/kay/Documents/Code/toolchain-wasm" "emscripten/cache/sysroot/include/c++/v1/cstdarg"
	.file	75 "<stdin>"
	.file	76 "/home/kay/Documents/Code/toolchain-wasm" "emscripten/cache/sysroot/include/c++/v1/__type_traits/enable_if.h"
	.section	.debug_abbrev,"",@
	.int8	1                               # Abbreviation Code
	.int8	17                              # DW_TAG_compile_unit
	.int8	1                               # DW_CHILDREN_yes
	.int8	37                              # DW_AT_producer
	.int8	14                              # DW_FORM_strp
	.int8	19                              # DW_AT_language
	.int8	5                               # DW_FORM_data2
	.int8	3                               # DW_AT_name
	.int8	14                              # DW_FORM_strp
	.int8	16                              # DW_AT_stmt_list
	.int8	23                              # DW_FORM_sec_offset
	.int8	27                              # DW_AT_comp_dir
	.int8	14                              # DW_FORM_strp
	.int8	17                              # DW_AT_low_pc
	.int8	1                               # DW_FORM_addr
	.int8	85                              # DW_AT_ranges
	.int8	23                              # DW_FORM_sec_offset
	.int8	0                               # EOM(1)
	.int8	0                               # EOM(2)
	.int8	2                               # Abbreviation Code
	.int8	52                              # DW_TAG_variable
	.int8	0                               # DW_CHILDREN_no
	.int8	3                               # DW_AT_name
	.int8	14                              # DW_FORM_strp
	.int8	73                              # DW_AT_type
	.int8	19                              # DW_FORM_ref4
	.int8	63                              # DW_AT_external
	.int8	25                              # DW_FORM_flag_present
	.int8	58                              # DW_AT_decl_file
	.int8	11                              # DW_FORM_data1
	.int8	59                              # DW_AT_decl_line
	.int8	11                              # DW_FORM_data1
	.int8	2                               # DW_AT_location
	.int8	24                              # DW_FORM_exprloc
	.int8	0                               # EOM(1)
	.int8	0                               # EOM(2)
	.int8	3                               # Abbreviation Code
	.int8	57                              # DW_TAG_namespace
	.int8	1                               # DW_CHILDREN_yes
	.int8	3                               # DW_AT_name
	.int8	14                              # DW_FORM_strp
	.int8	0                               # EOM(1)
	.int8	0                               # EOM(2)
	.int8	4                               # Abbreviation Code
	.int8	57                              # DW_TAG_namespace
	.int8	1                               # DW_CHILDREN_yes
	.int8	3                               # DW_AT_name
	.int8	14                              # DW_FORM_strp
	.ascii	"\211\001"                      # DW_AT_export_symbols
	.int8	25                              # DW_FORM_flag_present
	.int8	0                               # EOM(1)
	.int8	0                               # EOM(2)
	.int8	5                               # Abbreviation Code
	.int8	19                              # DW_TAG_structure_type
	.int8	1                               # DW_CHILDREN_yes
	.int8	54                              # DW_AT_calling_convention
	.int8	11                              # DW_FORM_data1
	.int8	3                               # DW_AT_name
	.int8	14                              # DW_FORM_strp
	.int8	11                              # DW_AT_byte_size
	.int8	11                              # DW_FORM_data1
	.int8	58                              # DW_AT_decl_file
	.int8	11                              # DW_FORM_data1
	.int8	59                              # DW_AT_decl_line
	.int8	11                              # DW_FORM_data1
	.int8	0                               # EOM(1)
	.int8	0                               # EOM(2)
	.int8	6                               # Abbreviation Code
	.int8	47                              # DW_TAG_template_type_parameter
	.int8	0                               # DW_CHILDREN_no
	.int8	73                              # DW_AT_type
	.int8	19                              # DW_FORM_ref4
	.int8	3                               # DW_AT_name
	.int8	14                              # DW_FORM_strp
	.int8	0                               # EOM(1)
	.int8	0                               # EOM(2)
	.int8	7                               # Abbreviation Code
	.int8	28                              # DW_TAG_inheritance
	.int8	0                               # DW_CHILDREN_no
	.int8	73                              # DW_AT_type
	.int8	19                              # DW_FORM_ref4
	.int8	56                              # DW_AT_data_member_location
	.int8	11                              # DW_FORM_data1
	.int8	0                               # EOM(1)
	.int8	0                               # EOM(2)
	.int8	8                               # Abbreviation Code
	.int8	46                              # DW_TAG_subprogram
	.int8	1                               # DW_CHILDREN_yes
	.int8	3                               # DW_AT_name
	.int8	14                              # DW_FORM_strp
	.int8	58                              # DW_AT_decl_file
	.int8	11                              # DW_FORM_data1
	.int8	59                              # DW_AT_decl_line
	.int8	11                              # DW_FORM_data1
	.int8	60                              # DW_AT_declaration
	.int8	25                              # DW_FORM_flag_present
	.int8	63                              # DW_AT_external
	.int8	25                              # DW_FORM_flag_present
	.int8	0                               # EOM(1)
	.int8	0                               # EOM(2)
	.int8	9                               # Abbreviation Code
	.int8	5                               # DW_TAG_formal_parameter
	.int8	0                               # DW_CHILDREN_no
	.int8	73                              # DW_AT_type
	.int8	19                              # DW_FORM_ref4
	.int8	52                              # DW_AT_artificial
	.int8	25                              # DW_FORM_flag_present
	.int8	0                               # EOM(1)
	.int8	0                               # EOM(2)
	.int8	10                              # Abbreviation Code
	.int8	5                               # DW_TAG_formal_parameter
	.int8	0                               # DW_CHILDREN_no
	.int8	73                              # DW_AT_type
	.int8	19                              # DW_FORM_ref4
	.int8	0                               # EOM(1)
	.int8	0                               # EOM(2)
	.int8	11                              # Abbreviation Code
	.int8	46                              # DW_TAG_subprogram
	.int8	1                               # DW_CHILDREN_yes
	.int8	110                             # DW_AT_linkage_name
	.int8	14                              # DW_FORM_strp
	.int8	3                               # DW_AT_name
	.int8	14                              # DW_FORM_strp
	.int8	58                              # DW_AT_decl_file
	.int8	11                              # DW_FORM_data1
	.int8	59                              # DW_AT_decl_line
	.int8	11                              # DW_FORM_data1
	.int8	73                              # DW_AT_type
	.int8	19                              # DW_FORM_ref4
	.int8	60                              # DW_AT_declaration
	.int8	25                              # DW_FORM_flag_present
	.int8	63                              # DW_AT_external
	.int8	25                              # DW_FORM_flag_present
	.int8	0                               # EOM(1)
	.int8	0                               # EOM(2)
	.int8	12                              # Abbreviation Code
	.int8	48                              # DW_TAG_template_value_parameter
	.int8	0                               # DW_CHILDREN_no
	.int8	73                              # DW_AT_type
	.int8	19                              # DW_FORM_ref4
	.int8	30                              # DW_AT_default_value
	.int8	25                              # DW_FORM_flag_present
	.int8	28                              # DW_AT_const_value
	.int8	15                              # DW_FORM_udata
	.int8	0                               # EOM(1)
	.int8	0                               # EOM(2)
	.int8	13                              # Abbreviation Code
	.int8	48                              # DW_TAG_template_value_parameter
	.int8	0                               # DW_CHILDREN_no
	.int8	73                              # DW_AT_type
	.int8	19                              # DW_FORM_ref4
	.int8	28                              # DW_AT_const_value
	.int8	15                              # DW_FORM_udata
	.int8	0                               # EOM(1)
	.int8	0                               # EOM(2)
	.int8	14                              # Abbreviation Code
	.int8	13                              # DW_TAG_member
	.int8	0                               # DW_CHILDREN_no
	.int8	3                               # DW_AT_name
	.int8	14                              # DW_FORM_strp
	.int8	73                              # DW_AT_type
	.int8	19                              # DW_FORM_ref4
	.int8	58                              # DW_AT_decl_file
	.int8	11                              # DW_FORM_data1
	.int8	59                              # DW_AT_decl_line
	.int8	11                              # DW_FORM_data1
	.int8	56                              # DW_AT_data_member_location
	.int8	11                              # DW_FORM_data1
	.int8	0                               # EOM(1)
	.int8	0                               # EOM(2)
	.int8	15                              # Abbreviation Code
	.int8	13                              # DW_TAG_member
	.int8	0                               # DW_CHILDREN_no
	.int8	3                               # DW_AT_name
	.int8	14                              # DW_FORM_strp
	.int8	73                              # DW_AT_type
	.int8	19                              # DW_FORM_ref4
	.int8	58                              # DW_AT_decl_file
	.int8	11                              # DW_FORM_data1
	.int8	59                              # DW_AT_decl_line
	.int8	11                              # DW_FORM_data1
	.int8	63                              # DW_AT_external
	.int8	25                              # DW_FORM_flag_present
	.int8	60                              # DW_AT_declaration
	.int8	25                              # DW_FORM_flag_present
	.int8	0                               # EOM(1)
	.int8	0                               # EOM(2)
	.int8	16                              # Abbreviation Code
	.int8	46                              # DW_TAG_subprogram
	.int8	1                               # DW_CHILDREN_yes
	.int8	110                             # DW_AT_linkage_name
	.int8	14                              # DW_FORM_strp
	.int8	3                               # DW_AT_name
	.int8	14                              # DW_FORM_strp
	.int8	58                              # DW_AT_decl_file
	.int8	11                              # DW_FORM_data1
	.int8	59                              # DW_AT_decl_line
	.int8	11                              # DW_FORM_data1
	.int8	60                              # DW_AT_declaration
	.int8	25                              # DW_FORM_flag_present
	.int8	63                              # DW_AT_external
	.int8	25                              # DW_FORM_flag_present
	.int8	0                               # EOM(1)
	.int8	0                               # EOM(2)
	.int8	17                              # Abbreviation Code
	.int8	19                              # DW_TAG_structure_type
	.int8	1                               # DW_CHILDREN_yes
	.int8	54                              # DW_AT_calling_convention
	.int8	11                              # DW_FORM_data1
	.int8	3                               # DW_AT_name
	.int8	14                              # DW_FORM_strp
	.int8	11                              # DW_AT_byte_size
	.int8	11                              # DW_FORM_data1
	.int8	58                              # DW_AT_decl_file
	.int8	11                              # DW_FORM_data1
	.int8	59                              # DW_AT_decl_line
	.int8	5                               # DW_FORM_data2
	.int8	0                               # EOM(1)
	.int8	0                               # EOM(2)
	.int8	18                              # Abbreviation Code
	.int8	47                              # DW_TAG_template_type_parameter
	.int8	0                               # DW_CHILDREN_no
	.int8	73                              # DW_AT_type
	.int8	19                              # DW_FORM_ref4
	.int8	3                               # DW_AT_name
	.int8	14                              # DW_FORM_strp
	.int8	30                              # DW_AT_default_value
	.int8	25                              # DW_FORM_flag_present
	.int8	0                               # EOM(1)
	.int8	0                               # EOM(2)
	.int8	19                              # Abbreviation Code
	.int8	46                              # DW_TAG_subprogram
	.int8	1                               # DW_CHILDREN_yes
	.int8	3                               # DW_AT_name
	.int8	14                              # DW_FORM_strp
	.int8	58                              # DW_AT_decl_file
	.int8	11                              # DW_FORM_data1
	.int8	59                              # DW_AT_decl_line
	.int8	5                               # DW_FORM_data2
	.int8	60                              # DW_AT_declaration
	.int8	25                              # DW_FORM_flag_present
	.int8	63                              # DW_AT_external
	.int8	25                              # DW_FORM_flag_present
	.int8	0                               # EOM(1)
	.int8	0                               # EOM(2)
	.int8	20                              # Abbreviation Code
	.int8	46                              # DW_TAG_subprogram
	.int8	1                               # DW_CHILDREN_yes
	.int8	3                               # DW_AT_name
	.int8	14                              # DW_FORM_strp
	.int8	58                              # DW_AT_decl_file
	.int8	11                              # DW_FORM_data1
	.int8	59                              # DW_AT_decl_line
	.int8	5                               # DW_FORM_data2
	.int8	60                              # DW_AT_declaration
	.int8	25                              # DW_FORM_flag_present
	.int8	63                              # DW_AT_external
	.int8	25                              # DW_FORM_flag_present
	.int8	99                              # DW_AT_explicit
	.int8	25                              # DW_FORM_flag_present
	.int8	0                               # EOM(1)
	.int8	0                               # EOM(2)
	.int8	21                              # Abbreviation Code
	.int8	13                              # DW_TAG_member
	.int8	0                               # DW_CHILDREN_no
	.int8	3                               # DW_AT_name
	.int8	14                              # DW_FORM_strp
	.int8	73                              # DW_AT_type
	.int8	19                              # DW_FORM_ref4
	.int8	58                              # DW_AT_decl_file
	.int8	11                              # DW_FORM_data1
	.int8	59                              # DW_AT_decl_line
	.int8	5                               # DW_FORM_data2
	.int8	56                              # DW_AT_data_member_location
	.int8	11                              # DW_FORM_data1
	.int8	0                               # EOM(1)
	.int8	0                               # EOM(2)
	.int8	22                              # Abbreviation Code
	.int8	4                               # DW_TAG_enumeration_type
	.int8	1                               # DW_CHILDREN_yes
	.int8	73                              # DW_AT_type
	.int8	19                              # DW_FORM_ref4
	.int8	3                               # DW_AT_name
	.int8	14                              # DW_FORM_strp
	.int8	11                              # DW_AT_byte_size
	.int8	11                              # DW_FORM_data1
	.int8	58                              # DW_AT_decl_file
	.int8	11                              # DW_FORM_data1
	.int8	59                              # DW_AT_decl_line
	.int8	11                              # DW_FORM_data1
	.int8	0                               # EOM(1)
	.int8	0                               # EOM(2)
	.int8	23                              # Abbreviation Code
	.int8	40                              # DW_TAG_enumerator
	.int8	0                               # DW_CHILDREN_no
	.int8	3                               # DW_AT_name
	.int8	14                              # DW_FORM_strp
	.int8	28                              # DW_AT_const_value
	.int8	15                              # DW_FORM_udata
	.int8	0                               # EOM(1)
	.int8	0                               # EOM(2)
	.int8	24                              # Abbreviation Code
	.int8	40                              # DW_TAG_enumerator
	.int8	0                               # DW_CHILDREN_no
	.int8	3                               # DW_AT_name
	.int8	14                              # DW_FORM_strp
	.int8	28                              # DW_AT_const_value
	.int8	13                              # DW_FORM_sdata
	.int8	0                               # EOM(1)
	.int8	0                               # EOM(2)
	.int8	25                              # Abbreviation Code
	.int8	22                              # DW_TAG_typedef
	.int8	0                               # DW_CHILDREN_no
	.int8	73                              # DW_AT_type
	.int8	19                              # DW_FORM_ref4
	.int8	3                               # DW_AT_name
	.int8	14                              # DW_FORM_strp
	.int8	58                              # DW_AT_decl_file
	.int8	11                              # DW_FORM_data1
	.int8	59                              # DW_AT_decl_line
	.int8	11                              # DW_FORM_data1
	.int8	0                               # EOM(1)
	.int8	0                               # EOM(2)
	.int8	26                              # Abbreviation Code
	.int8	2                               # DW_TAG_class_type
	.int8	1                               # DW_CHILDREN_yes
	.int8	54                              # DW_AT_calling_convention
	.int8	11                              # DW_FORM_data1
	.int8	3                               # DW_AT_name
	.int8	14                              # DW_FORM_strp
	.int8	11                              # DW_AT_byte_size
	.int8	11                              # DW_FORM_data1
	.int8	58                              # DW_AT_decl_file
	.int8	11                              # DW_FORM_data1
	.int8	59                              # DW_AT_decl_line
	.int8	5                               # DW_FORM_data2
	.int8	0                               # EOM(1)
	.int8	0                               # EOM(2)
	.int8	27                              # Abbreviation Code
	.int8	22                              # DW_TAG_typedef
	.int8	0                               # DW_CHILDREN_no
	.int8	73                              # DW_AT_type
	.int8	19                              # DW_FORM_ref4
	.int8	3                               # DW_AT_name
	.int8	14                              # DW_FORM_strp
	.int8	50                              # DW_AT_accessibility
	.int8	11                              # DW_FORM_data1
	.int8	58                              # DW_AT_decl_file
	.int8	11                              # DW_FORM_data1
	.int8	59                              # DW_AT_decl_line
	.int8	5                               # DW_FORM_data2
	.int8	0                               # EOM(1)
	.int8	0                               # EOM(2)
	.int8	28                              # Abbreviation Code
	.int8	46                              # DW_TAG_subprogram
	.int8	1                               # DW_CHILDREN_yes
	.int8	3                               # DW_AT_name
	.int8	14                              # DW_FORM_strp
	.int8	58                              # DW_AT_decl_file
	.int8	11                              # DW_FORM_data1
	.int8	59                              # DW_AT_decl_line
	.int8	5                               # DW_FORM_data2
	.int8	60                              # DW_AT_declaration
	.int8	25                              # DW_FORM_flag_present
	.int8	63                              # DW_AT_external
	.int8	25                              # DW_FORM_flag_present
	.int8	50                              # DW_AT_accessibility
	.int8	11                              # DW_FORM_data1
	.int8	0                               # EOM(1)
	.int8	0                               # EOM(2)
	.int8	29                              # Abbreviation Code
	.int8	46                              # DW_TAG_subprogram
	.int8	1                               # DW_CHILDREN_yes
	.int8	3                               # DW_AT_name
	.int8	14                              # DW_FORM_strp
	.int8	58                              # DW_AT_decl_file
	.int8	11                              # DW_FORM_data1
	.int8	59                              # DW_AT_decl_line
	.int8	5                               # DW_FORM_data2
	.int8	60                              # DW_AT_declaration
	.int8	25                              # DW_FORM_flag_present
	.int8	63                              # DW_AT_external
	.int8	25                              # DW_FORM_flag_present
	.int8	50                              # DW_AT_accessibility
	.int8	11                              # DW_FORM_data1
	.int8	99                              # DW_AT_explicit
	.int8	25                              # DW_FORM_flag_present
	.int8	0                               # EOM(1)
	.int8	0                               # EOM(2)
	.int8	30                              # Abbreviation Code
	.int8	46                              # DW_TAG_subprogram
	.int8	1                               # DW_CHILDREN_yes
	.int8	110                             # DW_AT_linkage_name
	.int8	14                              # DW_FORM_strp
	.int8	3                               # DW_AT_name
	.int8	14                              # DW_FORM_strp
	.int8	58                              # DW_AT_decl_file
	.int8	11                              # DW_FORM_data1
	.int8	59                              # DW_AT_decl_line
	.int8	5                               # DW_FORM_data2
	.int8	73                              # DW_AT_type
	.int8	19                              # DW_FORM_ref4
	.int8	60                              # DW_AT_declaration
	.int8	25                              # DW_FORM_flag_present
	.int8	63                              # DW_AT_external
	.int8	25                              # DW_FORM_flag_present
	.int8	50                              # DW_AT_accessibility
	.int8	11                              # DW_FORM_data1
	.int8	0                               # EOM(1)
	.int8	0                               # EOM(2)
	.int8	31                              # Abbreviation Code
	.int8	46                              # DW_TAG_subprogram
	.int8	1                               # DW_CHILDREN_yes
	.int8	110                             # DW_AT_linkage_name
	.int8	14                              # DW_FORM_strp
	.int8	3                               # DW_AT_name
	.int8	14                              # DW_FORM_strp
	.int8	58                              # DW_AT_decl_file
	.int8	11                              # DW_FORM_data1
	.int8	59                              # DW_AT_decl_line
	.int8	5                               # DW_FORM_data2
	.int8	60                              # DW_AT_declaration
	.int8	25                              # DW_FORM_flag_present
	.int8	63                              # DW_AT_external
	.int8	25                              # DW_FORM_flag_present
	.int8	50                              # DW_AT_accessibility
	.int8	11                              # DW_FORM_data1
	.int8	0                               # EOM(1)
	.int8	0                               # EOM(2)
	.int8	32                              # Abbreviation Code
	.int8	46                              # DW_TAG_subprogram
	.int8	1                               # DW_CHILDREN_yes
	.int8	110                             # DW_AT_linkage_name
	.int8	14                              # DW_FORM_strp
	.int8	3                               # DW_AT_name
	.int8	14                              # DW_FORM_strp
	.int8	58                              # DW_AT_decl_file
	.int8	11                              # DW_FORM_data1
	.int8	59                              # DW_AT_decl_line
	.int8	5                               # DW_FORM_data2
	.int8	60                              # DW_AT_declaration
	.int8	25                              # DW_FORM_flag_present
	.int8	63                              # DW_AT_external
	.int8	25                              # DW_FORM_flag_present
	.int8	0                               # EOM(1)
	.int8	0                               # EOM(2)
	.int8	33                              # Abbreviation Code
	.int8	46                              # DW_TAG_subprogram
	.int8	1                               # DW_CHILDREN_yes
	.int8	110                             # DW_AT_linkage_name
	.int8	14                              # DW_FORM_strp
	.int8	3                               # DW_AT_name
	.int8	14                              # DW_FORM_strp
	.int8	58                              # DW_AT_decl_file
	.int8	11                              # DW_FORM_data1
	.int8	59                              # DW_AT_decl_line
	.int8	5                               # DW_FORM_data2
	.int8	73                              # DW_AT_type
	.int8	19                              # DW_FORM_ref4
	.int8	60                              # DW_AT_declaration
	.int8	25                              # DW_FORM_flag_present
	.int8	63                              # DW_AT_external
	.int8	25                              # DW_FORM_flag_present
	.int8	0                               # EOM(1)
	.int8	0                               # EOM(2)
	.int8	34                              # Abbreviation Code
	.int8	46                              # DW_TAG_subprogram
	.int8	1                               # DW_CHILDREN_yes
	.int8	110                             # DW_AT_linkage_name
	.int8	14                              # DW_FORM_strp
	.int8	3                               # DW_AT_name
	.int8	14                              # DW_FORM_strp
	.int8	58                              # DW_AT_decl_file
	.int8	11                              # DW_FORM_data1
	.int8	59                              # DW_AT_decl_line
	.int8	5                               # DW_FORM_data2
	.int8	60                              # DW_AT_declaration
	.int8	25                              # DW_FORM_flag_present
	.int8	63                              # DW_AT_external
	.int8	25                              # DW_FORM_flag_present
	.ascii	"\207\001"                      # DW_AT_noreturn
	.int8	25                              # DW_FORM_flag_present
	.int8	0                               # EOM(1)
	.int8	0                               # EOM(2)
	.int8	35                              # Abbreviation Code
	.ascii	"\207\202\001"                  # DW_TAG_GNU_template_parameter_pack
	.int8	1                               # DW_CHILDREN_yes
	.int8	3                               # DW_AT_name
	.int8	14                              # DW_FORM_strp
	.int8	0                               # EOM(1)
	.int8	0                               # EOM(2)
	.int8	36                              # Abbreviation Code
	.int8	47                              # DW_TAG_template_type_parameter
	.int8	0                               # DW_CHILDREN_no
	.int8	73                              # DW_AT_type
	.int8	19                              # DW_FORM_ref4
	.int8	0                               # EOM(1)
	.int8	0                               # EOM(2)
	.int8	37                              # Abbreviation Code
	.int8	2                               # DW_TAG_class_type
	.int8	1                               # DW_CHILDREN_yes
	.int8	54                              # DW_AT_calling_convention
	.int8	11                              # DW_FORM_data1
	.int8	3                               # DW_AT_name
	.int8	14                              # DW_FORM_strp
	.int8	11                              # DW_AT_byte_size
	.int8	11                              # DW_FORM_data1
	.int8	58                              # DW_AT_decl_file
	.int8	11                              # DW_FORM_data1
	.int8	59                              # DW_AT_decl_line
	.int8	11                              # DW_FORM_data1
	.int8	0                               # EOM(1)
	.int8	0                               # EOM(2)
	.int8	38                              # Abbreviation Code
	.int8	46                              # DW_TAG_subprogram
	.int8	1                               # DW_CHILDREN_yes
	.int8	3                               # DW_AT_name
	.int8	14                              # DW_FORM_strp
	.int8	58                              # DW_AT_decl_file
	.int8	11                              # DW_FORM_data1
	.int8	59                              # DW_AT_decl_line
	.int8	11                              # DW_FORM_data1
	.int8	60                              # DW_AT_declaration
	.int8	25                              # DW_FORM_flag_present
	.int8	63                              # DW_AT_external
	.int8	25                              # DW_FORM_flag_present
	.int8	50                              # DW_AT_accessibility
	.int8	11                              # DW_FORM_data1
	.int8	0                               # EOM(1)
	.int8	0                               # EOM(2)
	.int8	39                              # Abbreviation Code
	.int8	46                              # DW_TAG_subprogram
	.int8	1                               # DW_CHILDREN_yes
	.int8	110                             # DW_AT_linkage_name
	.int8	14                              # DW_FORM_strp
	.int8	3                               # DW_AT_name
	.int8	14                              # DW_FORM_strp
	.int8	58                              # DW_AT_decl_file
	.int8	11                              # DW_FORM_data1
	.int8	59                              # DW_AT_decl_line
	.int8	11                              # DW_FORM_data1
	.int8	73                              # DW_AT_type
	.int8	19                              # DW_FORM_ref4
	.int8	60                              # DW_AT_declaration
	.int8	25                              # DW_FORM_flag_present
	.int8	63                              # DW_AT_external
	.int8	25                              # DW_FORM_flag_present
	.int8	50                              # DW_AT_accessibility
	.int8	11                              # DW_FORM_data1
	.int8	0                               # EOM(1)
	.int8	0                               # EOM(2)
	.int8	40                              # Abbreviation Code
	.int8	46                              # DW_TAG_subprogram
	.int8	1                               # DW_CHILDREN_yes
	.int8	110                             # DW_AT_linkage_name
	.int8	14                              # DW_FORM_strp
	.int8	3                               # DW_AT_name
	.int8	14                              # DW_FORM_strp
	.int8	58                              # DW_AT_decl_file
	.int8	11                              # DW_FORM_data1
	.int8	59                              # DW_AT_decl_line
	.int8	11                              # DW_FORM_data1
	.int8	60                              # DW_AT_declaration
	.int8	25                              # DW_FORM_flag_present
	.int8	63                              # DW_AT_external
	.int8	25                              # DW_FORM_flag_present
	.int8	50                              # DW_AT_accessibility
	.int8	11                              # DW_FORM_data1
	.int8	0                               # EOM(1)
	.int8	0                               # EOM(2)
	.int8	41                              # Abbreviation Code
	.int8	22                              # DW_TAG_typedef
	.int8	0                               # DW_CHILDREN_no
	.int8	73                              # DW_AT_type
	.int8	19                              # DW_FORM_ref4
	.int8	3                               # DW_AT_name
	.int8	14                              # DW_FORM_strp
	.int8	50                              # DW_AT_accessibility
	.int8	11                              # DW_FORM_data1
	.int8	58                              # DW_AT_decl_file
	.int8	11                              # DW_FORM_data1
	.int8	59                              # DW_AT_decl_line
	.int8	11                              # DW_FORM_data1
	.int8	0                               # EOM(1)
	.int8	0                               # EOM(2)
	.int8	42                              # Abbreviation Code
	.int8	46                              # DW_TAG_subprogram
	.int8	0                               # DW_CHILDREN_no
	.int8	110                             # DW_AT_linkage_name
	.int8	14                              # DW_FORM_strp
	.int8	3                               # DW_AT_name
	.int8	14                              # DW_FORM_strp
	.int8	58                              # DW_AT_decl_file
	.int8	11                              # DW_FORM_data1
	.int8	59                              # DW_AT_decl_line
	.int8	11                              # DW_FORM_data1
	.int8	73                              # DW_AT_type
	.int8	19                              # DW_FORM_ref4
	.int8	60                              # DW_AT_declaration
	.int8	25                              # DW_FORM_flag_present
	.int8	63                              # DW_AT_external
	.int8	25                              # DW_FORM_flag_present
	.int8	50                              # DW_AT_accessibility
	.int8	11                              # DW_FORM_data1
	.int8	0                               # EOM(1)
	.int8	0                               # EOM(2)
	.int8	43                              # Abbreviation Code
	.int8	46                              # DW_TAG_subprogram
	.int8	1                               # DW_CHILDREN_yes
	.int8	3                               # DW_AT_name
	.int8	14                              # DW_FORM_strp
	.int8	58                              # DW_AT_decl_file
	.int8	11                              # DW_FORM_data1
	.int8	59                              # DW_AT_decl_line
	.int8	11                              # DW_FORM_data1
	.int8	60                              # DW_AT_declaration
	.int8	25                              # DW_FORM_flag_present
	.int8	63                              # DW_AT_external
	.int8	25                              # DW_FORM_flag_present
	.int8	50                              # DW_AT_accessibility
	.int8	11                              # DW_FORM_data1
	.int8	99                              # DW_AT_explicit
	.int8	25                              # DW_FORM_flag_present
	.int8	0                               # EOM(1)
	.int8	0                               # EOM(2)
	.int8	44                              # Abbreviation Code
