	.file	"6_release_seqcst_store.cpp"
	.file	1 "/home/kay/Documents/Code/toolchain-wasm/code/AtomicBenchCode" "6_release_seqcst_store.cpp"
	.file	2 "/home/kay/Documents/Code/toolchain-wasm" "emscripten/cache/sysroot/include/c++/v1/__thread/thread.h"
	.file	3 "/home/kay/Documents/Code/toolchain-wasm" "emscripten/cache/sysroot/include/c++/v1/vector"
	.file	4 "/home/kay/Documents/Code/toolchain-wasm" "emscripten/cache/sysroot/include/c++/v1/__atomic/memory_order.h"
	.file	5 "/home/kay/Documents/Code/toolchain-wasm" "llvm-project/build_llvm/lib/clang/20/include/__stddef_size_t.h"
	.file	6 "/home/kay/Documents/Code/toolchain-wasm" "emscripten/cache/sysroot/include/c++/v1/new"
	.file	7 "/home/kay/Documents/Code/toolchain-wasm" "emscripten/cache/sysroot/include/c++/v1/limits"
	.file	8 "/home/kay/Documents/Code/toolchain-wasm" "emscripten/cache/sysroot/include/bits/alltypes.h"
	.file	9 "/home/kay/Documents/Code/toolchain-wasm" "emscripten/cache/sysroot/include/c++/v1/ratio"
	.file	10 "/home/kay/Documents/Code/toolchain-wasm" "emscripten/cache/sysroot/include/c++/v1/__chrono/duration.h"
	.file	11 "/home/kay/Documents/Code/toolchain-wasm" "emscripten/cache/sysroot/include/c++/v1/__type_traits/common_type.h"
	.file	12 "/home/kay/Documents/Code/toolchain-wasm" "emscripten/cache/sysroot/include/c++/v1/__type_traits/underlying_type.h"
	.file	13 "/home/kay/Documents/Code/toolchain-wasm" "emscripten/cache/sysroot/include/c++/v1/__thread/support/pthread.h"
	.file	14 "/home/kay/Documents/Code/toolchain-wasm" "emscripten/cache/sysroot/include/c++/v1/__memory/allocator.h"
	.file	15 "/home/kay/Documents/Code/toolchain-wasm" "emscripten/cache/sysroot/include/c++/v1/__memory/allocator_traits.h"
	.file	16 "/home/kay/Documents/Code/toolchain-wasm" "emscripten/cache/sysroot/include/c++/v1/__memory/compressed_pair.h"
	.file	17 "/home/kay/Documents/Code/toolchain-wasm" "emscripten/cache/sysroot/include/c++/v1/__type_traits/type_identity.h"
	.file	18 "/home/kay/Documents/Code/toolchain-wasm" "emscripten/cache/sysroot/include/c++/v1/__iterator/wrap_iter.h"
	.file	19 "/home/kay/Documents/Code/toolchain-wasm" "emscripten/cache/sysroot/include/c++/v1/__iterator/iterator_traits.h"
	.file	20 "/home/kay/Documents/Code/toolchain-wasm" "llvm-project/build_llvm/lib/clang/20/include/__stddef_ptrdiff_t.h"
	.file	21 "/home/kay/Documents/Code/toolchain-wasm" "emscripten/cache/sysroot/include/c++/v1/__split_buffer"
	.file	22 "/home/kay/Documents/Code/toolchain-wasm" "emscripten/cache/sysroot/include/c++/v1/__type_traits/remove_reference.h"
	.file	23 "/home/kay/Documents/Code/toolchain-wasm" "emscripten/cache/sysroot/include/c++/v1/__type_traits/integral_constant.h"
	.file	24 "/home/kay/Documents/Code/toolchain-wasm" "emscripten/cache/sysroot/include/c++/v1/__atomic/cxx_atomic_impl.h"
	.file	25 "/home/kay/Documents/Code/toolchain-wasm" "emscripten/cache/sysroot/include/c++/v1/__atomic/atomic_base.h"
	.file	26 "/home/kay/Documents/Code/toolchain-wasm" "emscripten/cache/sysroot/include/c++/v1/__atomic/atomic.h"
	.file	27 "/home/kay/Documents/Code/toolchain-wasm" "emscripten/cache/sysroot/include/c++/v1/__functional/weak_result_type.h"
	.file	28 "/home/kay/Documents/Code/toolchain-wasm" "emscripten/cache/sysroot/include/c++/v1/__functional/reference_wrapper.h"
	.file	29 "/home/kay/Documents/Code/toolchain-wasm" "emscripten/cache/sysroot/include/c++/v1/__memory/unique_ptr.h"
	.file	30 "/home/kay/Documents/Code/toolchain-wasm" "emscripten/cache/sysroot/include/c++/v1/stddef.h"
	.file	31 "/home/kay/Documents/Code/toolchain-wasm" "emscripten/cache/sysroot/include/c++/v1/__type_traits/add_lvalue_reference.h"
	.file	32 "/home/kay/Documents/Code/toolchain-wasm" "emscripten/cache/sysroot/include/c++/v1/__tuple/tuple_indices.h"
	.file	33 "/home/kay/Documents/Code/toolchain-wasm" "emscripten/cache/sysroot/include/c++/v1/tuple"
	.file	34 "/home/kay/Documents/Code/toolchain-wasm" "emscripten/cache/sysroot/include/c++/v1/__memory/uninitialized_algorithms.h"
	.file	35 "/home/kay/Documents/Code/toolchain-wasm" "emscripten/cache/sysroot/include/c++/v1/__utility/exception_guard.h"
	.file	36 "/home/kay/Documents/Code/toolchain-wasm" "emscripten/cache/sysroot/include/c++/v1/__iterator/reverse_iterator.h"
	.file	37 "/home/kay/Documents/Code/toolchain-wasm" "emscripten/cache/sysroot/include/c++/v1/__string/char_traits.h"
	.file	38 "/home/kay/Documents/Code/toolchain-wasm" "emscripten/cache/sysroot/include/c++/v1/__iterator/ostreambuf_iterator.h"
	.file	39 "/home/kay/Documents/Code/toolchain-wasm" "emscripten/cache/sysroot/include/c++/v1/__ostream/basic_ostream.h"
	.file	40 "/home/kay/Documents/Code/toolchain-wasm" "emscripten/cache/sysroot/include/c++/v1/__chrono/steady_clock.h"
	.file	41 "/home/kay/Documents/Code/toolchain-wasm" "emscripten/cache/sysroot/include/c++/v1/__chrono/time_point.h"
	.file	42 "/home/kay/Documents/Code/toolchain-wasm" "emscripten/cache/sysroot/include/c++/v1/string"
	.file	43 "/home/kay/Documents/Code/toolchain-wasm" "emscripten/cache/sysroot/include/c++/v1/string_view"
	.globaltype	__stack_pointer, i32
	.tabletype	__indirect_function_table, funcref
	.functype	_Z15benchmarkSeqCstRNSt3__26atomicIiEEii (i32, i32, i32) -> ()
	.functype	_ZNSt3__213__atomic_baseIiLb0EE5storeB8ne190106EiNS_12memory_orderE (i32, i32, i32) -> ()
	.functype	_Z16benchmarkReleaseRNSt3__26atomicIiEEii (i32, i32, i32) -> ()
	.functype	__original_main () -> (i32)
	.functype	_ZNSt3__26chrono12steady_clock3nowEv () -> (i64)
	.functype	_ZNSt3__26vectorINS_6threadENS_9allocatorIS1_EEEC2B8ne190106Ev (i32) -> (i32)
	.functype	_ZNSt3__26vectorINS_6threadENS_9allocatorIS1_EEE9push_backB8ne190106EOS1_ (i32, i32) -> ()
	.functype	_ZNSt3__23refB8ne190106INS_6atomicIiEEEENS_17reference_wrapperIT_EERS4_ (i32) -> (i32)
	.functype	_ZNSt3__26threadC2IRFvRNS_6atomicIiEEiiEJNS_17reference_wrapperIS3_EERiS9_ETnNS_9enable_ifIXntsr7is_sameIu14__remove_cvrefIT_ES0_EE5valueEiE4typeELi0EEEOSB_DpOT0_ (i32, i32, i32, i32, i32) -> (i32)
	.functype	_ZNSt3__26threadD1Ev (i32) -> (i32)
	.functype	_ZNSt3__26vectorINS_6threadENS_9allocatorIS1_EEE5beginB8ne190106Ev (i32) -> (i32)
	.functype	_ZNSt3__26vectorINS_6threadENS_9allocatorIS1_EEE3endB8ne190106Ev (i32) -> (i32)
	.functype	_ZNSt3__2neB8ne190106IPNS_6threadEEEbRKNS_11__wrap_iterIT_EES7_ (i32, i32) -> (i32)
	.functype	_ZNKSt3__211__wrap_iterIPNS_6threadEEdeB8ne190106Ev (i32) -> (i32)
	.functype	_ZNSt3__26thread4joinEv (i32) -> ()
	.functype	_ZNSt3__211__wrap_iterIPNS_6threadEEppB8ne190106Ev (i32) -> (i32)
	.functype	_ZNSt3__26chrono13duration_castB8ne190106INS0_8durationIxNS_5ratioILx1ELx1000EEEEExNS3_ILx1ELx1000000000EEETnNS_9enable_ifIXsr13__is_durationIT_EE5valueEiE4typeELi0EEES8_RKNS2_IT0_T1_EE (i32) -> (i64)
	.functype	_ZNSt3__26chronomiB8ne190106INS0_12steady_clockENS0_8durationIxNS_5ratioILx1ELx1000000000EEEEES6_EENS_11common_typeIJT0_T1_EE4typeERKNS0_10time_pointIT_S8_EERKNSC_ISD_S9_EE (i32, i32) -> (i64)
	.functype	_ZNSt3__2lsB8ne190106INS_11char_traitsIcEEEERNS_13basic_ostreamIcT_EES6_PKc (i32, i32) -> (i32)
	.functype	_ZNSt3__213basic_ostreamIcNS_11char_traitsIcEEElsEx (i32, i64) -> (i32)
	.functype	_ZNKSt3__26chrono8durationIxNS_5ratioILx1ELx1000EEEE5countB8ne190106Ev (i32) -> (i64)
	.functype	_ZNSt3__213basic_ostreamIcNS_11char_traitsIcEEElsB8ne190106EPFRS3_S4_E (i32, i32) -> (i32)
	.functype	_ZNSt3__24endlB8ne190106IcNS_11char_traitsIcEEEERNS_13basic_ostreamIT_T0_EES7_ (i32) -> (i32)
	.functype	_ZNSt3__26vectorINS_6threadENS_9allocatorIS1_EEED2B8ne190106Ev (i32) -> (i32)
	.functype	_ZNSt3__2eqB8ne190106IPNS_6threadEEEbRKNS_11__wrap_iterIT_EES7_ (i32, i32) -> (i32)
	.functype	_ZNKSt3__211__wrap_iterIPNS_6threadEE4baseB8ne190106Ev (i32) -> (i32)
	.functype	_ZNKSt3__26chrono15__duration_castINS0_8durationIxNS_5ratioILx1ELx1000000000EEEEENS2_IxNS3_ILx1ELx1000EEEEENS3_ILx1ELx1000000EEELb1ELb0EEclB8ne190106ERKS5_ (i32, i32) -> (i64)
	.functype	_ZNKSt3__26chrono8durationIxNS_5ratioILx1ELx1000000000EEEE5countB8ne190106Ev (i32) -> (i64)
	.functype	_ZNSt3__26chrono8durationIxNS_5ratioILx1ELx1000EEEEC2B8ne190106IxTnNS_9enable_ifIXaasr14is_convertibleIRKT_xEE5valueooL_ZNS_17integral_constantIbLb0EE5valueEEntsr23treat_as_floating_pointIS7_EE5valueEiE4typeELi0EEES9_ (i32, i32) -> (i32)
	.functype	_ZNSt3__26chronomiB8ne190106IxNS_5ratioILx1ELx1000000000EEExS3_EENS_11common_typeIJNS0_8durationIT_T0_EENS5_IT1_T2_EEEE4typeERKS8_RKSB_ (i32, i32) -> (i64)
	.functype	_ZNKSt3__26chrono10time_pointINS0_12steady_clockENS0_8durationIxNS_5ratioILx1ELx1000000000EEEEEE16time_since_epochB8ne190106Ev (i32) -> (i64)
	.functype	_ZNSt3__26chrono8durationIxNS_5ratioILx1ELx1000000000EEEEC2B8ne190106IxTnNS_9enable_ifIXaasr14is_convertibleIRKT_xEE5valueooL_ZNS_17integral_constantIbLb0EE5valueEEntsr23treat_as_floating_pointIS7_EE5valueEiE4typeELi0EEES9_ (i32, i32) -> (i32)
	.functype	_ZNSt3__218__cxx_atomic_storeB8ne190106IiEEvPNS_22__cxx_atomic_base_implIT_EES2_NS_12memory_orderE (i32, i32, i32) -> ()
	.functype	_ZNSt3__217__compressed_pairIPNS_6threadENS_9allocatorIS1_EEEC2B8ne190106IDnNS_18__default_init_tagEEEOT_OT0_ (i32, i32, i32) -> (i32)
	.functype	_ZNSt3__222__compressed_pair_elemIPNS_6threadELi0ELb0EEC2B8ne190106IDnTnNS_9enable_ifIXntsr7is_sameIS3_u7__decayIT_EEE5valueEiE4typeELi0EEEOS6_ (i32, i32) -> (i32)
	.functype	_ZNSt3__222__compressed_pair_elemINS_9allocatorINS_6threadEEELi1ELb1EEC2B8ne190106ENS_18__default_init_tagE (i32) -> (i32)
	.functype	_ZNSt3__29allocatorINS_6threadEEC2B8ne190106Ev (i32) -> (i32)
	.functype	_ZNSt3__216__non_trivial_ifILb1ENS_9allocatorINS_6threadEEEEC2B8ne190106Ev (i32) -> (i32)
	.functype	_ZNSt3__26vectorINS_6threadENS_9allocatorIS1_EEE16__destroy_vectorC2B8ne190106ERS4_ (i32, i32) -> (i32)
	.functype	_ZNSt3__26vectorINS_6threadENS_9allocatorIS1_EEE16__destroy_vectorclB8ne190106Ev (i32) -> ()
	.functype	_ZNSt3__26vectorINS_6threadENS_9allocatorIS1_EEE7__clearB8ne190106Ev (i32) -> ()
	.functype	_ZNKSt3__26vectorINS_6threadENS_9allocatorIS1_EEE17__annotate_deleteB8ne190106Ev (i32) -> ()
	.functype	_ZNSt3__216allocator_traitsINS_9allocatorINS_6threadEEEE10deallocateB8ne190106ERS3_PS2_m (i32, i32, i32) -> ()
	.functype	_ZNSt3__26vectorINS_6threadENS_9allocatorIS1_EEE7__allocB8ne190106Ev (i32) -> (i32)
	.functype	_ZNKSt3__26vectorINS_6threadENS_9allocatorIS1_EEE8capacityB8ne190106Ev (i32) -> (i32)
	.functype	_ZNSt3__26vectorINS_6threadENS_9allocatorIS1_EEE22__base_destruct_at_endB8ne190106EPS1_ (i32, i32) -> ()
	.functype	_ZNSt3__216allocator_traitsINS_9allocatorINS_6threadEEEE7destroyB8ne190106IS2_TnNS_9enable_ifIXsr13__has_destroyIS3_PT_EE5valueEiE4typeELi0EEEvRS3_S8_ (i32, i32) -> ()
	.functype	_ZNSt3__212__to_addressB8ne190106INS_6threadEEEPT_S3_ (i32) -> (i32)
	.functype	_ZNSt3__29allocatorINS_6threadEE7destroyB8ne190106EPS1_ (i32, i32) -> ()
	.functype	_ZNSt3__29allocatorINS_6threadEE10deallocateB8ne190106EPS1_m (i32, i32, i32) -> ()
	.functype	_ZNSt3__219__libcpp_deallocateB8ne190106EPvmm (i32, i32, i32) -> ()
	.functype	_ZNSt3__224__is_overaligned_for_newB8ne190106Em (i32) -> (i32)
	.functype	_ZNSt3__227__do_deallocate_handle_sizeB8ne190106IJSt11align_val_tEEEvPvmDpT_ (i32, i32, i32) -> ()
	.functype	_ZNSt3__227__do_deallocate_handle_sizeB8ne190106IJEEEvPvmDpT_ (i32, i32) -> ()
	.functype	_ZNSt3__224__libcpp_operator_deleteB8ne190106IJPvmSt11align_val_tEEEvDpT_ (i32, i32, i32) -> ()
	.functype	_ZdlPvmSt11align_val_t (i32, i32, i32) -> ()
	.functype	_ZNSt3__224__libcpp_operator_deleteB8ne190106IJPvmEEEvDpT_ (i32, i32) -> ()
	.functype	_ZdlPvm (i32, i32) -> ()
	.functype	_ZNSt3__217__compressed_pairIPNS_6threadENS_9allocatorIS1_EEE6secondB8ne190106Ev (i32) -> (i32)
	.functype	_ZNSt3__222__compressed_pair_elemINS_9allocatorINS_6threadEEELi1ELb1EE5__getB8ne190106Ev (i32) -> (i32)
	.functype	_ZNKSt3__26vectorINS_6threadENS_9allocatorIS1_EEE9__end_capB8ne190106Ev (i32) -> (i32)
	.functype	_ZNKSt3__217__compressed_pairIPNS_6threadENS_9allocatorIS1_EEE5firstB8ne190106Ev (i32) -> (i32)
	.functype	_ZNKSt3__222__compressed_pair_elemIPNS_6threadELi0ELb0EE5__getB8ne190106Ev (i32) -> (i32)
	.functype	_ZNSt3__217reference_wrapperINS_6atomicIiEEEC2B8ne190106IRS2_vTnNS_9enable_ifIXntsr17__is_same_uncvrefIT_S3_EE5valueEiE4typeELi0EEEOS7_ (i32, i32) -> (i32)
	.functype	_Znwm (i32) -> (i32)
	.functype	_ZNSt3__215__thread_structC1Ev (i32) -> (i32)
	.functype	_ZNSt3__210unique_ptrINS_15__thread_structENS_14default_deleteIS1_EEEC2B8ne190106ILb1EvEEPS1_ (i32, i32) -> (i32)
	.functype	_ZNSt3__25tupleIJNS_10unique_ptrINS_15__thread_structENS_14default_deleteIS2_EEEEPFvRNS_6atomicIiEEiiENS_17reference_wrapperIS7_EEiiEEC2B8ne190106IJS5_RS9_SC_RiSG_ETnNS_9enable_ifIXsr4_AndINS_17integral_constantIbXeqsZT_sZT_EEENSD_17_EnableUTypesCtorIJDpT_EEEEE5valueEiE4typeELi0EEEDpOSL_ (i32, i32, i32, i32, i32, i32) -> (i32)
	.functype	_ZNSt3__210unique_ptrINS_5tupleIJNS0_INS_15__thread_structENS_14default_deleteIS2_EEEEPFvRNS_6atomicIiEEiiENS_17reference_wrapperIS7_EEiiEEENS3_ISD_EEEC2B8ne190106ILb1EvEEPSD_ (i32, i32) -> (i32)
	.functype	_ZNSt3__222__libcpp_thread_createB8ne190106EPmPFPvS1_ES1_ (i32, i32, i32) -> (i32)
	.functype	_ZNSt3__214__thread_proxyB8ne190106INS_5tupleIJNS_10unique_ptrINS_15__thread_structENS_14default_deleteIS3_EEEEPFvRNS_6atomicIiEEiiENS_17reference_wrapperIS8_EEiiEEEEEPvSF_ (i32) -> (i32)
	.functype	_ZNKSt3__210unique_ptrINS_5tupleIJNS0_INS_15__thread_structENS_14default_deleteIS2_EEEEPFvRNS_6atomicIiEEiiENS_17reference_wrapperIS7_EEiiEEENS3_ISD_EEE3getB8ne190106Ev (i32) -> (i32)
	.functype	_ZNSt3__210unique_ptrINS_5tupleIJNS0_INS_15__thread_structENS_14default_deleteIS2_EEEEPFvRNS_6atomicIiEEiiENS_17reference_wrapperIS7_EEiiEEENS3_ISD_EEE7releaseB8ne190106Ev (i32) -> (i32)
	.functype	_ZNSt3__220__throw_system_errorEiPKc (i32, i32) -> ()
	.functype	_ZNSt3__210unique_ptrINS_5tupleIJNS0_INS_15__thread_structENS_14default_deleteIS2_EEEEPFvRNS_6atomicIiEEiiENS_17reference_wrapperIS7_EEiiEEENS3_ISD_EEED2B8ne190106Ev (i32) -> (i32)
	.functype	_ZNSt3__210unique_ptrINS_15__thread_structENS_14default_deleteIS1_EEED2B8ne190106Ev (i32) -> (i32)
	.functype	_ZNSt3__217__compressed_pairIPNS_15__thread_structENS_14default_deleteIS1_EEEC2B8ne190106IRS2_NS_16__value_init_tagEEEOT_OT0_ (i32, i32, i32) -> (i32)
	.functype	_ZNSt3__222__compressed_pair_elemIPNS_15__thread_structELi0ELb0EEC2B8ne190106IRS2_TnNS_9enable_ifIXntsr7is_sameIS3_u7__decayIT_EEE5valueEiE4typeELi0EEEOS7_ (i32, i32) -> (i32)
	.functype	_ZNSt3__222__compressed_pair_elemINS_14default_deleteINS_15__thread_structEEELi1ELb1EEC2B8ne190106ENS_16__value_init_tagE (i32) -> (i32)
	.functype	_ZNSt3__212__tuple_implINS_15__tuple_indicesIJLm0ELm1ELm2ELm3ELm4EEEEJNS_10unique_ptrINS_15__thread_structENS_14default_deleteIS4_EEEEPFvRNS_6atomicIiEEiiENS_17reference_wrapperIS9_EEiiEEC2B8ne190106IJLm0ELm1ELm2ELm3ELm4EEJS7_SC_SE_iiETpTnmJEJEJS7_RSB_SE_RiSI_EEENS1_IJXspT_EEEENS_13__tuple_typesIJDpT0_EEENS1_IJXspT1_EEEENSK_IJDpT2_EEEDpOT3_ (i32, i32, i32, i32, i32, i32) -> (i32)
	.functype	_ZNSt3__212__tuple_leafILm0ENS_10unique_ptrINS_15__thread_structENS_14default_deleteIS2_EEEELb0EEC2B8ne190106IS5_TnNS_9enable_ifIXsr4_AndINS_17integral_constantIbXntu9__is_sameu14__remove_cvrefIT_ES6_EEEENS_16is_constructibleIS5_JSA_EEEEE5valueEiE4typeELi0EEEOSA_ (i32, i32) -> (i32)
	.functype	_ZNSt3__212__tuple_leafILm1EPFvRNS_6atomicIiEEiiELb0EEC2B8ne190106IRS4_TnNS_9enable_ifIXsr4_AndINS_17integral_constantIbXntu9__is_sameu14__remove_cvrefIT_ES6_EEEENS_16is_constructibleIS5_JSB_EEEEE5valueEiE4typeELi0EEEOSB_ (i32, i32) -> (i32)
	.functype	_ZNSt3__212__tuple_leafILm2ENS_17reference_wrapperINS_6atomicIiEEEELb0EEC2B8ne190106IS4_TnNS_9enable_ifIXsr4_AndINS_17integral_constantIbXntu9__is_sameu14__remove_cvrefIT_ES5_EEEENS_16is_constructibleIS4_JS9_EEEEE5valueEiE4typeELi0EEEOS9_ (i32, i32) -> (i32)
	.functype	_ZNSt3__212__tuple_leafILm3EiLb0EEC2B8ne190106IRiTnNS_9enable_ifIXsr4_AndINS_17integral_constantIbXntu9__is_sameu14__remove_cvrefIT_ES1_EEEENS_16is_constructibleIiJS6_EEEEE5valueEiE4typeELi0EEEOS6_ (i32, i32) -> (i32)
	.functype	_ZNSt3__212__tuple_leafILm4EiLb0EEC2B8ne190106IRiTnNS_9enable_ifIXsr4_AndINS_17integral_constantIbXntu9__is_sameu14__remove_cvrefIT_ES1_EEEENS_16is_constructibleIiJS6_EEEEE5valueEiE4typeELi0EEEOS6_ (i32, i32) -> (i32)
	.functype	_ZNSt3__210unique_ptrINS_15__thread_structENS_14default_deleteIS1_EEEC2B8ne190106EOS4_ (i32, i32) -> (i32)
	.functype	_ZNSt3__210unique_ptrINS_15__thread_structENS_14default_deleteIS1_EEE7releaseB8ne190106Ev (i32) -> (i32)
	.functype	_ZNSt3__210unique_ptrINS_15__thread_structENS_14default_deleteIS1_EEE11get_deleterB8ne190106Ev (i32) -> (i32)
	.functype	_ZNSt3__217__compressed_pairIPNS_15__thread_structENS_14default_deleteIS1_EEEC2B8ne190106IS2_S4_EEOT_OT0_ (i32, i32, i32) -> (i32)
	.functype	_ZNSt3__217__compressed_pairIPNS_15__thread_structENS_14default_deleteIS1_EEE5firstB8ne190106Ev (i32) -> (i32)
	.functype	_ZNSt3__222__compressed_pair_elemIPNS_15__thread_structELi0ELb0EE5__getB8ne190106Ev (i32) -> (i32)
	.functype	_ZNSt3__217__compressed_pairIPNS_15__thread_structENS_14default_deleteIS1_EEE6secondB8ne190106Ev (i32) -> (i32)
	.functype	_ZNSt3__222__compressed_pair_elemINS_14default_deleteINS_15__thread_structEEELi1ELb1EE5__getB8ne190106Ev (i32) -> (i32)
	.functype	_ZNSt3__222__compressed_pair_elemIPNS_15__thread_structELi0ELb0EEC2B8ne190106IS2_TnNS_9enable_ifIXntsr7is_sameIS3_u7__decayIT_EEE5valueEiE4typeELi0EEEOS6_ (i32, i32) -> (i32)
	.functype	_ZNSt3__222__compressed_pair_elemINS_14default_deleteINS_15__thread_structEEELi1ELb1EEC2B8ne190106IS3_TnNS_9enable_ifIXntsr7is_sameIS4_u7__decayIT_EEE5valueEiE4typeELi0EEEOS7_ (i32, i32) -> (i32)
	.functype	_ZNSt3__217__compressed_pairIPNS_5tupleIJNS_10unique_ptrINS_15__thread_structENS_14default_deleteIS3_EEEEPFvRNS_6atomicIiEEiiENS_17reference_wrapperIS8_EEiiEEENS4_ISE_EEEC2B8ne190106IRSF_NS_16__value_init_tagEEEOT_OT0_ (i32, i32, i32) -> (i32)
	.functype	_ZNSt3__222__compressed_pair_elemIPNS_5tupleIJNS_10unique_ptrINS_15__thread_structENS_14default_deleteIS3_EEEEPFvRNS_6atomicIiEEiiENS_17reference_wrapperIS8_EEiiEEELi0ELb0EEC2B8ne190106IRSF_TnNS_9enable_ifIXntsr7is_sameISG_u7__decayIT_EEE5valueEiE4typeELi0EEEOSK_ (i32, i32) -> (i32)
	.functype	_ZNSt3__222__compressed_pair_elemINS_14default_deleteINS_5tupleIJNS_10unique_ptrINS_15__thread_structENS1_IS4_EEEEPFvRNS_6atomicIiEEiiENS_17reference_wrapperIS8_EEiiEEEEELi1ELb1EEC2B8ne190106ENS_16__value_init_tagE (i32) -> (i32)
	.functype	pthread_create (i32, i32, i32, i32) -> (i32)
	.functype	_ZNSt3__219__thread_local_dataEv () -> (i32)
	.functype	_ZNSt3__221__thread_specific_ptrINS_15__thread_structEE11set_pointerEPS1_ (i32, i32) -> ()
	.functype	_ZNSt3__23getB8ne190106ILm0EJNS_10unique_ptrINS_15__thread_structENS_14default_deleteIS2_EEEEPFvRNS_6atomicIiEEiiENS_17reference_wrapperIS7_EEiiEEERNS_13tuple_elementIXT_ENS_5tupleIJDpT0_EEEE4typeERSH_ (i32) -> (i32)
	.functype	_ZNSt3__216__thread_executeB8ne190106INS_10unique_ptrINS_15__thread_structENS_14default_deleteIS2_EEEEPFvRNS_6atomicIiEEiiEJNS_17reference_wrapperIS7_EEiiEJLm2ELm3ELm4EEEEvRNS_5tupleIJT_T0_DpT1_EEENS_15__tuple_indicesIJXspT2_EEEE (i32) -> ()
	.functype	_ZNSt3__216__libcpp_tls_setB8ne190106EjPv (i32, i32) -> (i32)
	.functype	pthread_setspecific (i32, i32) -> (i32)
	.functype	_ZNSt3__212__tuple_leafILm0ENS_10unique_ptrINS_15__thread_structENS_14default_deleteIS2_EEEELb0EE3getB8ne190106Ev (i32) -> (i32)
	.functype	_ZNSt3__28__invokeB8ne190106IPFvRNS_6atomicIiEEiiEJNS_17reference_wrapperIS2_EEiiEEEDTclclsr3stdE7declvalIT_EEspclsr3stdE7declvalIT0_EEEEOS8_DpOS9_ (i32, i32, i32, i32) -> ()
	.functype	_ZNSt3__23getB8ne190106ILm1EJNS_10unique_ptrINS_15__thread_structENS_14default_deleteIS2_EEEEPFvRNS_6atomicIiEEiiENS_17reference_wrapperIS7_EEiiEEERNS_13tuple_elementIXT_ENS_5tupleIJDpT0_EEEE4typeERSH_ (i32) -> (i32)
	.functype	_ZNSt3__23getB8ne190106ILm2EJNS_10unique_ptrINS_15__thread_structENS_14default_deleteIS2_EEEEPFvRNS_6atomicIiEEiiENS_17reference_wrapperIS7_EEiiEEERNS_13tuple_elementIXT_ENS_5tupleIJDpT0_EEEE4typeERSH_ (i32) -> (i32)
	.functype	_ZNSt3__23getB8ne190106ILm3EJNS_10unique_ptrINS_15__thread_structENS_14default_deleteIS2_EEEEPFvRNS_6atomicIiEEiiENS_17reference_wrapperIS7_EEiiEEERNS_13tuple_elementIXT_ENS_5tupleIJDpT0_EEEE4typeERSH_ (i32) -> (i32)
	.functype	_ZNSt3__23getB8ne190106ILm4EJNS_10unique_ptrINS_15__thread_structENS_14default_deleteIS2_EEEEPFvRNS_6atomicIiEEiiENS_17reference_wrapperIS7_EEiiEEERNS_13tuple_elementIXT_ENS_5tupleIJDpT0_EEEE4typeERSH_ (i32) -> (i32)
	.functype	_ZNKSt3__217reference_wrapperINS_6atomicIiEEEcvRS2_B8ne190106Ev (i32) -> (i32)
	.functype	_ZNSt3__212__tuple_leafILm1EPFvRNS_6atomicIiEEiiELb0EE3getB8ne190106Ev (i32) -> (i32)
	.functype	_ZNSt3__212__tuple_leafILm2ENS_17reference_wrapperINS_6atomicIiEEEELb0EE3getB8ne190106Ev (i32) -> (i32)
	.functype	_ZNSt3__212__tuple_leafILm3EiLb0EE3getB8ne190106Ev (i32) -> (i32)
	.functype	_ZNSt3__212__tuple_leafILm4EiLb0EE3getB8ne190106Ev (i32) -> (i32)
	.functype	_ZNKSt3__217__compressed_pairIPNS_5tupleIJNS_10unique_ptrINS_15__thread_structENS_14default_deleteIS3_EEEEPFvRNS_6atomicIiEEiiENS_17reference_wrapperIS8_EEiiEEENS4_ISE_EEE5firstB8ne190106Ev (i32) -> (i32)
	.functype	_ZNKSt3__222__compressed_pair_elemIPNS_5tupleIJNS_10unique_ptrINS_15__thread_structENS_14default_deleteIS3_EEEEPFvRNS_6atomicIiEEiiENS_17reference_wrapperIS8_EEiiEEELi0ELb0EE5__getB8ne190106Ev (i32) -> (i32)
	.functype	_ZNSt3__217__compressed_pairIPNS_5tupleIJNS_10unique_ptrINS_15__thread_structENS_14default_deleteIS3_EEEEPFvRNS_6atomicIiEEiiENS_17reference_wrapperIS8_EEiiEEENS4_ISE_EEE5firstB8ne190106Ev (i32) -> (i32)
	.functype	_ZNSt3__222__compressed_pair_elemIPNS_5tupleIJNS_10unique_ptrINS_15__thread_structENS_14default_deleteIS3_EEEEPFvRNS_6atomicIiEEiiENS_17reference_wrapperIS8_EEiiEEELi0ELb0EE5__getB8ne190106Ev (i32) -> (i32)
	.functype	_ZNSt3__210unique_ptrINS_5tupleIJNS0_INS_15__thread_structENS_14default_deleteIS2_EEEEPFvRNS_6atomicIiEEiiENS_17reference_wrapperIS7_EEiiEEENS3_ISD_EEE5resetB8ne190106EPSD_ (i32, i32) -> ()
	.functype	_ZNSt3__217__compressed_pairIPNS_5tupleIJNS_10unique_ptrINS_15__thread_structENS_14default_deleteIS3_EEEEPFvRNS_6atomicIiEEiiENS_17reference_wrapperIS8_EEiiEEENS4_ISE_EEE6secondB8ne190106Ev (i32) -> (i32)
	.functype	_ZNKSt3__214default_deleteINS_5tupleIJNS_10unique_ptrINS_15__thread_structENS0_IS3_EEEEPFvRNS_6atomicIiEEiiENS_17reference_wrapperIS7_EEiiEEEEclB8ne190106EPSD_ (i32, i32) -> ()
	.functype	_ZNSt3__222__compressed_pair_elemINS_14default_deleteINS_5tupleIJNS_10unique_ptrINS_15__thread_structENS1_IS4_EEEEPFvRNS_6atomicIiEEiiENS_17reference_wrapperIS8_EEiiEEEEELi1ELb1EE5__getB8ne190106Ev (i32) -> (i32)
	.functype	_ZNSt3__25tupleIJNS_10unique_ptrINS_15__thread_structENS_14default_deleteIS2_EEEEPFvRNS_6atomicIiEEiiENS_17reference_wrapperIS7_EEiiEED2Ev (i32) -> (i32)
	.functype	_ZNSt3__212__tuple_implINS_15__tuple_indicesIJLm0ELm1ELm2ELm3ELm4EEEEJNS_10unique_ptrINS_15__thread_structENS_14default_deleteIS4_EEEEPFvRNS_6atomicIiEEiiENS_17reference_wrapperIS9_EEiiEED2Ev (i32) -> (i32)
	.functype	_ZNSt3__212__tuple_leafILm0ENS_10unique_ptrINS_15__thread_structENS_14default_deleteIS2_EEEELb0EED2Ev (i32) -> (i32)
	.functype	_ZNSt3__210unique_ptrINS_15__thread_structENS_14default_deleteIS1_EEE5resetB8ne190106EPS1_ (i32, i32) -> ()
	.functype	_ZNKSt3__214default_deleteINS_15__thread_structEEclB8ne190106EPS1_ (i32, i32) -> ()
	.functype	_ZNSt3__215__thread_structD1Ev (i32) -> (i32)
	.functype	_ZNSt3__26vectorINS_6threadENS_9allocatorIS1_EEE9__end_capB8ne190106Ev (i32) -> (i32)
	.functype	_ZNSt3__26vectorINS_6threadENS_9allocatorIS1_EEE22__construct_one_at_endB8ne190106IJS1_EEEvDpOT_ (i32, i32) -> ()
	.functype	_ZNSt3__26vectorINS_6threadENS_9allocatorIS1_EEE21__push_back_slow_pathIS1_EEPS1_OT_ (i32, i32) -> (i32)
	.functype	_ZNSt3__217__compressed_pairIPNS_6threadENS_9allocatorIS1_EEE5firstB8ne190106Ev (i32) -> (i32)
	.functype	_ZNSt3__222__compressed_pair_elemIPNS_6threadELi0ELb0EE5__getB8ne190106Ev (i32) -> (i32)
	.functype	_ZNSt3__26vectorINS_6threadENS_9allocatorIS1_EEE21_ConstructTransactionC2B8ne190106ERS4_m (i32, i32, i32) -> (i32)
	.functype	_ZNSt3__216allocator_traitsINS_9allocatorINS_6threadEEEE9constructB8ne190106IS2_JS2_ETnNS_9enable_ifIXsr15__has_constructIS3_PT_DpT0_EE5valueEiE4typeELi0EEEvRS3_S8_DpOS9_ (i32, i32, i32) -> ()
	.functype	_ZNSt3__26vectorINS_6threadENS_9allocatorIS1_EEE21_ConstructTransactionD2B8ne190106Ev (i32) -> (i32)
	.functype	_ZNSt3__29allocatorINS_6threadEE9constructB8ne190106IS1_JS1_EEEvPT_DpOT0_ (i32, i32, i32) -> ()
	.functype	_ZNSt3__26threadC2B8ne190106EOS0_ (i32, i32) -> (i32)
	.functype	_ZNKSt3__26vectorINS_6threadENS_9allocatorIS1_EEE11__recommendB8ne190106Em (i32, i32) -> (i32)
	.functype	_ZNKSt3__26vectorINS_6threadENS_9allocatorIS1_EEE4sizeB8ne190106Ev (i32) -> (i32)
	.functype	_ZNSt3__214__split_bufferINS_6threadERNS_9allocatorIS1_EEEC2EmmS4_ (i32, i32, i32, i32) -> (i32)
	.functype	_ZNSt3__26vectorINS_6threadENS_9allocatorIS1_EEE26__swap_out_circular_bufferERNS_14__split_bufferIS1_RS3_EE (i32, i32) -> ()
	.functype	_ZNSt3__214__split_bufferINS_6threadERNS_9allocatorIS1_EEED2Ev (i32) -> (i32)
	.functype	_ZNKSt3__26vectorINS_6threadENS_9allocatorIS1_EEE8max_sizeEv (i32) -> (i32)
	.functype	_ZNKSt3__26vectorINS_6threadENS_9allocatorIS1_EEE20__throw_length_errorB8ne190106Ev (i32) -> ()
	.functype	_ZNSt3__23maxB8ne190106ImEERKT_S3_S3_ (i32, i32) -> (i32)
	.functype	_ZNSt3__23minB8ne190106ImEERKT_S3_S3_ (i32, i32) -> (i32)
	.functype	_ZNSt3__216allocator_traitsINS_9allocatorINS_6threadEEEE8max_sizeB8ne190106IS3_TnNS_9enable_ifIXsr14__has_max_sizeIKT_EE5valueEiE4typeELi0EEEmRKS3_ (i32) -> (i32)
	.functype	_ZNKSt3__26vectorINS_6threadENS_9allocatorIS1_EEE7__allocB8ne190106Ev (i32) -> (i32)
	.functype	_ZNSt3__214numeric_limitsIlE3maxB8ne190106Ev () -> (i32)
	.functype	_ZNSt3__23minB8ne190106ImNS_6__lessIvvEEEERKT_S5_S5_T0_ (i32, i32) -> (i32)
	.functype	_ZNKSt3__26__lessIvvEclB8ne190106ImmEEbRKT_RKT0_ (i32, i32, i32) -> (i32)
	.functype	_ZNKSt3__29allocatorINS_6threadEE8max_sizeB8ne190106Ev (i32) -> (i32)
	.functype	_ZNKSt3__217__compressed_pairIPNS_6threadENS_9allocatorIS1_EEE6secondB8ne190106Ev (i32) -> (i32)
	.functype	_ZNKSt3__222__compressed_pair_elemINS_9allocatorINS_6threadEEELi1ELb1EE5__getB8ne190106Ev (i32) -> (i32)
	.functype	_ZNSt3__223__libcpp_numeric_limitsIlLb1EE3maxB8ne190106Ev () -> (i32)
	.functype	_ZNSt3__220__throw_length_errorB8ne190106EPKc (i32) -> ()
	.functype	__cxa_allocate_exception (i32) -> (i32)
	.functype	_ZNSt12length_errorC2B8ne190106EPKc (i32, i32) -> (i32)
	.functype	_ZNSt12length_errorD1Ev (i32) -> (i32)
	.functype	__cxa_throw (i32, i32, i32) -> ()
	.functype	_ZNSt11logic_errorC2EPKc (i32, i32) -> (i32)
	.functype	_ZNSt3__23maxB8ne190106ImNS_6__lessIvvEEEERKT_S5_S5_T0_ (i32, i32) -> (i32)
	.functype	_ZNSt3__217__compressed_pairIPNS_6threadERNS_9allocatorIS1_EEEC2B8ne190106IDnS5_EEOT_OT0_ (i32, i32, i32) -> (i32)
	.functype	_ZNSt3__219__allocate_at_leastB8ne190106INS_9allocatorINS_6threadEEEEENS_19__allocation_resultINS_16allocator_traitsIT_E7pointerEEERS6_m (i32, i32, i32) -> ()
	.functype	_ZNSt3__214__split_bufferINS_6threadERNS_9allocatorIS1_EEE7__allocB8ne190106Ev (i32) -> (i32)
	.functype	_ZNSt3__214__split_bufferINS_6threadERNS_9allocatorIS1_EEE9__end_capB8ne190106Ev (i32) -> (i32)
	.functype	_ZNSt3__222__compressed_pair_elemIRNS_9allocatorINS_6threadEEELi1ELb0EEC2B8ne190106IS4_TnNS_9enable_ifIXntsr7is_sameIS5_u7__decayIT_EEE5valueEiE4typeELi0EEEOS8_ (i32, i32) -> (i32)
	.functype	_ZNSt3__29allocatorINS_6threadEE8allocateB8ne190106Em (i32, i32) -> (i32)
	.functype	_ZSt28__throw_bad_array_new_lengthB8ne190106v () -> ()
	.functype	_ZNSt3__217__libcpp_allocateB8ne190106Emm (i32, i32) -> (i32)
	.functype	_ZNSt20bad_array_new_lengthC1Ev (i32) -> (i32)
	.functype	_ZNSt20bad_array_new_lengthD1Ev (i32) -> (i32)
	.functype	_ZNSt3__221__libcpp_operator_newB8ne190106IJmSt11align_val_tEEEPvDpT_ (i32, i32) -> (i32)
	.functype	_ZNSt3__221__libcpp_operator_newB8ne190106IJmEEEPvDpT_ (i32) -> (i32)
	.functype	_ZnwmSt11align_val_t (i32, i32) -> (i32)
	.functype	_ZNSt3__217__compressed_pairIPNS_6threadERNS_9allocatorIS1_EEE6secondB8ne190106Ev (i32) -> (i32)
	.functype	_ZNSt3__222__compressed_pair_elemIRNS_9allocatorINS_6threadEEELi1ELb0EE5__getB8ne190106Ev (i32) -> (i32)
	.functype	_ZNSt3__217__compressed_pairIPNS_6threadERNS_9allocatorIS1_EEE5firstB8ne190106Ev (i32) -> (i32)
	.functype	_ZNSt3__234__uninitialized_allocator_relocateB8ne190106INS_9allocatorINS_6threadEEES2_EEvRT_PT0_S7_S7_ (i32, i32, i32, i32) -> ()
	.functype	_ZNSt3__24swapB8ne190106IPNS_6threadEEENS_9enable_ifIXaasr21is_move_constructibleIT_EE5valuesr18is_move_assignableIS4_EE5valueEvE4typeERS4_S7_ (i32, i32) -> ()
	.functype	_ZNKSt3__26vectorINS_6threadENS_9allocatorIS1_EEE14__annotate_newB8ne190106Em (i32, i32) -> ()
	.functype	_ZNSt3__222__make_exception_guardB8ne190106INS_29_AllocatorDestroyRangeReverseINS_9allocatorINS_6threadEEEPS3_EEEENS_28__exception_guard_exceptionsIT_EES8_ (i32, i32) -> ()
	.functype	_ZNSt3__229_AllocatorDestroyRangeReverseINS_9allocatorINS_6threadEEEPS2_EC2B8ne190106ERS3_RS4_S7_ (i32, i32, i32, i32) -> (i32)
	.functype	_ZNSt3__228__exception_guard_exceptionsINS_29_AllocatorDestroyRangeReverseINS_9allocatorINS_6threadEEEPS3_EEE10__completeB8ne190106Ev (i32) -> ()
	.functype	_ZNSt3__219__allocator_destroyB8ne190106INS_9allocatorINS_6threadEEEPS2_S4_EEvRT_T0_T1_ (i32, i32, i32) -> ()
	.functype	_ZNSt3__228__exception_guard_exceptionsINS_29_AllocatorDestroyRangeReverseINS_9allocatorINS_6threadEEEPS3_EEED2B8ne190106Ev (i32) -> (i32)
	.functype	_ZNSt3__228__exception_guard_exceptionsINS_29_AllocatorDestroyRangeReverseINS_9allocatorINS_6threadEEEPS3_EEEC2B8ne190106ES6_ (i32, i32) -> (i32)
	.functype	_ZNKSt3__229_AllocatorDestroyRangeReverseINS_9allocatorINS_6threadEEEPS2_EclB8ne190106Ev (i32) -> ()
	.functype	_ZNSt3__219__allocator_destroyB8ne190106INS_9allocatorINS_6threadEEENS_16reverse_iteratorIPS2_EES6_EEvRT_T0_T1_ (i32, i32, i32) -> ()
	.functype	_ZNSt3__216reverse_iteratorIPNS_6threadEEC2B8ne190106ES2_ (i32, i32) -> (i32)
	.functype	_ZNSt3__2neB8ne190106IPNS_6threadES2_EEbRKNS_16reverse_iteratorIT_EERKNS3_IT0_EE (i32, i32) -> (i32)
	.functype	_ZNSt3__212__to_addressB8ne190106INS_16reverse_iteratorIPNS_6threadEEETnNS_9enable_ifIXsr4_AndINS_8is_classIT_EENS_15_IsFancyPointerIS7_EEEE5valueEiE4typeELi0EEEu7__decayIDTclsr19__to_address_helperIS7_EE6__callclsr3stdE7declvalIRKS7_EEEEESE_ (i32) -> (i32)
	.functype	_ZNSt3__216reverse_iteratorIPNS_6threadEEppB8ne190106Ev (i32) -> (i32)
	.functype	_ZNKSt3__216reverse_iteratorIPNS_6threadEE4baseB8ne190106Ev (i32) -> (i32)
	.functype	_ZNSt3__219__to_address_helperINS_16reverse_iteratorIPNS_6threadEEEvE6__callB8ne190106ERKS4_ (i32) -> (i32)
	.functype	_ZNKSt3__216reverse_iteratorIPNS_6threadEEptB8ne190106Ev (i32) -> (i32)
	.functype	_ZNKSt3__216reverse_iteratorIPNS_6threadEEdeB8ne190106Ev (i32) -> (i32)
	.functype	_ZNSt3__214__split_bufferINS_6threadERNS_9allocatorIS1_EEE5clearB8ne190106Ev (i32) -> ()
	.functype	_ZNKSt3__214__split_bufferINS_6threadERNS_9allocatorIS1_EEE8capacityB8ne190106Ev (i32) -> (i32)
	.functype	_ZNSt3__214__split_bufferINS_6threadERNS_9allocatorIS1_EEE17__destruct_at_endB8ne190106EPS1_ (i32, i32) -> ()
	.functype	_ZNSt3__214__split_bufferINS_6threadERNS_9allocatorIS1_EEE17__destruct_at_endB8ne190106EPS1_NS_17integral_constantIbLb0EEE (i32, i32) -> ()
	.functype	_ZNKSt3__214__split_bufferINS_6threadERNS_9allocatorIS1_EEE9__end_capB8ne190106Ev (i32) -> (i32)
	.functype	_ZNKSt3__217__compressed_pairIPNS_6threadERNS_9allocatorIS1_EEE5firstB8ne190106Ev (i32) -> (i32)
	.functype	_ZNSt3__26vectorINS_6threadENS_9allocatorIS1_EEE11__make_iterB8ne190106EPS1_ (i32, i32) -> (i32)
	.functype	_ZNSt3__211__wrap_iterIPNS_6threadEEC2B8ne190106ES2_ (i32, i32) -> (i32)
	.functype	_ZNSt3__224__put_character_sequenceB8ne190106IcNS_11char_traitsIcEEEERNS_13basic_ostreamIT_T0_EES7_PKS4_m (i32, i32, i32) -> (i32)
	.functype	_ZNSt3__211char_traitsIcE6lengthB8ne190106EPKc (i32) -> (i32)
	.functype	_ZNSt3__213basic_ostreamIcNS_11char_traitsIcEEE6sentryC1ERS3_ (i32, i32) -> (i32)
	.functype	_ZNKSt3__213basic_ostreamIcNS_11char_traitsIcEEE6sentrycvbB8ne190106Ev (i32) -> (i32)
	.functype	_ZNSt3__216__pad_and_outputB8ne190106IcNS_11char_traitsIcEEEENS_19ostreambuf_iteratorIT_T0_EES6_PKS4_S8_S8_RNS_8ios_baseES4_ (i32, i32, i32, i32, i32, i32) -> (i32)
	.functype	_ZNSt3__219ostreambuf_iteratorIcNS_11char_traitsIcEEEC2B8ne190106ERNS_13basic_ostreamIcS2_EE (i32, i32) -> (i32)
	.functype	_ZNKSt3__28ios_base5flagsB8ne190106Ev (i32) -> (i32)
	.functype	_ZNKSt3__29basic_iosIcNS_11char_traitsIcEEE4fillB8ne190106Ev (i32) -> (i32)
	.functype	_ZNKSt3__219ostreambuf_iteratorIcNS_11char_traitsIcEEE6failedB8ne190106Ev (i32) -> (i32)
	.functype	_ZNSt3__29basic_iosIcNS_11char_traitsIcEEE8setstateB8ne190106Ej (i32, i32) -> ()
	.functype	_ZNSt3__213basic_ostreamIcNS_11char_traitsIcEEE6sentryD1Ev (i32) -> (i32)
	.functype	_ZNKSt3__28ios_base5widthB8ne190106Ev (i32) -> (i32)
	.functype	_ZNSt3__215basic_streambufIcNS_11char_traitsIcEEE5sputnB8ne190106EPKcl (i32, i32, i32) -> (i32)
	.functype	_ZNSt3__212basic_stringIcNS_11char_traitsIcEENS_9allocatorIcEEEC2B8ne190106Emc (i32, i32, i32) -> (i32)
	.functype	_ZNSt3__212basic_stringIcNS_11char_traitsIcEENS_9allocatorIcEEE4dataB8ne190106Ev (i32) -> (i32)
	.functype	_ZNSt3__212basic_stringIcNS_11char_traitsIcEENS_9allocatorIcEEED1Ev (i32) -> (i32)
	.functype	_ZNSt3__28ios_base5widthB8ne190106El (i32, i32) -> (i32)
	.functype	_ZNSt3__217__compressed_pairINS_12basic_stringIcNS_11char_traitsIcEENS_9allocatorIcEEE5__repES5_EC2B8ne190106INS_18__default_init_tagESA_EEOT_OT0_ (i32, i32, i32) -> (i32)
	.functype	_ZNSt3__212basic_stringIcNS_11char_traitsIcEENS_9allocatorIcEEE6__initEmc (i32, i32, i32) -> ()
	.functype	_ZNSt3__222__compressed_pair_elemINS_12basic_stringIcNS_11char_traitsIcEENS_9allocatorIcEEE5__repELi0ELb0EEC2B8ne190106ENS_18__default_init_tagE (i32) -> (i32)
	.functype	_ZNSt3__222__compressed_pair_elemINS_9allocatorIcEELi1ELb1EEC2B8ne190106ENS_18__default_init_tagE (i32) -> (i32)
	.functype	_ZNSt3__29allocatorIcEC2B8ne190106Ev (i32) -> (i32)
	.functype	_ZNSt3__216__non_trivial_ifILb1ENS_9allocatorIcEEEC2B8ne190106Ev (i32) -> (i32)
	.functype	_ZNSt3__212__to_addressB8ne190106IcEEPT_S2_ (i32) -> (i32)
	.functype	_ZNSt3__212basic_stringIcNS_11char_traitsIcEENS_9allocatorIcEEE13__get_pointerB8ne190106Ev (i32) -> (i32)
	.functype	_ZNKSt3__212basic_stringIcNS_11char_traitsIcEENS_9allocatorIcEEE9__is_longB8ne190106Ev (i32) -> (i32)
	.functype	_ZNSt3__212basic_stringIcNS_11char_traitsIcEENS_9allocatorIcEEE18__get_long_pointerB8ne190106Ev (i32) -> (i32)
	.functype	_ZNSt3__212basic_stringIcNS_11char_traitsIcEENS_9allocatorIcEEE19__get_short_pointerB8ne190106Ev (i32) -> (i32)
	.functype	_ZNKSt3__217__compressed_pairINS_12basic_stringIcNS_11char_traitsIcEENS_9allocatorIcEEE5__repES5_E5firstB8ne190106Ev (i32) -> (i32)
	.functype	_ZNKSt3__222__compressed_pair_elemINS_12basic_stringIcNS_11char_traitsIcEENS_9allocatorIcEEE5__repELi0ELb0EE5__getB8ne190106Ev (i32) -> (i32)
	.functype	_ZNSt3__217__compressed_pairINS_12basic_stringIcNS_11char_traitsIcEENS_9allocatorIcEEE5__repES5_E5firstB8ne190106Ev (i32) -> (i32)
	.functype	_ZNSt3__222__compressed_pair_elemINS_12basic_stringIcNS_11char_traitsIcEENS_9allocatorIcEEE5__repELi0ELb0EE5__getB8ne190106Ev (i32) -> (i32)
	.functype	_ZNSt3__214pointer_traitsIPcE10pointer_toB8ne190106ERc (i32) -> (i32)
	.functype	_ZNKSt3__29basic_iosIcNS_11char_traitsIcEEE5rdbufB8ne190106Ev (i32) -> (i32)
	.functype	_ZNKSt3__28ios_base5rdbufB8ne190106Ev (i32) -> (i32)
	.functype	_ZNKSt3__211_FillHelperINS_11char_traitsIcEEE8__is_setB8ne190106Ev (i32) -> (i32)
	.functype	_ZNKSt3__29basic_iosIcNS_11char_traitsIcEEE5widenB8ne190106Ec (i32, i32) -> (i32)
	.functype	_ZNSt3__211_FillHelperINS_11char_traitsIcEEEaSB8ne190106Ei (i32, i32) -> (i32)
	.functype	_ZNKSt3__211_FillHelperINS_11char_traitsIcEEE5__getB8ne190106Ev (i32) -> (i32)
	.functype	_ZNSt3__29use_facetB8ne190106INS_5ctypeIcEEEERKT_RKNS_6localeE (i32) -> (i32)
	.functype	_ZNKSt3__28ios_base6getlocEv (i32, i32) -> ()
	.functype	_ZNKSt3__25ctypeIcE5widenB8ne190106Ec (i32, i32) -> (i32)
	.functype	_ZNSt3__26localeD1Ev (i32) -> (i32)
	.functype	_ZNKSt3__26locale9use_facetERNS0_2idE (i32, i32) -> (i32)
	.functype	_ZNSt3__28ios_base8setstateB8ne190106Ej (i32, i32) -> ()
	.functype	_ZNSt3__28ios_base5clearEj (i32, i32) -> ()
	.functype	_ZNSt3__218__constexpr_strlenB8ne190106IcEEmPKT_ (i32) -> (i32)
	.functype	strlen (i32) -> (i32)
	.functype	_ZNSt3__213basic_ostreamIcNS_11char_traitsIcEEE3putEc (i32, i32) -> (i32)
	.functype	_ZNSt3__213basic_ostreamIcNS_11char_traitsIcEEE5flushEv (i32) -> (i32)
	.functype	main (i32, i32) -> (i32)
	.section	.text._Z15benchmarkSeqCstRNSt3__26atomicIiEEii,"",@
	.hidden	_Z15benchmarkSeqCstRNSt3__26atomicIiEEii # -- Begin function _Z15benchmarkSeqCstRNSt3__26atomicIiEEii
	.globl	_Z15benchmarkSeqCstRNSt3__26atomicIiEEii
	.type	_Z15benchmarkSeqCstRNSt3__26atomicIiEEii,@function
_Z15benchmarkSeqCstRNSt3__26atomicIiEEii: # @_Z15benchmarkSeqCstRNSt3__26atomicIiEEii
.Lfunc_begin0:
	.loc	1 9 0                           # 6_release_seqcst_store.cpp:9:0
	.functype	_Z15benchmarkSeqCstRNSt3__26atomicIiEEii (i32, i32, i32) -> ()
	.local  	i32, i32, i32, i32, i32, i32, i32, i32, i32, i32, i32, i32, i32, i32, i32, i32, i32, i32, i32, i32, i32, i32, i32, i32, i32, i32
# %bb.0:                                # %entry
	global.get	__stack_pointer
	local.set	3
	i32.const	16
	local.set	4
	local.get	3
	local.get	4
	i32.sub 
	local.set	5
	local.get	5
	global.set	__stack_pointer
	local.get	5
	local.get	0
	i32.store	12
	local.get	5
	local.get	1
	i32.store	8
	local.get	5
	local.get	2
	i32.store	4
.Ltmp0:
	.loc	1 10 14 prologue_end            # 6_release_seqcst_store.cpp:10:14
	i32.const	0
	local.set	6
	local.get	5
	local.get	6
	i32.store	0
.LBB0_1:                                # %for.cond
                                        # =>This Inner Loop Header: Depth=1
.Ltmp1:
	.loc	1 10 21 is_stmt 0               # 6_release_seqcst_store.cpp:10:21
	block   	
	loop    	                                # label1:
	local.get	5
	i32.load	0
	local.set	7
	.loc	1 10 23                         # 6_release_seqcst_store.cpp:10:23
	i32.const	1000000
	local.set	8
	local.get	7
	local.get	8
	i32.lt_s
	local.set	9
.Ltmp2:
	.loc	1 10 5                          # 6_release_seqcst_store.cpp:10:5
	i32.const	1
	local.set	10
	local.get	9
	local.get	10
	i32.and 
	local.set	11
	local.get	11
	i32.eqz
	br_if   	1                               # 1: down to label0
# %bb.2:                                # %for.body
                                        #   in Loop: Header=BB0_1 Depth=1
.Ltmp3:
	.loc	1 11 9 is_stmt 1                # 6_release_seqcst_store.cpp:11:9
	local.get	5
	i32.load	12
	local.set	12
	.loc	1 11 20 is_stmt 0               # 6_release_seqcst_store.cpp:11:20
	local.get	5
	i32.load	8
	local.set	13
	.loc	1 11 14                         # 6_release_seqcst_store.cpp:11:14
	i32.const	5
	local.set	14
	local.get	12
	local.get	13
	local.get	14
	call	_ZNSt3__213__atomic_baseIiLb0EE5storeB8ne190106EiNS_12memory_orderE
	.loc	1 12 9 is_stmt 1                # 6_release_seqcst_store.cpp:12:9
	local.get	5
	i32.load	12
	local.set	15
	.loc	1 12 20 is_stmt 0               # 6_release_seqcst_store.cpp:12:20
	local.get	5
	i32.load	8
	local.set	16
	.loc	1 12 14                         # 6_release_seqcst_store.cpp:12:14
	i32.const	5
	local.set	17
	local.get	15
	local.get	16
	local.get	17
	call	_ZNSt3__213__atomic_baseIiLb0EE5storeB8ne190106EiNS_12memory_orderE
	.loc	1 13 9 is_stmt 1                # 6_release_seqcst_store.cpp:13:9
	local.get	5
	i32.load	12
	local.set	18
	.loc	1 13 20 is_stmt 0               # 6_release_seqcst_store.cpp:13:20
	local.get	5
	i32.load	8
	local.set	19
	.loc	1 13 14                         # 6_release_seqcst_store.cpp:13:14
	i32.const	5
	local.set	20
	local.get	18
	local.get	19
	local.get	20
	call	_ZNSt3__213__atomic_baseIiLb0EE5storeB8ne190106EiNS_12memory_orderE
	.loc	1 14 9 is_stmt 1                # 6_release_seqcst_store.cpp:14:9
	local.get	5
	i32.load	12
	local.set	21
	.loc	1 14 20 is_stmt 0               # 6_release_seqcst_store.cpp:14:20
	local.get	5
	i32.load	8
	local.set	22
	.loc	1 14 14                         # 6_release_seqcst_store.cpp:14:14
	i32.const	5
	local.set	23
	local.get	21
	local.get	22
	local.get	23
	call	_ZNSt3__213__atomic_baseIiLb0EE5storeB8ne190106EiNS_12memory_orderE
.Ltmp4:
# %bb.3:                                # %for.inc
                                        #   in Loop: Header=BB0_1 Depth=1
	.loc	1 10 40 is_stmt 1               # 6_release_seqcst_store.cpp:10:40
	local.get	5
	i32.load	0
	local.set	24
	i32.const	1
	local.set	25
	local.get	24
	local.get	25
	i32.add 
	local.set	26
	local.get	5
	local.get	26
	i32.store	0
	.loc	1 10 5 is_stmt 0                # 6_release_seqcst_store.cpp:10:5
	br      	0                               # 0: up to label1
.Ltmp5:
.LBB0_4:                                # %for.end
	.loc	1 10 5                          # 6_release_seqcst_store.cpp:10:5
	end_loop
	end_block                               # label0:
.Ltmp6:
	.loc	1 16 1 is_stmt 1                # 6_release_seqcst_store.cpp:16:1
	i32.const	16
	local.set	27
	local.get	5
	local.get	27
	i32.add 
	local.set	28
	local.get	28
	global.set	__stack_pointer
	return
	end_function
.Ltmp7:
.Lfunc_end0:
                                        # -- End function
	.section	.text._ZNSt3__213__atomic_baseIiLb0EE5storeB8ne190106EiNS_12memory_orderE,"G",@,_ZNSt3__213__atomic_baseIiLb0EE5storeB8ne190106EiNS_12memory_orderE,comdat
	.hidden	_ZNSt3__213__atomic_baseIiLb0EE5storeB8ne190106EiNS_12memory_orderE # -- Begin function _ZNSt3__213__atomic_baseIiLb0EE5storeB8ne190106EiNS_12memory_orderE
	.weak	_ZNSt3__213__atomic_baseIiLb0EE5storeB8ne190106EiNS_12memory_orderE
	.type	_ZNSt3__213__atomic_baseIiLb0EE5storeB8ne190106EiNS_12memory_orderE,@function
_ZNSt3__213__atomic_baseIiLb0EE5storeB8ne190106EiNS_12memory_orderE: # @_ZNSt3__213__atomic_baseIiLb0EE5storeB8ne190106EiNS_12memory_orderE
.Lfunc_begin1:
	.loc	25 50 0                         # emscripten/cache/sysroot/include/c++/v1/__atomic/atomic_base.h:50:0
	.functype	_ZNSt3__213__atomic_baseIiLb0EE5storeB8ne190106EiNS_12memory_orderE (i32, i32, i32) -> ()
	.local  	i32, i32, i32, i32, i32, i32, i32, i32
# %bb.0:                                # %entry
	global.get	__stack_pointer
	local.set	3
	i32.const	16
	local.set	4
	local.get	3
	local.get	4
	i32.sub 
	local.set	5
	local.get	5
	global.set	__stack_pointer
	local.get	5
	local.get	0
	i32.store	12
	local.get	5
	local.get	1
	i32.store	8
	local.get	5
	local.get	2
	i32.store	4
	local.get	5
	i32.load	12
	local.set	6
.Ltmp8:
	.loc	25 51 51 prologue_end           # emscripten/cache/sysroot/include/c++/v1/__atomic/atomic_base.h:51:51
	local.get	5
	i32.load	8
	local.set	7
	.loc	25 51 56 is_stmt 0              # emscripten/cache/sysroot/include/c++/v1/__atomic/atomic_base.h:51:56
	local.get	5
	i32.load	4
	local.set	8
	.loc	25 51 5                         # emscripten/cache/sysroot/include/c++/v1/__atomic/atomic_base.h:51:5
	local.get	6
	local.get	7
	local.get	8
	call	_ZNSt3__218__cxx_atomic_storeB8ne190106IiEEvPNS_22__cxx_atomic_base_implIT_EES2_NS_12memory_orderE
	.loc	25 52 3 is_stmt 1               # emscripten/cache/sysroot/include/c++/v1/__atomic/atomic_base.h:52:3
	i32.const	16
	local.set	9
	local.get	5
	local.get	9
	i32.add 
	local.set	10
	local.get	10
	global.set	__stack_pointer
	return
	end_function
.Ltmp9:
.Lfunc_end1:
                                        # -- End function
	.section	.text._Z16benchmarkReleaseRNSt3__26atomicIiEEii,"",@
	.hidden	_Z16benchmarkReleaseRNSt3__26atomicIiEEii # -- Begin function _Z16benchmarkReleaseRNSt3__26atomicIiEEii
	.globl	_Z16benchmarkReleaseRNSt3__26atomicIiEEii
	.type	_Z16benchmarkReleaseRNSt3__26atomicIiEEii,@function
_Z16benchmarkReleaseRNSt3__26atomicIiEEii: # @_Z16benchmarkReleaseRNSt3__26atomicIiEEii
.Lfunc_begin2:
	.loc	1 18 0                          # 6_release_seqcst_store.cpp:18:0
	.functype	_Z16benchmarkReleaseRNSt3__26atomicIiEEii (i32, i32, i32) -> ()
	.local  	i32, i32, i32, i32, i32, i32, i32, i32, i32, i32, i32, i32, i32, i32, i32, i32, i32, i32, i32, i32, i32, i32, i32, i32, i32, i32
# %bb.0:                                # %entry
	global.get	__stack_pointer
	local.set	3
	i32.const	16
	local.set	4
	local.get	3
	local.get	4
	i32.sub 
	local.set	5
	local.get	5
	global.set	__stack_pointer
	local.get	5
	local.get	0
	i32.store	12
	local.get	5
	local.get	1
	i32.store	8
	local.get	5
	local.get	2
	i32.store	4
.Ltmp10:
	.loc	1 19 14 prologue_end            # 6_release_seqcst_store.cpp:19:14
	i32.const	0
	local.set	6
	local.get	5
	local.get	6
	i32.store	0
.LBB2_1:                                # %for.cond
                                        # =>This Inner Loop Header: Depth=1
.Ltmp11:
	.loc	1 19 21 is_stmt 0               # 6_release_seqcst_store.cpp:19:21
	block   	
	loop    	                                # label3:
	local.get	5
	i32.load	0
	local.set	7
	.loc	1 19 23                         # 6_release_seqcst_store.cpp:19:23
	i32.const	1000000
	local.set	8
	local.get	7
	local.get	8
	i32.lt_s
	local.set	9
.Ltmp12:
	.loc	1 19 5                          # 6_release_seqcst_store.cpp:19:5
	i32.const	1
	local.set	10
	local.get	9
	local.get	10
	i32.and 
	local.set	11
	local.get	11
	i32.eqz
	br_if   	1                               # 1: down to label2
# %bb.2:                                # %for.body
                                        #   in Loop: Header=BB2_1 Depth=1
.Ltmp13:
	.loc	1 20 9 is_stmt 1                # 6_release_seqcst_store.cpp:20:9
	local.get	5
	i32.load	12
	local.set	12
	.loc	1 20 20 is_stmt 0               # 6_release_seqcst_store.cpp:20:20
	local.get	5
	i32.load	8
	local.set	13
	.loc	1 20 14                         # 6_release_seqcst_store.cpp:20:14
	i32.const	3
	local.set	14
	local.get	12
	local.get	13
	local.get	14
	call	_ZNSt3__213__atomic_baseIiLb0EE5storeB8ne190106EiNS_12memory_orderE
	.loc	1 21 9 is_stmt 1                # 6_release_seqcst_store.cpp:21:9
	local.get	5
	i32.load	12
	local.set	15
	.loc	1 21 20 is_stmt 0               # 6_release_seqcst_store.cpp:21:20
	local.get	5
	i32.load	8
	local.set	16
	.loc	1 21 14                         # 6_release_seqcst_store.cpp:21:14
	i32.const	3
	local.set	17
	local.get	15
	local.get	16
	local.get	17
	call	_ZNSt3__213__atomic_baseIiLb0EE5storeB8ne190106EiNS_12memory_orderE
	.loc	1 22 9 is_stmt 1                # 6_release_seqcst_store.cpp:22:9
	local.get	5
	i32.load	12
	local.set	18
	.loc	1 22 20 is_stmt 0               # 6_release_seqcst_store.cpp:22:20
	local.get	5
	i32.load	8
	local.set	19
	.loc	1 22 14                         # 6_release_seqcst_store.cpp:22:14
	i32.const	3
	local.set	20
	local.get	18
	local.get	19
	local.get	20
	call	_ZNSt3__213__atomic_baseIiLb0EE5storeB8ne190106EiNS_12memory_orderE
	.loc	1 23 9 is_stmt 1                # 6_release_seqcst_store.cpp:23:9
	local.get	5
	i32.load	12
	local.set	21
	.loc	1 23 20 is_stmt 0               # 6_release_seqcst_store.cpp:23:20
	local.get	5
	i32.load	8
	local.set	22
	.loc	1 23 14                         # 6_release_seqcst_store.cpp:23:14
	i32.const	3
	local.set	23
	local.get	21
	local.get	22
	local.get	23
	call	_ZNSt3__213__atomic_baseIiLb0EE5storeB8ne190106EiNS_12memory_orderE
.Ltmp14:
# %bb.3:                                # %for.inc
                                        #   in Loop: Header=BB2_1 Depth=1
	.loc	1 19 40 is_stmt 1               # 6_release_seqcst_store.cpp:19:40
	local.get	5
	i32.load	0
	local.set	24
	i32.const	1
	local.set	25
	local.get	24
	local.get	25
	i32.add 
	local.set	26
	local.get	5
	local.get	26
	i32.store	0
	.loc	1 19 5 is_stmt 0                # 6_release_seqcst_store.cpp:19:5
	br      	0                               # 0: up to label3
.Ltmp15:
.LBB2_4:                                # %for.end
	.loc	1 19 5                          # 6_release_seqcst_store.cpp:19:5
	end_loop
	end_block                               # label2:
.Ltmp16:
	.loc	1 25 1 is_stmt 1                # 6_release_seqcst_store.cpp:25:1
	i32.const	16
	local.set	27
	local.get	5
	local.get	27
	i32.add 
	local.set	28
	local.get	28
	global.set	__stack_pointer
	return
	end_function
.Ltmp17:
.Lfunc_end2:
                                        # -- End function
	.section	.text.__original_main,"",@
	.hidden	__original_main                 # -- Begin function __original_main
	.globl	__original_main
	.type	__original_main,@function
__original_main:                        # @__original_main
.Lfunc_begin3:
	.loc	1 27 0                          # 6_release_seqcst_store.cpp:27:0
	.functype	__original_main () -> (i32)
	.local  	i32, i32, i32, i32, i32, i64, i32, i32, i32, i32, i32, i32, i32, i32, i32, i32, i32, i32, i32, i32, i32, i32, i32, i32, i32, i32, i32, i32, i32, i32, i32, i32, i32, i32, i32, i32, i32, i32, i32, i32, i32, i32, i32, i32, i32, i32, i32, i32, i32, i32, i32, i32, i32, i32, i32, i32, i32, i32, i32, i32, i32, i32, i32, i32, i32, i64, i32, i32, i32, i32, i32, i32, i64, i32, i32, i32, i64, i32, i32, i32, i32, i32, i32, i64, i32, i32, i32, i32, i32, i32, i32, i32, i64, i32, i32, i32, i32, i32, i32, i32, i32, i32, i32, i32, i32, i32, i32, i32, i32, i32, i32, i32, i32, i32, i32, i32, i32, i32, i32, i32, i32, i32, i32, i32, i32, i32, i32, i32, i32, i32, i32, i32, i32, i32, i32, i32, i32, i32, i32, i32, i32, i32, i32, i32, i32, i32, i32, i32, i32, i32, i32, i32, i64, i32, i32, i32, i32, i32, i32, i64, i32, i32, i32, i64, i32, i32, i32, i32, i32, i32, i64, i32, i32, i32, i32, i32, i32, i32, i32, i32, i32, i32, i32, i32, i32
# %bb.0:                                # %entry
	global.get	__stack_pointer
	local.set	0
	i32.const	160
	local.set	1
	local.get	0
	local.get	1
	i32.sub 
	local.set	2
	local.get	2
	global.set	__stack_pointer
	i32.const	0
	local.set	3
	local.get	2
	local.get	3
	i32.store	156
	i32.const	0
	local.set	4
.Ltmp18:
	.loc	1 29 22 prologue_end            # 6_release_seqcst_store.cpp:29:22
	local.get	2
	local.get	4
	i32.store	152
	.loc	1 32 24                         # 6_release_seqcst_store.cpp:32:24
	call	_ZNSt3__26chrono12steady_clock3nowEv
	local.set	5
	local.get	2
	local.get	5
	i64.store	144
	.loc	1 35 30                         # 6_release_seqcst_store.cpp:35:30
	i32.const	132
	local.set	6
	local.get	2
	local.get	6
	i32.add 
	local.set	7
	local.get	7
	local.set	8
	local.get	8
	call	_ZNSt3__26vectorINS_6threadENS_9allocatorIS1_EEEC2B8ne190106Ev
	drop
.Ltmp19:
	.loc	1 36 14                         # 6_release_seqcst_store.cpp:36:14
	i32.const	0
	local.set	9
	local.get	2
	local.get	9
	i32.store	128
.LBB3_1:                                # %for.cond
                                        # =>This Inner Loop Header: Depth=1
.Ltmp20:
	.loc	1 36 21 is_stmt 0               # 6_release_seqcst_store.cpp:36:21
	block   	
	loop    	                                # label5:
	local.get	2
	i32.load	128
	local.set	10
	.loc	1 36 23                         # 6_release_seqcst_store.cpp:36:23
	i32.const	4
	local.set	11
	local.get	10
	local.get	11
	i32.lt_s
	local.set	12
.Ltmp21:
	.loc	1 36 5                          # 6_release_seqcst_store.cpp:36:5
	i32.const	1
	local.set	13
	local.get	12
	local.get	13
	i32.and 
	local.set	14
	local.get	14
	i32.eqz
	br_if   	1                               # 1: down to label4
# %bb.2:                                # %for.body
                                        #   in Loop: Header=BB3_1 Depth=1
.Ltmp22:
	.loc	1 37 62 is_stmt 1               # 6_release_seqcst_store.cpp:37:62
	i32.const	152
	local.set	15
	local.get	2
	local.get	15
	i32.add 
	local.set	16
	local.get	16
	local.set	17
	local.get	17
	call	_ZNSt3__23refB8ne190106INS_6atomicIiEEEENS_17reference_wrapperIT_EERS4_
	local.set	18
	local.get	2
	local.get	18
	i32.store	120
	.loc	1 37 33 is_stmt 0               # 6_release_seqcst_store.cpp:37:33
	i32.const	124
	local.set	19
	local.get	2
	local.get	19
	i32.add 
	local.set	20
	local.get	20
	local.set	21
	i32.const	_Z15benchmarkSeqCstRNSt3__26atomicIiEEii
	local.set	22
	i32.const	120
	local.set	23
	local.get	2
	local.get	23
	i32.add 
	local.set	24
	local.get	24
	local.set	25
	i32.const	128
	local.set	26
	local.get	2
	local.get	26
	i32.add 
	local.set	27
	local.get	27
	local.set	28
	local.get	21
	local.get	22
	local.get	25
	local.get	28
	local.get	28
	call	_ZNSt3__26threadC2IRFvRNS_6atomicIiEEiiEJNS_17reference_wrapperIS3_EERiS9_ETnNS_9enable_ifIXntsr7is_sameIu14__remove_cvrefIT_ES0_EE5valueEiE4typeELi0EEEOSB_DpOT0_
	drop
	.loc	1 37 23                         # 6_release_seqcst_store.cpp:37:23
	i32.const	132
	local.set	29
	local.get	2
	local.get	29
	i32.add 
	local.set	30
	local.get	30
	local.set	31
	i32.const	124
	local.set	32
	local.get	2
	local.get	32
	i32.add 
	local.set	33
	local.get	33
	local.set	34
	local.get	31
	local.get	34
	call	_ZNSt3__26vectorINS_6threadENS_9allocatorIS1_EEE9push_backB8ne190106EOS1_
	.loc	1 37 9                          # 6_release_seqcst_store.cpp:37:9
	i32.const	124
	local.set	35
	local.get	2
	local.get	35
	i32.add 
	local.set	36
	local.get	36
	local.set	37
	local.get	37
	call	_ZNSt3__26threadD1Ev
	drop
.Ltmp23:
# %bb.3:                                # %for.inc
                                        #   in Loop: Header=BB3_1 Depth=1
	.loc	1 36 28 is_stmt 1               # 6_release_seqcst_store.cpp:36:28
	local.get	2
	i32.load	128
	local.set	38
	i32.const	1
	local.set	39
	local.get	38
	local.get	39
	i32.add 
	local.set	40
	local.get	2
	local.get	40
	i32.store	128
	.loc	1 36 5 is_stmt 0                # 6_release_seqcst_store.cpp:36:5
	br      	0                               # 0: up to label5
.Ltmp24:
.LBB3_4:                                # %for.end
	.loc	1 36 5                          # 6_release_seqcst_store.cpp:36:5
	end_loop
	end_block                               # label4:
.Ltmp25:
	.loc	1 40 21 is_stmt 1               # 6_release_seqcst_store.cpp:40:21
	i32.const	132
	local.set	41
	local.get	2
	local.get	41
	i32.add 
	local.set	42
	local.get	42
	local.set	43
	local.get	2
	local.get	43
	i32.store	116
	.loc	1 40 19 is_stmt 0               # 6_release_seqcst_store.cpp:40:19
	local.get	2
	i32.load	116
	local.set	44
	local.get	44
	call	_ZNSt3__26vectorINS_6threadENS_9allocatorIS1_EEE5beginB8ne190106Ev
	local.set	45
	local.get	2
	local.get	45
	i32.store	112
	local.get	2
	i32.load	116
	local.set	46
	local.get	46
	call	_ZNSt3__26vectorINS_6threadENS_9allocatorIS1_EEE3endB8ne190106Ev
	local.set	47
	local.get	2
	local.get	47
	i32.store	108
.LBB3_5:                                # %for.cond12
                                        # =>This Inner Loop Header: Depth=1
	block   	
	loop    	                                # label7:
	i32.const	112
	local.set	48
	local.get	2
	local.get	48
	i32.add 
	local.set	49
	local.get	49
	local.set	50
	i32.const	108
	local.set	51
	local.get	2
	local.get	51
	i32.add 
	local.set	52
	local.get	52
	local.set	53
	local.get	50
	local.get	53
	call	_ZNSt3__2neB8ne190106IPNS_6threadEEEbRKNS_11__wrap_iterIT_EES7_
	local.set	54
	i32.const	1
	local.set	55
	local.get	54
	local.get	55
	i32.and 
	local.set	56
	local.get	56
	i32.eqz
	br_if   	1                               # 1: down to label6
# %bb.6:                                # %for.body14
                                        #   in Loop: Header=BB3_5 Depth=1
.Ltmp26:
	.loc	1 40 19                         # 6_release_seqcst_store.cpp:40:19
	i32.const	112
	local.set	57
	local.get	2
	local.get	57
	i32.add 
	local.set	58
	local.get	58
	local.set	59
	local.get	59
	call	_ZNKSt3__211__wrap_iterIPNS_6threadEEdeB8ne190106Ev
	local.set	60
	.loc	1 40 16                         # 6_release_seqcst_store.cpp:40:16
	local.get	2
	local.get	60
	i32.store	104
.Ltmp27:
	.loc	1 41 9 is_stmt 1                # 6_release_seqcst_store.cpp:41:9
	local.get	2
	i32.load	104
	local.set	61
	.loc	1 41 12 is_stmt 0               # 6_release_seqcst_store.cpp:41:12
	local.get	61
	call	_ZNSt3__26thread4joinEv
.Ltmp28:
# %bb.7:                                # %for.inc16
                                        #   in Loop: Header=BB3_5 Depth=1
	.loc	1 40 19 is_stmt 1               # 6_release_seqcst_store.cpp:40:19
	i32.const	112
	local.set	62
	local.get	2
	local.get	62
	i32.add 
	local.set	63
	local.get	63
	local.set	64
	local.get	64
	call	_ZNSt3__211__wrap_iterIPNS_6threadEEppB8ne190106Ev
	drop
	br      	0                               # 0: up to label7
.LBB3_8:                                # %for.end18
	end_loop
	end_block                               # label6:
.Ltmp29:
	.loc	1 44 22                         # 6_release_seqcst_store.cpp:44:22
	call	_ZNSt3__26chrono12steady_clock3nowEv
	local.set	65
	local.get	2
	local.get	65
	i64.store	96
	.loc	1 45 91                         # 6_release_seqcst_store.cpp:45:91
	i32.const	96
	local.set	66
	local.get	2
	local.get	66
	i32.add 
	local.set	67
	local.get	67
	local.set	68
	i32.const	144
	local.set	69
	local.get	2
	local.get	69
	i32.add 
	local.set	70
	local.get	70
	local.set	71
	local.get	68
	local.get	71
	call	_ZNSt3__26chronomiB8ne190106INS0_12steady_clockENS0_8durationIxNS_5ratioILx1ELx1000000000EEEEES6_EENS_11common_typeIJT0_T1_EE4typeERKNS0_10time_pointIT_S8_EERKNSC_ISD_S9_EE
	local.set	72
	local.get	2
	local.get	72
	i64.store	80
	.loc	1 45 27 is_stmt 0               # 6_release_seqcst_store.cpp:45:27
	i32.const	80
	local.set	73
	local.get	2
	local.get	73
	i32.add 
	local.set	74
	local.get	74
	local.set	75
	local.get	75
	call	_ZNSt3__26chrono13duration_castB8ne190106INS0_8durationIxNS_5ratioILx1ELx1000EEEEExNS3_ILx1ELx1000000000EEETnNS_9enable_ifIXsr13__is_durationIT_EE5valueEiE4typeELi0EEES8_RKNS2_IT0_T1_EE
	local.set	76
	local.get	2
	local.get	76
	i64.store	88
	.loc	1 46 15 is_stmt 1               # 6_release_seqcst_store.cpp:46:15
	i32.const	_ZNSt3__24coutE
	local.set	77
	i32.const	.L.str
	local.set	78
	local.get	77
	local.get	78
	call	_ZNSt3__2lsB8ne190106INS_11char_traitsIcEEEERNS_13basic_ostreamIcT_EES6_PKc
	local.set	79
	.loc	1 46 91 is_stmt 0               # 6_release_seqcst_store.cpp:46:91
	i32.const	88
	local.set	80
	local.get	2
	local.get	80
	i32.add 
	local.set	81
	local.get	81
	local.set	82
	local.get	82
	call	_ZNKSt3__26chrono8durationIxNS_5ratioILx1ELx1000EEEE5countB8ne190106Ev
	local.set	83
	.loc	1 46 73                         # 6_release_seqcst_store.cpp:46:73
	local.get	79
	local.get	83
	call	_ZNSt3__213basic_ostreamIcNS_11char_traitsIcEEElsEx
	local.set	84
	.loc	1 46 99                         # 6_release_seqcst_store.cpp:46:99
	i32.const	.L.str.1
	local.set	85
	local.get	84
	local.get	85
	call	_ZNSt3__2lsB8ne190106INS_11char_traitsIcEEEERNS_13basic_ostreamIcT_EES6_PKc
	local.set	86
	.loc	1 46 108                        # 6_release_seqcst_store.cpp:46:108
	i32.const	_ZNSt3__24endlB8ne190106IcNS_11char_traitsIcEEEERNS_13basic_ostreamIT_T0_EES7_
	local.set	87
	local.get	86
	local.get	87
	call	_ZNSt3__213basic_ostreamIcNS_11char_traitsIcEEElsB8ne190106EPFRS3_S4_E
	drop
	.loc	1 49 10 is_stmt 1               # 6_release_seqcst_store.cpp:49:10
	i32.const	152
	local.set	88
	local.get	2
	local.get	88
	i32.add 
	local.set	89
	local.get	89
	local.set	90
	i32.const	0
	local.set	91
	local.get	90
	local.get	91
	local.get	91
	call	_ZNSt3__213__atomic_baseIiLb0EE5storeB8ne190106EiNS_12memory_orderE
	.loc	1 52 25                         # 6_release_seqcst_store.cpp:52:25
	call	_ZNSt3__26chrono12steady_clock3nowEv
	local.set	92
	local.get	2
	local.get	92
	i64.store	72
	.loc	1 55 30                         # 6_release_seqcst_store.cpp:55:30
	i32.const	60
	local.set	93
	local.get	2
	local.get	93
	i32.add 
	local.set	94
	local.get	94
	local.set	95
	local.get	95
	call	_ZNSt3__26vectorINS_6threadENS_9allocatorIS1_EEEC2B8ne190106Ev
	drop
.Ltmp30:
	.loc	1 56 14                         # 6_release_seqcst_store.cpp:56:14
	i32.const	0
	local.set	96
	local.get	2
	local.get	96
	i32.store	56
.LBB3_9:                                # %for.cond37
                                        # =>This Inner Loop Header: Depth=1
.Ltmp31:
	.loc	1 56 21 is_stmt 0               # 6_release_seqcst_store.cpp:56:21
	block   	
	loop    	                                # label9:
	local.get	2
	i32.load	56
	local.set	97
	.loc	1 56 23                         # 6_release_seqcst_store.cpp:56:23
	i32.const	4
	local.set	98
	local.get	97
	local.get	98
	i32.lt_s
	local.set	99
.Ltmp32:
	.loc	1 56 5                          # 6_release_seqcst_store.cpp:56:5
	i32.const	1
	local.set	100
	local.get	99
	local.get	100
	i32.and 
	local.set	101
	local.get	101
	i32.eqz
	br_if   	1                               # 1: down to label8
# %bb.10:                               # %for.body39
                                        #   in Loop: Header=BB3_9 Depth=1
.Ltmp33:
	.loc	1 57 64 is_stmt 1               # 6_release_seqcst_store.cpp:57:64
	i32.const	152
	local.set	102
	local.get	2
	local.get	102
	i32.add 
	local.set	103
	local.get	103
	local.set	104
	local.get	104
	call	_ZNSt3__23refB8ne190106INS_6atomicIiEEEENS_17reference_wrapperIT_EERS4_
	local.set	105
	local.get	2
	local.get	105
	i32.store	48
	.loc	1 57 34 is_stmt 0               # 6_release_seqcst_store.cpp:57:34
	i32.const	52
	local.set	106
	local.get	2
	local.get	106
	i32.add 
	local.set	107
	local.get	107
	local.set	108
	i32.const	_Z16benchmarkReleaseRNSt3__26atomicIiEEii
	local.set	109
	i32.const	48
	local.set	110
	local.get	2
	local.get	110
	i32.add 
	local.set	111
	local.get	111
	local.set	112
	i32.const	56
	local.set	113
	local.get	2
	local.get	113
	i32.add 
	local.set	114
	local.get	114
	local.set	115
	local.get	108
	local.get	109
	local.get	112
	local.get	115
	local.get	115
	call	_ZNSt3__26threadC2IRFvRNS_6atomicIiEEiiEJNS_17reference_wrapperIS3_EERiS9_ETnNS_9enable_ifIXntsr7is_sameIu14__remove_cvrefIT_ES0_EE5valueEiE4typeELi0EEEOSB_DpOT0_
	drop
	.loc	1 57 24                         # 6_release_seqcst_store.cpp:57:24
	i32.const	60
	local.set	116
	local.get	2
	local.get	116
	i32.add 
	local.set	117
	local.get	117
	local.set	118
	i32.const	52
	local.set	119
	local.get	2
	local.get	119
	i32.add 
	local.set	120
	local.get	120
	local.set	121
	local.get	118
	local.get	121
	call	_ZNSt3__26vectorINS_6threadENS_9allocatorIS1_EEE9push_backB8ne190106EOS1_
	.loc	1 57 9                          # 6_release_seqcst_store.cpp:57:9
	i32.const	52
	local.set	122
	local.get	2
	local.get	122
	i32.add 
	local.set	123
	local.get	123
	local.set	124
	local.get	124
	call	_ZNSt3__26threadD1Ev
	drop
.Ltmp34:
# %bb.11:                               # %for.inc46
                                        #   in Loop: Header=BB3_9 Depth=1
	.loc	1 56 28 is_stmt 1               # 6_release_seqcst_store.cpp:56:28
	local.get	2
	i32.load	56
	local.set	125
	i32.const	1
	local.set	126
	local.get	125
	local.get	126
	i32.add 
	local.set	127
	local.get	2
	local.get	127
	i32.store	56
	.loc	1 56 5 is_stmt 0                # 6_release_seqcst_store.cpp:56:5
	br      	0                               # 0: up to label9
.Ltmp35:
.LBB3_12:                               # %for.end48
	.loc	1 56 5                          # 6_release_seqcst_store.cpp:56:5
	end_loop
	end_block                               # label8:
.Ltmp36:
	.loc	1 60 21 is_stmt 1               # 6_release_seqcst_store.cpp:60:21
	i32.const	60
	local.set	128
	local.get	2
	local.get	128
	i32.add 
	local.set	129
	local.get	129
	local.set	130
	local.get	2
	local.get	130
	i32.store	44
	.loc	1 60 19 is_stmt 0               # 6_release_seqcst_store.cpp:60:19
	local.get	2
	i32.load	44
	local.set	131
	local.get	131
	call	_ZNSt3__26vectorINS_6threadENS_9allocatorIS1_EEE5beginB8ne190106Ev
	local.set	132
	local.get	2
	local.get	132
	i32.store	40
	local.get	2
	i32.load	44
	local.set	133
	local.get	133
	call	_ZNSt3__26vectorINS_6threadENS_9allocatorIS1_EEE3endB8ne190106Ev
	local.set	134
	local.get	2
	local.get	134
	i32.store	36
.LBB3_13:                               # %for.cond56
                                        # =>This Inner Loop Header: Depth=1
	block   	
	loop    	                                # label11:
	i32.const	40
	local.set	135
	local.get	2
	local.get	135
	i32.add 
	local.set	136
	local.get	136
	local.set	137
	i32.const	36
	local.set	138
	local.get	2
	local.get	138
	i32.add 
	local.set	139
	local.get	139
	local.set	140
	local.get	137
	local.get	140
	call	_ZNSt3__2neB8ne190106IPNS_6threadEEEbRKNS_11__wrap_iterIT_EES7_
	local.set	141
	i32.const	1
	local.set	142
	local.get	141
	local.get	142
	i32.and 
	local.set	143
	local.get	143
	i32.eqz
	br_if   	1                               # 1: down to label10
# %bb.14:                               # %for.body58
                                        #   in Loop: Header=BB3_13 Depth=1
.Ltmp37:
	.loc	1 60 19                         # 6_release_seqcst_store.cpp:60:19
	i32.const	40
	local.set	144
	local.get	2
	local.get	144
	i32.add 
	local.set	145
	local.get	145
	local.set	146
	local.get	146
	call	_ZNKSt3__211__wrap_iterIPNS_6threadEEdeB8ne190106Ev
	local.set	147
	.loc	1 60 16                         # 6_release_seqcst_store.cpp:60:16
	local.get	2
	local.get	147
	i32.store	32
.Ltmp38:
	.loc	1 61 9 is_stmt 1                # 6_release_seqcst_store.cpp:61:9
	local.get	2
	i32.load	32
	local.set	148
	.loc	1 61 12 is_stmt 0               # 6_release_seqcst_store.cpp:61:12
	local.get	148
	call	_ZNSt3__26thread4joinEv
.Ltmp39:
# %bb.15:                               # %for.inc61
                                        #   in Loop: Header=BB3_13 Depth=1
	.loc	1 60 19 is_stmt 1               # 6_release_seqcst_store.cpp:60:19
	i32.const	40
	local.set	149
	local.get	2
	local.get	149
	i32.add 
	local.set	150
	local.get	150
	local.set	151
	local.get	151
	call	_ZNSt3__211__wrap_iterIPNS_6threadEEppB8ne190106Ev
	drop
	br      	0                               # 0: up to label11
.LBB3_16:                               # %for.end63
	end_loop
	end_block                               # label10:
.Ltmp40:
	.loc	1 64 23                         # 6_release_seqcst_store.cpp:64:23
	call	_ZNSt3__26chrono12steady_clock3nowEv
	local.set	152
	local.get	2
	local.get	152
	i64.store	24
	.loc	1 65 93                         # 6_release_seqcst_store.cpp:65:93
	i32.const	24
	local.set	153
	local.get	2
	local.get	153
	i32.add 
	local.set	154
	local.get	154
	local.set	155
	i32.const	72
	local.set	156
	local.get	2
	local.get	156
	i32.add 
	local.set	157
	local.get	157
	local.set	158
	local.get	155
	local.get	158
	call	_ZNSt3__26chronomiB8ne190106INS0_12steady_clockENS0_8durationIxNS_5ratioILx1ELx1000000000EEEEES6_EENS_11common_typeIJT0_T1_EE4typeERKNS0_10time_pointIT_S8_EERKNSC_ISD_S9_EE
	local.set	159
	local.get	2
	local.get	159
	i64.store	8
	.loc	1 65 28 is_stmt 0               # 6_release_seqcst_store.cpp:65:28
	i32.const	8
	local.set	160
	local.get	2
	local.get	160
	i32.add 
	local.set	161
	local.get	161
	local.set	162
	local.get	162
	call	_ZNSt3__26chrono13duration_castB8ne190106INS0_8durationIxNS_5ratioILx1ELx1000EEEEExNS3_ILx1ELx1000000000EEETnNS_9enable_ifIXsr13__is_durationIT_EE5valueEiE4typeELi0EEES8_RKNS2_IT0_T1_EE
	local.set	163
	local.get	2
	local.get	163
	i64.store	16
	.loc	1 66 15 is_stmt 1               # 6_release_seqcst_store.cpp:66:15
	i32.const	_ZNSt3__24coutE
	local.set	164
	i32.const	.L.str.2
	local.set	165
	local.get	164
	local.get	165
	call	_ZNSt3__2lsB8ne190106INS_11char_traitsIcEEEERNS_13basic_ostreamIcT_EES6_PKc
	local.set	166
	.loc	1 66 92 is_stmt 0               # 6_release_seqcst_store.cpp:66:92
	i32.const	16
	local.set	167
	local.get	2
	local.get	167
	i32.add 
	local.set	168
	local.get	168
	local.set	169
	local.get	169
	call	_ZNKSt3__26chrono8durationIxNS_5ratioILx1ELx1000EEEE5countB8ne190106Ev
	local.set	170
	.loc	1 66 73                         # 6_release_seqcst_store.cpp:66:73
	local.get	166
	local.get	170
	call	_ZNSt3__213basic_ostreamIcNS_11char_traitsIcEEElsEx
	local.set	171
	.loc	1 66 100                        # 6_release_seqcst_store.cpp:66:100
	i32.const	.L.str.1
	local.set	172
	local.get	171
	local.get	172
	call	_ZNSt3__2lsB8ne190106INS_11char_traitsIcEEEERNS_13basic_ostreamIcT_EES6_PKc
	local.set	173
	.loc	1 66 109                        # 6_release_seqcst_store.cpp:66:109
	i32.const	_ZNSt3__24endlB8ne190106IcNS_11char_traitsIcEEEERNS_13basic_ostreamIT_T0_EES7_
	local.set	174
	local.get	173
	local.get	174
	call	_ZNSt3__213basic_ostreamIcNS_11char_traitsIcEEElsB8ne190106EPFRS3_S4_E
	drop
	.loc	1 68 5 is_stmt 1                # 6_release_seqcst_store.cpp:68:5
	i32.const	0
	local.set	175
	local.get	2
	local.get	175
	i32.store	156
	.loc	1 69 1                          # 6_release_seqcst_store.cpp:69:1
	i32.const	60
	local.set	176
	local.get	2
	local.get	176
	i32.add 
	local.set	177
	local.get	177
	local.set	178
	local.get	178
	call	_ZNSt3__26vectorINS_6threadENS_9allocatorIS1_EEED2B8ne190106Ev
	drop
	i32.const	132
	local.set	179
	local.get	2
	local.get	179
	i32.add 
	local.set	180
	local.get	180
	local.set	181
	local.get	181
	call	_ZNSt3__26vectorINS_6threadENS_9allocatorIS1_EEED2B8ne190106Ev
	drop
	local.get	2
	i32.load	156
	local.set	182
	i32.const	160
	local.set	183
	local.get	2
	local.get	183
	i32.add 
	local.set	184
	local.get	184
	global.set	__stack_pointer
	local.get	182
	return
	end_function
.Ltmp41:
.Lfunc_end3:
                                        # -- End function
	.section	.text._ZNSt3__26vectorINS_6threadENS_9allocatorIS1_EEEC2B8ne190106Ev,"G",@,_ZNSt3__26vectorINS_6threadENS_9allocatorIS1_EEEC2B8ne190106Ev,comdat
	.hidden	_ZNSt3__26vectorINS_6threadENS_9allocatorIS1_EEEC2B8ne190106Ev # -- Begin function _ZNSt3__26vectorINS_6threadENS_9allocatorIS1_EEEC2B8ne190106Ev
	.weak	_ZNSt3__26vectorINS_6threadENS_9allocatorIS1_EEEC2B8ne190106Ev
	.type	_ZNSt3__26vectorINS_6threadENS_9allocatorIS1_EEEC2B8ne190106Ev,@function
_ZNSt3__26vectorINS_6threadENS_9allocatorIS1_EEEC2B8ne190106Ev: # @_ZNSt3__26vectorINS_6threadENS_9allocatorIS1_EEEC2B8ne190106Ev
.Lfunc_begin4:
	.loc	3 431 0                         # emscripten/cache/sysroot/include/c++/v1/vector:431:0
	.functype	_ZNSt3__26vectorINS_6threadENS_9allocatorIS1_EEEC2B8ne190106Ev (i32) -> (i32)
	.local  	i32, i32, i32, i32, i32, i32, i32, i32, i32, i32, i32, i32, i32, i32, i32, i32, i32
# %bb.0:                                # %entry
	global.get	__stack_pointer
	local.set	1
	i32.const	16
	local.set	2
	local.get	1
	local.get	2
	i32.sub 
	local.set	3
	local.get	3
	global.set	__stack_pointer
	local.get	3
	local.get	0
	i32.store	12
	local.get	3
	i32.load	12
	local.set	4
.Ltmp42:
	.loc	3 766 11 prologue_end           # emscripten/cache/sysroot/include/c++/v1/vector:766:11
	i32.const	0
	local.set	5
	local.get	4
	local.get	5
	i32.store	0
	.loc	3 767 11                        # emscripten/cache/sysroot/include/c++/v1/vector:767:11
	i32.const	0
	local.set	6
	local.get	4
	local.get	6
	i32.store	4
	.loc	3 768 46                        # emscripten/cache/sysroot/include/c++/v1/vector:768:46
	i32.const	8
	local.set	7
	local.get	4
	local.get	7
	i32.add 
	local.set	8
	.loc	3 769 50                        # emscripten/cache/sysroot/include/c++/v1/vector:769:50
	i32.const	0
	local.set	9
	local.get	3
	local.get	9
	i32.store	8
	.loc	3 769 7 is_stmt 0               # emscripten/cache/sysroot/include/c++/v1/vector:769:7
	i32.const	8
	local.set	10
	local.get	3
	local.get	10
	i32.add 
	local.set	11
	local.get	11
	local.set	12
	i32.const	7
	local.set	13
	local.get	3
	local.get	13
	i32.add 
	local.set	14
	local.get	14
	local.set	15
	local.get	8
	local.get	12
	local.get	15
	call	_ZNSt3__217__compressed_pairIPNS_6threadENS_9allocatorIS1_EEEC2B8ne190106IDnNS_18__default_init_tagEEEOT_OT0_
	drop
	.loc	3 431 76 is_stmt 1              # emscripten/cache/sysroot/include/c++/v1/vector:431:76
	i32.const	16
	local.set	16
	local.get	3
	local.get	16
	i32.add 
	local.set	17
	local.get	17
	global.set	__stack_pointer
	local.get	4
	return
	end_function
.Ltmp43:
.Lfunc_end4:
                                        # -- End function
	.section	.text._ZNSt3__26vectorINS_6threadENS_9allocatorIS1_EEE9push_backB8ne190106EOS1_,"G",@,_ZNSt3__26vectorINS_6threadENS_9allocatorIS1_EEE9push_backB8ne190106EOS1_,comdat
	.hidden	_ZNSt3__26vectorINS_6threadENS_9allocatorIS1_EEE9push_backB8ne190106EOS1_ # -- Begin function _ZNSt3__26vectorINS_6threadENS_9allocatorIS1_EEE9push_backB8ne190106EOS1_
	.weak	_ZNSt3__26vectorINS_6threadENS_9allocatorIS1_EEE9push_backB8ne190106EOS1_
	.type	_ZNSt3__26vectorINS_6threadENS_9allocatorIS1_EEE9push_backB8ne190106EOS1_,@function
_ZNSt3__26vectorINS_6threadENS_9allocatorIS1_EEE9push_backB8ne190106EOS1_: # @_ZNSt3__26vectorINS_6threadENS_9allocatorIS1_EEE9push_backB8ne190106EOS1_
.Lfunc_begin5:
	.loc	3 1520 0                        # emscripten/cache/sysroot/include/c++/v1/vector:1520:0
	.functype	_ZNSt3__26vectorINS_6threadENS_9allocatorIS1_EEE9push_backB8ne190106EOS1_ (i32, i32) -> ()
	.local  	i32, i32, i32, i32, i32, i32, i32, i32, i32, i32, i32, i32, i32, i32, i32, i32, i32, i32, i32, i32
# %bb.0:                                # %entry
	global.get	__stack_pointer
	local.set	2
	i32.const	16
	local.set	3
	local.get	2
	local.get	3
	i32.sub 
	local.set	4
	local.get	4
	global.set	__stack_pointer
	local.get	4
	local.get	0
	i32.store	12
	local.get	4
	local.get	1
	i32.store	8
	local.get	4
	i32.load	12
	local.set	5
.Ltmp44:
	.loc	3 1521 25 prologue_end          # emscripten/cache/sysroot/include/c++/v1/vector:1521:25
	local.get	5
	i32.load	4
	local.set	6
	.loc	3 1521 11 is_stmt 0             # emscripten/cache/sysroot/include/c++/v1/vector:1521:11
	local.get	4
	local.get	6
	i32.store	4
.Ltmp45:
	.loc	3 1522 7 is_stmt 1              # emscripten/cache/sysroot/include/c++/v1/vector:1522:7
	local.get	4
	i32.load	4
	local.set	7
	.loc	3 1522 21 is_stmt 0             # emscripten/cache/sysroot/include/c++/v1/vector:1522:21
	local.get	5
	call	_ZNSt3__26vectorINS_6threadENS_9allocatorIS1_EEE9__end_capB8ne190106Ev
	local.set	8
	local.get	8
	i32.load	0
	local.set	9
	.loc	3 1522 13                       # emscripten/cache/sysroot/include/c++/v1/vector:1522:13
	local.get	7
	local.get	9
	i32.lt_u
	local.set	10
	i32.const	1
	local.set	11
	local.get	10
	local.get	11
	i32.and 
	local.set	12
	block   	
	block   	
	local.get	12
	i32.eqz
	br_if   	0                               # 0: down to label13
# %bb.1:                                # %if.then
.Ltmp46:
	.loc	3 1523 38 is_stmt 1             # emscripten/cache/sysroot/include/c++/v1/vector:1523:38
	local.get	4
	i32.load	8
	local.set	13
	.loc	3 1523 5 is_stmt 0              # emscripten/cache/sysroot/include/c++/v1/vector:1523:5
	local.get	5
	local.get	13
	call	_ZNSt3__26vectorINS_6threadENS_9allocatorIS1_EEE22__construct_one_at_endB8ne190106IJS1_EEEvDpOT_
	.loc	3 1524 5 is_stmt 1              # emscripten/cache/sysroot/include/c++/v1/vector:1524:5
	local.get	4
	i32.load	4
	local.set	14
	i32.const	4
	local.set	15
	local.get	14
	local.get	15
	i32.add 
	local.set	16
	local.get	4
	local.get	16
	i32.store	4
	.loc	3 1525 3                        # emscripten/cache/sysroot/include/c++/v1/vector:1525:3
	br      	1                               # 1: down to label12
.Ltmp47:
.LBB5_2:                                # %if.else
	.loc	3 0 3 is_stmt 0                 # emscripten/cache/sysroot/include/c++/v1/vector:0:3
	end_block                               # label13:
.Ltmp48:
	.loc	3 1526 45 is_stmt 1             # emscripten/cache/sysroot/include/c++/v1/vector:1526:45
	local.get	4
	i32.load	8
	local.set	17
	.loc	3 1526 13 is_stmt 0             # emscripten/cache/sysroot/include/c++/v1/vector:1526:13
	local.get	5
	local.get	17
	call	_ZNSt3__26vectorINS_6threadENS_9allocatorIS1_EEE21__push_back_slow_pathIS1_EEPS1_OT_
	local.set	18
	.loc	3 1526 11                       # emscripten/cache/sysroot/include/c++/v1/vector:1526:11
	local.get	4
	local.get	18
	i32.store	4
.Ltmp49:
.LBB5_3:                                # %if.end
	.loc	3 0 11                          # emscripten/cache/sysroot/include/c++/v1/vector:0:11
	end_block                               # label12:
	.loc	3 1528 18 is_stmt 1             # emscripten/cache/sysroot/include/c++/v1/vector:1528:18
	local.get	4
	i32.load	4
	local.set	19
	.loc	3 1528 16 is_stmt 0             # emscripten/cache/sysroot/include/c++/v1/vector:1528:16
	local.get	5
	local.get	19
	i32.store	4
	.loc	3 1529 1 is_stmt 1              # emscripten/cache/sysroot/include/c++/v1/vector:1529:1
	i32.const	16
	local.set	20
	local.get	4
	local.get	20
	i32.add 
	local.set	21
	local.get	21
	global.set	__stack_pointer
	return
	end_function
.Ltmp50:
.Lfunc_end5:
                                        # -- End function
	.section	.text._ZNSt3__23refB8ne190106INS_6atomicIiEEEENS_17reference_wrapperIT_EERS4_,"G",@,_ZNSt3__23refB8ne190106INS_6atomicIiEEEENS_17reference_wrapperIT_EERS4_,comdat
	.hidden	_ZNSt3__23refB8ne190106INS_6atomicIiEEEENS_17reference_wrapperIT_EERS4_ # -- Begin function _ZNSt3__23refB8ne190106INS_6atomicIiEEEENS_17reference_wrapperIT_EERS4_
	.weak	_ZNSt3__23refB8ne190106INS_6atomicIiEEEENS_17reference_wrapperIT_EERS4_
	.type	_ZNSt3__23refB8ne190106INS_6atomicIiEEEENS_17reference_wrapperIT_EERS4_,@function
_ZNSt3__23refB8ne190106INS_6atomicIiEEEENS_17reference_wrapperIT_EERS4_: # @_ZNSt3__23refB8ne190106INS_6atomicIiEEEENS_17reference_wrapperIT_EERS4_
.Lfunc_begin6:
	.loc	28 126 0                        # emscripten/cache/sysroot/include/c++/v1/__functional/reference_wrapper.h:126:0
	.functype	_ZNSt3__23refB8ne190106INS_6atomicIiEEEENS_17reference_wrapperIT_EERS4_ (i32) -> (i32)
	.local  	i32, i32, i32, i32, i32, i32, i32, i32, i32, i32
# %bb.0:                                # %entry
	global.get	__stack_pointer
	local.set	1
	i32.const	16
	local.set	2
	local.get	1
	local.get	2
	i32.sub 
	local.set	3
	local.get	3
	global.set	__stack_pointer
	local.get	3
	local.get	0
	i32.store	8
.Ltmp51:
	.loc	28 127 33 prologue_end          # emscripten/cache/sysroot/include/c++/v1/__functional/reference_wrapper.h:127:33
	local.get	3
	i32.load	8
	local.set	4
	.loc	28 127 10 is_stmt 0             # emscripten/cache/sysroot/include/c++/v1/__functional/reference_wrapper.h:127:10
	i32.const	12
	local.set	5
	local.get	3
	local.get	5
	i32.add 
	local.set	6
	local.get	6
	local.set	7
	local.get	7
	local.get	4
	call	_ZNSt3__217reference_wrapperINS_6atomicIiEEEC2B8ne190106IRS2_vTnNS_9enable_ifIXntsr17__is_same_uncvrefIT_S3_EE5valueEiE4typeELi0EEEOS7_
	drop
	.loc	28 127 3                        # emscripten/cache/sysroot/include/c++/v1/__functional/reference_wrapper.h:127:3
	local.get	3
	i32.load	12
	local.set	8
	i32.const	16
	local.set	9
	local.get	3
	local.get	9
	i32.add 
	local.set	10
	local.get	10
	global.set	__stack_pointer
	local.get	8
	return
	end_function
.Ltmp52:
.Lfunc_end6:
                                        # -- End function
	.section	.text._ZNSt3__26threadC2IRFvRNS_6atomicIiEEiiEJNS_17reference_wrapperIS3_EERiS9_ETnNS_9enable_ifIXntsr7is_sameIu14__remove_cvrefIT_ES0_EE5valueEiE4typeELi0EEEOSB_DpOT0_,"G",@,_ZNSt3__26threadC2IRFvRNS_6atomicIiEEiiEJNS_17reference_wrapperIS3_EERiS9_ETnNS_9enable_ifIXntsr7is_sameIu14__remove_cvrefIT_ES0_EE5valueEiE4typeELi0EEEOSB_DpOT0_,comdat
	.hidden	_ZNSt3__26threadC2IRFvRNS_6atomicIiEEiiEJNS_17reference_wrapperIS3_EERiS9_ETnNS_9enable_ifIXntsr7is_sameIu14__remove_cvrefIT_ES0_EE5valueEiE4typeELi0EEEOSB_DpOT0_ # -- Begin function _ZNSt3__26threadC2IRFvRNS_6atomicIiEEiiEJNS_17reference_wrapperIS3_EERiS9_ETnNS_9enable_ifIXntsr7is_sameIu14__remove_cvrefIT_ES0_EE5valueEiE4typeELi0EEEOSB_DpOT0_
	.weak	_ZNSt3__26threadC2IRFvRNS_6atomicIiEEiiEJNS_17reference_wrapperIS3_EERiS9_ETnNS_9enable_ifIXntsr7is_sameIu14__remove_cvrefIT_ES0_EE5valueEiE4typeELi0EEEOSB_DpOT0_
	.type	_ZNSt3__26threadC2IRFvRNS_6atomicIiEEiiEJNS_17reference_wrapperIS3_EERiS9_ETnNS_9enable_ifIXntsr7is_sameIu14__remove_cvrefIT_ES0_EE5valueEiE4typeELi0EEEOSB_DpOT0_,@function
_ZNSt3__26threadC2IRFvRNS_6atomicIiEEiiEJNS_17reference_wrapperIS3_EERiS9_ETnNS_9enable_ifIXntsr7is_sameIu14__remove_cvrefIT_ES0_EE5valueEiE4typeELi0EEEOSB_DpOT0_: # @_ZNSt3__26threadC2IRFvRNS_6atomicIiEEiiEJNS_17reference_wrapperIS3_EERiS9_ETnNS_9enable_ifIXntsr7is_sameIu14__remove_cvrefIT_ES0_EE5valueEiE4typeELi0EEEOSB_DpOT0_
.Lfunc_begin7:
	.loc	2 206 0 is_stmt 1               # emscripten/cache/sysroot/include/c++/v1/__thread/thread.h:206:0
	.functype	_ZNSt3__26threadC2IRFvRNS_6atomicIiEEiiEJNS_17reference_wrapperIS3_EERiS9_ETnNS_9enable_ifIXntsr7is_sameIu14__remove_cvrefIT_ES0_EE5valueEiE4typeELi0EEEOSB_DpOT0_ (i32, i32, i32, i32, i32) -> (i32)
	.local  	i32, i32, i32, i32, i32, i32, i32, i32, i32, i32, i32, i32, i32, i32, i32, i32, i32, i32, i32, i32, i32, i32, i32, i32, i32, i32, i32, i32, i32, i32, i32, i32, i32, i32, i32, i32, i32, i32, i32, i32, i32
# %bb.0:                                # %entry
	global.get	__stack_pointer
	local.set	5
	i32.const	32
	local.set	6
	local.get	5
	local.get	6
	i32.sub 
	local.set	7
	local.get	7
	global.set	__stack_pointer
	local.get	7
	local.get	0
	i32.store	28
	local.get	7
	local.get	1
	i32.store	24
	local.get	7
	local.get	2
	i32.store	20
	local.get	7
	local.get	3
	i32.store	16
	local.get	7
	local.get	4
	i32.store	12
	local.get	7
	i32.load	28
	local.set	8
.Ltmp53:
	.loc	2 208 16 prologue_end           # emscripten/cache/sysroot/include/c++/v1/__thread/thread.h:208:16
	i32.const	4
	local.set	9
	local.get	9
	call	_Znwm
	local.set	10
	.loc	2 208 20 is_stmt 0              # emscripten/cache/sysroot/include/c++/v1/__thread/thread.h:208:20
	local.get	10
	call	_ZNSt3__215__thread_structC1Ev
	drop
	.loc	2 208 10                        # emscripten/cache/sysroot/include/c++/v1/__thread/thread.h:208:10
	i32.const	8
	local.set	11
	local.get	7
	local.get	11
	i32.add 
	local.set	12
	local.get	12
	local.set	13
	local.get	13
	local.get	10
	call	_ZNSt3__210unique_ptrINS_15__thread_structENS_14default_deleteIS1_EEEC2B8ne190106ILb1EvEEPS1_
	drop
	.loc	2 210 23 is_stmt 1              # emscripten/cache/sysroot/include/c++/v1/__thread/thread.h:210:23
	i32.const	20
	local.set	14
	local.get	14
	call	_Znwm
	local.set	15
	.loc	2 210 67 is_stmt 0              # emscripten/cache/sysroot/include/c++/v1/__thread/thread.h:210:67
	local.get	7
	i32.load	24
	local.set	16
	.loc	2 210 93                        # emscripten/cache/sysroot/include/c++/v1/__thread/thread.h:210:93
	local.get	7
	i32.load	20
	local.set	17
	local.get	7
	i32.load	16
	local.set	18
	local.get	7
	i32.load	12
	local.set	19
	.loc	2 210 27                        # emscripten/cache/sysroot/include/c++/v1/__thread/thread.h:210:27
	i32.const	8
	local.set	20
	local.get	7
	local.get	20
	i32.add 
	local.set	21
	local.get	21
	local.set	22
	local.get	15
	local.get	22
	local.get	16
	local.get	17
	local.get	18
	local.get	19
	call	_ZNSt3__25tupleIJNS_10unique_ptrINS_15__thread_structENS_14default_deleteIS2_EEEEPFvRNS_6atomicIiEEiiENS_17reference_wrapperIS7_EEiiEEC2B8ne190106IJS5_RS9_SC_RiSG_ETnNS_9enable_ifIXsr4_AndINS_17integral_constantIbXeqsZT_sZT_EEENSD_17_EnableUTypesCtorIJDpT_EEEEE5valueEiE4typeELi0EEEDpOSL_
	drop
	.loc	2 210 19                        # emscripten/cache/sysroot/include/c++/v1/__thread/thread.h:210:19
	i32.const	4
	local.set	23
	local.get	7
	local.get	23
	i32.add 
	local.set	24
	local.get	24
	local.set	25
	local.get	25
	local.get	15
	call	_ZNSt3__210unique_ptrINS_5tupleIJNS0_INS_15__thread_structENS_14default_deleteIS2_EEEEPFvRNS_6atomicIiEEiiENS_17reference_wrapperIS7_EEiiEEENS3_ISD_EEEC2B8ne190106ILb1EvEEPSD_
	drop
	.loc	2 211 75 is_stmt 1              # emscripten/cache/sysroot/include/c++/v1/__thread/thread.h:211:75
	i32.const	4
	local.set	26
	local.get	7
	local.get	26
	i32.add 
	local.set	27
	local.get	27
	local.set	28
	local.get	28
	call	_ZNKSt3__210unique_ptrINS_5tupleIJNS0_INS_15__thread_structENS_14default_deleteIS2_EEEEPFvRNS_6atomicIiEEiiENS_17reference_wrapperIS7_EEiiEEENS3_ISD_EEE3getB8ne190106Ev
	local.set	29
	.loc	2 211 14 is_stmt 0              # emscripten/cache/sysroot/include/c++/v1/__thread/thread.h:211:14
	i32.const	_ZNSt3__214__thread_proxyB8ne190106INS_5tupleIJNS_10unique_ptrINS_15__thread_structENS_14default_deleteIS3_EEEEPFvRNS_6atomicIiEEiiENS_17reference_wrapperIS8_EEiiEEEEEPvSF_
	local.set	30
	local.get	8
	local.get	30
	local.get	29
	call	_ZNSt3__222__libcpp_thread_createB8ne190106EPmPFPvS1_ES1_
	local.set	31
	.loc	2 211 7                         # emscripten/cache/sysroot/include/c++/v1/__thread/thread.h:211:7
	local.get	7
	local.get	31
	i32.store	0
.Ltmp54:
	.loc	2 212 7 is_stmt 1               # emscripten/cache/sysroot/include/c++/v1/__thread/thread.h:212:7
	local.get	7
	i32.load	0
	local.set	32
	.loc	2 212 12 is_stmt 0              # emscripten/cache/sysroot/include/c++/v1/__thread/thread.h:212:12
	block   	
	block   	
	local.get	32
	br_if   	0                               # 0: down to label15
# %bb.1:                                # %if.then
	.loc	2 213 9 is_stmt 1               # emscripten/cache/sysroot/include/c++/v1/__thread/thread.h:213:9
	i32.const	4
	local.set	33
	local.get	7
	local.get	33
	i32.add 
	local.set	34
	local.get	34
	local.set	35
	local.get	35
	call	_ZNSt3__210unique_ptrINS_5tupleIJNS0_INS_15__thread_structENS_14default_deleteIS2_EEEEPFvRNS_6atomicIiEEiiENS_17reference_wrapperIS7_EEiiEEENS3_ISD_EEE7releaseB8ne190106Ev
	drop
	.loc	2 213 5 is_stmt 0               # emscripten/cache/sysroot/include/c++/v1/__thread/thread.h:213:5
	br      	1                               # 1: down to label14
.LBB7_2:                                # %if.else
	.loc	2 0 5                           # emscripten/cache/sysroot/include/c++/v1/__thread/thread.h:0:5
	end_block                               # label15:
	.loc	2 215 26 is_stmt 1              # emscripten/cache/sysroot/include/c++/v1/__thread/thread.h:215:26
	local.get	7
	i32.load	0
	local.set	36
	.loc	2 215 5 is_stmt 0               # emscripten/cache/sysroot/include/c++/v1/__thread/thread.h:215:5
	i32.const	.L.str.3
	local.set	37
	local.get	36
	local.get	37
	call	_ZNSt3__220__throw_system_errorEiPKc
	unreachable
.Ltmp55:
.LBB7_3:                                # %if.end
	.loc	2 0 5                           # emscripten/cache/sysroot/include/c++/v1/__thread/thread.h:0:5
	end_block                               # label14:
	.loc	2 216 1 is_stmt 1               # emscripten/cache/sysroot/include/c++/v1/__thread/thread.h:216:1
	i32.const	4
	local.set	38
	local.get	7
	local.get	38
	i32.add 
	local.set	39
	local.get	39
	local.set	40
	local.get	40
	call	_ZNSt3__210unique_ptrINS_5tupleIJNS0_INS_15__thread_structENS_14default_deleteIS2_EEEEPFvRNS_6atomicIiEEiiENS_17reference_wrapperIS7_EEiiEEENS3_ISD_EEED2B8ne190106Ev
	drop
	i32.const	8
	local.set	41
	local.get	7
	local.get	41
	i32.add 
	local.set	42
	local.get	42
	local.set	43
	local.get	43
	call	_ZNSt3__210unique_ptrINS_15__thread_structENS_14default_deleteIS1_EEED2B8ne190106Ev
	drop
	i32.const	32
	local.set	44
	local.get	7
	local.get	44
	i32.add 
	local.set	45
	local.get	45
	global.set	__stack_pointer
	local.get	8
	return
	end_function
.Ltmp56:
.Lfunc_end7:
                                        # -- End function
	.section	.text._ZNSt3__26vectorINS_6threadENS_9allocatorIS1_EEE5beginB8ne190106Ev,"G",@,_ZNSt3__26vectorINS_6threadENS_9allocatorIS1_EEE5beginB8ne190106Ev,comdat
	.hidden	_ZNSt3__26vectorINS_6threadENS_9allocatorIS1_EEE5beginB8ne190106Ev # -- Begin function _ZNSt3__26vectorINS_6threadENS_9allocatorIS1_EEE5beginB8ne190106Ev
	.weak	_ZNSt3__26vectorINS_6threadENS_9allocatorIS1_EEE5beginB8ne190106Ev
	.type	_ZNSt3__26vectorINS_6threadENS_9allocatorIS1_EEE5beginB8ne190106Ev,@function
_ZNSt3__26vectorINS_6threadENS_9allocatorIS1_EEE5beginB8ne190106Ev: # @_ZNSt3__26vectorINS_6threadENS_9allocatorIS1_EEE5beginB8ne190106Ev
.Lfunc_begin8:
	.loc	3 1411 0                        # emscripten/cache/sysroot/include/c++/v1/vector:1411:0
	.functype	_ZNSt3__26vectorINS_6threadENS_9allocatorIS1_EEE5beginB8ne190106Ev (i32) -> (i32)
	.local  	i32, i32, i32, i32, i32, i32, i32, i32, i32
# %bb.0:                                # %entry
	global.get	__stack_pointer
	local.set	1
	i32.const	16
	local.set	2
	local.get	1
	local.get	2
	i32.sub 
	local.set	3
	local.get	3
	global.set	__stack_pointer
	local.get	3
	local.get	0
	i32.store	8
	local.get	3
	i32.load	8
	local.set	4
.Ltmp57:
	.loc	3 1412 28 prologue_end          # emscripten/cache/sysroot/include/c++/v1/vector:1412:28
	local.get	4
	i32.load	0
	local.set	5
	.loc	3 1412 10 is_stmt 0             # emscripten/cache/sysroot/include/c++/v1/vector:1412:10
	local.get	4
	local.get	5
	call	_ZNSt3__26vectorINS_6threadENS_9allocatorIS1_EEE11__make_iterB8ne190106EPS1_
	local.set	6
	local.get	3
	local.get	6
	i32.store	12
	.loc	3 1412 3                        # emscripten/cache/sysroot/include/c++/v1/vector:1412:3
	local.get	3
	i32.load	12
	local.set	7
	i32.const	16
	local.set	8
	local.get	3
	local.get	8
	i32.add 
	local.set	9
	local.get	9
	global.set	__stack_pointer
	local.get	7
	return
	end_function
.Ltmp58:
.Lfunc_end8:
                                        # -- End function
	.section	.text._ZNSt3__26vectorINS_6threadENS_9allocatorIS1_EEE3endB8ne190106Ev,"G",@,_ZNSt3__26vectorINS_6threadENS_9allocatorIS1_EEE3endB8ne190106Ev,comdat
	.hidden	_ZNSt3__26vectorINS_6threadENS_9allocatorIS1_EEE3endB8ne190106Ev # -- Begin function _ZNSt3__26vectorINS_6threadENS_9allocatorIS1_EEE3endB8ne190106Ev
	.weak	_ZNSt3__26vectorINS_6threadENS_9allocatorIS1_EEE3endB8ne190106Ev
	.type	_ZNSt3__26vectorINS_6threadENS_9allocatorIS1_EEE3endB8ne190106Ev,@function
_ZNSt3__26vectorINS_6threadENS_9allocatorIS1_EEE3endB8ne190106Ev: # @_ZNSt3__26vectorINS_6threadENS_9allocatorIS1_EEE3endB8ne190106Ev
.Lfunc_begin9:
	.loc	3 1423 0 is_stmt 1              # emscripten/cache/sysroot/include/c++/v1/vector:1423:0
	.functype	_ZNSt3__26vectorINS_6threadENS_9allocatorIS1_EEE3endB8ne190106Ev (i32) -> (i32)
	.local  	i32, i32, i32, i32, i32, i32, i32, i32, i32
# %bb.0:                                # %entry
	global.get	__stack_pointer
	local.set	1
	i32.const	16
	local.set	2
	local.get	1
	local.get	2
	i32.sub 
	local.set	3
	local.get	3
	global.set	__stack_pointer
	local.get	3
	local.get	0
	i32.store	8
	local.get	3
	i32.load	8
	local.set	4
.Ltmp59:
	.loc	3 1424 28 prologue_end          # emscripten/cache/sysroot/include/c++/v1/vector:1424:28
	local.get	4
	i32.load	4
	local.set	5
	.loc	3 1424 10 is_stmt 0             # emscripten/cache/sysroot/include/c++/v1/vector:1424:10
	local.get	4
	local.get	5
	call	_ZNSt3__26vectorINS_6threadENS_9allocatorIS1_EEE11__make_iterB8ne190106EPS1_
	local.set	6
	local.get	3
	local.get	6
	i32.store	12
	.loc	3 1424 3                        # emscripten/cache/sysroot/include/c++/v1/vector:1424:3
	local.get	3
	i32.load	12
	local.set	7
	i32.const	16
	local.set	8
	local.get	3
	local.get	8
	i32.add 
	local.set	9
	local.get	9
	global.set	__stack_pointer
	local.get	7
	return
	end_function
.Ltmp60:
.Lfunc_end9:
                                        # -- End function
	.section	.text._ZNSt3__2neB8ne190106IPNS_6threadEEEbRKNS_11__wrap_iterIT_EES7_,"G",@,_ZNSt3__2neB8ne190106IPNS_6threadEEEbRKNS_11__wrap_iterIT_EES7_,comdat
	.hidden	_ZNSt3__2neB8ne190106IPNS_6threadEEEbRKNS_11__wrap_iterIT_EES7_ # -- Begin function _ZNSt3__2neB8ne190106IPNS_6threadEEEbRKNS_11__wrap_iterIT_EES7_
	.weak	_ZNSt3__2neB8ne190106IPNS_6threadEEEbRKNS_11__wrap_iterIT_EES7_
	.type	_ZNSt3__2neB8ne190106IPNS_6threadEEEbRKNS_11__wrap_iterIT_EES7_,@function
_ZNSt3__2neB8ne190106IPNS_6threadEEEbRKNS_11__wrap_iterIT_EES7_: # @_ZNSt3__2neB8ne190106IPNS_6threadEEEbRKNS_11__wrap_iterIT_EES7_
.Lfunc_begin10:
	.loc	18 139 0 is_stmt 1              # emscripten/cache/sysroot/include/c++/v1/__iterator/wrap_iter.h:139:0
	.functype	_ZNSt3__2neB8ne190106IPNS_6threadEEEbRKNS_11__wrap_iterIT_EES7_ (i32, i32) -> (i32)
	.local  	i32, i32, i32, i32, i32, i32, i32, i32, i32, i32, i32, i32
# %bb.0:                                # %entry
	global.get	__stack_pointer
	local.set	2
	i32.const	16
	local.set	3
	local.get	2
	local.get	3
	i32.sub 
	local.set	4
	local.get	4
	global.set	__stack_pointer
	local.get	4
	local.get	0
	i32.store	12
	local.get	4
	local.get	1
	i32.store	8
.Ltmp61:
	.loc	18 140 12 prologue_end          # emscripten/cache/sysroot/include/c++/v1/__iterator/wrap_iter.h:140:12
	local.get	4
	i32.load	12
	local.set	5
	.loc	18 140 19 is_stmt 0             # emscripten/cache/sysroot/include/c++/v1/__iterator/wrap_iter.h:140:19
	local.get	4
	i32.load	8
	local.set	6
	.loc	18 140 16                       # emscripten/cache/sysroot/include/c++/v1/__iterator/wrap_iter.h:140:16
	local.get	5
	local.get	6
	call	_ZNSt3__2eqB8ne190106IPNS_6threadEEEbRKNS_11__wrap_iterIT_EES7_
	local.set	7
	.loc	18 140 10                       # emscripten/cache/sysroot/include/c++/v1/__iterator/wrap_iter.h:140:10
	i32.const	-1
	local.set	8
	local.get	7
	local.get	8
	i32.xor 
	local.set	9
	.loc	18 140 3                        # emscripten/cache/sysroot/include/c++/v1/__iterator/wrap_iter.h:140:3
	i32.const	1
	local.set	10
	local.get	9
	local.get	10
	i32.and 
	local.set	11
	i32.const	16
	local.set	12
	local.get	4
	local.get	12
	i32.add 
	local.set	13
	local.get	13
	global.set	__stack_pointer
	local.get	11
	return
	end_function
.Ltmp62:
.Lfunc_end10:
                                        # -- End function
	.section	.text._ZNKSt3__211__wrap_iterIPNS_6threadEEdeB8ne190106Ev,"G",@,_ZNKSt3__211__wrap_iterIPNS_6threadEEdeB8ne190106Ev,comdat
	.hidden	_ZNKSt3__211__wrap_iterIPNS_6threadEEdeB8ne190106Ev # -- Begin function _ZNKSt3__211__wrap_iterIPNS_6threadEEdeB8ne190106Ev
	.weak	_ZNKSt3__211__wrap_iterIPNS_6threadEEdeB8ne190106Ev
	.type	_ZNKSt3__211__wrap_iterIPNS_6threadEEdeB8ne190106Ev,@function
_ZNKSt3__211__wrap_iterIPNS_6threadEEdeB8ne190106Ev: # @_ZNKSt3__211__wrap_iterIPNS_6threadEEdeB8ne190106Ev
.Lfunc_begin11:
	.loc	18 50 0 is_stmt 1               # emscripten/cache/sysroot/include/c++/v1/__iterator/wrap_iter.h:50:0
	.functype	_ZNKSt3__211__wrap_iterIPNS_6threadEEdeB8ne190106Ev (i32) -> (i32)
	.local  	i32, i32, i32, i32, i32
# %bb.0:                                # %entry
	global.get	__stack_pointer
	local.set	1
	i32.const	16
	local.set	2
	local.get	1
	local.get	2
	i32.sub 
	local.set	3
	local.get	3
	local.get	0
	i32.store	12
	local.get	3
	i32.load	12
	local.set	4
.Ltmp63:
	.loc	18 50 103 prologue_end          # emscripten/cache/sysroot/include/c++/v1/__iterator/wrap_iter.h:50:103
	local.get	4
	i32.load	0
	local.set	5
	.loc	18 50 95 is_stmt 0              # emscripten/cache/sysroot/include/c++/v1/__iterator/wrap_iter.h:50:95
	local.get	5
	return
	end_function
.Ltmp64:
.Lfunc_end11:
                                        # -- End function
	.section	.text._ZNSt3__211__wrap_iterIPNS_6threadEEppB8ne190106Ev,"G",@,_ZNSt3__211__wrap_iterIPNS_6threadEEppB8ne190106Ev,comdat
	.hidden	_ZNSt3__211__wrap_iterIPNS_6threadEEppB8ne190106Ev # -- Begin function _ZNSt3__211__wrap_iterIPNS_6threadEEppB8ne190106Ev
	.weak	_ZNSt3__211__wrap_iterIPNS_6threadEEppB8ne190106Ev
	.type	_ZNSt3__211__wrap_iterIPNS_6threadEEppB8ne190106Ev,@function
_ZNSt3__211__wrap_iterIPNS_6threadEEppB8ne190106Ev: # @_ZNSt3__211__wrap_iterIPNS_6threadEEppB8ne190106Ev
.Lfunc_begin12:
	.loc	18 54 0 is_stmt 1               # emscripten/cache/sysroot/include/c++/v1/__iterator/wrap_iter.h:54:0
	.functype	_ZNSt3__211__wrap_iterIPNS_6threadEEppB8ne190106Ev (i32) -> (i32)
	.local  	i32, i32, i32, i32, i32, i32, i32
# %bb.0:                                # %entry
	global.get	__stack_pointer
	local.set	1
	i32.const	16
	local.set	2
	local.get	1
	local.get	2
	i32.sub 
	local.set	3
	local.get	3
	local.get	0
	i32.store	12
	local.get	3
	i32.load	12
	local.set	4
.Ltmp65:
	.loc	18 55 5 prologue_end            # emscripten/cache/sysroot/include/c++/v1/__iterator/wrap_iter.h:55:5
	local.get	4
	i32.load	0
	local.set	5
	i32.const	4
	local.set	6
	local.get	5
	local.get	6
	i32.add 
	local.set	7
	local.get	4
	local.get	7
	i32.store	0
	.loc	18 56 5                         # emscripten/cache/sysroot/include/c++/v1/__iterator/wrap_iter.h:56:5
	local.get	4
	return
	end_function
.Ltmp66:
.Lfunc_end12:
                                        # -- End function
	.section	.text._ZNSt3__26chrono13duration_castB8ne190106INS0_8durationIxNS_5ratioILx1ELx1000EEEEExNS3_ILx1ELx1000000000EEETnNS_9enable_ifIXsr13__is_durationIT_EE5valueEiE4typeELi0EEES8_RKNS2_IT0_T1_EE,"G",@,_ZNSt3__26chrono13duration_castB8ne190106INS0_8durationIxNS_5ratioILx1ELx1000EEEEExNS3_ILx1ELx1000000000EEETnNS_9enable_ifIXsr13__is_durationIT_EE5valueEiE4typeELi0EEES8_RKNS2_IT0_T1_EE,comdat
	.hidden	_ZNSt3__26chrono13duration_castB8ne190106INS0_8durationIxNS_5ratioILx1ELx1000EEEEExNS3_ILx1ELx1000000000EEETnNS_9enable_ifIXsr13__is_durationIT_EE5valueEiE4typeELi0EEES8_RKNS2_IT0_T1_EE # -- Begin function _ZNSt3__26chrono13duration_castB8ne190106INS0_8durationIxNS_5ratioILx1ELx1000EEEEExNS3_ILx1ELx1000000000EEETnNS_9enable_ifIXsr13__is_durationIT_EE5valueEiE4typeELi0EEES8_RKNS2_IT0_T1_EE
	.weak	_ZNSt3__26chrono13duration_castB8ne190106INS0_8durationIxNS_5ratioILx1ELx1000EEEEExNS3_ILx1ELx1000000000EEETnNS_9enable_ifIXsr13__is_durationIT_EE5valueEiE4typeELi0EEES8_RKNS2_IT0_T1_EE
	.type	_ZNSt3__26chrono13duration_castB8ne190106INS0_8durationIxNS_5ratioILx1ELx1000EEEEExNS3_ILx1ELx1000000000EEETnNS_9enable_ifIXsr13__is_durationIT_EE5valueEiE4typeELi0EEES8_RKNS2_IT0_T1_EE,@function
_ZNSt3__26chrono13duration_castB8ne190106INS0_8durationIxNS_5ratioILx1ELx1000EEEEExNS3_ILx1ELx1000000000EEETnNS_9enable_ifIXsr13__is_durationIT_EE5valueEiE4typeELi0EEES8_RKNS2_IT0_T1_EE: # @_ZNSt3__26chrono13duration_castB8ne190106INS0_8durationIxNS_5ratioILx1ELx1000EEEEExNS3_ILx1ELx1000000000EEETnNS_9enable_ifIXsr13__is_durationIT_EE5valueEiE4typeELi0EEES8_RKNS2_IT0_T1_EE
.Lfunc_begin13:
	.loc	10 106 0                        # emscripten/cache/sysroot/include/c++/v1/__chrono/duration.h:106:0
	.functype	_ZNSt3__26chrono13duration_castB8ne190106INS0_8durationIxNS_5ratioILx1ELx1000EEEEExNS3_ILx1ELx1000000000EEETnNS_9enable_ifIXsr13__is_durationIT_EE5valueEiE4typeELi0EEES8_RKNS2_IT0_T1_EE (i32) -> (i64)
	.local  	i32, i32, i32, i32, i32, i32, i32, i64, i64, i32, i32
# %bb.0:                                # %entry
	global.get	__stack_pointer
	local.set	1
	i32.const	16
	local.set	2
	local.get	1
	local.get	2
	i32.sub 
	local.set	3
	local.get	3
	global.set	__stack_pointer
	local.get	3
	local.get	0
	i32.store	4
.Ltmp67:
	.loc	10 107 66 prologue_end          # emscripten/cache/sysroot/include/c++/v1/__chrono/duration.h:107:66
	local.get	3
	i32.load	4
	local.set	4
	.loc	10 107 10 is_stmt 0             # emscripten/cache/sysroot/include/c++/v1/__chrono/duration.h:107:10
	i32.const	3
	local.set	5
	local.get	3
	local.get	5
	i32.add 
	local.set	6
	local.get	6
	local.set	7
	local.get	7
	local.get	4
	call	_ZNKSt3__26chrono15__duration_castINS0_8durationIxNS_5ratioILx1ELx1000000000EEEEENS2_IxNS3_ILx1ELx1000EEEEENS3_ILx1ELx1000000EEELb1ELb0EEclB8ne190106ERKS5_
	local.set	8
	local.get	3
	local.get	8
	i64.store	8
	.loc	10 107 3                        # emscripten/cache/sysroot/include/c++/v1/__chrono/duration.h:107:3
	local.get	3
	i64.load	8
	local.set	9
	i32.const	16
	local.set	10
	local.get	3
	local.get	10
	i32.add 
	local.set	11
	local.get	11
	global.set	__stack_pointer
	local.get	9
	return
	end_function
.Ltmp68:
.Lfunc_end13:
                                        # -- End function
	.section	.text._ZNSt3__26chronomiB8ne190106INS0_12steady_clockENS0_8durationIxNS_5ratioILx1ELx1000000000EEEEES6_EENS_11common_typeIJT0_T1_EE4typeERKNS0_10time_pointIT_S8_EERKNSC_ISD_S9_EE,"G",@,_ZNSt3__26chronomiB8ne190106INS0_12steady_clockENS0_8durationIxNS_5ratioILx1ELx1000000000EEEEES6_EENS_11common_typeIJT0_T1_EE4typeERKNS0_10time_pointIT_S8_EERKNSC_ISD_S9_EE,comdat
	.hidden	_ZNSt3__26chronomiB8ne190106INS0_12steady_clockENS0_8durationIxNS_5ratioILx1ELx1000000000EEEEES6_EENS_11common_typeIJT0_T1_EE4typeERKNS0_10time_pointIT_S8_EERKNSC_ISD_S9_EE # -- Begin function _ZNSt3__26chronomiB8ne190106INS0_12steady_clockENS0_8durationIxNS_5ratioILx1ELx1000000000EEEEES6_EENS_11common_typeIJT0_T1_EE4typeERKNS0_10time_pointIT_S8_EERKNSC_ISD_S9_EE
	.weak	_ZNSt3__26chronomiB8ne190106INS0_12steady_clockENS0_8durationIxNS_5ratioILx1ELx1000000000EEEEES6_EENS_11common_typeIJT0_T1_EE4typeERKNS0_10time_pointIT_S8_EERKNSC_ISD_S9_EE
	.type	_ZNSt3__26chronomiB8ne190106INS0_12steady_clockENS0_8durationIxNS_5ratioILx1ELx1000000000EEEEES6_EENS_11common_typeIJT0_T1_EE4typeERKNS0_10time_pointIT_S8_EERKNSC_ISD_S9_EE,@function
_ZNSt3__26chronomiB8ne190106INS0_12steady_clockENS0_8durationIxNS_5ratioILx1ELx1000000000EEEEES6_EENS_11common_typeIJT0_T1_EE4typeERKNS0_10time_pointIT_S8_EERKNSC_ISD_S9_EE: # @_ZNSt3__26chronomiB8ne190106INS0_12steady_clockENS0_8durationIxNS_5ratioILx1ELx1000000000EEEEES6_EENS_11common_typeIJT0_T1_EE4typeERKNS0_10time_pointIT_S8_EERKNSC_ISD_S9_EE
.Lfunc_begin14:
	.loc	41 210 0 is_stmt 1              # emscripten/cache/sysroot/include/c++/v1/__chrono/time_point.h:210:0
	.functype	_ZNSt3__26chronomiB8ne190106INS0_12steady_clockENS0_8durationIxNS_5ratioILx1ELx1000000000EEEEES6_EENS_11common_typeIJT0_T1_EE4typeERKNS0_10time_pointIT_S8_EERKNSC_ISD_S9_EE (i32, i32) -> (i64)
	.local  	i32, i32, i32, i32, i64, i32, i64, i32, i32, i32, i32, i64, i64, i32, i32
# %bb.0:                                # %entry
	global.get	__stack_pointer
	local.set	2
	i32.const	32
	local.set	3
	local.get	2
	local.get	3
	i32.sub 
	local.set	4
	local.get	4
	global.set	__stack_pointer
	local.get	4
	local.get	0
	i32.store	20
	local.get	4
	local.get	1
	i32.store	16
.Ltmp69:
	.loc	41 211 10 prologue_end          # emscripten/cache/sysroot/include/c++/v1/__chrono/time_point.h:211:10
	local.get	4
	i32.load	20
	local.set	5
	.loc	41 211 16 is_stmt 0             # emscripten/cache/sysroot/include/c++/v1/__chrono/time_point.h:211:16
	local.get	5
	call	_ZNKSt3__26chrono10time_pointINS0_12steady_clockENS0_8durationIxNS_5ratioILx1ELx1000000000EEEEEE16time_since_epochB8ne190106Ev
	local.set	6
	local.get	4
	local.get	6
	i64.store	8
	.loc	41 211 37                       # emscripten/cache/sysroot/include/c++/v1/__chrono/time_point.h:211:37
	local.get	4
	i32.load	16
	local.set	7
	.loc	41 211 43                       # emscripten/cache/sysroot/include/c++/v1/__chrono/time_point.h:211:43
	local.get	7
	call	_ZNKSt3__26chrono10time_pointINS0_12steady_clockENS0_8durationIxNS_5ratioILx1ELx1000000000EEEEEE16time_since_epochB8ne190106Ev
	local.set	8
	local.get	4
	local.get	8
	i64.store	0
	.loc	41 211 35                       # emscripten/cache/sysroot/include/c++/v1/__chrono/time_point.h:211:35
	i32.const	8
	local.set	9
	local.get	4
	local.get	9
	i32.add 
	local.set	10
	local.get	10
	local.set	11
	local.get	4
	local.set	12
	local.get	11
	local.get	12
	call	_ZNSt3__26chronomiB8ne190106IxNS_5ratioILx1ELx1000000000EEExS3_EENS_11common_typeIJNS0_8durationIT_T0_EENS5_IT1_T2_EEEE4typeERKS8_RKSB_
	local.set	13
	local.get	4
	local.get	13
	i64.store	24
	.loc	41 211 3                        # emscripten/cache/sysroot/include/c++/v1/__chrono/time_point.h:211:3
	local.get	4
	i64.load	24
	local.set	14
	i32.const	32
	local.set	15
	local.get	4
	local.get	15
	i32.add 
	local.set	16
	local.get	16
	global.set	__stack_pointer
	local.get	14
	return
	end_function
.Ltmp70:
.Lfunc_end14:
                                        # -- End function
	.section	.text._ZNSt3__2lsB8ne190106INS_11char_traitsIcEEEERNS_13basic_ostreamIcT_EES6_PKc,"G",@,_ZNSt3__2lsB8ne190106INS_11char_traitsIcEEEERNS_13basic_ostreamIcT_EES6_PKc,comdat
	.hidden	_ZNSt3__2lsB8ne190106INS_11char_traitsIcEEEERNS_13basic_ostreamIcT_EES6_PKc # -- Begin function _ZNSt3__2lsB8ne190106INS_11char_traitsIcEEEERNS_13basic_ostreamIcT_EES6_PKc
	.weak	_ZNSt3__2lsB8ne190106INS_11char_traitsIcEEEERNS_13basic_ostreamIcT_EES6_PKc
	.type	_ZNSt3__2lsB8ne190106INS_11char_traitsIcEEEERNS_13basic_ostreamIcT_EES6_PKc,@function
_ZNSt3__2lsB8ne190106INS_11char_traitsIcEEEERNS_13basic_ostreamIcT_EES6_PKc: # @_ZNSt3__2lsB8ne190106INS_11char_traitsIcEEEERNS_13basic_ostreamIcT_EES6_PKc
.Lfunc_begin15:
	.loc	39 618 0 is_stmt 1              # emscripten/cache/sysroot/include/c++/v1/__ostream/basic_ostream.h:618:0
	.functype	_ZNSt3__2lsB8ne190106INS_11char_traitsIcEEEERNS_13basic_ostreamIcT_EES6_PKc (i32, i32) -> (i32)
	.local  	i32, i32, i32, i32, i32, i32, i32, i32, i32, i32
# %bb.0:                                # %entry
	global.get	__stack_pointer
	local.set	2
	i32.const	16
	local.set	3
	local.get	2
	local.get	3
	i32.sub 
	local.set	4
	local.get	4
	global.set	__stack_pointer
	local.get	4
	local.get	0
	i32.store	12
	local.get	4
	local.get	1
	i32.store	8
.Ltmp71:
	.loc	39 619 40 prologue_end          # emscripten/cache/sysroot/include/c++/v1/__ostream/basic_ostream.h:619:40
	local.get	4
	i32.load	12
	local.set	5
	.loc	39 619 46 is_stmt 0             # emscripten/cache/sysroot/include/c++/v1/__ostream/basic_ostream.h:619:46
	local.get	4
	i32.load	8
	local.set	6
	.loc	39 619 69                       # emscripten/cache/sysroot/include/c++/v1/__ostream/basic_ostream.h:619:69
	local.get	4
	i32.load	8
	local.set	7
	.loc	39 619 53                       # emscripten/cache/sysroot/include/c++/v1/__ostream/basic_ostream.h:619:53
	local.get	7
	call	_ZNSt3__211char_traitsIcE6lengthB8ne190106EPKc
	local.set	8
	.loc	39 619 10                       # emscripten/cache/sysroot/include/c++/v1/__ostream/basic_ostream.h:619:10
	local.get	5
	local.get	6
	local.get	8
	call	_ZNSt3__224__put_character_sequenceB8ne190106IcNS_11char_traitsIcEEEERNS_13basic_ostreamIT_T0_EES7_PKS4_m
	local.set	9
	.loc	39 619 3                        # emscripten/cache/sysroot/include/c++/v1/__ostream/basic_ostream.h:619:3
	i32.const	16
	local.set	10
	local.get	4
	local.get	10
	i32.add 
	local.set	11
	local.get	11
	global.set	__stack_pointer
	local.get	9
	return
	end_function
.Ltmp72:
.Lfunc_end15:
                                        # -- End function
	.section	.text._ZNKSt3__26chrono8durationIxNS_5ratioILx1ELx1000EEEE5countB8ne190106Ev,"G",@,_ZNKSt3__26chrono8durationIxNS_5ratioILx1ELx1000EEEE5countB8ne190106Ev,comdat
	.hidden	_ZNKSt3__26chrono8durationIxNS_5ratioILx1ELx1000EEEE5countB8ne190106Ev # -- Begin function _ZNKSt3__26chrono8durationIxNS_5ratioILx1ELx1000EEEE5countB8ne190106Ev
	.weak	_ZNKSt3__26chrono8durationIxNS_5ratioILx1ELx1000EEEE5countB8ne190106Ev
	.type	_ZNKSt3__26chrono8durationIxNS_5ratioILx1ELx1000EEEE5countB8ne190106Ev,@function
_ZNKSt3__26chrono8durationIxNS_5ratioILx1ELx1000EEEE5countB8ne190106Ev: # @_ZNKSt3__26chrono8durationIxNS_5ratioILx1ELx1000EEEE5countB8ne190106Ev
.Lfunc_begin16:
	.loc	10 224 0 is_stmt 1              # emscripten/cache/sysroot/include/c++/v1/__chrono/duration.h:224:0
	.functype	_ZNKSt3__26chrono8durationIxNS_5ratioILx1ELx1000EEEE5countB8ne190106Ev (i32) -> (i64)
	.local  	i32, i32, i32, i32, i64
# %bb.0:                                # %entry
	global.get	__stack_pointer
	local.set	1
	i32.const	16
	local.set	2
	local.get	1
	local.get	2
	i32.sub 
	local.set	3
	local.get	3
	local.get	0
	i32.store	12
	local.get	3
	i32.load	12
	local.set	4
.Ltmp73:
	.loc	10 224 70 prologue_end          # emscripten/cache/sysroot/include/c++/v1/__chrono/duration.h:224:70
	local.get	4
	i64.load	0
	local.set	5
	.loc	10 224 63 is_stmt 0             # emscripten/cache/sysroot/include/c++/v1/__chrono/duration.h:224:63
	local.get	5
	return
	end_function
.Ltmp74:
.Lfunc_end16:
                                        # -- End function
	.section	.text._ZNSt3__213basic_ostreamIcNS_11char_traitsIcEEElsB8ne190106EPFRS3_S4_E,"G",@,_ZNSt3__213basic_ostreamIcNS_11char_traitsIcEEElsB8ne190106EPFRS3_S4_E,comdat
	.hidden	_ZNSt3__213basic_ostreamIcNS_11char_traitsIcEEElsB8ne190106EPFRS3_S4_E # -- Begin function _ZNSt3__213basic_ostreamIcNS_11char_traitsIcEEElsB8ne190106EPFRS3_S4_E
	.weak	_ZNSt3__213basic_ostreamIcNS_11char_traitsIcEEElsB8ne190106EPFRS3_S4_E
	.type	_ZNSt3__213basic_ostreamIcNS_11char_traitsIcEEElsB8ne190106EPFRS3_S4_E,@function
_ZNSt3__213basic_ostreamIcNS_11char_traitsIcEEElsB8ne190106EPFRS3_S4_E: # @_ZNSt3__213basic_ostreamIcNS_11char_traitsIcEEElsB8ne190106EPFRS3_S4_E
.Lfunc_begin17:
	.loc	39 73 0 is_stmt 1               # emscripten/cache/sysroot/include/c++/v1/__ostream/basic_ostream.h:73:0
	.functype	_ZNSt3__213basic_ostreamIcNS_11char_traitsIcEEElsB8ne190106EPFRS3_S4_E (i32, i32) -> (i32)
	.local  	i32, i32, i32, i32, i32, i32, i32, i32
# %bb.0:                                # %entry
	global.get	__stack_pointer
	local.set	2
	i32.const	16
	local.set	3
	local.get	2
	local.get	3
	i32.sub 
	local.set	4
	local.get	4
	global.set	__stack_pointer
	local.get	4
	local.get	0
	i32.store	12
	local.get	4
	local.get	1
	i32.store	8
	local.get	4
	i32.load	12
	local.set	5
.Ltmp75:
	.loc	39 74 12 prologue_end           # emscripten/cache/sysroot/include/c++/v1/__ostream/basic_ostream.h:74:12
	local.get	4
	i32.load	8
	local.set	6
	local.get	5
	local.get	6
	call_indirect	 __indirect_function_table, (i32) -> (i32)
	local.set	7
	.loc	39 74 5 is_stmt 0               # emscripten/cache/sysroot/include/c++/v1/__ostream/basic_ostream.h:74:5
	i32.const	16
	local.set	8
	local.get	4
	local.get	8
	i32.add 
	local.set	9
	local.get	9
	global.set	__stack_pointer
	local.get	7
	return
	end_function
.Ltmp76:
.Lfunc_end17:
                                        # -- End function
	.section	.text._ZNSt3__24endlB8ne190106IcNS_11char_traitsIcEEEERNS_13basic_ostreamIT_T0_EES7_,"G",@,_ZNSt3__24endlB8ne190106IcNS_11char_traitsIcEEEERNS_13basic_ostreamIT_T0_EES7_,comdat
	.hidden	_ZNSt3__24endlB8ne190106IcNS_11char_traitsIcEEEERNS_13basic_ostreamIT_T0_EES7_ # -- Begin function _ZNSt3__24endlB8ne190106IcNS_11char_traitsIcEEEERNS_13basic_ostreamIT_T0_EES7_
	.weak	_ZNSt3__24endlB8ne190106IcNS_11char_traitsIcEEEERNS_13basic_ostreamIT_T0_EES7_
	.type	_ZNSt3__24endlB8ne190106IcNS_11char_traitsIcEEEERNS_13basic_ostreamIT_T0_EES7_,@function
_ZNSt3__24endlB8ne190106IcNS_11char_traitsIcEEEERNS_13basic_ostreamIT_T0_EES7_: # @_ZNSt3__24endlB8ne190106IcNS_11char_traitsIcEEEERNS_13basic_ostreamIT_T0_EES7_
.Lfunc_begin18:
	.loc	39 723 0 is_stmt 1              # emscripten/cache/sysroot/include/c++/v1/__ostream/basic_ostream.h:723:0
	.functype	_ZNSt3__24endlB8ne190106IcNS_11char_traitsIcEEEERNS_13basic_ostreamIT_T0_EES7_ (i32) -> (i32)
	.local  	i32, i32, i32, i32, i32, i32, i32, i32, i32, i32, i32, i32, i32, i32, i32, i32, i32, i32, i32, i32, i32, i32
# %bb.0:                                # %entry
	global.get	__stack_pointer
	local.set	1
	i32.const	16
	local.set	2
	local.get	1
	local.get	2
	i32.sub 
	local.set	3
	local.get	3
	global.set	__stack_pointer
	local.get	3
	local.get	0
	i32.store	12
.Ltmp77:
	.loc	39 724 3 prologue_end           # emscripten/cache/sysroot/include/c++/v1/__ostream/basic_ostream.h:724:3
	local.get	3
	i32.load	12
	local.set	4
	.loc	39 724 12 is_stmt 0             # emscripten/cache/sysroot/include/c++/v1/__ostream/basic_ostream.h:724:12
	local.get	3
	i32.load	12
	local.set	5
	local.get	5
	i32.load	0
	local.set	6
	i32.const	-12
	local.set	7
	local.get	6
	local.get	7
	i32.add 
	local.set	8
	local.get	8
	i32.load	0
	local.set	9
	local.get	5
	local.get	9
	i32.add 
	local.set	10
	.loc	39 724 17                       # emscripten/cache/sysroot/include/c++/v1/__ostream/basic_ostream.h:724:17
	i32.const	10
	local.set	11
	i32.const	24
	local.set	12
	local.get	11
	local.get	12
	i32.shl 
	local.set	13
	local.get	13
	local.get	12
	i32.shr_s
	local.set	14
	local.get	10
	local.get	14
	call	_ZNKSt3__29basic_iosIcNS_11char_traitsIcEEE5widenB8ne190106Ec
	local.set	15
	.loc	39 724 8                        # emscripten/cache/sysroot/include/c++/v1/__ostream/basic_ostream.h:724:8
	i32.const	24
	local.set	16
	local.get	15
	local.get	16
	i32.shl 
	local.set	17
	local.get	17
	local.get	16
	i32.shr_s
	local.set	18
	local.get	4
	local.get	18
	call	_ZNSt3__213basic_ostreamIcNS_11char_traitsIcEEE3putEc
	drop
	.loc	39 725 3 is_stmt 1              # emscripten/cache/sysroot/include/c++/v1/__ostream/basic_ostream.h:725:3
	local.get	3
	i32.load	12
	local.set	19
	.loc	39 725 8 is_stmt 0              # emscripten/cache/sysroot/include/c++/v1/__ostream/basic_ostream.h:725:8
	local.get	19
	call	_ZNSt3__213basic_ostreamIcNS_11char_traitsIcEEE5flushEv
	drop
	.loc	39 726 10 is_stmt 1             # emscripten/cache/sysroot/include/c++/v1/__ostream/basic_ostream.h:726:10
	local.get	3
	i32.load	12
	local.set	20
	.loc	39 726 3 is_stmt 0              # emscripten/cache/sysroot/include/c++/v1/__ostream/basic_ostream.h:726:3
	i32.const	16
	local.set	21
	local.get	3
	local.get	21
	i32.add 
	local.set	22
	local.get	22
	global.set	__stack_pointer
	local.get	20
	return
	end_function
.Ltmp78:
.Lfunc_end18:
                                        # -- End function
	.section	.text._ZNSt3__26vectorINS_6threadENS_9allocatorIS1_EEED2B8ne190106Ev,"G",@,_ZNSt3__26vectorINS_6threadENS_9allocatorIS1_EEED2B8ne190106Ev,comdat
	.hidden	_ZNSt3__26vectorINS_6threadENS_9allocatorIS1_EEED2B8ne190106Ev # -- Begin function _ZNSt3__26vectorINS_6threadENS_9allocatorIS1_EEED2B8ne190106Ev
	.weak	_ZNSt3__26vectorINS_6threadENS_9allocatorIS1_EEED2B8ne190106Ev
	.type	_ZNSt3__26vectorINS_6threadENS_9allocatorIS1_EEED2B8ne190106Ev,@function
_ZNSt3__26vectorINS_6threadENS_9allocatorIS1_EEED2B8ne190106Ev: # @_ZNSt3__26vectorINS_6threadENS_9allocatorIS1_EEED2B8ne190106Ev
.Lfunc_begin19:
	.loc	3 541 0 is_stmt 1               # emscripten/cache/sysroot/include/c++/v1/vector:541:0
	.functype	_ZNSt3__26vectorINS_6threadENS_9allocatorIS1_EEED2B8ne190106Ev (i32) -> (i32)
	.local  	i32, i32, i32, i32, i32, i32, i32, i32, i32, i32, i32, i32
# %bb.0:                                # %entry
	global.get	__stack_pointer
	local.set	1
	i32.const	16
	local.set	2
	local.get	1
	local.get	2
	i32.sub 
	local.set	3
	local.get	3
	global.set	__stack_pointer
	local.get	3
	local.get	0
	i32.store	12
	local.get	3
	i32.load	12
	local.set	4
.Ltmp79:
	.loc	3 541 67 prologue_end           # emscripten/cache/sysroot/include/c++/v1/vector:541:67
	i32.const	8
	local.set	5
	local.get	3
	local.get	5
	i32.add 
	local.set	6
	local.get	6
	local.set	7
	local.get	7
	local.get	4
	call	_ZNSt3__26vectorINS_6threadENS_9allocatorIS1_EEE16__destroy_vectorC2B8ne190106ERS4_
	drop
	i32.const	8
	local.set	8
	local.get	3
	local.get	8
	i32.add 
	local.set	9
	local.get	9
	local.set	10
	local.get	10
	call	_ZNSt3__26vectorINS_6threadENS_9allocatorIS1_EEE16__destroy_vectorclB8ne190106Ev
.Ltmp80:
	.loc	3 541 95 is_stmt 0              # emscripten/cache/sysroot/include/c++/v1/vector:541:95
	i32.const	16
	local.set	11
	local.get	3
	local.get	11
	i32.add 
	local.set	12
	local.get	12
	global.set	__stack_pointer
	local.get	4
	return
	end_function
.Ltmp81:
.Lfunc_end19:
                                        # -- End function
	.section	.text._ZNSt3__2eqB8ne190106IPNS_6threadEEEbRKNS_11__wrap_iterIT_EES7_,"G",@,_ZNSt3__2eqB8ne190106IPNS_6threadEEEbRKNS_11__wrap_iterIT_EES7_,comdat
	.hidden	_ZNSt3__2eqB8ne190106IPNS_6threadEEEbRKNS_11__wrap_iterIT_EES7_ # -- Begin function _ZNSt3__2eqB8ne190106IPNS_6threadEEEbRKNS_11__wrap_iterIT_EES7_
	.weak	_ZNSt3__2eqB8ne190106IPNS_6threadEEEbRKNS_11__wrap_iterIT_EES7_
	.type	_ZNSt3__2eqB8ne190106IPNS_6threadEEEbRKNS_11__wrap_iterIT_EES7_,@function
_ZNSt3__2eqB8ne190106IPNS_6threadEEEbRKNS_11__wrap_iterIT_EES7_: # @_ZNSt3__2eqB8ne190106IPNS_6threadEEEbRKNS_11__wrap_iterIT_EES7_
.Lfunc_begin20:
	.loc	18 114 0 is_stmt 1              # emscripten/cache/sysroot/include/c++/v1/__iterator/wrap_iter.h:114:0
	.functype	_ZNSt3__2eqB8ne190106IPNS_6threadEEEbRKNS_11__wrap_iterIT_EES7_ (i32, i32) -> (i32)
	.local  	i32, i32, i32, i32, i32, i32, i32, i32, i32, i32, i32, i32
# %bb.0:                                # %entry
	global.get	__stack_pointer
	local.set	2
	i32.const	16
	local.set	3
	local.get	2
	local.get	3
	i32.sub 
	local.set	4
	local.get	4
	global.set	__stack_pointer
	local.get	4
	local.get	0
	i32.store	12
	local.get	4
	local.get	1
	i32.store	8
.Ltmp82:
	.loc	18 115 10 prologue_end          # emscripten/cache/sysroot/include/c++/v1/__iterator/wrap_iter.h:115:10
	local.get	4
	i32.load	12
	local.set	5
	.loc	18 115 14 is_stmt 0             # emscripten/cache/sysroot/include/c++/v1/__iterator/wrap_iter.h:115:14
	local.get	5
	call	_ZNKSt3__211__wrap_iterIPNS_6threadEE4baseB8ne190106Ev
	local.set	6
	.loc	18 115 24                       # emscripten/cache/sysroot/include/c++/v1/__iterator/wrap_iter.h:115:24
	local.get	4
	i32.load	8
	local.set	7
	.loc	18 115 28                       # emscripten/cache/sysroot/include/c++/v1/__iterator/wrap_iter.h:115:28
	local.get	7
	call	_ZNKSt3__211__wrap_iterIPNS_6threadEE4baseB8ne190106Ev
	local.set	8
	.loc	18 115 21                       # emscripten/cache/sysroot/include/c++/v1/__iterator/wrap_iter.h:115:21
	local.get	6
	local.get	8
	i32.eq  
	local.set	9
	.loc	18 115 3                        # emscripten/cache/sysroot/include/c++/v1/__iterator/wrap_iter.h:115:3
	i32.const	1
	local.set	10
	local.get	9
	local.get	10
	i32.and 
	local.set	11
	i32.const	16
	local.set	12
	local.get	4
	local.get	12
	i32.add 
	local.set	13
	local.get	13
	global.set	__stack_pointer
	local.get	11
	return
	end_function
.Ltmp83:
.Lfunc_end20:
                                        # -- End function
	.section	.text._ZNKSt3__211__wrap_iterIPNS_6threadEE4baseB8ne190106Ev,"G",@,_ZNKSt3__211__wrap_iterIPNS_6threadEE4baseB8ne190106Ev,comdat
	.hidden	_ZNKSt3__211__wrap_iterIPNS_6threadEE4baseB8ne190106Ev # -- Begin function _ZNKSt3__211__wrap_iterIPNS_6threadEE4baseB8ne190106Ev
	.weak	_ZNKSt3__211__wrap_iterIPNS_6threadEE4baseB8ne190106Ev
	.type	_ZNKSt3__211__wrap_iterIPNS_6threadEE4baseB8ne190106Ev,@function
_ZNKSt3__211__wrap_iterIPNS_6threadEE4baseB8ne190106Ev: # @_ZNKSt3__211__wrap_iterIPNS_6threadEE4baseB8ne190106Ev
.Lfunc_begin21:
	.loc	18 93 0 is_stmt 1               # emscripten/cache/sysroot/include/c++/v1/__iterator/wrap_iter.h:93:0
	.functype	_ZNKSt3__211__wrap_iterIPNS_6threadEE4baseB8ne190106Ev (i32) -> (i32)
	.local  	i32, i32, i32, i32, i32
# %bb.0:                                # %entry
	global.get	__stack_pointer
	local.set	1
	i32.const	16
	local.set	2
	local.get	1
	local.get	2
	i32.sub 
	local.set	3
	local.get	3
	local.get	0
	i32.store	12
	local.get	3
	i32.load	12
	local.set	4
.Ltmp84:
	.loc	18 93 101 prologue_end          # emscripten/cache/sysroot/include/c++/v1/__iterator/wrap_iter.h:93:101
	local.get	4
	i32.load	0
	local.set	5
	.loc	18 93 94 is_stmt 0              # emscripten/cache/sysroot/include/c++/v1/__iterator/wrap_iter.h:93:94
	local.get	5
	return
	end_function
.Ltmp85:
.Lfunc_end21:
                                        # -- End function
	.section	.text._ZNKSt3__26chrono15__duration_castINS0_8durationIxNS_5ratioILx1ELx1000000000EEEEENS2_IxNS3_ILx1ELx1000EEEEENS3_ILx1ELx1000000EEELb1ELb0EEclB8ne190106ERKS5_,"G",@,_ZNKSt3__26chrono15__duration_castINS0_8durationIxNS_5ratioILx1ELx1000000000EEEEENS2_IxNS3_ILx1ELx1000EEEEENS3_ILx1ELx1000000EEELb1ELb0EEclB8ne190106ERKS5_,comdat
	.hidden	_ZNKSt3__26chrono15__duration_castINS0_8durationIxNS_5ratioILx1ELx1000000000EEEEENS2_IxNS3_ILx1ELx1000EEEEENS3_ILx1ELx1000000EEELb1ELb0EEclB8ne190106ERKS5_ # -- Begin function _ZNKSt3__26chrono15__duration_castINS0_8durationIxNS_5ratioILx1ELx1000000000EEEEENS2_IxNS3_ILx1ELx1000EEEEENS3_ILx1ELx1000000EEELb1ELb0EEclB8ne190106ERKS5_
	.weak	_ZNKSt3__26chrono15__duration_castINS0_8durationIxNS_5ratioILx1ELx1000000000EEEEENS2_IxNS3_ILx1ELx1000EEEEENS3_ILx1ELx1000000EEELb1ELb0EEclB8ne190106ERKS5_
	.type	_ZNKSt3__26chrono15__duration_castINS0_8durationIxNS_5ratioILx1ELx1000000000EEEEENS2_IxNS3_ILx1ELx1000EEEEENS3_ILx1ELx1000000EEELb1ELb0EEclB8ne190106ERKS5_,@function
_ZNKSt3__26chrono15__duration_castINS0_8durationIxNS_5ratioILx1ELx1000000000EEEEENS2_IxNS3_ILx1ELx1000EEEEENS3_ILx1ELx1000000EEELb1ELb0EEclB8ne190106ERKS5_: # @_ZNKSt3__26chrono15__duration_castINS0_8durationIxNS_5ratioILx1ELx1000000000EEEEENS2_IxNS3_ILx1ELx1000EEEEENS3_ILx1ELx1000000EEELb1ELb0EEclB8ne190106ERKS5_
.Lfunc_begin22:
	.loc	10 80 0 is_stmt 1               # emscripten/cache/sysroot/include/c++/v1/__chrono/duration.h:80:0
	.functype	_ZNKSt3__26chrono15__duration_castINS0_8durationIxNS_5ratioILx1ELx1000000000EEEEENS2_IxNS3_ILx1ELx1000EEEEENS3_ILx1ELx1000000EEELb1ELb0EEclB8ne190106ERKS5_ (i32, i32) -> (i64)
	.local  	i32, i32, i32, i32, i64, i64, i64, i32, i32, i32, i32, i32, i32, i64, i32, i32
# %bb.0:                                # %entry
	global.get	__stack_pointer
	local.set	2
	i32.const	32
	local.set	3
	local.get	2
	local.get	3
	i32.sub 
	local.set	4
	local.get	4
	global.set	__stack_pointer
	local.get	4
	local.get	0
	i32.store	20
	local.get	4
	local.get	1
	i32.store	16
.Ltmp86:
	.loc	10 83 65 prologue_end           # emscripten/cache/sysroot/include/c++/v1/__chrono/duration.h:83:65
	local.get	4
	i32.load	16
	local.set	5
	.loc	10 83 70 is_stmt 0              # emscripten/cache/sysroot/include/c++/v1/__chrono/duration.h:83:70
	local.get	5
	call	_ZNKSt3__26chrono8durationIxNS_5ratioILx1ELx1000000000EEEE5countB8ne190106Ev
	local.set	6
	.loc	10 83 79                        # emscripten/cache/sysroot/include/c++/v1/__chrono/duration.h:83:79
	i64.const	1000000
	local.set	7
	local.get	6
	local.get	7
	i64.div_s
	local.set	8
	.loc	10 83 9                         # emscripten/cache/sysroot/include/c++/v1/__chrono/duration.h:83:9
	local.get	4
	local.get	8
	i64.store	8
	.loc	10 82 12 is_stmt 1              # emscripten/cache/sysroot/include/c++/v1/__chrono/duration.h:82:12
	i32.const	24
	local.set	9
	local.get	4
	local.get	9
	i32.add 
	local.set	10
	local.get	10
	local.set	11
	i32.const	8
	local.set	12
	local.get	4
	local.get	12
	i32.add 
	local.set	13
	local.get	13
	local.set	14
	local.get	11
	local.get	14
	call	_ZNSt3__26chrono8durationIxNS_5ratioILx1ELx1000EEEEC2B8ne190106IxTnNS_9enable_ifIXaasr14is_convertibleIRKT_xEE5valueooL_ZNS_17integral_constantIbLb0EE5valueEEntsr23treat_as_floating_pointIS7_EE5valueEiE4typeELi0EEES9_
	drop
	.loc	10 82 5 is_stmt 0               # emscripten/cache/sysroot/include/c++/v1/__chrono/duration.h:82:5
	local.get	4
	i64.load	24
	local.set	15
	i32.const	32
	local.set	16
	local.get	4
	local.get	16
	i32.add 
	local.set	17
	local.get	17
	global.set	__stack_pointer
	local.get	15
	return
	end_function
.Ltmp87:
.Lfunc_end22:
                                        # -- End function
	.section	.text._ZNKSt3__26chrono8durationIxNS_5ratioILx1ELx1000000000EEEE5countB8ne190106Ev,"G",@,_ZNKSt3__26chrono8durationIxNS_5ratioILx1ELx1000000000EEEE5countB8ne190106Ev,comdat
	.hidden	_ZNKSt3__26chrono8durationIxNS_5ratioILx1ELx1000000000EEEE5countB8ne190106Ev # -- Begin function _ZNKSt3__26chrono8durationIxNS_5ratioILx1ELx1000000000EEEE5countB8ne190106Ev
	.weak	_ZNKSt3__26chrono8durationIxNS_5ratioILx1ELx1000000000EEEE5countB8ne190106Ev
	.type	_ZNKSt3__26chrono8durationIxNS_5ratioILx1ELx1000000000EEEE5countB8ne190106Ev,@function
_ZNKSt3__26chrono8durationIxNS_5ratioILx1ELx1000000000EEEE5countB8ne190106Ev: # @_ZNKSt3__26chrono8durationIxNS_5ratioILx1ELx1000000000EEEE5countB8ne190106Ev
.Lfunc_begin23:
	.loc	10 224 0 is_stmt 1              # emscripten/cache/sysroot/include/c++/v1/__chrono/duration.h:224:0
	.functype	_ZNKSt3__26chrono8durationIxNS_5ratioILx1ELx1000000000EEEE5countB8ne190106Ev (i32) -> (i64)
	.local  	i32, i32, i32, i32, i64
# %bb.0:                                # %entry
	global.get	__stack_pointer
	local.set	1
	i32.const	16
	local.set	2
	local.get	1
	local.get	2
	i32.sub 
	local.set	3
	local.get	3
	local.get	0
	i32.store	12
	local.get	3
	i32.load	12
	local.set	4
.Ltmp88:
	.loc	10 224 70 prologue_end          # emscripten/cache/sysroot/include/c++/v1/__chrono/duration.h:224:70
	local.get	4
	i64.load	0
	local.set	5
	.loc	10 224 63 is_stmt 0             # emscripten/cache/sysroot/include/c++/v1/__chrono/duration.h:224:63
	local.get	5
	return
	end_function
.Ltmp89:
.Lfunc_end23:
                                        # -- End function
	.section	.text._ZNSt3__26chrono8durationIxNS_5ratioILx1ELx1000EEEEC2B8ne190106IxTnNS_9enable_ifIXaasr14is_convertibleIRKT_xEE5valueooL_ZNS_17integral_constantIbLb0EE5valueEEntsr23treat_as_floating_pointIS7_EE5valueEiE4typeELi0EEES9_,"G",@,_ZNSt3__26chrono8durationIxNS_5ratioILx1ELx1000EEEEC2B8ne190106IxTnNS_9enable_ifIXaasr14is_convertibleIRKT_xEE5valueooL_ZNS_17integral_constantIbLb0EE5valueEEntsr23treat_as_floating_pointIS7_EE5valueEiE4typeELi0EEES9_,comdat
	.hidden	_ZNSt3__26chrono8durationIxNS_5ratioILx1ELx1000EEEEC2B8ne190106IxTnNS_9enable_ifIXaasr14is_convertibleIRKT_xEE5valueooL_ZNS_17integral_constantIbLb0EE5valueEEntsr23treat_as_floating_pointIS7_EE5valueEiE4typeELi0EEES9_ # -- Begin function _ZNSt3__26chrono8durationIxNS_5ratioILx1ELx1000EEEEC2B8ne190106IxTnNS_9enable_ifIXaasr14is_convertibleIRKT_xEE5valueooL_ZNS_17integral_constantIbLb0EE5valueEEntsr23treat_as_floating_pointIS7_EE5valueEiE4typeELi0EEES9_
	.weak	_ZNSt3__26chrono8durationIxNS_5ratioILx1ELx1000EEEEC2B8ne190106IxTnNS_9enable_ifIXaasr14is_convertibleIRKT_xEE5valueooL_ZNS_17integral_constantIbLb0EE5valueEEntsr23treat_as_floating_pointIS7_EE5valueEiE4typeELi0EEES9_
	.type	_ZNSt3__26chrono8durationIxNS_5ratioILx1ELx1000EEEEC2B8ne190106IxTnNS_9enable_ifIXaasr14is_convertibleIRKT_xEE5valueooL_ZNS_17integral_constantIbLb0EE5valueEEntsr23treat_as_floating_pointIS7_EE5valueEiE4typeELi0EEES9_,@function
_ZNSt3__26chrono8durationIxNS_5ratioILx1ELx1000EEEEC2B8ne190106IxTnNS_9enable_ifIXaasr14is_convertibleIRKT_xEE5valueooL_ZNS_17integral_constantIbLb0EE5valueEEntsr23treat_as_floating_pointIS7_EE5valueEiE4typeELi0EEES9_: # @_ZNSt3__26chrono8durationIxNS_5ratioILx1ELx1000EEEEC2B8ne190106IxTnNS_9enable_ifIXaasr14is_convertibleIRKT_xEE5valueooL_ZNS_17integral_constantIbLb0EE5valueEEntsr23treat_as_floating_pointIS7_EE5valueEiE4typeELi0EEES9_
.Lfunc_begin24:
	.loc	10 210 0 is_stmt 1              # emscripten/cache/sysroot/include/c++/v1/__chrono/duration.h:210:0
	.functype	_ZNSt3__26chrono8durationIxNS_5ratioILx1ELx1000EEEEC2B8ne190106IxTnNS_9enable_ifIXaasr14is_convertibleIRKT_xEE5valueooL_ZNS_17integral_constantIbLb0EE5valueEEntsr23treat_as_floating_pointIS7_EE5valueEiE4typeELi0EEES9_ (i32, i32) -> (i32)
	.local  	i32, i32, i32, i32, i32, i64
# %bb.0:                                # %entry
	global.get	__stack_pointer
	local.set	2
	i32.const	16
	local.set	3
	local.get	2
	local.get	3
	i32.sub 
	local.set	4
	local.get	4
	local.get	0
	i32.store	12
	local.get	4
	local.get	1
	i32.store	8
	local.get	4
	i32.load	12
	local.set	5
.Ltmp90:
	.loc	10 210 88 prologue_end          # emscripten/cache/sysroot/include/c++/v1/__chrono/duration.h:210:88
	local.get	4
	i32.load	8
	local.set	6
	local.get	6
	i64.load	0
	local.set	7
	.loc	10 210 81 is_stmt 0             # emscripten/cache/sysroot/include/c++/v1/__chrono/duration.h:210:81
	local.get	5
	local.get	7
	i64.store	0
	.loc	10 210 94                       # emscripten/cache/sysroot/include/c++/v1/__chrono/duration.h:210:94
	local.get	5
	return
	end_function
.Ltmp91:
.Lfunc_end24:
                                        # -- End function
	.section	.text._ZNSt3__26chronomiB8ne190106IxNS_5ratioILx1ELx1000000000EEExS3_EENS_11common_typeIJNS0_8durationIT_T0_EENS5_IT1_T2_EEEE4typeERKS8_RKSB_,"G",@,_ZNSt3__26chronomiB8ne190106IxNS_5ratioILx1ELx1000000000EEExS3_EENS_11common_typeIJNS0_8durationIT_T0_EENS5_IT1_T2_EEEE4typeERKS8_RKSB_,comdat
	.hidden	_ZNSt3__26chronomiB8ne190106IxNS_5ratioILx1ELx1000000000EEExS3_EENS_11common_typeIJNS0_8durationIT_T0_EENS5_IT1_T2_EEEE4typeERKS8_RKSB_ # -- Begin function _ZNSt3__26chronomiB8ne190106IxNS_5ratioILx1ELx1000000000EEExS3_EENS_11common_typeIJNS0_8durationIT_T0_EENS5_IT1_T2_EEEE4typeERKS8_RKSB_
	.weak	_ZNSt3__26chronomiB8ne190106IxNS_5ratioILx1ELx1000000000EEExS3_EENS_11common_typeIJNS0_8durationIT_T0_EENS5_IT1_T2_EEEE4typeERKS8_RKSB_
	.type	_ZNSt3__26chronomiB8ne190106IxNS_5ratioILx1ELx1000000000EEExS3_EENS_11common_typeIJNS0_8durationIT_T0_EENS5_IT1_T2_EEEE4typeERKS8_RKSB_,@function
_ZNSt3__26chronomiB8ne190106IxNS_5ratioILx1ELx1000000000EEExS3_EENS_11common_typeIJNS0_8durationIT_T0_EENS5_IT1_T2_EEEE4typeERKS8_RKSB_: # @_ZNSt3__26chronomiB8ne190106IxNS_5ratioILx1ELx1000000000EEExS3_EENS_11common_typeIJNS0_8durationIT_T0_EENS5_IT1_T2_EEEE4typeERKS8_RKSB_
.Lfunc_begin25:
	.loc	10 405 0 is_stmt 1              # emscripten/cache/sysroot/include/c++/v1/__chrono/duration.h:405:0
	.functype	_ZNSt3__26chronomiB8ne190106IxNS_5ratioILx1ELx1000000000EEExS3_EENS_11common_typeIJNS0_8durationIT_T0_EENS5_IT1_T2_EEEE4typeERKS8_RKSB_ (i32, i32) -> (i64)
	.local  	i32, i32, i32, i32, i64, i32, i32, i32, i64, i32, i64, i32, i32, i32, i64, i64, i32, i32, i32, i32, i32, i32, i64, i32, i32
# %bb.0:                                # %entry
	global.get	__stack_pointer
	local.set	2
	i32.const	48
	local.set	3
	local.get	2
	local.get	3
	i32.sub 
	local.set	4
	local.get	4
	global.set	__stack_pointer
	local.get	4
	local.get	0
	i32.store	36
	local.get	4
	local.get	1
	i32.store	32
.Ltmp92:
	.loc	10 407 18 prologue_end          # emscripten/cache/sysroot/include/c++/v1/__chrono/duration.h:407:18
	local.get	4
	i32.load	36
	local.set	5
	.loc	10 407 14 is_stmt 0             # emscripten/cache/sysroot/include/c++/v1/__chrono/duration.h:407:14
	local.get	5
	i64.load	0
	local.set	6
	local.get	4
	local.get	6
	i64.store	16
	.loc	10 407 25                       # emscripten/cache/sysroot/include/c++/v1/__chrono/duration.h:407:25
	i32.const	16
	local.set	7
	local.get	4
	local.get	7
	i32.add 
	local.set	8
	local.get	8
	local.set	9
	local.get	9
	call	_ZNKSt3__26chrono8durationIxNS_5ratioILx1ELx1000000000EEEE5countB8ne190106Ev
	local.set	10
	.loc	10 407 39                       # emscripten/cache/sysroot/include/c++/v1/__chrono/duration.h:407:39
	local.get	4
	i32.load	32
	local.set	11
	.loc	10 407 35                       # emscripten/cache/sysroot/include/c++/v1/__chrono/duration.h:407:35
	local.get	11
	i64.load	0
	local.set	12
	local.get	4
	local.get	12
	i64.store	8
	.loc	10 407 46                       # emscripten/cache/sysroot/include/c++/v1/__chrono/duration.h:407:46
	i32.const	8
	local.set	13
	local.get	4
	local.get	13
	i32.add 
	local.set	14
	local.get	14
	local.set	15
	local.get	15
	call	_ZNKSt3__26chrono8durationIxNS_5ratioILx1ELx1000000000EEEE5countB8ne190106Ev
	local.set	16
	.loc	10 407 33                       # emscripten/cache/sysroot/include/c++/v1/__chrono/duration.h:407:33
	local.get	10
	local.get	16
	i64.sub 
	local.set	17
	.loc	10 407 14                       # emscripten/cache/sysroot/include/c++/v1/__chrono/duration.h:407:14
	local.get	4
	local.get	17
	i64.store	24
	.loc	10 407 10                       # emscripten/cache/sysroot/include/c++/v1/__chrono/duration.h:407:10
	i32.const	40
	local.set	18
	local.get	4
	local.get	18
	i32.add 
	local.set	19
	local.get	19
	local.set	20
	i32.const	24
	local.set	21
	local.get	4
	local.get	21
	i32.add 
	local.set	22
	local.get	22
	local.set	23
	local.get	20
	local.get	23
	call	_ZNSt3__26chrono8durationIxNS_5ratioILx1ELx1000000000EEEEC2B8ne190106IxTnNS_9enable_ifIXaasr14is_convertibleIRKT_xEE5valueooL_ZNS_17integral_constantIbLb0EE5valueEEntsr23treat_as_floating_pointIS7_EE5valueEiE4typeELi0EEES9_
	drop
	.loc	10 407 3                        # emscripten/cache/sysroot/include/c++/v1/__chrono/duration.h:407:3
	local.get	4
	i64.load	40
	local.set	24
	i32.const	48
	local.set	25
	local.get	4
	local.get	25
	i32.add 
	local.set	26
	local.get	26
	global.set	__stack_pointer
	local.get	24
	return
	end_function
.Ltmp93:
.Lfunc_end25:
                                        # -- End function
	.section	.text._ZNKSt3__26chrono10time_pointINS0_12steady_clockENS0_8durationIxNS_5ratioILx1ELx1000000000EEEEEE16time_since_epochB8ne190106Ev,"G",@,_ZNKSt3__26chrono10time_pointINS0_12steady_clockENS0_8durationIxNS_5ratioILx1ELx1000000000EEEEEE16time_since_epochB8ne190106Ev,comdat
	.hidden	_ZNKSt3__26chrono10time_pointINS0_12steady_clockENS0_8durationIxNS_5ratioILx1ELx1000000000EEEEEE16time_since_epochB8ne190106Ev # -- Begin function _ZNKSt3__26chrono10time_pointINS0_12steady_clockENS0_8durationIxNS_5ratioILx1ELx1000000000EEEEEE16time_since_epochB8ne190106Ev
	.weak	_ZNKSt3__26chrono10time_pointINS0_12steady_clockENS0_8durationIxNS_5ratioILx1ELx1000000000EEEEEE16time_since_epochB8ne190106Ev
	.type	_ZNKSt3__26chrono10time_pointINS0_12steady_clockENS0_8durationIxNS_5ratioILx1ELx1000000000EEEEEE16time_since_epochB8ne190106Ev,@function
_ZNKSt3__26chrono10time_pointINS0_12steady_clockENS0_8durationIxNS_5ratioILx1ELx1000000000EEEEEE16time_since_epochB8ne190106Ev: # @_ZNKSt3__26chrono10time_pointINS0_12steady_clockENS0_8durationIxNS_5ratioILx1ELx1000000000EEEEEE16time_since_epochB8ne190106Ev
.Lfunc_begin26:
	.loc	41 58 0 is_stmt 1               # emscripten/cache/sysroot/include/c++/v1/__chrono/time_point.h:58:0
	.functype	_ZNKSt3__26chrono10time_pointINS0_12steady_clockENS0_8durationIxNS_5ratioILx1ELx1000000000EEEEEE16time_since_epochB8ne190106Ev (i32) -> (i64)
	.local  	i32, i32, i32, i32, i64, i64
# %bb.0:                                # %entry
	global.get	__stack_pointer
	local.set	1
	i32.const	16
	local.set	2
	local.get	1
	local.get	2
	i32.sub 
	local.set	3
	local.get	3
	local.get	0
	i32.store	4
	local.get	3
	i32.load	4
	local.set	4
.Ltmp94:
	.loc	41 58 98 prologue_end           # emscripten/cache/sysroot/include/c++/v1/__chrono/time_point.h:58:98
	local.get	4
	i64.load	0
	local.set	5
	local.get	3
	local.get	5
	i64.store	8
	.loc	41 58 91 is_stmt 0              # emscripten/cache/sysroot/include/c++/v1/__chrono/time_point.h:58:91
	local.get	3
	i64.load	8
	local.set	6
	local.get	6
	return
	end_function
.Ltmp95:
.Lfunc_end26:
                                        # -- End function
	.section	.text._ZNSt3__26chrono8durationIxNS_5ratioILx1ELx1000000000EEEEC2B8ne190106IxTnNS_9enable_ifIXaasr14is_convertibleIRKT_xEE5valueooL_ZNS_17integral_constantIbLb0EE5valueEEntsr23treat_as_floating_pointIS7_EE5valueEiE4typeELi0EEES9_,"G",@,_ZNSt3__26chrono8durationIxNS_5ratioILx1ELx1000000000EEEEC2B8ne190106IxTnNS_9enable_ifIXaasr14is_convertibleIRKT_xEE5valueooL_ZNS_17integral_constantIbLb0EE5valueEEntsr23treat_as_floating_pointIS7_EE5valueEiE4typeELi0EEES9_,comdat
	.hidden	_ZNSt3__26chrono8durationIxNS_5ratioILx1ELx1000000000EEEEC2B8ne190106IxTnNS_9enable_ifIXaasr14is_convertibleIRKT_xEE5valueooL_ZNS_17integral_constantIbLb0EE5valueEEntsr23treat_as_floating_pointIS7_EE5valueEiE4typeELi0EEES9_ # -- Begin function _ZNSt3__26chrono8durationIxNS_5ratioILx1ELx1000000000EEEEC2B8ne190106IxTnNS_9enable_ifIXaasr14is_convertibleIRKT_xEE5valueooL_ZNS_17integral_constantIbLb0EE5valueEEntsr23treat_as_floating_pointIS7_EE5valueEiE4typeELi0EEES9_
	.weak	_ZNSt3__26chrono8durationIxNS_5ratioILx1ELx1000000000EEEEC2B8ne190106IxTnNS_9enable_ifIXaasr14is_convertibleIRKT_xEE5valueooL_ZNS_17integral_constantIbLb0EE5valueEEntsr23treat_as_floating_pointIS7_EE5valueEiE4typeELi0EEES9_
	.type	_ZNSt3__26chrono8durationIxNS_5ratioILx1ELx1000000000EEEEC2B8ne190106IxTnNS_9enable_ifIXaasr14is_convertibleIRKT_xEE5valueooL_ZNS_17integral_constantIbLb0EE5valueEEntsr23treat_as_floating_pointIS7_EE5valueEiE4typeELi0EEES9_,@function
_ZNSt3__26chrono8durationIxNS_5ratioILx1ELx1000000000EEEEC2B8ne190106IxTnNS_9enable_ifIXaasr14is_convertibleIRKT_xEE5valueooL_ZNS_17integral_constantIbLb0EE5valueEEntsr23treat_as_floating_pointIS7_EE5valueEiE4typeELi0EEES9_: # @_ZNSt3__26chrono8durationIxNS_5ratioILx1ELx1000000000EEEEC2B8ne190106IxTnNS_9enable_ifIXaasr14is_convertibleIRKT_xEE5valueooL_ZNS_17integral_constantIbLb0EE5valueEEntsr23treat_as_floating_pointIS7_EE5valueEiE4typeELi0EEES9_
.Lfunc_begin27:
	.loc	10 210 0 is_stmt 1              # emscripten/cache/sysroot/include/c++/v1/__chrono/duration.h:210:0
	.functype	_ZNSt3__26chrono8durationIxNS_5ratioILx1ELx1000000000EEEEC2B8ne190106IxTnNS_9enable_ifIXaasr14is_convertibleIRKT_xEE5valueooL_ZNS_17integral_constantIbLb0EE5valueEEntsr23treat_as_floating_pointIS7_EE5valueEiE4typeELi0EEES9_ (i32, i32) -> (i32)
	.local  	i32, i32, i32, i32, i32, i64
# %bb.0:                                # %entry
	global.get	__stack_pointer
	local.set	2
	i32.const	16
	local.set	3
	local.get	2
	local.get	3
	i32.sub 
	local.set	4
	local.get	4
	local.get	0
	i32.store	12
	local.get	4
	local.get	1
	i32.store	8
	local.get	4
	i32.load	12
	local.set	5
.Ltmp96:
	.loc	10 210 88 prologue_end          # emscripten/cache/sysroot/include/c++/v1/__chrono/duration.h:210:88
	local.get	4
	i32.load	8
	local.set	6
	local.get	6
	i64.load	0
	local.set	7
	.loc	10 210 81 is_stmt 0             # emscripten/cache/sysroot/include/c++/v1/__chrono/duration.h:210:81
	local.get	5
	local.get	7
	i64.store	0
	.loc	10 210 94                       # emscripten/cache/sysroot/include/c++/v1/__chrono/duration.h:210:94
	local.get	5
	return
	end_function
.Ltmp97:
.Lfunc_end27:
                                        # -- End function
	.section	.text._ZNSt3__218__cxx_atomic_storeB8ne190106IiEEvPNS_22__cxx_atomic_base_implIT_EES2_NS_12memory_orderE,"G",@,_ZNSt3__218__cxx_atomic_storeB8ne190106IiEEvPNS_22__cxx_atomic_base_implIT_EES2_NS_12memory_orderE,comdat
	.hidden	_ZNSt3__218__cxx_atomic_storeB8ne190106IiEEvPNS_22__cxx_atomic_base_implIT_EES2_NS_12memory_orderE # -- Begin function _ZNSt3__218__cxx_atomic_storeB8ne190106IiEEvPNS_22__cxx_atomic_base_implIT_EES2_NS_12memory_orderE
	.weak	_ZNSt3__218__cxx_atomic_storeB8ne190106IiEEvPNS_22__cxx_atomic_base_implIT_EES2_NS_12memory_orderE
	.type	_ZNSt3__218__cxx_atomic_storeB8ne190106IiEEvPNS_22__cxx_atomic_base_implIT_EES2_NS_12memory_orderE,@function
_ZNSt3__218__cxx_atomic_storeB8ne190106IiEEvPNS_22__cxx_atomic_base_implIT_EES2_NS_12memory_orderE: # @_ZNSt3__218__cxx_atomic_storeB8ne190106IiEEvPNS_22__cxx_atomic_base_implIT_EES2_NS_12memory_orderE
.Lfunc_begin28:
	.loc	24 303 0 is_stmt 1              # emscripten/cache/sysroot/include/c++/v1/__atomic/cxx_atomic_impl.h:303:0
	.functype	_ZNSt3__218__cxx_atomic_storeB8ne190106IiEEvPNS_22__cxx_atomic_base_implIT_EES2_NS_12memory_orderE (i32, i32, i32) -> ()
	.local  	i32, i32, i32, i32, i32, i32, i32, i32, i32, i32, i32, i32
# %bb.0:                                # %entry
	global.get	__stack_pointer
	local.set	3
	i32.const	16
	local.set	4
	local.get	3
	local.get	4
	i32.sub 
	local.set	5
	local.get	5
	local.get	0
	i32.store	12
	local.get	5
	local.get	1
	i32.store	8
	local.get	5
	local.get	2
	i32.store	4
.Ltmp98:
	.loc	24 304 37 prologue_end          # emscripten/cache/sysroot/include/c++/v1/__atomic/cxx_atomic_impl.h:304:37
	local.get	5
	i32.load	12
	local.set	6
	.loc	24 304 102 is_stmt 0            # emscripten/cache/sysroot/include/c++/v1/__atomic/cxx_atomic_impl.h:304:102
	local.get	5
	i32.load	4
	local.set	7
	.loc	24 304 54                       # emscripten/cache/sysroot/include/c++/v1/__atomic/cxx_atomic_impl.h:304:54
	local.get	5
	i32.load	8
	local.set	8
	.loc	24 304 3                        # emscripten/cache/sysroot/include/c++/v1/__atomic/cxx_atomic_impl.h:304:3
	local.get	5
	local.get	8
	i32.store	0
	i32.const	-3
	local.set	9
	local.get	7
	local.get	9
	i32.add 
	local.set	10
	i32.const	2
	local.set	11
	local.get	10
	local.get	11
	i32.gt_u
	drop
	block   	
	block   	
	block   	
	block   	
	local.get	10
	br_table 	{1, 0, 2, 0}            # 0: down to label19
                                        # 2: down to label17
.LBB28_1:                               # %monotonic
	.loc	24 0 3                          # emscripten/cache/sysroot/include/c++/v1/__atomic/cxx_atomic_impl.h:0:3
	end_block                               # label19:
	.loc	24 304 3                        # emscripten/cache/sysroot/include/c++/v1/__atomic/cxx_atomic_impl.h:304:3
	local.get	5
	i32.load	0
	local.set	12
	local.get	6
	local.get	12
	i32.atomic.store	0
	br      	2                               # 2: down to label16
.LBB28_2:                               # %release
	.loc	24 0 3                          # emscripten/cache/sysroot/include/c++/v1/__atomic/cxx_atomic_impl.h:0:3
	end_block                               # label18:
	.loc	24 304 3                        # emscripten/cache/sysroot/include/c++/v1/__atomic/cxx_atomic_impl.h:304:3
	local.get	5
	i32.load	0
	local.set	13
	local.get	6
	local.get	13
	i32.atomic.store.release	0
	br      	1                               # 1: down to label16
.LBB28_3:                               # %seqcst
	.loc	24 0 3                          # emscripten/cache/sysroot/include/c++/v1/__atomic/cxx_atomic_impl.h:0:3
	end_block                               # label17:
	.loc	24 304 3                        # emscripten/cache/sysroot/include/c++/v1/__atomic/cxx_atomic_impl.h:304:3
	local.get	5
	i32.load	0
	local.set	14
	local.get	6
	local.get	14
	i32.atomic.store	0
.LBB28_4:                               # %atomic.continue
	.loc	24 0 3                          # emscripten/cache/sysroot/include/c++/v1/__atomic/cxx_atomic_impl.h:0:3
	end_block                               # label16:
	.loc	24 305 1 is_stmt 1              # emscripten/cache/sysroot/include/c++/v1/__atomic/cxx_atomic_impl.h:305:1
	return
	end_function
.Ltmp99:
.Lfunc_end28:
                                        # -- End function
	.section	.text._ZNSt3__217__compressed_pairIPNS_6threadENS_9allocatorIS1_EEEC2B8ne190106IDnNS_18__default_init_tagEEEOT_OT0_,"G",@,_ZNSt3__217__compressed_pairIPNS_6threadENS_9allocatorIS1_EEEC2B8ne190106IDnNS_18__default_init_tagEEEOT_OT0_,comdat
	.hidden	_ZNSt3__217__compressed_pairIPNS_6threadENS_9allocatorIS1_EEEC2B8ne190106IDnNS_18__default_init_tagEEEOT_OT0_ # -- Begin function _ZNSt3__217__compressed_pairIPNS_6threadENS_9allocatorIS1_EEEC2B8ne190106IDnNS_18__default_init_tagEEEOT_OT0_
	.weak	_ZNSt3__217__compressed_pairIPNS_6threadENS_9allocatorIS1_EEEC2B8ne190106IDnNS_18__default_init_tagEEEOT_OT0_
	.type	_ZNSt3__217__compressed_pairIPNS_6threadENS_9allocatorIS1_EEEC2B8ne190106IDnNS_18__default_init_tagEEEOT_OT0_,@function
_ZNSt3__217__compressed_pairIPNS_6threadENS_9allocatorIS1_EEEC2B8ne190106IDnNS_18__default_init_tagEEEOT_OT0_: # @_ZNSt3__217__compressed_pairIPNS_6threadENS_9allocatorIS1_EEEC2B8ne190106IDnNS_18__default_init_tagEEEOT_OT0_
.Lfunc_begin29:
	.loc	16 119 0                        # emscripten/cache/sysroot/include/c++/v1/__memory/compressed_pair.h:119:0
	.functype	_ZNSt3__217__compressed_pairIPNS_6threadENS_9allocatorIS1_EEEC2B8ne190106IDnNS_18__default_init_tagEEEOT_OT0_ (i32, i32, i32) -> (i32)
	.local  	i32, i32, i32, i32, i32, i32, i32
# %bb.0:                                # %entry
	global.get	__stack_pointer
	local.set	3
	i32.const	16
	local.set	4
	local.get	3
	local.get	4
	i32.sub 
	local.set	5
	local.get	5
	global.set	__stack_pointer
	local.get	5
	local.get	0
	i32.store	12
	local.get	5
	local.get	1
	i32.store	8
	local.get	5
	local.get	2
	i32.store	4
	local.get	5
	i32.load	12
	local.set	6
.Ltmp100:
	.loc	16 119 34 prologue_end          # emscripten/cache/sysroot/include/c++/v1/__memory/compressed_pair.h:119:34
	local.get	5
	i32.load	8
	local.set	7
	.loc	16 119 9 is_stmt 0              # emscripten/cache/sysroot/include/c++/v1/__memory/compressed_pair.h:119:9
	local.get	6
	local.get	7
	call	_ZNSt3__222__compressed_pair_elemIPNS_6threadELi0ELb0EEC2B8ne190106IDnTnNS_9enable_ifIXntsr7is_sameIS3_u7__decayIT_EEE5valueEiE4typeELi0EEEOS6_
	drop
	.loc	16 119 42                       # emscripten/cache/sysroot/include/c++/v1/__memory/compressed_pair.h:119:42
	local.get	6
	call	_ZNSt3__222__compressed_pair_elemINS_9allocatorINS_6threadEEELi1ELb1EEC2B8ne190106ENS_18__default_init_tagE
	drop
	.loc	16 119 75                       # emscripten/cache/sysroot/include/c++/v1/__memory/compressed_pair.h:119:75
	i32.const	16
	local.set	8
	local.get	5
	local.get	8
	i32.add 
	local.set	9
	local.get	9
	global.set	__stack_pointer
	local.get	6
	return
	end_function
.Ltmp101:
.Lfunc_end29:
                                        # -- End function
	.section	.text._ZNSt3__222__compressed_pair_elemIPNS_6threadELi0ELb0EEC2B8ne190106IDnTnNS_9enable_ifIXntsr7is_sameIS3_u7__decayIT_EEE5valueEiE4typeELi0EEEOS6_,"G",@,_ZNSt3__222__compressed_pair_elemIPNS_6threadELi0ELb0EEC2B8ne190106IDnTnNS_9enable_ifIXntsr7is_sameIS3_u7__decayIT_EEE5valueEiE4typeELi0EEEOS6_,comdat
	.hidden	_ZNSt3__222__compressed_pair_elemIPNS_6threadELi0ELb0EEC2B8ne190106IDnTnNS_9enable_ifIXntsr7is_sameIS3_u7__decayIT_EEE5valueEiE4typeELi0EEEOS6_ # -- Begin function _ZNSt3__222__compressed_pair_elemIPNS_6threadELi0ELb0EEC2B8ne190106IDnTnNS_9enable_ifIXntsr7is_sameIS3_u7__decayIT_EEE5valueEiE4typeELi0EEEOS6_
	.weak	_ZNSt3__222__compressed_pair_elemIPNS_6threadELi0ELb0EEC2B8ne190106IDnTnNS_9enable_ifIXntsr7is_sameIS3_u7__decayIT_EEE5valueEiE4typeELi0EEEOS6_
	.type	_ZNSt3__222__compressed_pair_elemIPNS_6threadELi0ELb0EEC2B8ne190106IDnTnNS_9enable_ifIXntsr7is_sameIS3_u7__decayIT_EEE5valueEiE4typeELi0EEEOS6_,@function
_ZNSt3__222__compressed_pair_elemIPNS_6threadELi0ELb0EEC2B8ne190106IDnTnNS_9enable_ifIXntsr7is_sameIS3_u7__decayIT_EEE5valueEiE4typeELi0EEEOS6_: # @_ZNSt3__222__compressed_pair_elemIPNS_6threadELi0ELb0EEC2B8ne190106IDnTnNS_9enable_ifIXntsr7is_sameIS3_u7__decayIT_EEE5valueEiE4typeELi0EEEOS6_
.Lfunc_begin30:
	.loc	16 53 0 is_stmt 1               # emscripten/cache/sysroot/include/c++/v1/__memory/compressed_pair.h:53:0
	.functype	_ZNSt3__222__compressed_pair_elemIPNS_6threadELi0ELb0EEC2B8ne190106IDnTnNS_9enable_ifIXntsr7is_sameIS3_u7__decayIT_EEE5valueEiE4typeELi0EEEOS6_ (i32, i32) -> (i32)
	.local  	i32, i32, i32, i32, i32
# %bb.0:                                # %entry
	global.get	__stack_pointer
	local.set	2
	i32.const	16
	local.set	3
	local.get	2
	local.get	3
	i32.sub 
	local.set	4
	local.get	4
	local.get	0
	i32.store	12
	local.get	4
	local.get	1
	i32.store	8
	local.get	4
	i32.load	12
	local.set	5
.Ltmp102:
	.loc	16 53 9 prologue_end            # emscripten/cache/sysroot/include/c++/v1/__memory/compressed_pair.h:53:9
	i32.const	0
	local.set	6
	local.get	5
	local.get	6
	i32.store	0
	.loc	16 53 43 is_stmt 0              # emscripten/cache/sysroot/include/c++/v1/__memory/compressed_pair.h:53:43
	local.get	5
	return
	end_function
.Ltmp103:
.Lfunc_end30:
                                        # -- End function
	.section	.text._ZNSt3__222__compressed_pair_elemINS_9allocatorINS_6threadEEELi1ELb1EEC2B8ne190106ENS_18__default_init_tagE,"G",@,_ZNSt3__222__compressed_pair_elemINS_9allocatorINS_6threadEEELi1ELb1EEC2B8ne190106ENS_18__default_init_tagE,comdat
	.hidden	_ZNSt3__222__compressed_pair_elemINS_9allocatorINS_6threadEEELi1ELb1EEC2B8ne190106ENS_18__default_init_tagE # -- Begin function _ZNSt3__222__compressed_pair_elemINS_9allocatorINS_6threadEEELi1ELb1EEC2B8ne190106ENS_18__default_init_tagE
	.weak	_ZNSt3__222__compressed_pair_elemINS_9allocatorINS_6threadEEELi1ELb1EEC2B8ne190106ENS_18__default_init_tagE
	.type	_ZNSt3__222__compressed_pair_elemINS_9allocatorINS_6threadEEELi1ELb1EEC2B8ne190106ENS_18__default_init_tagE,@function
_ZNSt3__222__compressed_pair_elemINS_9allocatorINS_6threadEEELi1ELb1EEC2B8ne190106ENS_18__default_init_tagE: # @_ZNSt3__222__compressed_pair_elemINS_9allocatorINS_6threadEEELi1ELb1EEC2B8ne190106ENS_18__default_init_tagE
.Lfunc_begin31:
	.loc	16 77 0 is_stmt 1               # emscripten/cache/sysroot/include/c++/v1/__memory/compressed_pair.h:77:0
	.functype	_ZNSt3__222__compressed_pair_elemINS_9allocatorINS_6threadEEELi1ELb1EEC2B8ne190106ENS_18__default_init_tagE (i32) -> (i32)
	.local  	i32, i32, i32, i32, i32, i32
# %bb.0:                                # %entry
	global.get	__stack_pointer
	local.set	1
	i32.const	16
	local.set	2
	local.get	1
	local.get	2
	i32.sub 
	local.set	3
	local.get	3
	global.set	__stack_pointer
	local.get	3
	local.get	0
	i32.store	8
	local.get	3
	i32.load	8
	local.set	4
.Ltmp104:
	.loc	16 77 52 prologue_end           # emscripten/cache/sysroot/include/c++/v1/__memory/compressed_pair.h:77:52
	local.get	4
	call	_ZNSt3__29allocatorINS_6threadEEC2B8ne190106Ev
	drop
	.loc	16 77 96 is_stmt 0              # emscripten/cache/sysroot/include/c++/v1/__memory/compressed_pair.h:77:96
	i32.const	16
	local.set	5
	local.get	3
	local.get	5
	i32.add 
	local.set	6
	local.get	6
	global.set	__stack_pointer
	local.get	4
	return
	end_function
.Ltmp105:
.Lfunc_end31:
                                        # -- End function
	.section	.text._ZNSt3__29allocatorINS_6threadEEC2B8ne190106Ev,"G",@,_ZNSt3__29allocatorINS_6threadEEC2B8ne190106Ev,comdat
	.hidden	_ZNSt3__29allocatorINS_6threadEEC2B8ne190106Ev # -- Begin function _ZNSt3__29allocatorINS_6threadEEC2B8ne190106Ev
	.weak	_ZNSt3__29allocatorINS_6threadEEC2B8ne190106Ev
	.type	_ZNSt3__29allocatorINS_6threadEEC2B8ne190106Ev,@function
_ZNSt3__29allocatorINS_6threadEEC2B8ne190106Ev: # @_ZNSt3__29allocatorINS_6threadEEC2B8ne190106Ev
.Lfunc_begin32:
	.loc	14 107 0 is_stmt 1              # emscripten/cache/sysroot/include/c++/v1/__memory/allocator.h:107:0
	.functype	_ZNSt3__29allocatorINS_6threadEEC2B8ne190106Ev (i32) -> (i32)
	.local  	i32, i32, i32, i32, i32, i32
# %bb.0:                                # %entry
	global.get	__stack_pointer
	local.set	1
	i32.const	16
	local.set	2
	local.get	1
	local.get	2
	i32.sub 
	local.set	3
	local.get	3
	global.set	__stack_pointer
	local.get	3
	local.get	0
	i32.store	12
	local.get	3
	i32.load	12
	local.set	4
.Ltmp106:
	.loc	14 107 55 prologue_end          # emscripten/cache/sysroot/include/c++/v1/__memory/allocator.h:107:55
	local.get	4
	call	_ZNSt3__216__non_trivial_ifILb1ENS_9allocatorINS_6threadEEEEC2B8ne190106Ev
	drop
	.loc	14 107 85 is_stmt 0             # emscripten/cache/sysroot/include/c++/v1/__memory/allocator.h:107:85
	i32.const	16
	local.set	5
	local.get	3
	local.get	5
	i32.add 
	local.set	6
	local.get	6
	global.set	__stack_pointer
	local.get	4
	return
	end_function
.Ltmp107:
.Lfunc_end32:
                                        # -- End function
	.section	.text._ZNSt3__216__non_trivial_ifILb1ENS_9allocatorINS_6threadEEEEC2B8ne190106Ev,"G",@,_ZNSt3__216__non_trivial_ifILb1ENS_9allocatorINS_6threadEEEEC2B8ne190106Ev,comdat
	.hidden	_ZNSt3__216__non_trivial_ifILb1ENS_9allocatorINS_6threadEEEEC2B8ne190106Ev # -- Begin function _ZNSt3__216__non_trivial_ifILb1ENS_9allocatorINS_6threadEEEEC2B8ne190106Ev
	.weak	_ZNSt3__216__non_trivial_ifILb1ENS_9allocatorINS_6threadEEEEC2B8ne190106Ev
	.type	_ZNSt3__216__non_trivial_ifILb1ENS_9allocatorINS_6threadEEEEC2B8ne190106Ev,@function
_ZNSt3__216__non_trivial_ifILb1ENS_9allocatorINS_6threadEEEEC2B8ne190106Ev: # @_ZNSt3__216__non_trivial_ifILb1ENS_9allocatorINS_6threadEEEEC2B8ne190106Ev
.Lfunc_begin33:
	.loc	14 85 0 is_stmt 1               # emscripten/cache/sysroot/include/c++/v1/__memory/allocator.h:85:0
	.functype	_ZNSt3__216__non_trivial_ifILb1ENS_9allocatorINS_6threadEEEEC2B8ne190106Ev (i32) -> (i32)
	.local  	i32, i32, i32, i32
# %bb.0:                                # %entry
	global.get	__stack_pointer
	local.set	1
	i32.const	16
	local.set	2
	local.get	1
	local.get	2
	i32.sub 
	local.set	3
	local.get	3
	local.get	0
	i32.store	12
	local.get	3
	i32.load	12
	local.set	4
.Ltmp108:
	.loc	14 85 73 prologue_end           # emscripten/cache/sysroot/include/c++/v1/__memory/allocator.h:85:73
	local.get	4
	return
	end_function
.Ltmp109:
.Lfunc_end33:
                                        # -- End function
	.section	.text._ZNSt3__26vectorINS_6threadENS_9allocatorIS1_EEE16__destroy_vectorC2B8ne190106ERS4_,"G",@,_ZNSt3__26vectorINS_6threadENS_9allocatorIS1_EEE16__destroy_vectorC2B8ne190106ERS4_,comdat
	.hidden	_ZNSt3__26vectorINS_6threadENS_9allocatorIS1_EEE16__destroy_vectorC2B8ne190106ERS4_ # -- Begin function _ZNSt3__26vectorINS_6threadENS_9allocatorIS1_EEE16__destroy_vectorC2B8ne190106ERS4_
	.weak	_ZNSt3__26vectorINS_6threadENS_9allocatorIS1_EEE16__destroy_vectorC2B8ne190106ERS4_
	.type	_ZNSt3__26vectorINS_6threadENS_9allocatorIS1_EEE16__destroy_vectorC2B8ne190106ERS4_,@function
_ZNSt3__26vectorINS_6threadENS_9allocatorIS1_EEE16__destroy_vectorC2B8ne190106ERS4_: # @_ZNSt3__26vectorINS_6threadENS_9allocatorIS1_EEE16__destroy_vectorC2B8ne190106ERS4_
.Lfunc_begin34:
	.loc	3 526 0                         # emscripten/cache/sysroot/include/c++/v1/vector:526:0
	.functype	_ZNSt3__26vectorINS_6threadENS_9allocatorIS1_EEE16__destroy_vectorC2B8ne190106ERS4_ (i32, i32) -> (i32)
	.local  	i32, i32, i32, i32, i32
# %bb.0:                                # %entry
	global.get	__stack_pointer
	local.set	2
	i32.const	16
	local.set	3
	local.get	2
	local.get	3
	i32.sub 
	local.set	4
	local.get	4
	local.get	0
	i32.store	12
	local.get	4
	local.get	1
	i32.store	8
	local.get	4
	i32.load	12
	local.set	5
.Ltmp110:
	.loc	3 526 86 prologue_end           # emscripten/cache/sysroot/include/c++/v1/vector:526:86
	local.get	4
	i32.load	8
	local.set	6
	.loc	3 526 79 is_stmt 0              # emscripten/cache/sysroot/include/c++/v1/vector:526:79
	local.get	5
	local.get	6
	i32.store	0
	.loc	3 526 94                        # emscripten/cache/sysroot/include/c++/v1/vector:526:94
	local.get	5
	return
	end_function
.Ltmp111:
.Lfunc_end34:
                                        # -- End function
	.section	.text._ZNSt3__26vectorINS_6threadENS_9allocatorIS1_EEE16__destroy_vectorclB8ne190106Ev,"G",@,_ZNSt3__26vectorINS_6threadENS_9allocatorIS1_EEE16__destroy_vectorclB8ne190106Ev,comdat
	.hidden	_ZNSt3__26vectorINS_6threadENS_9allocatorIS1_EEE16__destroy_vectorclB8ne190106Ev # -- Begin function _ZNSt3__26vectorINS_6threadENS_9allocatorIS1_EEE16__destroy_vectorclB8ne190106Ev
	.weak	_ZNSt3__26vectorINS_6threadENS_9allocatorIS1_EEE16__destroy_vectorclB8ne190106Ev
	.type	_ZNSt3__26vectorINS_6threadENS_9allocatorIS1_EEE16__destroy_vectorclB8ne190106Ev,@function
_ZNSt3__26vectorINS_6threadENS_9allocatorIS1_EEE16__destroy_vectorclB8ne190106Ev: # @_ZNSt3__26vectorINS_6threadENS_9allocatorIS1_EEE16__destroy_vectorclB8ne190106Ev
.Lfunc_begin35:
	.loc	3 528 0 is_stmt 1               # emscripten/cache/sysroot/include/c++/v1/vector:528:0
	.functype	_ZNSt3__26vectorINS_6threadENS_9allocatorIS1_EEE16__destroy_vectorclB8ne190106Ev (i32) -> ()
	.local  	i32, i32, i32, i32, i32, i32, i32, i32, i32, i32, i32, i32, i32, i32, i32, i32, i32, i32, i32, i32
# %bb.0:                                # %entry
	global.get	__stack_pointer
	local.set	1
	i32.const	16
	local.set	2
	local.get	1
	local.get	2
	i32.sub 
	local.set	3
	local.get	3
	global.set	__stack_pointer
	local.get	3
	local.get	0
	i32.store	12
	local.get	3
	i32.load	12
	local.set	4
.Ltmp112:
	.loc	3 529 11 prologue_end           # emscripten/cache/sysroot/include/c++/v1/vector:529:11
	local.get	4
	i32.load	0
	local.set	5
	.loc	3 529 18 is_stmt 0              # emscripten/cache/sysroot/include/c++/v1/vector:529:18
	local.get	5
	i32.load	0
	local.set	6
	.loc	3 529 27                        # emscripten/cache/sysroot/include/c++/v1/vector:529:27
	i32.const	0
	local.set	7
	local.get	6
	local.get	7
	i32.ne  
	local.set	8
	i32.const	1
	local.set	9
	local.get	8
	local.get	9
	i32.and 
	local.set	10
	block   	
	local.get	10
	i32.eqz
	br_if   	0                               # 0: down to label20
# %bb.1:                                # %if.then
.Ltmp113:
	.loc	3 530 9 is_stmt 1               # emscripten/cache/sysroot/include/c++/v1/vector:530:9
	local.get	4
	i32.load	0
	local.set	11
	.loc	3 530 16 is_stmt 0              # emscripten/cache/sysroot/include/c++/v1/vector:530:16
	local.get	11
	call	_ZNSt3__26vectorINS_6threadENS_9allocatorIS1_EEE7__clearB8ne190106Ev
	.loc	3 531 9 is_stmt 1               # emscripten/cache/sysroot/include/c++/v1/vector:531:9
	local.get	4
	i32.load	0
	local.set	12
	.loc	3 531 16 is_stmt 0              # emscripten/cache/sysroot/include/c++/v1/vector:531:16
	local.get	12
	call	_ZNKSt3__26vectorINS_6threadENS_9allocatorIS1_EEE17__annotate_deleteB8ne190106Ev
	.loc	3 532 36 is_stmt 1              # emscripten/cache/sysroot/include/c++/v1/vector:532:36
	local.get	4
	i32.load	0
	local.set	13
	.loc	3 532 43 is_stmt 0              # emscripten/cache/sysroot/include/c++/v1/vector:532:43
	local.get	13
	call	_ZNSt3__26vectorINS_6threadENS_9allocatorIS1_EEE7__allocB8ne190106Ev
	local.set	14
	.loc	3 532 54                        # emscripten/cache/sysroot/include/c++/v1/vector:532:54
	local.get	4
	i32.load	0
	local.set	15
	.loc	3 532 61                        # emscripten/cache/sysroot/include/c++/v1/vector:532:61
	local.get	15
	i32.load	0
	local.set	16
	.loc	3 532 71                        # emscripten/cache/sysroot/include/c++/v1/vector:532:71
	local.get	4
	i32.load	0
	local.set	17
	.loc	3 532 78                        # emscripten/cache/sysroot/include/c++/v1/vector:532:78
	local.get	17
	call	_ZNKSt3__26vectorINS_6threadENS_9allocatorIS1_EEE8capacityB8ne190106Ev
	local.set	18
	.loc	3 532 9                         # emscripten/cache/sysroot/include/c++/v1/vector:532:9
	local.get	14
	local.get	16
	local.get	18
	call	_ZNSt3__216allocator_traitsINS_9allocatorINS_6threadEEEE10deallocateB8ne190106ERS3_PS2_m
.Ltmp114:
.LBB35_2:                               # %if.end
	.loc	3 0 9                           # emscripten/cache/sysroot/include/c++/v1/vector:0:9
	end_block                               # label20:
	.loc	3 534 5 is_stmt 1               # emscripten/cache/sysroot/include/c++/v1/vector:534:5
	i32.const	16
	local.set	19
	local.get	3
	local.get	19
	i32.add 
	local.set	20
	local.get	20
	global.set	__stack_pointer
	return
	end_function
.Ltmp115:
.Lfunc_end35:
                                        # -- End function
	.section	.text._ZNSt3__26vectorINS_6threadENS_9allocatorIS1_EEE7__clearB8ne190106Ev,"G",@,_ZNSt3__26vectorINS_6threadENS_9allocatorIS1_EEE7__clearB8ne190106Ev,comdat
	.hidden	_ZNSt3__26vectorINS_6threadENS_9allocatorIS1_EEE7__clearB8ne190106Ev # -- Begin function _ZNSt3__26vectorINS_6threadENS_9allocatorIS1_EEE7__clearB8ne190106Ev
	.weak	_ZNSt3__26vectorINS_6threadENS_9allocatorIS1_EEE7__clearB8ne190106Ev
	.type	_ZNSt3__26vectorINS_6threadENS_9allocatorIS1_EEE7__clearB8ne190106Ev,@function
_ZNSt3__26vectorINS_6threadENS_9allocatorIS1_EEE7__clearB8ne190106Ev: # @_ZNSt3__26vectorINS_6threadENS_9allocatorIS1_EEE7__clearB8ne190106Ev
.Lfunc_begin36:
	.loc	3 978 0                         # emscripten/cache/sysroot/include/c++/v1/vector:978:0
	.functype	_ZNSt3__26vectorINS_6threadENS_9allocatorIS1_EEE7__clearB8ne190106Ev (i32) -> ()
	.local  	i32, i32, i32, i32, i32, i32, i32
# %bb.0:                                # %entry
	global.get	__stack_pointer
	local.set	1
	i32.const	16
	local.set	2
	local.get	1
	local.get	2
	i32.sub 
	local.set	3
	local.get	3
	global.set	__stack_pointer
	local.get	3
	local.get	0
	i32.store	12
	local.get	3
	i32.load	12
	local.set	4
.Ltmp116:
	.loc	3 979 34 prologue_end           # emscripten/cache/sysroot/include/c++/v1/vector:979:34
	local.get	4
	i32.load	0
	local.set	5
	.loc	3 979 5 is_stmt 0               # emscripten/cache/sysroot/include/c++/v1/vector:979:5
	local.get	4
	local.get	5
	call	_ZNSt3__26vectorINS_6threadENS_9allocatorIS1_EEE22__base_destruct_at_endB8ne190106EPS1_
	.loc	3 980 3 is_stmt 1               # emscripten/cache/sysroot/include/c++/v1/vector:980:3
	i32.const	16
	local.set	6
	local.get	3
	local.get	6
	i32.add 
	local.set	7
	local.get	7
	global.set	__stack_pointer
	return
	end_function
.Ltmp117:
.Lfunc_end36:
                                        # -- End function
	.section	.text._ZNKSt3__26vectorINS_6threadENS_9allocatorIS1_EEE17__annotate_deleteB8ne190106Ev,"G",@,_ZNKSt3__26vectorINS_6threadENS_9allocatorIS1_EEE17__annotate_deleteB8ne190106Ev,comdat
	.hidden	_ZNKSt3__26vectorINS_6threadENS_9allocatorIS1_EEE17__annotate_deleteB8ne190106Ev # -- Begin function _ZNKSt3__26vectorINS_6threadENS_9allocatorIS1_EEE17__annotate_deleteB8ne190106Ev
	.weak	_ZNKSt3__26vectorINS_6threadENS_9allocatorIS1_EEE17__annotate_deleteB8ne190106Ev
	.type	_ZNKSt3__26vectorINS_6threadENS_9allocatorIS1_EEE17__annotate_deleteB8ne190106Ev,@function
_ZNKSt3__26vectorINS_6threadENS_9allocatorIS1_EEE17__annotate_deleteB8ne190106Ev: # @_ZNKSt3__26vectorINS_6threadENS_9allocatorIS1_EEE17__annotate_deleteB8ne190106Ev
.Lfunc_begin37:
	.loc	3 913 0                         # emscripten/cache/sysroot/include/c++/v1/vector:913:0
	.functype	_ZNKSt3__26vectorINS_6threadENS_9allocatorIS1_EEE17__annotate_deleteB8ne190106Ev (i32) -> ()
	.local  	i32, i32, i32
# %bb.0:                                # %entry
	global.get	__stack_pointer
	local.set	1
	i32.const	16
	local.set	2
	local.get	1
	local.get	2
	i32.sub 
	local.set	3
	local.get	3
	local.get	0
	i32.store	12
.Ltmp118:
	.loc	3 917 3 prologue_end            # emscripten/cache/sysroot/include/c++/v1/vector:917:3
	return
	end_function
.Ltmp119:
.Lfunc_end37:
                                        # -- End function
	.section	.text._ZNSt3__216allocator_traitsINS_9allocatorINS_6threadEEEE10deallocateB8ne190106ERS3_PS2_m,"G",@,_ZNSt3__216allocator_traitsINS_9allocatorINS_6threadEEEE10deallocateB8ne190106ERS3_PS2_m,comdat
	.hidden	_ZNSt3__216allocator_traitsINS_9allocatorINS_6threadEEEE10deallocateB8ne190106ERS3_PS2_m # -- Begin function _ZNSt3__216allocator_traitsINS_9allocatorINS_6threadEEEE10deallocateB8ne190106ERS3_PS2_m
	.weak	_ZNSt3__216allocator_traitsINS_9allocatorINS_6threadEEEE10deallocateB8ne190106ERS3_PS2_m
	.type	_ZNSt3__216allocator_traitsINS_9allocatorINS_6threadEEEE10deallocateB8ne190106ERS3_PS2_m,@function
_ZNSt3__216allocator_traitsINS_9allocatorINS_6threadEEEE10deallocateB8ne190106ERS3_PS2_m: # @_ZNSt3__216allocator_traitsINS_9allocatorINS_6threadEEEE10deallocateB8ne190106ERS3_PS2_m
.Lfunc_begin38:
	.loc	15 311 0                        # emscripten/cache/sysroot/include/c++/v1/__memory/allocator_traits.h:311:0
	.functype	_ZNSt3__216allocator_traitsINS_9allocatorINS_6threadEEEE10deallocateB8ne190106ERS3_PS2_m (i32, i32, i32) -> ()
	.local  	i32, i32, i32, i32, i32, i32, i32, i32
# %bb.0:                                # %entry
	global.get	__stack_pointer
	local.set	3
	i32.const	16
	local.set	4
	local.get	3
	local.get	4
	i32.sub 
	local.set	5
	local.get	5
	global.set	__stack_pointer
	local.get	5
	local.get	0
	i32.store	12
	local.get	5
	local.get	1
	i32.store	8
	local.get	5
	local.get	2
	i32.store	4
.Ltmp120:
	.loc	15 312 5 prologue_end           # emscripten/cache/sysroot/include/c++/v1/__memory/allocator_traits.h:312:5
	local.get	5
	i32.load	12
	local.set	6
	.loc	15 312 20 is_stmt 0             # emscripten/cache/sysroot/include/c++/v1/__memory/allocator_traits.h:312:20
	local.get	5
	i32.load	8
	local.set	7
	.loc	15 312 25                       # emscripten/cache/sysroot/include/c++/v1/__memory/allocator_traits.h:312:25
	local.get	5
	i32.load	4
	local.set	8
	.loc	15 312 9                        # emscripten/cache/sysroot/include/c++/v1/__memory/allocator_traits.h:312:9
	local.get	6
	local.get	7
	local.get	8
	call	_ZNSt3__29allocatorINS_6threadEE10deallocateB8ne190106EPS1_m
	.loc	15 313 3 is_stmt 1              # emscripten/cache/sysroot/include/c++/v1/__memory/allocator_traits.h:313:3
	i32.const	16
	local.set	9
	local.get	5
	local.get	9
	i32.add 
	local.set	10
	local.get	10
	global.set	__stack_pointer
	return
	end_function
.Ltmp121:
.Lfunc_end38:
                                        # -- End function
	.section	.text._ZNSt3__26vectorINS_6threadENS_9allocatorIS1_EEE7__allocB8ne190106Ev,"G",@,_ZNSt3__26vectorINS_6threadENS_9allocatorIS1_EEE7__allocB8ne190106Ev,comdat
	.hidden	_ZNSt3__26vectorINS_6threadENS_9allocatorIS1_EEE7__allocB8ne190106Ev # -- Begin function _ZNSt3__26vectorINS_6threadENS_9allocatorIS1_EEE7__allocB8ne190106Ev
	.weak	_ZNSt3__26vectorINS_6threadENS_9allocatorIS1_EEE7__allocB8ne190106Ev
	.type	_ZNSt3__26vectorINS_6threadENS_9allocatorIS1_EEE7__allocB8ne190106Ev,@function
_ZNSt3__26vectorINS_6threadENS_9allocatorIS1_EEE7__allocB8ne190106Ev: # @_ZNSt3__26vectorINS_6threadENS_9allocatorIS1_EEE7__allocB8ne190106Ev
.Lfunc_begin39:
	.loc	3 965 0                         # emscripten/cache/sysroot/include/c++/v1/vector:965:0
	.functype	_ZNSt3__26vectorINS_6threadENS_9allocatorIS1_EEE7__allocB8ne190106Ev (i32) -> (i32)
	.local  	i32, i32, i32, i32, i32, i32, i32, i32, i32
# %bb.0:                                # %entry
	global.get	__stack_pointer
	local.set	1
	i32.const	16
	local.set	2
	local.get	1
	local.get	2
	i32.sub 
	local.set	3
	local.get	3
	global.set	__stack_pointer
	local.get	3
	local.get	0
	i32.store	12
	local.get	3
	i32.load	12
	local.set	4
.Ltmp122:
	.loc	3 966 18 prologue_end           # emscripten/cache/sysroot/include/c++/v1/vector:966:18
	i32.const	8
	local.set	5
	local.get	4
	local.get	5
	i32.add 
	local.set	6
	.loc	3 966 29 is_stmt 0              # emscripten/cache/sysroot/include/c++/v1/vector:966:29
	local.get	6
	call	_ZNSt3__217__compressed_pairIPNS_6threadENS_9allocatorIS1_EEE6secondB8ne190106Ev
	local.set	7
	.loc	3 966 5                         # emscripten/cache/sysroot/include/c++/v1/vector:966:5
	i32.const	16
	local.set	8
	local.get	3
	local.get	8
	i32.add 
	local.set	9
	local.get	9
	global.set	__stack_pointer
	local.get	7
	return
	end_function
.Ltmp123:
.Lfunc_end39:
                                        # -- End function
	.section	.text._ZNKSt3__26vectorINS_6threadENS_9allocatorIS1_EEE8capacityB8ne190106Ev,"G",@,_ZNKSt3__26vectorINS_6threadENS_9allocatorIS1_EEE8capacityB8ne190106Ev,comdat
	.hidden	_ZNKSt3__26vectorINS_6threadENS_9allocatorIS1_EEE8capacityB8ne190106Ev # -- Begin function _ZNKSt3__26vectorINS_6threadENS_9allocatorIS1_EEE8capacityB8ne190106Ev
	.weak	_ZNKSt3__26vectorINS_6threadENS_9allocatorIS1_EEE8capacityB8ne190106Ev
	.type	_ZNKSt3__26vectorINS_6threadENS_9allocatorIS1_EEE8capacityB8ne190106Ev,@function
_ZNKSt3__26vectorINS_6threadENS_9allocatorIS1_EEE8capacityB8ne190106Ev: # @_ZNKSt3__26vectorINS_6threadENS_9allocatorIS1_EEE8capacityB8ne190106Ev
.Lfunc_begin40:
	.loc	3 637 0 is_stmt 1               # emscripten/cache/sysroot/include/c++/v1/vector:637:0
	.functype	_ZNKSt3__26vectorINS_6threadENS_9allocatorIS1_EEE8capacityB8ne190106Ev (i32) -> (i32)
	.local  	i32, i32, i32, i32, i32, i32, i32, i32, i32, i32, i32, i32
# %bb.0:                                # %entry
	global.get	__stack_pointer
	local.set	1
	i32.const	16
	local.set	2
	local.get	1
	local.get	2
	i32.sub 
	local.set	3
	local.get	3
	global.set	__stack_pointer
	local.get	3
	local.get	0
	i32.store	12
	local.get	3
	i32.load	12
	local.set	4
.Ltmp124:
	.loc	3 638 35 prologue_end           # emscripten/cache/sysroot/include/c++/v1/vector:638:35
	local.get	4
	call	_ZNKSt3__26vectorINS_6threadENS_9allocatorIS1_EEE9__end_capB8ne190106Ev
	local.set	5
	local.get	5
	i32.load	0
	local.set	6
	.loc	3 638 55 is_stmt 0              # emscripten/cache/sysroot/include/c++/v1/vector:638:55
	local.get	4
	i32.load	0
	local.set	7
	.loc	3 638 47                        # emscripten/cache/sysroot/include/c++/v1/vector:638:47
	local.get	6
	local.get	7
	i32.sub 
	local.set	8
	i32.const	2
	local.set	9
	local.get	8
	local.get	9
	i32.shr_s
	local.set	10
	.loc	3 638 5                         # emscripten/cache/sysroot/include/c++/v1/vector:638:5
	i32.const	16
	local.set	11
	local.get	3
	local.get	11
	i32.add 
	local.set	12
	local.get	12
	global.set	__stack_pointer
	local.get	10
	return
	end_function
.Ltmp125:
.Lfunc_end40:
                                        # -- End function
	.section	.text._ZNSt3__26vectorINS_6threadENS_9allocatorIS1_EEE22__base_destruct_at_endB8ne190106EPS1_,"G",@,_ZNSt3__26vectorINS_6threadENS_9allocatorIS1_EEE22__base_destruct_at_endB8ne190106EPS1_,comdat
	.hidden	_ZNSt3__26vectorINS_6threadENS_9allocatorIS1_EEE22__base_destruct_at_endB8ne190106EPS1_ # -- Begin function _ZNSt3__26vectorINS_6threadENS_9allocatorIS1_EEE22__base_destruct_at_endB8ne190106EPS1_
	.weak	_ZNSt3__26vectorINS_6threadENS_9allocatorIS1_EEE22__base_destruct_at_endB8ne190106EPS1_
	.type	_ZNSt3__26vectorINS_6threadENS_9allocatorIS1_EEE22__base_destruct_at_endB8ne190106EPS1_,@function
_ZNSt3__26vectorINS_6threadENS_9allocatorIS1_EEE22__base_destruct_at_endB8ne190106EPS1_: # @_ZNSt3__26vectorINS_6threadENS_9allocatorIS1_EEE22__base_destruct_at_endB8ne190106EPS1_
.Lfunc_begin41:
	.loc	3 982 0 is_stmt 1               # emscripten/cache/sysroot/include/c++/v1/vector:982:0
	.functype	_ZNSt3__26vectorINS_6threadENS_9allocatorIS1_EEE22__base_destruct_at_endB8ne190106EPS1_ (i32, i32) -> ()
	.local  	i32, i32, i32, i32, i32, i32, i32, i32, i32, i32, i32, i32, i32, i32, i32, i32, i32, i32
# %bb.0:                                # %entry
	global.get	__stack_pointer
	local.set	2
	i32.const	16
	local.set	3
	local.get	2
	local.get	3
	i32.sub 
	local.set	4
	local.get	4
	global.set	__stack_pointer
	local.get	4
	local.get	0
	i32.store	12
	local.get	4
	local.get	1
	i32.store	8
	local.get	4
	i32.load	12
	local.set	5
.Ltmp126:
	.loc	3 983 38 prologue_end           # emscripten/cache/sysroot/include/c++/v1/vector:983:38
	local.get	5
	i32.load	4
	local.set	6
	.loc	3 983 13 is_stmt 0              # emscripten/cache/sysroot/include/c++/v1/vector:983:13
	local.get	4
	local.get	6
	i32.store	4
.LBB41_1:                               # %while.cond
                                        # =>This Inner Loop Header: Depth=1
	.loc	3 984 12 is_stmt 1              # emscripten/cache/sysroot/include/c++/v1/vector:984:12
	block   	
	loop    	                                # label22:
	local.get	4
	i32.load	8
	local.set	7
	.loc	3 984 26 is_stmt 0              # emscripten/cache/sysroot/include/c++/v1/vector:984:26
	local.get	4
	i32.load	4
	local.set	8
	.loc	3 984 23                        # emscripten/cache/sysroot/include/c++/v1/vector:984:23
	local.get	7
	local.get	8
	i32.ne  
	local.set	9
	.loc	3 984 5                         # emscripten/cache/sysroot/include/c++/v1/vector:984:5
	i32.const	1
	local.set	10
	local.get	9
	local.get	10
	i32.and 
	local.set	11
	local.get	11
	i32.eqz
	br_if   	1                               # 1: down to label21
# %bb.2:                                # %while.body
                                        #   in Loop: Header=BB41_1 Depth=1
	.loc	3 985 31 is_stmt 1              # emscripten/cache/sysroot/include/c++/v1/vector:985:31
	local.get	5
	call	_ZNSt3__26vectorINS_6threadENS_9allocatorIS1_EEE7__allocB8ne190106Ev
	local.set	12
	.loc	3 985 60 is_stmt 0              # emscripten/cache/sysroot/include/c++/v1/vector:985:60
	local.get	4
	i32.load	4
	local.set	13
	i32.const	-4
	local.set	14
	local.get	13
	local.get	14
	i32.add 
	local.set	15
	local.get	4
	local.get	15
	i32.store	4
	.loc	3 985 42                        # emscripten/cache/sysroot/include/c++/v1/vector:985:42
	local.get	15
	call	_ZNSt3__212__to_addressB8ne190106INS_6threadEEEPT_S3_
	local.set	16
	.loc	3 985 7                         # emscripten/cache/sysroot/include/c++/v1/vector:985:7
	local.get	12
	local.get	16
	call	_ZNSt3__216allocator_traitsINS_9allocatorINS_6threadEEEE7destroyB8ne190106IS2_TnNS_9enable_ifIXsr13__has_destroyIS3_PT_EE5valueEiE4typeELi0EEEvRS3_S8_
	.loc	3 984 5 is_stmt 1               # emscripten/cache/sysroot/include/c++/v1/vector:984:5
	br      	0                               # 0: up to label22
.LBB41_3:                               # %while.end
	end_loop
	end_block                               # label21:
	.loc	3 986 20                        # emscripten/cache/sysroot/include/c++/v1/vector:986:20
	local.get	4
	i32.load	8
	local.set	17
	.loc	3 986 18 is_stmt 0              # emscripten/cache/sysroot/include/c++/v1/vector:986:18
	local.get	5
	local.get	17
	i32.store	4
	.loc	3 987 3 is_stmt 1               # emscripten/cache/sysroot/include/c++/v1/vector:987:3
	i32.const	16
	local.set	18
	local.get	4
	local.get	18
	i32.add 
	local.set	19
	local.get	19
	global.set	__stack_pointer
	return
	end_function
.Ltmp127:
.Lfunc_end41:
                                        # -- End function
	.section	.text._ZNSt3__216allocator_traitsINS_9allocatorINS_6threadEEEE7destroyB8ne190106IS2_TnNS_9enable_ifIXsr13__has_destroyIS3_PT_EE5valueEiE4typeELi0EEEvRS3_S8_,"G",@,_ZNSt3__216allocator_traitsINS_9allocatorINS_6threadEEEE7destroyB8ne190106IS2_TnNS_9enable_ifIXsr13__has_destroyIS3_PT_EE5valueEiE4typeELi0EEEvRS3_S8_,comdat
	.hidden	_ZNSt3__216allocator_traitsINS_9allocatorINS_6threadEEEE7destroyB8ne190106IS2_TnNS_9enable_ifIXsr13__has_destroyIS3_PT_EE5valueEiE4typeELi0EEEvRS3_S8_ # -- Begin function _ZNSt3__216allocator_traitsINS_9allocatorINS_6threadEEEE7destroyB8ne190106IS2_TnNS_9enable_ifIXsr13__has_destroyIS3_PT_EE5valueEiE4typeELi0EEEvRS3_S8_
	.weak	_ZNSt3__216allocator_traitsINS_9allocatorINS_6threadEEEE7destroyB8ne190106IS2_TnNS_9enable_ifIXsr13__has_destroyIS3_PT_EE5valueEiE4typeELi0EEEvRS3_S8_
	.type	_ZNSt3__216allocator_traitsINS_9allocatorINS_6threadEEEE7destroyB8ne190106IS2_TnNS_9enable_ifIXsr13__has_destroyIS3_PT_EE5valueEiE4typeELi0EEEvRS3_S8_,@function
_ZNSt3__216allocator_traitsINS_9allocatorINS_6threadEEEE7destroyB8ne190106IS2_TnNS_9enable_ifIXsr13__has_destroyIS3_PT_EE5valueEiE4typeELi0EEEvRS3_S8_: # @_ZNSt3__216allocator_traitsINS_9allocatorINS_6threadEEEE7destroyB8ne190106IS2_TnNS_9enable_ifIXsr13__has_destroyIS3_PT_EE5valueEiE4typeELi0EEEvRS3_S8_
.Lfunc_begin42:
	.loc	15 332 0                        # emscripten/cache/sysroot/include/c++/v1/__memory/allocator_traits.h:332:0
	.functype	_ZNSt3__216allocator_traitsINS_9allocatorINS_6threadEEEE7destroyB8ne190106IS2_TnNS_9enable_ifIXsr13__has_destroyIS3_PT_EE5valueEiE4typeELi0EEEvRS3_S8_ (i32, i32) -> ()
	.local  	i32, i32, i32, i32, i32, i32, i32
# %bb.0:                                # %entry
	global.get	__stack_pointer
	local.set	2
	i32.const	16
	local.set	3
	local.get	2
	local.get	3
	i32.sub 
	local.set	4
	local.get	4
	global.set	__stack_pointer
	local.get	4
	local.get	0
	i32.store	12
	local.get	4
	local.get	1
	i32.store	8
.Ltmp128:
	.loc	15 334 5 prologue_end           # emscripten/cache/sysroot/include/c++/v1/__memory/allocator_traits.h:334:5
	local.get	4
	i32.load	12
	local.set	5
	.loc	15 334 17 is_stmt 0             # emscripten/cache/sysroot/include/c++/v1/__memory/allocator_traits.h:334:17
	local.get	4
	i32.load	8
	local.set	6
	.loc	15 334 9                        # emscripten/cache/sysroot/include/c++/v1/__memory/allocator_traits.h:334:9
	local.get	5
	local.get	6
	call	_ZNSt3__29allocatorINS_6threadEE7destroyB8ne190106EPS1_
	.loc	15 336 3 is_stmt 1              # emscripten/cache/sysroot/include/c++/v1/__memory/allocator_traits.h:336:3
	i32.const	16
	local.set	7
	local.get	4
	local.get	7
	i32.add 
	local.set	8
	local.get	8
	global.set	__stack_pointer
	return
	end_function
.Ltmp129:
.Lfunc_end42:
                                        # -- End function
	.section	.text._ZNSt3__212__to_addressB8ne190106INS_6threadEEEPT_S3_,"G",@,_ZNSt3__212__to_addressB8ne190106INS_6threadEEEPT_S3_,comdat
	.hidden	_ZNSt3__212__to_addressB8ne190106INS_6threadEEEPT_S3_ # -- Begin function _ZNSt3__212__to_addressB8ne190106INS_6threadEEEPT_S3_
	.weak	_ZNSt3__212__to_addressB8ne190106INS_6threadEEEPT_S3_
	.type	_ZNSt3__212__to_addressB8ne190106INS_6threadEEEPT_S3_,@function
_ZNSt3__212__to_addressB8ne190106INS_6threadEEEPT_S3_: # @_ZNSt3__212__to_addressB8ne190106INS_6threadEEEPT_S3_
.Lfunc_begin43:
	.file	44 "/home/kay/Documents/Code/toolchain-wasm" "emscripten/cache/sysroot/include/c++/v1/__memory/pointer_traits.h"
	.loc	44 189 0                        # emscripten/cache/sysroot/include/c++/v1/__memory/pointer_traits.h:189:0
	.functype	_ZNSt3__212__to_addressB8ne190106INS_6threadEEEPT_S3_ (i32) -> (i32)
	.local  	i32, i32, i32, i32
# %bb.0:                                # %entry
	global.get	__stack_pointer
	local.set	1
	i32.const	16
	local.set	2
	local.get	1
	local.get	2
	i32.sub 
	local.set	3
	local.get	3
	local.get	0
	i32.store	12
.Ltmp130:
	.loc	44 191 10 prologue_end          # emscripten/cache/sysroot/include/c++/v1/__memory/pointer_traits.h:191:10
	local.get	3
	i32.load	12
	local.set	4
	.loc	44 191 3 is_stmt 0              # emscripten/cache/sysroot/include/c++/v1/__memory/pointer_traits.h:191:3
	local.get	4
	return
	end_function
.Ltmp131:
.Lfunc_end43:
                                        # -- End function
	.section	.text._ZNSt3__29allocatorINS_6threadEE7destroyB8ne190106EPS1_,"G",@,_ZNSt3__29allocatorINS_6threadEE7destroyB8ne190106EPS1_,comdat
	.hidden	_ZNSt3__29allocatorINS_6threadEE7destroyB8ne190106EPS1_ # -- Begin function _ZNSt3__29allocatorINS_6threadEE7destroyB8ne190106EPS1_
	.weak	_ZNSt3__29allocatorINS_6threadEE7destroyB8ne190106EPS1_
	.type	_ZNSt3__29allocatorINS_6threadEE7destroyB8ne190106EPS1_,@function
_ZNSt3__29allocatorINS_6threadEE7destroyB8ne190106EPS1_: # @_ZNSt3__29allocatorINS_6threadEE7destroyB8ne190106EPS1_
.Lfunc_begin44:
	.loc	14 168 0 is_stmt 1              # emscripten/cache/sysroot/include/c++/v1/__memory/allocator.h:168:0
	.functype	_ZNSt3__29allocatorINS_6threadEE7destroyB8ne190106EPS1_ (i32, i32) -> ()
	.local  	i32, i32, i32, i32, i32, i32
# %bb.0:                                # %entry
	global.get	__stack_pointer
	local.set	2
	i32.const	16
	local.set	3
	local.get	2
	local.get	3
	i32.sub 
	local.set	4
	local.get	4
	global.set	__stack_pointer
	local.get	4
	local.get	0
	i32.store	12
	local.get	4
	local.get	1
	i32.store	8
.Ltmp132:
	.loc	14 168 81 prologue_end          # emscripten/cache/sysroot/include/c++/v1/__memory/allocator.h:168:81
	local.get	4
	i32.load	8
	local.set	5
	.loc	14 168 87 is_stmt 0             # emscripten/cache/sysroot/include/c++/v1/__memory/allocator.h:168:87
	local.get	5
	call	_ZNSt3__26threadD1Ev
	drop
	.loc	14 168 94                       # emscripten/cache/sysroot/include/c++/v1/__memory/allocator.h:168:94
	i32.const	16
	local.set	6
	local.get	4
	local.get	6
	i32.add 
	local.set	7
	local.get	7
	global.set	__stack_pointer
	return
	end_function
.Ltmp133:
.Lfunc_end44:
                                        # -- End function
	.section	.text._ZNSt3__29allocatorINS_6threadEE10deallocateB8ne190106EPS1_m,"G",@,_ZNSt3__29allocatorINS_6threadEE10deallocateB8ne190106EPS1_m,comdat
	.hidden	_ZNSt3__29allocatorINS_6threadEE10deallocateB8ne190106EPS1_m # -- Begin function _ZNSt3__29allocatorINS_6threadEE10deallocateB8ne190106EPS1_m
	.weak	_ZNSt3__29allocatorINS_6threadEE10deallocateB8ne190106EPS1_m
	.type	_ZNSt3__29allocatorINS_6threadEE10deallocateB8ne190106EPS1_m,@function
_ZNSt3__29allocatorINS_6threadEE10deallocateB8ne190106EPS1_m: # @_ZNSt3__29allocatorINS_6threadEE10deallocateB8ne190106EPS1_m
.Lfunc_begin45:
	.loc	14 128 0 is_stmt 1              # emscripten/cache/sysroot/include/c++/v1/__memory/allocator.h:128:0
	.functype	_ZNSt3__29allocatorINS_6threadEE10deallocateB8ne190106EPS1_m (i32, i32, i32) -> ()
	.local  	i32, i32, i32, i32, i32, i32, i32, i32, i32, i32
# %bb.0:                                # %entry
	global.get	__stack_pointer
	local.set	3
	i32.const	16
	local.set	4
	local.get	3
	local.get	4
	i32.sub 
	local.set	5
	local.get	5
	global.set	__stack_pointer
	local.get	5
	local.get	0
	i32.store	12
	local.get	5
	local.get	1
	i32.store	8
	local.get	5
	local.get	2
	i32.store	4
.Ltmp134:
	.loc	14 132 39 prologue_end          # emscripten/cache/sysroot/include/c++/v1/__memory/allocator.h:132:39
	local.get	5
	i32.load	8
	local.set	6
	.loc	14 132 44 is_stmt 0             # emscripten/cache/sysroot/include/c++/v1/__memory/allocator.h:132:44
	local.get	5
	i32.load	4
	local.set	7
	.loc	14 132 48                       # emscripten/cache/sysroot/include/c++/v1/__memory/allocator.h:132:48
	i32.const	2
	local.set	8
	local.get	7
	local.get	8
	i32.shl 
	local.set	9
	.loc	14 132 7                        # emscripten/cache/sysroot/include/c++/v1/__memory/allocator.h:132:7
	i32.const	4
	local.set	10
	local.get	6
	local.get	9
	local.get	10
	call	_ZNSt3__219__libcpp_deallocateB8ne190106EPvmm
.Ltmp135:
	.loc	14 134 3 is_stmt 1              # emscripten/cache/sysroot/include/c++/v1/__memory/allocator.h:134:3
	i32.const	16
	local.set	11
	local.get	5
	local.get	11
	i32.add 
	local.set	12
	local.get	12
	global.set	__stack_pointer
	return
	end_function
.Ltmp136:
.Lfunc_end45:
                                        # -- End function
	.section	.text._ZNSt3__219__libcpp_deallocateB8ne190106EPvmm,"G",@,_ZNSt3__219__libcpp_deallocateB8ne190106EPvmm,comdat
	.hidden	_ZNSt3__219__libcpp_deallocateB8ne190106EPvmm # -- Begin function _ZNSt3__219__libcpp_deallocateB8ne190106EPvmm
	.weak	_ZNSt3__219__libcpp_deallocateB8ne190106EPvmm
	.type	_ZNSt3__219__libcpp_deallocateB8ne190106EPvmm,@function
_ZNSt3__219__libcpp_deallocateB8ne190106EPvmm: # @_ZNSt3__219__libcpp_deallocateB8ne190106EPvmm
.Lfunc_begin46:
	.loc	6 302 0                         # emscripten/cache/sysroot/include/c++/v1/new:302:0
	.functype	_ZNSt3__219__libcpp_deallocateB8ne190106EPvmm (i32, i32, i32) -> ()
	.local  	i32, i32, i32, i32, i32, i32, i32, i32, i32, i32, i32, i32, i32, i32, i32
# %bb.0:                                # %entry
	global.get	__stack_pointer
	local.set	3
	i32.const	16
	local.set	4
	local.get	3
	local.get	4
	i32.sub 
	local.set	5
	local.get	5
	global.set	__stack_pointer
	local.get	5
	local.get	0
	i32.store	12
	local.get	5
	local.get	1
	i32.store	8
	local.get	5
	local.get	2
	i32.store	4
.Ltmp137:
	.loc	6 307 32 prologue_end           # emscripten/cache/sysroot/include/c++/v1/new:307:32
	local.get	5
	i32.load	4
	local.set	6
	.loc	6 307 7 is_stmt 0               # emscripten/cache/sysroot/include/c++/v1/new:307:7
	local.get	6
	call	_ZNSt3__224__is_overaligned_for_newB8ne190106Em
	local.set	7
	i32.const	1
	local.set	8
	local.get	7
	local.get	8
	i32.and 
	local.set	9
	block   	
	block   	
	local.get	9
	i32.eqz
	br_if   	0                               # 0: down to label24
# %bb.1:                                # %if.then
.Ltmp138:
	.loc	6 308 62 is_stmt 1              # emscripten/cache/sysroot/include/c++/v1/new:308:62
	local.get	5
	i32.load	4
	local.set	10
	.loc	6 308 23 is_stmt 0              # emscripten/cache/sysroot/include/c++/v1/new:308:23
	local.get	5
	local.get	10
	i32.store	0
	.loc	6 309 40 is_stmt 1              # emscripten/cache/sysroot/include/c++/v1/new:309:40
	local.get	5
	i32.load	12
	local.set	11
	.loc	6 309 47 is_stmt 0              # emscripten/cache/sysroot/include/c++/v1/new:309:47
	local.get	5
	i32.load	8
	local.set	12
	.loc	6 309 55                        # emscripten/cache/sysroot/include/c++/v1/new:309:55
	local.get	5
	i32.load	0
	local.set	13
	.loc	6 309 12                        # emscripten/cache/sysroot/include/c++/v1/new:309:12
	local.get	11
	local.get	12
	local.get	13
	call	_ZNSt3__227__do_deallocate_handle_sizeB8ne190106IJSt11align_val_tEEEvPvmDpT_
	.loc	6 309 5                         # emscripten/cache/sysroot/include/c++/v1/new:309:5
	br      	1                               # 1: down to label23
.Ltmp139:
.LBB46_2:                               # %if.else
	.loc	6 0 5                           # emscripten/cache/sysroot/include/c++/v1/new:0:5
	end_block                               # label24:
.Ltmp140:
	.loc	6 311 40 is_stmt 1              # emscripten/cache/sysroot/include/c++/v1/new:311:40
	local.get	5
	i32.load	12
	local.set	14
	.loc	6 311 47 is_stmt 0              # emscripten/cache/sysroot/include/c++/v1/new:311:47
	local.get	5
	i32.load	8
	local.set	15
	.loc	6 311 12                        # emscripten/cache/sysroot/include/c++/v1/new:311:12
	local.get	14
	local.get	15
	call	_ZNSt3__227__do_deallocate_handle_sizeB8ne190106IJEEEvPvmDpT_
.Ltmp141:
.LBB46_3:                               # %return
	.loc	6 0 12                          # emscripten/cache/sysroot/include/c++/v1/new:0:12
	end_block                               # label23:
	.loc	6 314 1 is_stmt 1               # emscripten/cache/sysroot/include/c++/v1/new:314:1
	i32.const	16
	local.set	16
	local.get	5
	local.get	16
	i32.add 
	local.set	17
	local.get	17
	global.set	__stack_pointer
	return
	end_function
.Ltmp142:
.Lfunc_end46:
                                        # -- End function
	.section	.text._ZNSt3__224__is_overaligned_for_newB8ne190106Em,"G",@,_ZNSt3__224__is_overaligned_for_newB8ne190106Em,comdat
	.hidden	_ZNSt3__224__is_overaligned_for_newB8ne190106Em # -- Begin function _ZNSt3__224__is_overaligned_for_newB8ne190106Em
	.weak	_ZNSt3__224__is_overaligned_for_newB8ne190106Em
	.type	_ZNSt3__224__is_overaligned_for_newB8ne190106Em,@function
_ZNSt3__224__is_overaligned_for_newB8ne190106Em: # @_ZNSt3__224__is_overaligned_for_newB8ne190106Em
.Lfunc_begin47:
	.loc	6 254 0                         # emscripten/cache/sysroot/include/c++/v1/new:254:0
	.functype	_ZNSt3__224__is_overaligned_for_newB8ne190106Em (i32) -> (i32)
	.local  	i32, i32, i32, i32, i32, i32, i32, i32
# %bb.0:                                # %entry
	global.get	__stack_pointer
	local.set	1
	i32.const	16
	local.set	2
	local.get	1
	local.get	2
	i32.sub 
	local.set	3
	local.get	3
	local.get	0
	i32.store	12
.Ltmp143:
	.loc	6 256 10 prologue_end           # emscripten/cache/sysroot/include/c++/v1/new:256:10
	local.get	3
	i32.load	12
	local.set	4
	.loc	6 256 18 is_stmt 0              # emscripten/cache/sysroot/include/c++/v1/new:256:18
	i32.const	8
	local.set	5
	local.get	4
	local.get	5
	i32.gt_u
	local.set	6
	.loc	6 256 3                         # emscripten/cache/sysroot/include/c++/v1/new:256:3
	i32.const	1
	local.set	7
	local.get	6
	local.get	7
	i32.and 
	local.set	8
	local.get	8
	return
	end_function
.Ltmp144:
.Lfunc_end47:
                                        # -- End function
	.section	.text._ZNSt3__227__do_deallocate_handle_sizeB8ne190106IJSt11align_val_tEEEvPvmDpT_,"G",@,_ZNSt3__227__do_deallocate_handle_sizeB8ne190106IJSt11align_val_tEEEvPvmDpT_,comdat
	.hidden	_ZNSt3__227__do_deallocate_handle_sizeB8ne190106IJSt11align_val_tEEEvPvmDpT_ # -- Begin function _ZNSt3__227__do_deallocate_handle_sizeB8ne190106IJSt11align_val_tEEEvPvmDpT_
	.weak	_ZNSt3__227__do_deallocate_handle_sizeB8ne190106IJSt11align_val_tEEEvPvmDpT_
	.type	_ZNSt3__227__do_deallocate_handle_sizeB8ne190106IJSt11align_val_tEEEvPvmDpT_,@function
_ZNSt3__227__do_deallocate_handle_sizeB8ne190106IJSt11align_val_tEEEvPvmDpT_: # @_ZNSt3__227__do_deallocate_handle_sizeB8ne190106IJSt11align_val_tEEEvPvmDpT_
.Lfunc_begin48:
	.loc	6 293 0 is_stmt 1               # emscripten/cache/sysroot/include/c++/v1/new:293:0
	.functype	_ZNSt3__227__do_deallocate_handle_sizeB8ne190106IJSt11align_val_tEEEvPvmDpT_ (i32, i32, i32) -> ()
	.local  	i32, i32, i32, i32, i32, i32, i32, i32
# %bb.0:                                # %entry
	global.get	__stack_pointer
	local.set	3
	i32.const	16
	local.set	4
	local.get	3
	local.get	4
	i32.sub 
	local.set	5
	local.get	5
	global.set	__stack_pointer
	local.get	5
	local.get	0
	i32.store	12
	local.get	5
	local.get	1
	i32.store	8
	local.get	5
	local.get	2
	i32.store	4
.Ltmp145:
	.loc	6 298 40 prologue_end           # emscripten/cache/sysroot/include/c++/v1/new:298:40
	local.get	5
	i32.load	12
	local.set	6
	.loc	6 298 47 is_stmt 0              # emscripten/cache/sysroot/include/c++/v1/new:298:47
	local.get	5
	i32.load	8
	local.set	7
	.loc	6 298 55                        # emscripten/cache/sysroot/include/c++/v1/new:298:55
	local.get	5
	i32.load	4
	local.set	8
	.loc	6 298 10                        # emscripten/cache/sysroot/include/c++/v1/new:298:10
	local.get	6
	local.get	7
	local.get	8
	call	_ZNSt3__224__libcpp_operator_deleteB8ne190106IJPvmSt11align_val_tEEEvDpT_
	.loc	6 298 3                         # emscripten/cache/sysroot/include/c++/v1/new:298:3
	i32.const	16
	local.set	9
	local.get	5
	local.get	9
	i32.add 
	local.set	10
	local.get	10
	global.set	__stack_pointer
	return
	end_function
.Ltmp146:
.Lfunc_end48:
                                        # -- End function
	.section	.text._ZNSt3__227__do_deallocate_handle_sizeB8ne190106IJEEEvPvmDpT_,"G",@,_ZNSt3__227__do_deallocate_handle_sizeB8ne190106IJEEEvPvmDpT_,comdat
	.hidden	_ZNSt3__227__do_deallocate_handle_sizeB8ne190106IJEEEvPvmDpT_ # -- Begin function _ZNSt3__227__do_deallocate_handle_sizeB8ne190106IJEEEvPvmDpT_
	.weak	_ZNSt3__227__do_deallocate_handle_sizeB8ne190106IJEEEvPvmDpT_
	.type	_ZNSt3__227__do_deallocate_handle_sizeB8ne190106IJEEEvPvmDpT_,@function
_ZNSt3__227__do_deallocate_handle_sizeB8ne190106IJEEEvPvmDpT_: # @_ZNSt3__227__do_deallocate_handle_sizeB8ne190106IJEEEvPvmDpT_
.Lfunc_begin49:
	.loc	6 293 0 is_stmt 1               # emscripten/cache/sysroot/include/c++/v1/new:293:0
	.functype	_ZNSt3__227__do_deallocate_handle_sizeB8ne190106IJEEEvPvmDpT_ (i32, i32) -> ()
	.local  	i32, i32, i32, i32, i32, i32, i32
# %bb.0:                                # %entry
	global.get	__stack_pointer
	local.set	2
	i32.const	16
	local.set	3
	local.get	2
	local.get	3
	i32.sub 
	local.set	4
	local.get	4
	global.set	__stack_pointer
	local.get	4
	local.get	0
	i32.store	12
	local.get	4
	local.get	1
	i32.store	8
.Ltmp147:
	.loc	6 298 40 prologue_end           # emscripten/cache/sysroot/include/c++/v1/new:298:40
	local.get	4
	i32.load	12
	local.set	5
	.loc	6 298 47 is_stmt 0              # emscripten/cache/sysroot/include/c++/v1/new:298:47
	local.get	4
	i32.load	8
	local.set	6
	.loc	6 298 10                        # emscripten/cache/sysroot/include/c++/v1/new:298:10
	local.get	5
	local.get	6
	call	_ZNSt3__224__libcpp_operator_deleteB8ne190106IJPvmEEEvDpT_
	.loc	6 298 3                         # emscripten/cache/sysroot/include/c++/v1/new:298:3
	i32.const	16
	local.set	7
	local.get	4
	local.get	7
	i32.add 
	local.set	8
	local.get	8
	global.set	__stack_pointer
	return
	end_function
.Ltmp148:
.Lfunc_end49:
                                        # -- End function
	.section	.text._ZNSt3__224__libcpp_operator_deleteB8ne190106IJPvmSt11align_val_tEEEvDpT_,"G",@,_ZNSt3__224__libcpp_operator_deleteB8ne190106IJPvmSt11align_val_tEEEvDpT_,comdat
	.hidden	_ZNSt3__224__libcpp_operator_deleteB8ne190106IJPvmSt11align_val_tEEEvDpT_ # -- Begin function _ZNSt3__224__libcpp_operator_deleteB8ne190106IJPvmSt11align_val_tEEEvDpT_
	.weak	_ZNSt3__224__libcpp_operator_deleteB8ne190106IJPvmSt11align_val_tEEEvDpT_
	.type	_ZNSt3__224__libcpp_operator_deleteB8ne190106IJPvmSt11align_val_tEEEvDpT_,@function
_ZNSt3__224__libcpp_operator_deleteB8ne190106IJPvmSt11align_val_tEEEvDpT_: # @_ZNSt3__224__libcpp_operator_deleteB8ne190106IJPvmSt11align_val_tEEEvDpT_
.Lfunc_begin50:
	.loc	6 272 0 is_stmt 1               # emscripten/cache/sysroot/include/c++/v1/new:272:0
	.functype	_ZNSt3__224__libcpp_operator_deleteB8ne190106IJPvmSt11align_val_tEEEvDpT_ (i32, i32, i32) -> ()
	.local  	i32, i32, i32, i32, i32, i32, i32, i32
# %bb.0:                                # %entry
	global.get	__stack_pointer
	local.set	3
	i32.const	16
	local.set	4
	local.get	3
	local.get	4
	i32.sub 
	local.set	5
	local.get	5
	global.set	__stack_pointer
	local.get	5
	local.get	0
	i32.store	12
	local.get	5
	local.get	1
	i32.store	8
	local.get	5
	local.get	2
	i32.store	4
.Ltmp149:
	.loc	6 274 29 prologue_end           # emscripten/cache/sysroot/include/c++/v1/new:274:29
	local.get	5
	i32.load	12
	local.set	6
	local.get	5
	i32.load	8
	local.set	7
	local.get	5
	i32.load	4
	local.set	8
	.loc	6 274 3 is_stmt 0               # emscripten/cache/sysroot/include/c++/v1/new:274:3
	local.get	6
	local.get	7
	local.get	8
	call	_ZdlPvmSt11align_val_t
	.loc	6 278 1 is_stmt 1               # emscripten/cache/sysroot/include/c++/v1/new:278:1
	i32.const	16
	local.set	9
	local.get	5
	local.get	9
	i32.add 
	local.set	10
	local.get	10
	global.set	__stack_pointer
	return
	end_function
.Ltmp150:
.Lfunc_end50:
                                        # -- End function
	.section	.text._ZNSt3__224__libcpp_operator_deleteB8ne190106IJPvmEEEvDpT_,"G",@,_ZNSt3__224__libcpp_operator_deleteB8ne190106IJPvmEEEvDpT_,comdat
	.hidden	_ZNSt3__224__libcpp_operator_deleteB8ne190106IJPvmEEEvDpT_ # -- Begin function _ZNSt3__224__libcpp_operator_deleteB8ne190106IJPvmEEEvDpT_
	.weak	_ZNSt3__224__libcpp_operator_deleteB8ne190106IJPvmEEEvDpT_
	.type	_ZNSt3__224__libcpp_operator_deleteB8ne190106IJPvmEEEvDpT_,@function
_ZNSt3__224__libcpp_operator_deleteB8ne190106IJPvmEEEvDpT_: # @_ZNSt3__224__libcpp_operator_deleteB8ne190106IJPvmEEEvDpT_
.Lfunc_begin51:
	.loc	6 272 0                         # emscripten/cache/sysroot/include/c++/v1/new:272:0
	.functype	_ZNSt3__224__libcpp_operator_deleteB8ne190106IJPvmEEEvDpT_ (i32, i32) -> ()
	.local  	i32, i32, i32, i32, i32, i32, i32
# %bb.0:                                # %entry
	global.get	__stack_pointer
	local.set	2
	i32.const	16
	local.set	3
	local.get	2
	local.get	3
	i32.sub 
	local.set	4
	local.get	4
	global.set	__stack_pointer
	local.get	4
	local.get	0
	i32.store	12
	local.get	4
	local.get	1
	i32.store	8
.Ltmp151:
	.loc	6 274 29 prologue_end           # emscripten/cache/sysroot/include/c++/v1/new:274:29
	local.get	4
	i32.load	12
	local.set	5
	local.get	4
	i32.load	8
	local.set	6
	.loc	6 274 3 is_stmt 0               # emscripten/cache/sysroot/include/c++/v1/new:274:3
	local.get	5
	local.get	6
	call	_ZdlPvm
	.loc	6 278 1 is_stmt 1               # emscripten/cache/sysroot/include/c++/v1/new:278:1
	i32.const	16
	local.set	7
	local.get	4
	local.get	7
	i32.add 
	local.set	8
	local.get	8
	global.set	__stack_pointer
	return
	end_function
.Ltmp152:
.Lfunc_end51:
                                        # -- End function
	.section	.text._ZNSt3__217__compressed_pairIPNS_6threadENS_9allocatorIS1_EEE6secondB8ne190106Ev,"G",@,_ZNSt3__217__compressed_pairIPNS_6threadENS_9allocatorIS1_EEE6secondB8ne190106Ev,comdat
	.hidden	_ZNSt3__217__compressed_pairIPNS_6threadENS_9allocatorIS1_EEE6secondB8ne190106Ev # -- Begin function _ZNSt3__217__compressed_pairIPNS_6threadENS_9allocatorIS1_EEE6secondB8ne190106Ev
	.weak	_ZNSt3__217__compressed_pairIPNS_6threadENS_9allocatorIS1_EEE6secondB8ne190106Ev
	.type	_ZNSt3__217__compressed_pairIPNS_6threadENS_9allocatorIS1_EEE6secondB8ne190106Ev,@function
_ZNSt3__217__compressed_pairIPNS_6threadENS_9allocatorIS1_EEE6secondB8ne190106Ev: # @_ZNSt3__217__compressed_pairIPNS_6threadENS_9allocatorIS1_EEE6secondB8ne190106Ev
.Lfunc_begin52:
	.loc	16 137 0                        # emscripten/cache/sysroot/include/c++/v1/__memory/compressed_pair.h:137:0
	.functype	_ZNSt3__217__compressed_pairIPNS_6threadENS_9allocatorIS1_EEE6secondB8ne190106Ev (i32) -> (i32)
	.local  	i32, i32, i32, i32, i32, i32, i32
# %bb.0:                                # %entry
	global.get	__stack_pointer
	local.set	1
	i32.const	16
	local.set	2
	local.get	1
	local.get	2
	i32.sub 
	local.set	3
	local.get	3
	global.set	__stack_pointer
	local.get	3
	local.get	0
	i32.store	12
	local.get	3
	i32.load	12
	local.set	4
.Ltmp153:
	.loc	16 138 40 prologue_end          # emscripten/cache/sysroot/include/c++/v1/__memory/compressed_pair.h:138:40
	local.get	4
	call	_ZNSt3__222__compressed_pair_elemINS_9allocatorINS_6threadEEELi1ELb1EE5__getB8ne190106Ev
	local.set	5
	.loc	16 138 5 is_stmt 0              # emscripten/cache/sysroot/include/c++/v1/__memory/compressed_pair.h:138:5
	i32.const	16
	local.set	6
	local.get	3
	local.get	6
	i32.add 
	local.set	7
	local.get	7
	global.set	__stack_pointer
	local.get	5
	return
	end_function
.Ltmp154:
.Lfunc_end52:
                                        # -- End function
	.section	.text._ZNSt3__222__compressed_pair_elemINS_9allocatorINS_6threadEEELi1ELb1EE5__getB8ne190106Ev,"G",@,_ZNSt3__222__compressed_pair_elemINS_9allocatorINS_6threadEEELi1ELb1EE5__getB8ne190106Ev,comdat
	.hidden	_ZNSt3__222__compressed_pair_elemINS_9allocatorINS_6threadEEELi1ELb1EE5__getB8ne190106Ev # -- Begin function _ZNSt3__222__compressed_pair_elemINS_9allocatorINS_6threadEEELi1ELb1EE5__getB8ne190106Ev
	.weak	_ZNSt3__222__compressed_pair_elemINS_9allocatorINS_6threadEEELi1ELb1EE5__getB8ne190106Ev
	.type	_ZNSt3__222__compressed_pair_elemINS_9allocatorINS_6threadEEELi1ELb1EE5__getB8ne190106Ev,@function
_ZNSt3__222__compressed_pair_elemINS_9allocatorINS_6threadEEELi1ELb1EE5__getB8ne190106Ev: # @_ZNSt3__222__compressed_pair_elemINS_9allocatorINS_6threadEEELi1ELb1EE5__getB8ne190106Ev
.Lfunc_begin53:
	.loc	16 91 0 is_stmt 1               # emscripten/cache/sysroot/include/c++/v1/__memory/compressed_pair.h:91:0
	.functype	_ZNSt3__222__compressed_pair_elemINS_9allocatorINS_6threadEEELi1ELb1EE5__getB8ne190106Ev (i32) -> (i32)
	.local  	i32, i32, i32, i32
# %bb.0:                                # %entry
	global.get	__stack_pointer
	local.set	1
	i32.const	16
	local.set	2
	local.get	1
	local.get	2
	i32.sub 
	local.set	3
	local.get	3
	local.get	0
	i32.store	12
	local.get	3
	i32.load	12
	local.set	4
.Ltmp155:
	.loc	16 91 85 prologue_end           # emscripten/cache/sysroot/include/c++/v1/__memory/compressed_pair.h:91:85
	local.get	4
	return
	end_function
.Ltmp156:
.Lfunc_end53:
                                        # -- End function
	.section	.text._ZNKSt3__26vectorINS_6threadENS_9allocatorIS1_EEE9__end_capB8ne190106Ev,"G",@,_ZNKSt3__26vectorINS_6threadENS_9allocatorIS1_EEE9__end_capB8ne190106Ev,comdat
	.hidden	_ZNKSt3__26vectorINS_6threadENS_9allocatorIS1_EEE9__end_capB8ne190106Ev # -- Begin function _ZNKSt3__26vectorINS_6threadENS_9allocatorIS1_EEE9__end_capB8ne190106Ev
	.weak	_ZNKSt3__26vectorINS_6threadENS_9allocatorIS1_EEE9__end_capB8ne190106Ev
	.type	_ZNKSt3__26vectorINS_6threadENS_9allocatorIS1_EEE9__end_capB8ne190106Ev,@function
_ZNKSt3__26vectorINS_6threadENS_9allocatorIS1_EEE9__end_capB8ne190106Ev: # @_ZNKSt3__26vectorINS_6threadENS_9allocatorIS1_EEE9__end_capB8ne190106Ev
.Lfunc_begin54:
	.loc	3 974 0                         # emscripten/cache/sysroot/include/c++/v1/vector:974:0
	.functype	_ZNKSt3__26vectorINS_6threadENS_9allocatorIS1_EEE9__end_capB8ne190106Ev (i32) -> (i32)
	.local  	i32, i32, i32, i32, i32, i32, i32, i32, i32
# %bb.0:                                # %entry
	global.get	__stack_pointer
	local.set	1
	i32.const	16
	local.set	2
	local.get	1
	local.get	2
	i32.sub 
	local.set	3
	local.get	3
	global.set	__stack_pointer
	local.get	3
	local.get	0
	i32.store	12
	local.get	3
	i32.load	12
	local.set	4
.Ltmp157:
	.loc	3 975 18 prologue_end           # emscripten/cache/sysroot/include/c++/v1/vector:975:18
	i32.const	8
	local.set	5
	local.get	4
	local.get	5
	i32.add 
	local.set	6
	.loc	3 975 29 is_stmt 0              # emscripten/cache/sysroot/include/c++/v1/vector:975:29
	local.get	6
	call	_ZNKSt3__217__compressed_pairIPNS_6threadENS_9allocatorIS1_EEE5firstB8ne190106Ev
	local.set	7
	.loc	3 975 5                         # emscripten/cache/sysroot/include/c++/v1/vector:975:5
	i32.const	16
	local.set	8
	local.get	3
	local.get	8
	i32.add 
	local.set	9
	local.get	9
	global.set	__stack_pointer
	local.get	7
	return
	end_function
.Ltmp158:
.Lfunc_end54:
                                        # -- End function
	.section	.text._ZNKSt3__217__compressed_pairIPNS_6threadENS_9allocatorIS1_EEE5firstB8ne190106Ev,"G",@,_ZNKSt3__217__compressed_pairIPNS_6threadENS_9allocatorIS1_EEE5firstB8ne190106Ev,comdat
	.hidden	_ZNKSt3__217__compressed_pairIPNS_6threadENS_9allocatorIS1_EEE5firstB8ne190106Ev # -- Begin function _ZNKSt3__217__compressed_pairIPNS_6threadENS_9allocatorIS1_EEE5firstB8ne190106Ev
	.weak	_ZNKSt3__217__compressed_pairIPNS_6threadENS_9allocatorIS1_EEE5firstB8ne190106Ev
	.type	_ZNKSt3__217__compressed_pairIPNS_6threadENS_9allocatorIS1_EEE5firstB8ne190106Ev,@function
_ZNKSt3__217__compressed_pairIPNS_6threadENS_9allocatorIS1_EEE5firstB8ne190106Ev: # @_ZNKSt3__217__compressed_pairIPNS_6threadENS_9allocatorIS1_EEE5firstB8ne190106Ev
.Lfunc_begin55:
	.loc	16 133 0 is_stmt 1              # emscripten/cache/sysroot/include/c++/v1/__memory/compressed_pair.h:133:0
	.functype	_ZNKSt3__217__compressed_pairIPNS_6threadENS_9allocatorIS1_EEE5firstB8ne190106Ev (i32) -> (i32)
	.local  	i32, i32, i32, i32, i32, i32, i32
# %bb.0:                                # %entry
	global.get	__stack_pointer
	local.set	1
	i32.const	16
	local.set	2
	local.get	1
	local.get	2
	i32.sub 
	local.set	3
	local.get	3
	global.set	__stack_pointer
	local.get	3
	local.get	0
	i32.store	12
	local.get	3
	i32.load	12
	local.set	4
.Ltmp159:
	.loc	16 134 46 prologue_end          # emscripten/cache/sysroot/include/c++/v1/__memory/compressed_pair.h:134:46
	local.get	4
	call	_ZNKSt3__222__compressed_pair_elemIPNS_6threadELi0ELb0EE5__getB8ne190106Ev
	local.set	5
	.loc	16 134 5 is_stmt 0              # emscripten/cache/sysroot/include/c++/v1/__memory/compressed_pair.h:134:5
	i32.const	16
	local.set	6
	local.get	3
	local.get	6
	i32.add 
	local.set	7
	local.get	7
	global.set	__stack_pointer
	local.get	5
	return
	end_function
.Ltmp160:
.Lfunc_end55:
                                        # -- End function
	.section	.text._ZNKSt3__222__compressed_pair_elemIPNS_6threadELi0ELb0EE5__getB8ne190106Ev,"G",@,_ZNKSt3__222__compressed_pair_elemIPNS_6threadELi0ELb0EE5__getB8ne190106Ev,comdat
	.hidden	_ZNKSt3__222__compressed_pair_elemIPNS_6threadELi0ELb0EE5__getB8ne190106Ev # -- Begin function _ZNKSt3__222__compressed_pair_elemIPNS_6threadELi0ELb0EE5__getB8ne190106Ev
	.weak	_ZNKSt3__222__compressed_pair_elemIPNS_6threadELi0ELb0EE5__getB8ne190106Ev
	.type	_ZNKSt3__222__compressed_pair_elemIPNS_6threadELi0ELb0EE5__getB8ne190106Ev,@function
_ZNKSt3__222__compressed_pair_elemIPNS_6threadELi0ELb0EE5__getB8ne190106Ev: # @_ZNKSt3__222__compressed_pair_elemIPNS_6threadELi0ELb0EE5__getB8ne190106Ev
.Lfunc_begin56:
	.loc	16 63 0 is_stmt 1               # emscripten/cache/sysroot/include/c++/v1/__memory/compressed_pair.h:63:0
	.functype	_ZNKSt3__222__compressed_pair_elemIPNS_6threadELi0ELb0EE5__getB8ne190106Ev (i32) -> (i32)
	.local  	i32, i32, i32, i32
# %bb.0:                                # %entry
	global.get	__stack_pointer
	local.set	1
	i32.const	16
	local.set	2
	local.get	1
	local.get	2
	i32.sub 
	local.set	3
	local.get	3
	local.get	0
	i32.store	12
	local.get	3
	i32.load	12
	local.set	4
.Ltmp161:
	.loc	16 63 85 prologue_end           # emscripten/cache/sysroot/include/c++/v1/__memory/compressed_pair.h:63:85
	local.get	4
	return
	end_function
.Ltmp162:
.Lfunc_end56:
                                        # -- End function
	.section	.text._ZNSt3__217reference_wrapperINS_6atomicIiEEEC2B8ne190106IRS2_vTnNS_9enable_ifIXntsr17__is_same_uncvrefIT_S3_EE5valueEiE4typeELi0EEEOS7_,"G",@,_ZNSt3__217reference_wrapperINS_6atomicIiEEEC2B8ne190106IRS2_vTnNS_9enable_ifIXntsr17__is_same_uncvrefIT_S3_EE5valueEiE4typeELi0EEEOS7_,comdat
	.hidden	_ZNSt3__217reference_wrapperINS_6atomicIiEEEC2B8ne190106IRS2_vTnNS_9enable_ifIXntsr17__is_same_uncvrefIT_S3_EE5valueEiE4typeELi0EEEOS7_ # -- Begin function _ZNSt3__217reference_wrapperINS_6atomicIiEEEC2B8ne190106IRS2_vTnNS_9enable_ifIXntsr17__is_same_uncvrefIT_S3_EE5valueEiE4typeELi0EEEOS7_
	.weak	_ZNSt3__217reference_wrapperINS_6atomicIiEEEC2B8ne190106IRS2_vTnNS_9enable_ifIXntsr17__is_same_uncvrefIT_S3_EE5valueEiE4typeELi0EEEOS7_
	.type	_ZNSt3__217reference_wrapperINS_6atomicIiEEEC2B8ne190106IRS2_vTnNS_9enable_ifIXntsr17__is_same_uncvrefIT_S3_EE5valueEiE4typeELi0EEEOS7_,@function
_ZNSt3__217reference_wrapperINS_6atomicIiEEEC2B8ne190106IRS2_vTnNS_9enable_ifIXntsr17__is_same_uncvrefIT_S3_EE5valueEiE4typeELi0EEEOS7_: # @_ZNSt3__217reference_wrapperINS_6atomicIiEEEC2B8ne190106IRS2_vTnNS_9enable_ifIXntsr17__is_same_uncvrefIT_S3_EE5valueEiE4typeELi0EEEOS7_
.Lfunc_begin57:
	.loc	28 49 0                         # emscripten/cache/sysroot/include/c++/v1/__functional/reference_wrapper.h:49:0
	.functype	_ZNSt3__217reference_wrapperINS_6atomicIiEEEC2B8ne190106IRS2_vTnNS_9enable_ifIXntsr17__is_same_uncvrefIT_S3_EE5valueEiE4typeELi0EEEOS7_ (i32, i32) -> (i32)
	.local  	i32, i32, i32, i32, i32, i32
# %bb.0:                                # %entry
	global.get	__stack_pointer
	local.set	2
	i32.const	16
	local.set	3
	local.get	2
	local.get	3
	i32.sub 
	local.set	4
	local.get	4
	local.get	0
	i32.store	12
	local.get	4
	local.get	1
	i32.store	8
	local.get	4
	i32.load	12
	local.set	5
.Ltmp163:
	.loc	28 50 36 prologue_end           # emscripten/cache/sysroot/include/c++/v1/__functional/reference_wrapper.h:50:36
	local.get	4
	i32.load	8
	local.set	6
	.loc	28 50 11 is_stmt 0              # emscripten/cache/sysroot/include/c++/v1/__functional/reference_wrapper.h:50:11
	local.get	4
	local.get	6
	i32.store	4
	.loc	28 51 32 is_stmt 1              # emscripten/cache/sysroot/include/c++/v1/__functional/reference_wrapper.h:51:32
	local.get	4
	i32.load	4
	local.set	7
	.loc	28 51 15 is_stmt 0              # emscripten/cache/sysroot/include/c++/v1/__functional/reference_wrapper.h:51:15
	local.get	5
	local.get	7
	i32.store	0
.Ltmp164:
	.loc	28 52 3 is_stmt 1               # emscripten/cache/sysroot/include/c++/v1/__functional/reference_wrapper.h:52:3
	local.get	5
	return
	end_function
.Ltmp165:
.Lfunc_end57:
                                        # -- End function
	.section	.text._ZNSt3__210unique_ptrINS_15__thread_structENS_14default_deleteIS1_EEEC2B8ne190106ILb1EvEEPS1_,"G",@,_ZNSt3__210unique_ptrINS_15__thread_structENS_14default_deleteIS1_EEEC2B8ne190106ILb1EvEEPS1_,comdat
	.hidden	_ZNSt3__210unique_ptrINS_15__thread_structENS_14default_deleteIS1_EEEC2B8ne190106ILb1EvEEPS1_ # -- Begin function _ZNSt3__210unique_ptrINS_15__thread_structENS_14default_deleteIS1_EEEC2B8ne190106ILb1EvEEPS1_
	.weak	_ZNSt3__210unique_ptrINS_15__thread_structENS_14default_deleteIS1_EEEC2B8ne190106ILb1EvEEPS1_
	.type	_ZNSt3__210unique_ptrINS_15__thread_structENS_14default_deleteIS1_EEEC2B8ne190106ILb1EvEEPS1_,@function
_ZNSt3__210unique_ptrINS_15__thread_structENS_14default_deleteIS1_EEEC2B8ne190106ILb1EvEEPS1_: # @_ZNSt3__210unique_ptrINS_15__thread_structENS_14default_deleteIS1_EEEC2B8ne190106ILb1EvEEPS1_
.Lfunc_begin58:
	.loc	29 200 0                        # emscripten/cache/sysroot/include/c++/v1/__memory/unique_ptr.h:200:0
	.functype	_ZNSt3__210unique_ptrINS_15__thread_structENS_14default_deleteIS1_EEEC2B8ne190106ILb1EvEEPS1_ (i32, i32) -> (i32)
	.local  	i32, i32, i32, i32, i32, i32, i32, i32, i32, i32, i32, i32
# %bb.0:                                # %entry
	global.get	__stack_pointer
	local.set	2
	i32.const	16
	local.set	3
	local.get	2
	local.get	3
	i32.sub 
	local.set	4
	local.get	4
	global.set	__stack_pointer
	local.get	4
	local.get	0
	i32.store	12
	local.get	4
	local.get	1
	i32.store	8
	local.get	4
	i32.load	12
	local.set	5
.Ltmp166:
	.loc	29 200 78 prologue_end          # emscripten/cache/sysroot/include/c++/v1/__memory/unique_ptr.h:200:78
	i32.const	8
	local.set	6
	local.get	4
	local.get	6
	i32.add 
	local.set	7
	local.get	7
	local.set	8
	i32.const	7
	local.set	9
	local.get	4
	local.get	9
	i32.add 
	local.set	10
	local.get	10
	local.set	11
	local.get	5
	local.get	8
	local.get	11
	call	_ZNSt3__217__compressed_pairIPNS_15__thread_structENS_14default_deleteIS1_EEEC2B8ne190106IRS2_NS_16__value_init_tagEEEOT_OT0_
	drop
	.loc	29 200 111 is_stmt 0            # emscripten/cache/sysroot/include/c++/v1/__memory/unique_ptr.h:200:111
	i32.const	16
	local.set	12
	local.get	4
	local.get	12
	i32.add 
	local.set	13
	local.get	13
	global.set	__stack_pointer
	local.get	5
	return
	end_function
.Ltmp167:
.Lfunc_end58:
                                        # -- End function
	.section	.text._ZNSt3__25tupleIJNS_10unique_ptrINS_15__thread_structENS_14default_deleteIS2_EEEEPFvRNS_6atomicIiEEiiENS_17reference_wrapperIS7_EEiiEEC2B8ne190106IJS5_RS9_SC_RiSG_ETnNS_9enable_ifIXsr4_AndINS_17integral_constantIbXeqsZT_sZT_EEENSD_17_EnableUTypesCtorIJDpT_EEEEE5valueEiE4typeELi0EEEDpOSL_,"G",@,_ZNSt3__25tupleIJNS_10unique_ptrINS_15__thread_structENS_14default_deleteIS2_EEEEPFvRNS_6atomicIiEEiiENS_17reference_wrapperIS7_EEiiEEC2B8ne190106IJS5_RS9_SC_RiSG_ETnNS_9enable_ifIXsr4_AndINS_17integral_constantIbXeqsZT_sZT_EEENSD_17_EnableUTypesCtorIJDpT_EEEEE5valueEiE4typeELi0EEEDpOSL_,comdat
	.hidden	_ZNSt3__25tupleIJNS_10unique_ptrINS_15__thread_structENS_14default_deleteIS2_EEEEPFvRNS_6atomicIiEEiiENS_17reference_wrapperIS7_EEiiEEC2B8ne190106IJS5_RS9_SC_RiSG_ETnNS_9enable_ifIXsr4_AndINS_17integral_constantIbXeqsZT_sZT_EEENSD_17_EnableUTypesCtorIJDpT_EEEEE5valueEiE4typeELi0EEEDpOSL_ # -- Begin function _ZNSt3__25tupleIJNS_10unique_ptrINS_15__thread_structENS_14default_deleteIS2_EEEEPFvRNS_6atomicIiEEiiENS_17reference_wrapperIS7_EEiiEEC2B8ne190106IJS5_RS9_SC_RiSG_ETnNS_9enable_ifIXsr4_AndINS_17integral_constantIbXeqsZT_sZT_EEENSD_17_EnableUTypesCtorIJDpT_EEEEE5valueEiE4typeELi0EEEDpOSL_
	.weak	_ZNSt3__25tupleIJNS_10unique_ptrINS_15__thread_structENS_14default_deleteIS2_EEEEPFvRNS_6atomicIiEEiiENS_17reference_wrapperIS7_EEiiEEC2B8ne190106IJS5_RS9_SC_RiSG_ETnNS_9enable_ifIXsr4_AndINS_17integral_constantIbXeqsZT_sZT_EEENSD_17_EnableUTypesCtorIJDpT_EEEEE5valueEiE4typeELi0EEEDpOSL_
	.type	_ZNSt3__25tupleIJNS_10unique_ptrINS_15__thread_structENS_14default_deleteIS2_EEEEPFvRNS_6atomicIiEEiiENS_17reference_wrapperIS7_EEiiEEC2B8ne190106IJS5_RS9_SC_RiSG_ETnNS_9enable_ifIXsr4_AndINS_17integral_constantIbXeqsZT_sZT_EEENSD_17_EnableUTypesCtorIJDpT_EEEEE5valueEiE4typeELi0EEEDpOSL_,@function
_ZNSt3__25tupleIJNS_10unique_ptrINS_15__thread_structENS_14default_deleteIS2_EEEEPFvRNS_6atomicIiEEiiENS_17reference_wrapperIS7_EEiiEEC2B8ne190106IJS5_RS9_SC_RiSG_ETnNS_9enable_ifIXsr4_AndINS_17integral_constantIbXeqsZT_sZT_EEENSD_17_EnableUTypesCtorIJDpT_EEEEE5valueEiE4typeELi0EEEDpOSL_: # @_ZNSt3__25tupleIJNS_10unique_ptrINS_15__thread_structENS_14default_deleteIS2_EEEEPFvRNS_6atomicIiEEiiENS_17reference_wrapperIS7_EEiiEEC2B8ne190106IJS5_RS9_SC_RiSG_ETnNS_9enable_ifIXsr4_AndINS_17integral_constantIbXeqsZT_sZT_EEENSD_17_EnableUTypesCtorIJDpT_EEEEE5valueEiE4typeELi0EEEDpOSL_
.Lfunc_begin59:
	.loc	33 620 0 is_stmt 1              # emscripten/cache/sysroot/include/c++/v1/tuple:620:0
	.functype	_ZNSt3__25tupleIJNS_10unique_ptrINS_15__thread_structENS_14default_deleteIS2_EEEEPFvRNS_6atomicIiEEiiENS_17reference_wrapperIS7_EEiiEEC2B8ne190106IJS5_RS9_SC_RiSG_ETnNS_9enable_ifIXsr4_AndINS_17integral_constantIbXeqsZT_sZT_EEENSD_17_EnableUTypesCtorIJDpT_EEEEE5valueEiE4typeELi0EEEDpOSL_ (i32, i32, i32, i32, i32, i32) -> (i32)
	.local  	i32, i32, i32, i32, i32, i32, i32, i32, i32, i32, i32
# %bb.0:                                # %entry
	global.get	__stack_pointer
	local.set	6
	i32.const	32
	local.set	7
	local.get	6
	local.get	7
	i32.sub 
	local.set	8
	local.get	8
	global.set	__stack_pointer
	local.get	8
	local.get	0
	i32.store	28
	local.get	8
	local.get	1
	i32.store	24
	local.get	8
	local.get	2
	i32.store	20
	local.get	8
	local.get	3
	i32.store	16
	local.get	8
	local.get	4
	i32.store	12
	local.get	8
	local.get	5
	i32.store	8
	local.get	8
	i32.load	28
	local.set	9
.Ltmp168:
	.loc	33 620 35 prologue_end          # emscripten/cache/sysroot/include/c++/v1/tuple:620:35
	local.get	8
	i32.load	24
	local.set	10
	local.get	8
	i32.load	20
	local.set	11
	local.get	8
	i32.load	16
	local.set	12
	local.get	8
	i32.load	12
	local.set	13
	local.get	8
	i32.load	8
	local.set	14
	.loc	33 616 9                        # emscripten/cache/sysroot/include/c++/v1/tuple:616:9
	local.get	9
	local.get	10
	local.get	11
	local.get	12
	local.get	13
	local.get	14
	call	_ZNSt3__212__tuple_implINS_15__tuple_indicesIJLm0ELm1ELm2ELm3ELm4EEEEJNS_10unique_ptrINS_15__thread_structENS_14default_deleteIS4_EEEEPFvRNS_6atomicIiEEiiENS_17reference_wrapperIS9_EEiiEEC2B8ne190106IJLm0ELm1ELm2ELm3ELm4EEJS7_SC_SE_iiETpTnmJEJEJS7_RSB_SE_RiSI_EEENS1_IJXspT_EEEENS_13__tuple_typesIJDpT0_EEENS1_IJXspT1_EEEENSK_IJDpT2_EEEDpOT3_
	drop
	.loc	33 620 45                       # emscripten/cache/sysroot/include/c++/v1/tuple:620:45
	i32.const	32
	local.set	15
	local.get	8
	local.get	15
	i32.add 
	local.set	16
	local.get	16
	global.set	__stack_pointer
	local.get	9
	return
	end_function
.Ltmp169:
.Lfunc_end59:
                                        # -- End function
	.section	.text._ZNSt3__210unique_ptrINS_5tupleIJNS0_INS_15__thread_structENS_14default_deleteIS2_EEEEPFvRNS_6atomicIiEEiiENS_17reference_wrapperIS7_EEiiEEENS3_ISD_EEEC2B8ne190106ILb1EvEEPSD_,"G",@,_ZNSt3__210unique_ptrINS_5tupleIJNS0_INS_15__thread_structENS_14default_deleteIS2_EEEEPFvRNS_6atomicIiEEiiENS_17reference_wrapperIS7_EEiiEEENS3_ISD_EEEC2B8ne190106ILb1EvEEPSD_,comdat
	.hidden	_ZNSt3__210unique_ptrINS_5tupleIJNS0_INS_15__thread_structENS_14default_deleteIS2_EEEEPFvRNS_6atomicIiEEiiENS_17reference_wrapperIS7_EEiiEEENS3_ISD_EEEC2B8ne190106ILb1EvEEPSD_ # -- Begin function _ZNSt3__210unique_ptrINS_5tupleIJNS0_INS_15__thread_structENS_14default_deleteIS2_EEEEPFvRNS_6atomicIiEEiiENS_17reference_wrapperIS7_EEiiEEENS3_ISD_EEEC2B8ne190106ILb1EvEEPSD_
	.weak	_ZNSt3__210unique_ptrINS_5tupleIJNS0_INS_15__thread_structENS_14default_deleteIS2_EEEEPFvRNS_6atomicIiEEiiENS_17reference_wrapperIS7_EEiiEEENS3_ISD_EEEC2B8ne190106ILb1EvEEPSD_
	.type	_ZNSt3__210unique_ptrINS_5tupleIJNS0_INS_15__thread_structENS_14default_deleteIS2_EEEEPFvRNS_6atomicIiEEiiENS_17reference_wrapperIS7_EEiiEEENS3_ISD_EEEC2B8ne190106ILb1EvEEPSD_,@function
_ZNSt3__210unique_ptrINS_5tupleIJNS0_INS_15__thread_structENS_14default_deleteIS2_EEEEPFvRNS_6atomicIiEEiiENS_17reference_wrapperIS7_EEiiEEENS3_ISD_EEEC2B8ne190106ILb1EvEEPSD_: # @_ZNSt3__210unique_ptrINS_5tupleIJNS0_INS_15__thread_structENS_14default_deleteIS2_EEEEPFvRNS_6atomicIiEEiiENS_17reference_wrapperIS7_EEiiEEENS3_ISD_EEEC2B8ne190106ILb1EvEEPSD_
.Lfunc_begin60:
	.loc	29 200 0                        # emscripten/cache/sysroot/include/c++/v1/__memory/unique_ptr.h:200:0
	.functype	_ZNSt3__210unique_ptrINS_5tupleIJNS0_INS_15__thread_structENS_14default_deleteIS2_EEEEPFvRNS_6atomicIiEEiiENS_17reference_wrapperIS7_EEiiEEENS3_ISD_EEEC2B8ne190106ILb1EvEEPSD_ (i32, i32) -> (i32)
	.local  	i32, i32, i32, i32, i32, i32, i32, i32, i32, i32, i32, i32
# %bb.0:                                # %entry
	global.get	__stack_pointer
	local.set	2
	i32.const	16
	local.set	3
	local.get	2
	local.get	3
	i32.sub 
	local.set	4
	local.get	4
	global.set	__stack_pointer
	local.get	4
	local.get	0
	i32.store	12
	local.get	4
	local.get	1
	i32.store	8
	local.get	4
	i32.load	12
	local.set	5
.Ltmp170:
	.loc	29 200 78 prologue_end          # emscripten/cache/sysroot/include/c++/v1/__memory/unique_ptr.h:200:78
	i32.const	8
	local.set	6
	local.get	4
	local.get	6
	i32.add 
	local.set	7
	local.get	7
	local.set	8
	i32.const	7
	local.set	9
	local.get	4
	local.get	9
	i32.add 
	local.set	10
	local.get	10
	local.set	11
	local.get	5
	local.get	8
	local.get	11
	call	_ZNSt3__217__compressed_pairIPNS_5tupleIJNS_10unique_ptrINS_15__thread_structENS_14default_deleteIS3_EEEEPFvRNS_6atomicIiEEiiENS_17reference_wrapperIS8_EEiiEEENS4_ISE_EEEC2B8ne190106IRSF_NS_16__value_init_tagEEEOT_OT0_
	drop
	.loc	29 200 111 is_stmt 0            # emscripten/cache/sysroot/include/c++/v1/__memory/unique_ptr.h:200:111
	i32.const	16
	local.set	12
	local.get	4
	local.get	12
	i32.add 
	local.set	13
	local.get	13
	global.set	__stack_pointer
	local.get	5
	return
	end_function
.Ltmp171:
.Lfunc_end60:
                                        # -- End function
	.section	.text._ZNSt3__222__libcpp_thread_createB8ne190106EPmPFPvS1_ES1_,"G",@,_ZNSt3__222__libcpp_thread_createB8ne190106EPmPFPvS1_ES1_,comdat
	.hidden	_ZNSt3__222__libcpp_thread_createB8ne190106EPmPFPvS1_ES1_ # -- Begin function _ZNSt3__222__libcpp_thread_createB8ne190106EPmPFPvS1_ES1_
	.weak	_ZNSt3__222__libcpp_thread_createB8ne190106EPmPFPvS1_ES1_
	.type	_ZNSt3__222__libcpp_thread_createB8ne190106EPmPFPvS1_ES1_,@function
_ZNSt3__222__libcpp_thread_createB8ne190106EPmPFPvS1_ES1_: # @_ZNSt3__222__libcpp_thread_createB8ne190106EPmPFPvS1_ES1_
.Lfunc_begin61:
	.loc	13 181 0 is_stmt 1              # emscripten/cache/sysroot/include/c++/v1/__thread/support/pthread.h:181:0
	.functype	_ZNSt3__222__libcpp_thread_createB8ne190106EPmPFPvS1_ES1_ (i32, i32, i32) -> (i32)
	.local  	i32, i32, i32, i32, i32, i32, i32, i32, i32, i32
# %bb.0:                                # %entry
	global.get	__stack_pointer
	local.set	3
	i32.const	16
	local.set	4
	local.get	3
	local.get	4
	i32.sub 
	local.set	5
	local.get	5
	global.set	__stack_pointer
	local.get	5
	local.get	0
	i32.store	12
	local.get	5
	local.get	1
	i32.store	8
	local.get	5
	local.get	2
	i32.store	4
.Ltmp172:
	.loc	13 182 25 prologue_end          # emscripten/cache/sysroot/include/c++/v1/__thread/support/pthread.h:182:25
	local.get	5
	i32.load	12
	local.set	6
	.loc	13 182 39 is_stmt 0             # emscripten/cache/sysroot/include/c++/v1/__thread/support/pthread.h:182:39
	local.get	5
	i32.load	8
	local.set	7
	.loc	13 182 47                       # emscripten/cache/sysroot/include/c++/v1/__thread/support/pthread.h:182:47
	local.get	5
	i32.load	4
	local.set	8
	.loc	13 182 10                       # emscripten/cache/sysroot/include/c++/v1/__thread/support/pthread.h:182:10
	i32.const	0
	local.set	9
	local.get	6
	local.get	9
	local.get	7
	local.get	8
	call	pthread_create
	local.set	10
	.loc	13 182 3                        # emscripten/cache/sysroot/include/c++/v1/__thread/support/pthread.h:182:3
	i32.const	16
	local.set	11
	local.get	5
	local.get	11
	i32.add 
	local.set	12
	local.get	12
	global.set	__stack_pointer
	local.get	10
	return
	end_function
.Ltmp173:
.Lfunc_end61:
                                        # -- End function
	.section	.text._ZNSt3__214__thread_proxyB8ne190106INS_5tupleIJNS_10unique_ptrINS_15__thread_structENS_14default_deleteIS3_EEEEPFvRNS_6atomicIiEEiiENS_17reference_wrapperIS8_EEiiEEEEEPvSF_,"G",@,_ZNSt3__214__thread_proxyB8ne190106INS_5tupleIJNS_10unique_ptrINS_15__thread_structENS_14default_deleteIS3_EEEEPFvRNS_6atomicIiEEiiENS_17reference_wrapperIS8_EEiiEEEEEPvSF_,comdat
	.hidden	_ZNSt3__214__thread_proxyB8ne190106INS_5tupleIJNS_10unique_ptrINS_15__thread_structENS_14default_deleteIS3_EEEEPFvRNS_6atomicIiEEiiENS_17reference_wrapperIS8_EEiiEEEEEPvSF_ # -- Begin function _ZNSt3__214__thread_proxyB8ne190106INS_5tupleIJNS_10unique_ptrINS_15__thread_structENS_14default_deleteIS3_EEEEPFvRNS_6atomicIiEEiiENS_17reference_wrapperIS8_EEiiEEEEEPvSF_
	.weak	_ZNSt3__214__thread_proxyB8ne190106INS_5tupleIJNS_10unique_ptrINS_15__thread_structENS_14default_deleteIS3_EEEEPFvRNS_6atomicIiEEiiENS_17reference_wrapperIS8_EEiiEEEEEPvSF_
	.type	_ZNSt3__214__thread_proxyB8ne190106INS_5tupleIJNS_10unique_ptrINS_15__thread_structENS_14default_deleteIS3_EEEEPFvRNS_6atomicIiEEiiENS_17reference_wrapperIS8_EEiiEEEEEPvSF_,@function
_ZNSt3__214__thread_proxyB8ne190106INS_5tupleIJNS_10unique_ptrINS_15__thread_structENS_14default_deleteIS3_EEEEPFvRNS_6atomicIiEEiiENS_17reference_wrapperIS8_EEiiEEEEEPvSF_: # @_ZNSt3__214__thread_proxyB8ne190106INS_5tupleIJNS_10unique_ptrINS_15__thread_structENS_14default_deleteIS3_EEEEPFvRNS_6atomicIiEEiiENS_17reference_wrapperIS8_EEiiEEEEEPvSF_
.Lfunc_begin62:
	.loc	2 196 0 is_stmt 1               # emscripten/cache/sysroot/include/c++/v1/__thread/thread.h:196:0
	.functype	_ZNSt3__214__thread_proxyB8ne190106INS_5tupleIJNS_10unique_ptrINS_15__thread_structENS_14default_deleteIS3_EEEEPFvRNS_6atomicIiEEiiENS_17reference_wrapperIS8_EEiiEEEEEPvSF_ (i32) -> (i32)
	.local  	i32, i32, i32, i32, i32, i32, i32, i32, i32, i32, i32, i32, i32, i32, i32, i32, i32, i32, i32, i32, i32, i32, i32, i32
# %bb.0:                                # %entry
	global.get	__stack_pointer
	local.set	1
	i32.const	16
	local.set	2
	local.get	1
	local.get	2
	i32.sub 
	local.set	3
	local.get	3
	global.set	__stack_pointer
	local.get	3
	local.get	0
	i32.store	12
.Ltmp174:
	.loc	2 198 41 prologue_end           # emscripten/cache/sysroot/include/c++/v1/__thread/thread.h:198:41
	local.get	3
	i32.load	12
	local.set	4
	.loc	2 198 19 is_stmt 0              # emscripten/cache/sysroot/include/c++/v1/__thread/thread.h:198:19
	i32.const	8
	local.set	5
	local.get	3
	local.get	5
	i32.add 
	local.set	6
	local.get	6
	local.set	7
	local.get	7
	local.get	4
	call	_ZNSt3__210unique_ptrINS_5tupleIJNS0_INS_15__thread_structENS_14default_deleteIS2_EEEEPFvRNS_6atomicIiEEiiENS_17reference_wrapperIS7_EEiiEEENS3_ISD_EEEC2B8ne190106ILb1EvEEPSD_
	drop
	.loc	2 199 3 is_stmt 1               # emscripten/cache/sysroot/include/c++/v1/__thread/thread.h:199:3
	call	_ZNSt3__219__thread_local_dataEv
	local.set	8
	.loc	2 199 54 is_stmt 0              # emscripten/cache/sysroot/include/c++/v1/__thread/thread.h:199:54
	i32.const	8
	local.set	9
	local.get	3
	local.get	9
	i32.add 
	local.set	10
	local.get	10
	local.set	11
	local.get	11
	call	_ZNKSt3__210unique_ptrINS_5tupleIJNS0_INS_15__thread_structENS_14default_deleteIS2_EEEEPFvRNS_6atomicIiEEiiENS_17reference_wrapperIS7_EEiiEEENS3_ISD_EEE3getB8ne190106Ev
	local.set	12
	.loc	2 199 37                        # emscripten/cache/sysroot/include/c++/v1/__thread/thread.h:199:37
	local.get	12
	call	_ZNSt3__23getB8ne190106ILm0EJNS_10unique_ptrINS_15__thread_structENS_14default_deleteIS2_EEEEPFvRNS_6atomicIiEEiiENS_17reference_wrapperIS7_EEiiEEERNS_13tuple_elementIXT_ENS_5tupleIJDpT0_EEEE4typeERSH_
	local.set	13
	.loc	2 199 61                        # emscripten/cache/sysroot/include/c++/v1/__thread/thread.h:199:61
	local.get	13
	call	_ZNSt3__210unique_ptrINS_15__thread_structENS_14default_deleteIS1_EEE7releaseB8ne190106Ev
	local.set	14
	.loc	2 199 25                        # emscripten/cache/sysroot/include/c++/v1/__thread/thread.h:199:25
	local.get	8
	local.get	14
	call	_ZNSt3__221__thread_specific_ptrINS_15__thread_structEE11set_pointerEPS1_
	.loc	2 201 30 is_stmt 1              # emscripten/cache/sysroot/include/c++/v1/__thread/thread.h:201:30
	i32.const	8
	local.set	15
	local.get	3
	local.get	15
	i32.add 
	local.set	16
	local.get	16
	local.set	17
	local.get	17
	call	_ZNKSt3__210unique_ptrINS_5tupleIJNS0_INS_15__thread_structENS_14default_deleteIS2_EEEEPFvRNS_6atomicIiEEiiENS_17reference_wrapperIS7_EEiiEEENS3_ISD_EEE3getB8ne190106Ev
	local.set	18
	.loc	2 201 3 is_stmt 0               # emscripten/cache/sysroot/include/c++/v1/__thread/thread.h:201:3
	local.get	18
	call	_ZNSt3__216__thread_executeB8ne190106INS_10unique_ptrINS_15__thread_structENS_14default_deleteIS2_EEEEPFvRNS_6atomicIiEEiiEJNS_17reference_wrapperIS7_EEiiEJLm2ELm3ELm4EEEEvRNS_5tupleIJT_T0_DpT1_EEENS_15__tuple_indicesIJXspT2_EEEE
	.loc	2 203 1 is_stmt 1               # emscripten/cache/sysroot/include/c++/v1/__thread/thread.h:203:1
	i32.const	8
	local.set	19
	local.get	3
	local.get	19
	i32.add 
	local.set	20
	local.get	20
	local.set	21
	local.get	21
	call	_ZNSt3__210unique_ptrINS_5tupleIJNS0_INS_15__thread_structENS_14default_deleteIS2_EEEEPFvRNS_6atomicIiEEiiENS_17reference_wrapperIS7_EEiiEEENS3_ISD_EEED2B8ne190106Ev
	drop
	i32.const	0
	local.set	22
	i32.const	16
	local.set	23
	local.get	3
	local.get	23
	i32.add 
	local.set	24
	local.get	24
	global.set	__stack_pointer
	local.get	22
	return
	end_function
.Ltmp175:
.Lfunc_end62:
                                        # -- End function
	.section	.text._ZNKSt3__210unique_ptrINS_5tupleIJNS0_INS_15__thread_structENS_14default_deleteIS2_EEEEPFvRNS_6atomicIiEEiiENS_17reference_wrapperIS7_EEiiEEENS3_ISD_EEE3getB8ne190106Ev,"G",@,_ZNKSt3__210unique_ptrINS_5tupleIJNS0_INS_15__thread_structENS_14default_deleteIS2_EEEEPFvRNS_6atomicIiEEiiENS_17reference_wrapperIS7_EEiiEEENS3_ISD_EEE3getB8ne190106Ev,comdat
	.hidden	_ZNKSt3__210unique_ptrINS_5tupleIJNS0_INS_15__thread_structENS_14default_deleteIS2_EEEEPFvRNS_6atomicIiEEiiENS_17reference_wrapperIS7_EEiiEEENS3_ISD_EEE3getB8ne190106Ev # -- Begin function _ZNKSt3__210unique_ptrINS_5tupleIJNS0_INS_15__thread_structENS_14default_deleteIS2_EEEEPFvRNS_6atomicIiEEiiENS_17reference_wrapperIS7_EEiiEEENS3_ISD_EEE3getB8ne190106Ev
	.weak	_ZNKSt3__210unique_ptrINS_5tupleIJNS0_INS_15__thread_structENS_14default_deleteIS2_EEEEPFvRNS_6atomicIiEEiiENS_17reference_wrapperIS7_EEiiEEENS3_ISD_EEE3getB8ne190106Ev
	.type	_ZNKSt3__210unique_ptrINS_5tupleIJNS0_INS_15__thread_structENS_14default_deleteIS2_EEEEPFvRNS_6atomicIiEEiiENS_17reference_wrapperIS7_EEiiEEENS3_ISD_EEE3getB8ne190106Ev,@function
_ZNKSt3__210unique_ptrINS_5tupleIJNS0_INS_15__thread_structENS_14default_deleteIS2_EEEEPFvRNS_6atomicIiEEiiENS_17reference_wrapperIS7_EEiiEEENS3_ISD_EEE3getB8ne190106Ev: # @_ZNKSt3__210unique_ptrINS_5tupleIJNS0_INS_15__thread_structENS_14default_deleteIS2_EEEEPFvRNS_6atomicIiEEiiENS_17reference_wrapperIS7_EEiiEEENS3_ISD_EEE3getB8ne190106Ev
.Lfunc_begin63:
	.loc	29 273 0                        # emscripten/cache/sysroot/include/c++/v1/__memory/unique_ptr.h:273:0
	.functype	_ZNKSt3__210unique_ptrINS_5tupleIJNS0_INS_15__thread_structENS_14default_deleteIS2_EEEEPFvRNS_6atomicIiEEiiENS_17reference_wrapperIS7_EEiiEEENS3_ISD_EEE3getB8ne190106Ev (i32) -> (i32)
	.local  	i32, i32, i32, i32, i32, i32, i32, i32
# %bb.0:                                # %entry
	global.get	__stack_pointer
	local.set	1
	i32.const	16
	local.set	2
	local.get	1
	local.get	2
	i32.sub 
	local.set	3
	local.get	3
	global.set	__stack_pointer
	local.get	3
	local.get	0
	i32.store	12
	local.get	3
	i32.load	12
	local.set	4
.Ltmp176:
	.loc	29 273 101 prologue_end         # emscripten/cache/sysroot/include/c++/v1/__memory/unique_ptr.h:273:101
	local.get	4
	call	_ZNKSt3__217__compressed_pairIPNS_5tupleIJNS_10unique_ptrINS_15__thread_structENS_14default_deleteIS3_EEEEPFvRNS_6atomicIiEEiiENS_17reference_wrapperIS8_EEiiEEENS4_ISE_EEE5firstB8ne190106Ev
	local.set	5
	local.get	5
	i32.load	0
	local.set	6
	.loc	29 273 87 is_stmt 0             # emscripten/cache/sysroot/include/c++/v1/__memory/unique_ptr.h:273:87
	i32.const	16
	local.set	7
	local.get	3
	local.get	7
	i32.add 
	local.set	8
	local.get	8
	global.set	__stack_pointer
	local.get	6
	return
	end_function
.Ltmp177:
.Lfunc_end63:
                                        # -- End function
	.section	.text._ZNSt3__210unique_ptrINS_5tupleIJNS0_INS_15__thread_structENS_14default_deleteIS2_EEEEPFvRNS_6atomicIiEEiiENS_17reference_wrapperIS7_EEiiEEENS3_ISD_EEE7releaseB8ne190106Ev,"G",@,_ZNSt3__210unique_ptrINS_5tupleIJNS0_INS_15__thread_structENS_14default_deleteIS2_EEEEPFvRNS_6atomicIiEEiiENS_17reference_wrapperIS7_EEiiEEENS3_ISD_EEE7releaseB8ne190106Ev,comdat
	.hidden	_ZNSt3__210unique_ptrINS_5tupleIJNS0_INS_15__thread_structENS_14default_deleteIS2_EEEEPFvRNS_6atomicIiEEiiENS_17reference_wrapperIS7_EEiiEEENS3_ISD_EEE7releaseB8ne190106Ev # -- Begin function _ZNSt3__210unique_ptrINS_5tupleIJNS0_INS_15__thread_structENS_14default_deleteIS2_EEEEPFvRNS_6atomicIiEEiiENS_17reference_wrapperIS7_EEiiEEENS3_ISD_EEE7releaseB8ne190106Ev
	.weak	_ZNSt3__210unique_ptrINS_5tupleIJNS0_INS_15__thread_structENS_14default_deleteIS2_EEEEPFvRNS_6atomicIiEEiiENS_17reference_wrapperIS7_EEiiEEENS3_ISD_EEE7releaseB8ne190106Ev
	.type	_ZNSt3__210unique_ptrINS_5tupleIJNS0_INS_15__thread_structENS_14default_deleteIS2_EEEEPFvRNS_6atomicIiEEiiENS_17reference_wrapperIS7_EEiiEEENS3_ISD_EEE7releaseB8ne190106Ev,@function
_ZNSt3__210unique_ptrINS_5tupleIJNS0_INS_15__thread_structENS_14default_deleteIS2_EEEEPFvRNS_6atomicIiEEiiENS_17reference_wrapperIS7_EEiiEEENS3_ISD_EEE7releaseB8ne190106Ev: # @_ZNSt3__210unique_ptrINS_5tupleIJNS0_INS_15__thread_structENS_14default_deleteIS2_EEEEPFvRNS_6atomicIiEEiiENS_17reference_wrapperIS7_EEiiEEENS3_ISD_EEE7releaseB8ne190106Ev
.Lfunc_begin64:
	.loc	29 282 0 is_stmt 1              # emscripten/cache/sysroot/include/c++/v1/__memory/unique_ptr.h:282:0
	.functype	_ZNSt3__210unique_ptrINS_5tupleIJNS0_INS_15__thread_structENS_14default_deleteIS2_EEEEPFvRNS_6atomicIiEEiiENS_17reference_wrapperIS7_EEiiEEENS3_ISD_EEE7releaseB8ne190106Ev (i32) -> (i32)
	.local  	i32, i32, i32, i32, i32, i32, i32, i32, i32, i32, i32
# %bb.0:                                # %entry
	global.get	__stack_pointer
	local.set	1
	i32.const	16
	local.set	2
	local.get	1
	local.get	2
	i32.sub 
	local.set	3
	local.get	3
	global.set	__stack_pointer
	local.get	3
	local.get	0
	i32.store	12
	local.get	3
	i32.load	12
	local.set	4
.Ltmp178:
	.loc	29 283 29 prologue_end          # emscripten/cache/sysroot/include/c++/v1/__memory/unique_ptr.h:283:29
	local.get	4
	call	_ZNSt3__217__compressed_pairIPNS_5tupleIJNS_10unique_ptrINS_15__thread_structENS_14default_deleteIS3_EEEEPFvRNS_6atomicIiEEiiENS_17reference_wrapperIS8_EEiiEEENS4_ISE_EEE5firstB8ne190106Ev
	local.set	5
	local.get	5
	i32.load	0
	local.set	6
	.loc	29 283 13 is_stmt 0             # emscripten/cache/sysroot/include/c++/v1/__memory/unique_ptr.h:283:13
	local.get	3
	local.get	6
	i32.store	8
	.loc	29 284 12 is_stmt 1             # emscripten/cache/sysroot/include/c++/v1/__memory/unique_ptr.h:284:12
	local.get	4
	call	_ZNSt3__217__compressed_pairIPNS_5tupleIJNS_10unique_ptrINS_15__thread_structENS_14default_deleteIS3_EEEEPFvRNS_6atomicIiEEiiENS_17reference_wrapperIS8_EEiiEEENS4_ISE_EEE5firstB8ne190106Ev
	local.set	7
	.loc	29 284 20 is_stmt 0             # emscripten/cache/sysroot/include/c++/v1/__memory/unique_ptr.h:284:20
	i32.const	0
	local.set	8
	local.get	7
	local.get	8
	i32.store	0
	.loc	29 285 12 is_stmt 1             # emscripten/cache/sysroot/include/c++/v1/__memory/unique_ptr.h:285:12
	local.get	3
	i32.load	8
	local.set	9
	.loc	29 285 5 is_stmt 0              # emscripten/cache/sysroot/include/c++/v1/__memory/unique_ptr.h:285:5
	i32.const	16
	local.set	10
	local.get	3
	local.get	10
	i32.add 
	local.set	11
	local.get	11
	global.set	__stack_pointer
	local.get	9
	return
	end_function
.Ltmp179:
.Lfunc_end64:
                                        # -- End function
	.section	.text._ZNSt3__210unique_ptrINS_5tupleIJNS0_INS_15__thread_structENS_14default_deleteIS2_EEEEPFvRNS_6atomicIiEEiiENS_17reference_wrapperIS7_EEiiEEENS3_ISD_EEED2B8ne190106Ev,"G",@,_ZNSt3__210unique_ptrINS_5tupleIJNS0_INS_15__thread_structENS_14default_deleteIS2_EEEEPFvRNS_6atomicIiEEiiENS_17reference_wrapperIS7_EEiiEEENS3_ISD_EEED2B8ne190106Ev,comdat
	.hidden	_ZNSt3__210unique_ptrINS_5tupleIJNS0_INS_15__thread_structENS_14default_deleteIS2_EEEEPFvRNS_6atomicIiEEiiENS_17reference_wrapperIS7_EEiiEEENS3_ISD_EEED2B8ne190106Ev # -- Begin function _ZNSt3__210unique_ptrINS_5tupleIJNS0_INS_15__thread_structENS_14default_deleteIS2_EEEEPFvRNS_6atomicIiEEiiENS_17reference_wrapperIS7_EEiiEEENS3_ISD_EEED2B8ne190106Ev
	.weak	_ZNSt3__210unique_ptrINS_5tupleIJNS0_INS_15__thread_structENS_14default_deleteIS2_EEEEPFvRNS_6atomicIiEEiiENS_17reference_wrapperIS7_EEiiEEENS3_ISD_EEED2B8ne190106Ev
	.type	_ZNSt3__210unique_ptrINS_5tupleIJNS0_INS_15__thread_structENS_14default_deleteIS2_EEEEPFvRNS_6atomicIiEEiiENS_17reference_wrapperIS7_EEiiEEENS3_ISD_EEED2B8ne190106Ev,@function
_ZNSt3__210unique_ptrINS_5tupleIJNS0_INS_15__thread_structENS_14default_deleteIS2_EEEEPFvRNS_6atomicIiEEiiENS_17reference_wrapperIS7_EEiiEEENS3_ISD_EEED2B8ne190106Ev: # @_ZNSt3__210unique_ptrINS_5tupleIJNS0_INS_15__thread_structENS_14default_deleteIS2_EEEEPFvRNS_6atomicIiEEiiENS_17reference_wrapperIS7_EEiiEEENS3_ISD_EEED2B8ne190106Ev
.Lfunc_begin65:
	.loc	29 261 0 is_stmt 1              # emscripten/cache/sysroot/include/c++/v1/__memory/unique_ptr.h:261:0
	.functype	_ZNSt3__210unique_ptrINS_5tupleIJNS0_INS_15__thread_structENS_14default_deleteIS2_EEEEPFvRNS_6atomicIiEEiiENS_17reference_wrapperIS7_EEiiEEENS3_ISD_EEED2B8ne190106Ev (i32) -> (i32)
	.local  	i32, i32, i32, i32, i32, i32, i32
# %bb.0:                                # %entry
	global.get	__stack_pointer
	local.set	1
	i32.const	16
	local.set	2
	local.get	1
	local.get	2
	i32.sub 
	local.set	3
	local.get	3
	global.set	__stack_pointer
	local.get	3
	local.get	0
	i32.store	12
	local.get	3
	i32.load	12
	local.set	4
.Ltmp180:
	.loc	29 261 71 prologue_end          # emscripten/cache/sysroot/include/c++/v1/__memory/unique_ptr.h:261:71
	i32.const	0
	local.set	5
	local.get	4
	local.get	5
	call	_ZNSt3__210unique_ptrINS_5tupleIJNS0_INS_15__thread_structENS_14default_deleteIS2_EEEEPFvRNS_6atomicIiEEiiENS_17reference_wrapperIS7_EEiiEEENS3_ISD_EEE5resetB8ne190106EPSD_
.Ltmp181:
	.loc	29 261 80 is_stmt 0             # emscripten/cache/sysroot/include/c++/v1/__memory/unique_ptr.h:261:80
	i32.const	16
	local.set	6
	local.get	3
	local.get	6
	i32.add 
	local.set	7
	local.get	7
	global.set	__stack_pointer
	local.get	4
	return
	end_function
.Ltmp182:
.Lfunc_end65:
                                        # -- End function
	.section	.text._ZNSt3__210unique_ptrINS_15__thread_structENS_14default_deleteIS1_EEED2B8ne190106Ev,"G",@,_ZNSt3__210unique_ptrINS_15__thread_structENS_14default_deleteIS1_EEED2B8ne190106Ev,comdat
	.hidden	_ZNSt3__210unique_ptrINS_15__thread_structENS_14default_deleteIS1_EEED2B8ne190106Ev # -- Begin function _ZNSt3__210unique_ptrINS_15__thread_structENS_14default_deleteIS1_EEED2B8ne190106Ev
	.weak	_ZNSt3__210unique_ptrINS_15__thread_structENS_14default_deleteIS1_EEED2B8ne190106Ev
	.type	_ZNSt3__210unique_ptrINS_15__thread_structENS_14default_deleteIS1_EEED2B8ne190106Ev,@function
_ZNSt3__210unique_ptrINS_15__thread_structENS_14default_deleteIS1_EEED2B8ne190106Ev: # @_ZNSt3__210unique_ptrINS_15__thread_structENS_14default_deleteIS1_EEED2B8ne190106Ev
.Lfunc_begin66:
	.loc	29 261 0 is_stmt 1              # emscripten/cache/sysroot/include/c++/v1/__memory/unique_ptr.h:261:0
	.functype	_ZNSt3__210unique_ptrINS_15__thread_structENS_14default_deleteIS1_EEED2B8ne190106Ev (i32) -> (i32)
	.local  	i32, i32, i32, i32, i32, i32, i32
# %bb.0:                                # %entry
	global.get	__stack_pointer
	local.set	1
	i32.const	16
	local.set	2
	local.get	1
	local.get	2
	i32.sub 
	local.set	3
	local.get	3
	global.set	__stack_pointer
	local.get	3
	local.get	0
	i32.store	12
	local.get	3
	i32.load	12
	local.set	4
.Ltmp183:
	.loc	29 261 71 prologue_end          # emscripten/cache/sysroot/include/c++/v1/__memory/unique_ptr.h:261:71
	i32.const	0
	local.set	5
	local.get	4
	local.get	5
	call	_ZNSt3__210unique_ptrINS_15__thread_structENS_14default_deleteIS1_EEE5resetB8ne190106EPS1_
.Ltmp184:
	.loc	29 261 80 is_stmt 0             # emscripten/cache/sysroot/include/c++/v1/__memory/unique_ptr.h:261:80
	i32.const	16
	local.set	6
	local.get	3
	local.get	6
	i32.add 
	local.set	7
	local.get	7
	global.set	__stack_pointer
	local.get	4
	return
	end_function
.Ltmp185:
.Lfunc_end66:
                                        # -- End function
	.section	.text._ZNSt3__217__compressed_pairIPNS_15__thread_structENS_14default_deleteIS1_EEEC2B8ne190106IRS2_NS_16__value_init_tagEEEOT_OT0_,"G",@,_ZNSt3__217__compressed_pairIPNS_15__thread_structENS_14default_deleteIS1_EEEC2B8ne190106IRS2_NS_16__value_init_tagEEEOT_OT0_,comdat
	.hidden	_ZNSt3__217__compressed_pairIPNS_15__thread_structENS_14default_deleteIS1_EEEC2B8ne190106IRS2_NS_16__value_init_tagEEEOT_OT0_ # -- Begin function _ZNSt3__217__compressed_pairIPNS_15__thread_structENS_14default_deleteIS1_EEEC2B8ne190106IRS2_NS_16__value_init_tagEEEOT_OT0_
	.weak	_ZNSt3__217__compressed_pairIPNS_15__thread_structENS_14default_deleteIS1_EEEC2B8ne190106IRS2_NS_16__value_init_tagEEEOT_OT0_
	.type	_ZNSt3__217__compressed_pairIPNS_15__thread_structENS_14default_deleteIS1_EEEC2B8ne190106IRS2_NS_16__value_init_tagEEEOT_OT0_,@function
_ZNSt3__217__compressed_pairIPNS_15__thread_structENS_14default_deleteIS1_EEEC2B8ne190106IRS2_NS_16__value_init_tagEEEOT_OT0_: # @_ZNSt3__217__compressed_pairIPNS_15__thread_structENS_14default_deleteIS1_EEEC2B8ne190106IRS2_NS_16__value_init_tagEEEOT_OT0_
.Lfunc_begin67:
	.loc	16 119 0 is_stmt 1              # emscripten/cache/sysroot/include/c++/v1/__memory/compressed_pair.h:119:0
	.functype	_ZNSt3__217__compressed_pairIPNS_15__thread_structENS_14default_deleteIS1_EEEC2B8ne190106IRS2_NS_16__value_init_tagEEEOT_OT0_ (i32, i32, i32) -> (i32)
	.local  	i32, i32, i32, i32, i32, i32, i32
# %bb.0:                                # %entry
	global.get	__stack_pointer
	local.set	3
	i32.const	16
	local.set	4
	local.get	3
	local.get	4
	i32.sub 
	local.set	5
	local.get	5
	global.set	__stack_pointer
	local.get	5
	local.get	0
	i32.store	12
	local.get	5
	local.get	1
	i32.store	8
	local.get	5
	local.get	2
	i32.store	4
	local.get	5
	i32.load	12
	local.set	6
.Ltmp186:
	.loc	16 119 34 prologue_end          # emscripten/cache/sysroot/include/c++/v1/__memory/compressed_pair.h:119:34
	local.get	5
	i32.load	8
	local.set	7
	.loc	16 119 9 is_stmt 0              # emscripten/cache/sysroot/include/c++/v1/__memory/compressed_pair.h:119:9
	local.get	6
	local.get	7
	call	_ZNSt3__222__compressed_pair_elemIPNS_15__thread_structELi0ELb0EEC2B8ne190106IRS2_TnNS_9enable_ifIXntsr7is_sameIS3_u7__decayIT_EEE5valueEiE4typeELi0EEEOS7_
	drop
	.loc	16 119 42                       # emscripten/cache/sysroot/include/c++/v1/__memory/compressed_pair.h:119:42
	local.get	6
	call	_ZNSt3__222__compressed_pair_elemINS_14default_deleteINS_15__thread_structEEELi1ELb1EEC2B8ne190106ENS_16__value_init_tagE
	drop
	.loc	16 119 75                       # emscripten/cache/sysroot/include/c++/v1/__memory/compressed_pair.h:119:75
	i32.const	16
	local.set	8
	local.get	5
	local.get	8
	i32.add 
	local.set	9
	local.get	9
	global.set	__stack_pointer
	local.get	6
	return
	end_function
.Ltmp187:
.Lfunc_end67:
                                        # -- End function
	.section	.text._ZNSt3__222__compressed_pair_elemIPNS_15__thread_structELi0ELb0EEC2B8ne190106IRS2_TnNS_9enable_ifIXntsr7is_sameIS3_u7__decayIT_EEE5valueEiE4typeELi0EEEOS7_,"G",@,_ZNSt3__222__compressed_pair_elemIPNS_15__thread_structELi0ELb0EEC2B8ne190106IRS2_TnNS_9enable_ifIXntsr7is_sameIS3_u7__decayIT_EEE5valueEiE4typeELi0EEEOS7_,comdat
	.hidden	_ZNSt3__222__compressed_pair_elemIPNS_15__thread_structELi0ELb0EEC2B8ne190106IRS2_TnNS_9enable_ifIXntsr7is_sameIS3_u7__decayIT_EEE5valueEiE4typeELi0EEEOS7_ # -- Begin function _ZNSt3__222__compressed_pair_elemIPNS_15__thread_structELi0ELb0EEC2B8ne190106IRS2_TnNS_9enable_ifIXntsr7is_sameIS3_u7__decayIT_EEE5valueEiE4typeELi0EEEOS7_
	.weak	_ZNSt3__222__compressed_pair_elemIPNS_15__thread_structELi0ELb0EEC2B8ne190106IRS2_TnNS_9enable_ifIXntsr7is_sameIS3_u7__decayIT_EEE5valueEiE4typeELi0EEEOS7_
	.type	_ZNSt3__222__compressed_pair_elemIPNS_15__thread_structELi0ELb0EEC2B8ne190106IRS2_TnNS_9enable_ifIXntsr7is_sameIS3_u7__decayIT_EEE5valueEiE4typeELi0EEEOS7_,@function
_ZNSt3__222__compressed_pair_elemIPNS_15__thread_structELi0ELb0EEC2B8ne190106IRS2_TnNS_9enable_ifIXntsr7is_sameIS3_u7__decayIT_EEE5valueEiE4typeELi0EEEOS7_: # @_ZNSt3__222__compressed_pair_elemIPNS_15__thread_structELi0ELb0EEC2B8ne190106IRS2_TnNS_9enable_ifIXntsr7is_sameIS3_u7__decayIT_EEE5valueEiE4typeELi0EEEOS7_
.Lfunc_begin68:
	.loc	16 53 0 is_stmt 1               # emscripten/cache/sysroot/include/c++/v1/__memory/compressed_pair.h:53:0
	.functype	_ZNSt3__222__compressed_pair_elemIPNS_15__thread_structELi0ELb0EEC2B8ne190106IRS2_TnNS_9enable_ifIXntsr7is_sameIS3_u7__decayIT_EEE5valueEiE4typeELi0EEEOS7_ (i32, i32) -> (i32)
	.local  	i32, i32, i32, i32, i32, i32
# %bb.0:                                # %entry
	global.get	__stack_pointer
	local.set	2
	i32.const	16
	local.set	3
	local.get	2
	local.get	3
	i32.sub 
	local.set	4
	local.get	4
	local.get	0
	i32.store	12
	local.get	4
	local.get	1
	i32.store	8
	local.get	4
	i32.load	12
	local.set	5
.Ltmp188:
	.loc	16 53 36 prologue_end           # emscripten/cache/sysroot/include/c++/v1/__memory/compressed_pair.h:53:36
	local.get	4
	i32.load	8
	local.set	6
	.loc	16 53 18 is_stmt 0              # emscripten/cache/sysroot/include/c++/v1/__memory/compressed_pair.h:53:18
	local.get	6
	i32.load	0
	local.set	7
	.loc	16 53 9                         # emscripten/cache/sysroot/include/c++/v1/__memory/compressed_pair.h:53:9
	local.get	5
	local.get	7
	i32.store	0
	.loc	16 53 43                        # emscripten/cache/sysroot/include/c++/v1/__memory/compressed_pair.h:53:43
	local.get	5
	return
	end_function
.Ltmp189:
.Lfunc_end68:
                                        # -- End function
	.section	.text._ZNSt3__222__compressed_pair_elemINS_14default_deleteINS_15__thread_structEEELi1ELb1EEC2B8ne190106ENS_16__value_init_tagE,"G",@,_ZNSt3__222__compressed_pair_elemINS_14default_deleteINS_15__thread_structEEELi1ELb1EEC2B8ne190106ENS_16__value_init_tagE,comdat
	.hidden	_ZNSt3__222__compressed_pair_elemINS_14default_deleteINS_15__thread_structEEELi1ELb1EEC2B8ne190106ENS_16__value_init_tagE # -- Begin function _ZNSt3__222__compressed_pair_elemINS_14default_deleteINS_15__thread_structEEELi1ELb1EEC2B8ne190106ENS_16__value_init_tagE
	.weak	_ZNSt3__222__compressed_pair_elemINS_14default_deleteINS_15__thread_structEEELi1ELb1EEC2B8ne190106ENS_16__value_init_tagE
	.type	_ZNSt3__222__compressed_pair_elemINS_14default_deleteINS_15__thread_structEEELi1ELb1EEC2B8ne190106ENS_16__value_init_tagE,@function
_ZNSt3__222__compressed_pair_elemINS_14default_deleteINS_15__thread_structEEELi1ELb1EEC2B8ne190106ENS_16__value_init_tagE: # @_ZNSt3__222__compressed_pair_elemINS_14default_deleteINS_15__thread_structEEELi1ELb1EEC2B8ne190106ENS_16__value_init_tagE
.Lfunc_begin69:
	.loc	16 78 0 is_stmt 1               # emscripten/cache/sysroot/include/c++/v1/__memory/compressed_pair.h:78:0
	.functype	_ZNSt3__222__compressed_pair_elemINS_14default_deleteINS_15__thread_structEEELi1ELb1EEC2B8ne190106ENS_16__value_init_tagE (i32) -> (i32)
	.local  	i32, i32, i32, i32
# %bb.0:                                # %entry
	global.get	__stack_pointer
	local.set	1
	i32.const	16
	local.set	2
	local.get	1
	local.get	2
	i32.sub 
	local.set	3
	local.get	3
	local.get	0
	i32.store	8
	local.get	3
	i32.load	8
	local.set	4
.Ltmp190:
	.loc	16 78 111 prologue_end          # emscripten/cache/sysroot/include/c++/v1/__memory/compressed_pair.h:78:111
	local.get	4
	return
	end_function
.Ltmp191:
.Lfunc_end69:
                                        # -- End function
	.section	.text._ZNSt3__212__tuple_implINS_15__tuple_indicesIJLm0ELm1ELm2ELm3ELm4EEEEJNS_10unique_ptrINS_15__thread_structENS_14default_deleteIS4_EEEEPFvRNS_6atomicIiEEiiENS_17reference_wrapperIS9_EEiiEEC2B8ne190106IJLm0ELm1ELm2ELm3ELm4EEJS7_SC_SE_iiETpTnmJEJEJS7_RSB_SE_RiSI_EEENS1_IJXspT_EEEENS_13__tuple_typesIJDpT0_EEENS1_IJXspT1_EEEENSK_IJDpT2_EEEDpOT3_,"G",@,_ZNSt3__212__tuple_implINS_15__tuple_indicesIJLm0ELm1ELm2ELm3ELm4EEEEJNS_10unique_ptrINS_15__thread_structENS_14default_deleteIS4_EEEEPFvRNS_6atomicIiEEiiENS_17reference_wrapperIS9_EEiiEEC2B8ne190106IJLm0ELm1ELm2ELm3ELm4EEJS7_SC_SE_iiETpTnmJEJEJS7_RSB_SE_RiSI_EEENS1_IJXspT_EEEENS_13__tuple_typesIJDpT0_EEENS1_IJXspT1_EEEENSK_IJDpT2_EEEDpOT3_,comdat
	.hidden	_ZNSt3__212__tuple_implINS_15__tuple_indicesIJLm0ELm1ELm2ELm3ELm4EEEEJNS_10unique_ptrINS_15__thread_structENS_14default_deleteIS4_EEEEPFvRNS_6atomicIiEEiiENS_17reference_wrapperIS9_EEiiEEC2B8ne190106IJLm0ELm1ELm2ELm3ELm4EEJS7_SC_SE_iiETpTnmJEJEJS7_RSB_SE_RiSI_EEENS1_IJXspT_EEEENS_13__tuple_typesIJDpT0_EEENS1_IJXspT1_EEEENSK_IJDpT2_EEEDpOT3_ # -- Begin function _ZNSt3__212__tuple_implINS_15__tuple_indicesIJLm0ELm1ELm2ELm3ELm4EEEEJNS_10unique_ptrINS_15__thread_structENS_14default_deleteIS4_EEEEPFvRNS_6atomicIiEEiiENS_17reference_wrapperIS9_EEiiEEC2B8ne190106IJLm0ELm1ELm2ELm3ELm4EEJS7_SC_SE_iiETpTnmJEJEJS7_RSB_SE_RiSI_EEENS1_IJXspT_EEEENS_13__tuple_typesIJDpT0_EEENS1_IJXspT1_EEEENSK_IJDpT2_EEEDpOT3_
	.weak	_ZNSt3__212__tuple_implINS_15__tuple_indicesIJLm0ELm1ELm2ELm3ELm4EEEEJNS_10unique_ptrINS_15__thread_structENS_14default_deleteIS4_EEEEPFvRNS_6atomicIiEEiiENS_17reference_wrapperIS9_EEiiEEC2B8ne190106IJLm0ELm1ELm2ELm3ELm4EEJS7_SC_SE_iiETpTnmJEJEJS7_RSB_SE_RiSI_EEENS1_IJXspT_EEEENS_13__tuple_typesIJDpT0_EEENS1_IJXspT1_EEEENSK_IJDpT2_EEEDpOT3_
	.type	_ZNSt3__212__tuple_implINS_15__tuple_indicesIJLm0ELm1ELm2ELm3ELm4EEEEJNS_10unique_ptrINS_15__thread_structENS_14default_deleteIS4_EEEEPFvRNS_6atomicIiEEiiENS_17reference_wrapperIS9_EEiiEEC2B8ne190106IJLm0ELm1ELm2ELm3ELm4EEJS7_SC_SE_iiETpTnmJEJEJS7_RSB_SE_RiSI_EEENS1_IJXspT_EEEENS_13__tuple_typesIJDpT0_EEENS1_IJXspT1_EEEENSK_IJDpT2_EEEDpOT3_,@function
_ZNSt3__212__tuple_implINS_15__tuple_indicesIJLm0ELm1ELm2ELm3ELm4EEEEJNS_10unique_ptrINS_15__thread_structENS_14default_deleteIS4_EEEEPFvRNS_6atomicIiEEiiENS_17reference_wrapperIS9_EEiiEEC2B8ne190106IJLm0ELm1ELm2ELm3ELm4EEJS7_SC_SE_iiETpTnmJEJEJS7_RSB_SE_RiSI_EEENS1_IJXspT_EEEENS_13__tuple_typesIJDpT0_EEENS1_IJXspT1_EEEENSK_IJDpT2_EEEDpOT3_: # @_ZNSt3__212__tuple_implINS_15__tuple_indicesIJLm0ELm1ELm2ELm3ELm4EEEEJNS_10unique_ptrINS_15__thread_structENS_14default_deleteIS4_EEEEPFvRNS_6atomicIiEEiiENS_17reference_wrapperIS9_EEiiEEC2B8ne190106IJLm0ELm1ELm2ELm3ELm4EEJS7_SC_SE_iiETpTnmJEJEJS7_RSB_SE_RiSI_EEENS1_IJXspT_EEEENS_13__tuple_typesIJDpT0_EEENS1_IJXspT1_EEEENSK_IJDpT2_EEEDpOT3_
.Lfunc_begin70:
	.loc	33 471 0                        # emscripten/cache/sysroot/include/c++/v1/tuple:471:0
	.functype	_ZNSt3__212__tuple_implINS_15__tuple_indicesIJLm0ELm1ELm2ELm3ELm4EEEEJNS_10unique_ptrINS_15__thread_structENS_14default_deleteIS4_EEEEPFvRNS_6atomicIiEEiiENS_17reference_wrapperIS9_EEiiEEC2B8ne190106IJLm0ELm1ELm2ELm3ELm4EEJS7_SC_SE_iiETpTnmJEJEJS7_RSB_SE_RiSI_EEENS1_IJXspT_EEEENS_13__tuple_typesIJDpT0_EEENS1_IJXspT1_EEEENSK_IJDpT2_EEEDpOT3_ (i32, i32, i32, i32, i32, i32) -> (i32)
	.local  	i32, i32, i32, i32, i32, i32, i32, i32, i32, i32, i32, i32, i32, i32, i32, i32, i32, i32, i32
# %bb.0:                                # %entry
	global.get	__stack_pointer
	local.set	6
	i32.const	32
	local.set	7
	local.get	6
	local.get	7
	i32.sub 
	local.set	8
	local.get	8
	global.set	__stack_pointer
	local.get	8
	local.get	0
	i32.store	24
	local.get	8
	local.get	1
	i32.store	20
	local.get	8
	local.get	2
	i32.store	16
	local.get	8
	local.get	3
	i32.store	12
	local.get	8
	local.get	4
	i32.store	8
	local.get	8
	local.get	5
	i32.store	4
	local.get	8
	i32.load	24
	local.set	9
.Ltmp192:
	.loc	33 471 50 prologue_end          # emscripten/cache/sysroot/include/c++/v1/tuple:471:50
	local.get	8
	i32.load	20
	local.set	10
	.loc	33 471 9 is_stmt 0              # emscripten/cache/sysroot/include/c++/v1/tuple:471:9
	local.get	9
	local.get	10
	call	_ZNSt3__212__tuple_leafILm0ENS_10unique_ptrINS_15__thread_structENS_14default_deleteIS2_EEEELb0EEC2B8ne190106IS5_TnNS_9enable_ifIXsr4_AndINS_17integral_constantIbXntu9__is_sameu14__remove_cvrefIT_ES6_EEEENS_16is_constructibleIS5_JSA_EEEEE5valueEiE4typeELi0EEEOSA_
	drop
	.loc	33 471 88                       # emscripten/cache/sysroot/include/c++/v1/tuple:471:88
	i32.const	4
	local.set	11
	local.get	9
	local.get	11
	i32.add 
	local.set	12
	.loc	33 471 50                       # emscripten/cache/sysroot/include/c++/v1/tuple:471:50
	local.get	8
	i32.load	16
	local.set	13
	.loc	33 471 9                        # emscripten/cache/sysroot/include/c++/v1/tuple:471:9
	local.get	12
	local.get	13
	call	_ZNSt3__212__tuple_leafILm1EPFvRNS_6atomicIiEEiiELb0EEC2B8ne190106IRS4_TnNS_9enable_ifIXsr4_AndINS_17integral_constantIbXntu9__is_sameu14__remove_cvrefIT_ES6_EEEENS_16is_constructibleIS5_JSB_EEEEE5valueEiE4typeELi0EEEOSB_
	drop
	.loc	33 471 88                       # emscripten/cache/sysroot/include/c++/v1/tuple:471:88
	i32.const	8
	local.set	14
	local.get	9
	local.get	14
	i32.add 
	local.set	15
	.loc	33 471 50                       # emscripten/cache/sysroot/include/c++/v1/tuple:471:50
	local.get	8
	i32.load	12
	local.set	16
	.loc	33 471 9                        # emscripten/cache/sysroot/include/c++/v1/tuple:471:9
	local.get	15
	local.get	16
	call	_ZNSt3__212__tuple_leafILm2ENS_17reference_wrapperINS_6atomicIiEEEELb0EEC2B8ne190106IS4_TnNS_9enable_ifIXsr4_AndINS_17integral_constantIbXntu9__is_sameu14__remove_cvrefIT_ES5_EEEENS_16is_constructibleIS4_JS9_EEEEE5valueEiE4typeELi0EEEOS9_
	drop
	.loc	33 471 88                       # emscripten/cache/sysroot/include/c++/v1/tuple:471:88
	i32.const	12
	local.set	17
	local.get	9
	local.get	17
	i32.add 
	local.set	18
	.loc	33 471 50                       # emscripten/cache/sysroot/include/c++/v1/tuple:471:50
	local.get	8
	i32.load	8
	local.set	19
	.loc	33 471 9                        # emscripten/cache/sysroot/include/c++/v1/tuple:471:9
	local.get	18
	local.get	19
	call	_ZNSt3__212__tuple_leafILm3EiLb0EEC2B8ne190106IRiTnNS_9enable_ifIXsr4_AndINS_17integral_constantIbXntu9__is_sameu14__remove_cvrefIT_ES1_EEEENS_16is_constructibleIiJS6_EEEEE5valueEiE4typeELi0EEEOS6_
	drop
	.loc	33 471 88                       # emscripten/cache/sysroot/include/c++/v1/tuple:471:88
	i32.const	16
	local.set	20
	local.get	9
	local.get	20
	i32.add 
	local.set	21
	.loc	33 471 50                       # emscripten/cache/sysroot/include/c++/v1/tuple:471:50
	local.get	8
	i32.load	4
	local.set	22
	.loc	33 471 9                        # emscripten/cache/sysroot/include/c++/v1/tuple:471:9
	local.get	21
	local.get	22
	call	_ZNSt3__212__tuple_leafILm4EiLb0EEC2B8ne190106IRiTnNS_9enable_ifIXsr4_AndINS_17integral_constantIbXntu9__is_sameu14__remove_cvrefIT_ES1_EEEENS_16is_constructibleIiJS6_EEEEE5valueEiE4typeELi0EEEOS6_
	drop
	.loc	33 471 89                       # emscripten/cache/sysroot/include/c++/v1/tuple:471:89
	i32.const	32
	local.set	23
	local.get	8
	local.get	23
	i32.add 
	local.set	24
	local.get	24
	global.set	__stack_pointer
	local.get	9
	return
	end_function
.Ltmp193:
.Lfunc_end70:
	.file	45 "/home/kay/Documents/Code/toolchain-wasm" "emscripten/cache/sysroot/include/c++/v1/__tuple/tuple_types.h"
                                        # -- End function
	.section	.text._ZNSt3__212__tuple_leafILm0ENS_10unique_ptrINS_15__thread_structENS_14default_deleteIS2_EEEELb0EEC2B8ne190106IS5_TnNS_9enable_ifIXsr4_AndINS_17integral_constantIbXntu9__is_sameu14__remove_cvrefIT_ES6_EEEENS_16is_constructibleIS5_JSA_EEEEE5valueEiE4typeELi0EEEOSA_,"G",@,_ZNSt3__212__tuple_leafILm0ENS_10unique_ptrINS_15__thread_structENS_14default_deleteIS2_EEEELb0EEC2B8ne190106IS5_TnNS_9enable_ifIXsr4_AndINS_17integral_constantIbXntu9__is_sameu14__remove_cvrefIT_ES6_EEEENS_16is_constructibleIS5_JSA_EEEEE5valueEiE4typeELi0EEEOSA_,comdat
	.hidden	_ZNSt3__212__tuple_leafILm0ENS_10unique_ptrINS_15__thread_structENS_14default_deleteIS2_EEEELb0EEC2B8ne190106IS5_TnNS_9enable_ifIXsr4_AndINS_17integral_constantIbXntu9__is_sameu14__remove_cvrefIT_ES6_EEEENS_16is_constructibleIS5_JSA_EEEEE5valueEiE4typeELi0EEEOSA_ # -- Begin function _ZNSt3__212__tuple_leafILm0ENS_10unique_ptrINS_15__thread_structENS_14default_deleteIS2_EEEELb0EEC2B8ne190106IS5_TnNS_9enable_ifIXsr4_AndINS_17integral_constantIbXntu9__is_sameu14__remove_cvrefIT_ES6_EEEENS_16is_constructibleIS5_JSA_EEEEE5valueEiE4typeELi0EEEOSA_
	.weak	_ZNSt3__212__tuple_leafILm0ENS_10unique_ptrINS_15__thread_structENS_14default_deleteIS2_EEEELb0EEC2B8ne190106IS5_TnNS_9enable_ifIXsr4_AndINS_17integral_constantIbXntu9__is_sameu14__remove_cvrefIT_ES6_EEEENS_16is_constructibleIS5_JSA_EEEEE5valueEiE4typeELi0EEEOSA_
	.type	_ZNSt3__212__tuple_leafILm0ENS_10unique_ptrINS_15__thread_structENS_14default_deleteIS2_EEEELb0EEC2B8ne190106IS5_TnNS_9enable_ifIXsr4_AndINS_17integral_constantIbXntu9__is_sameu14__remove_cvrefIT_ES6_EEEENS_16is_constructibleIS5_JSA_EEEEE5valueEiE4typeELi0EEEOSA_,@function
_ZNSt3__212__tuple_leafILm0ENS_10unique_ptrINS_15__thread_structENS_14default_deleteIS2_EEEELb0EEC2B8ne190106IS5_TnNS_9enable_ifIXsr4_AndINS_17integral_constantIbXntu9__is_sameu14__remove_cvrefIT_ES6_EEEENS_16is_constructibleIS5_JSA_EEEEE5valueEiE4typeELi0EEEOSA_: # @_ZNSt3__212__tuple_leafILm0ENS_10unique_ptrINS_15__thread_structENS_14default_deleteIS2_EEEELb0EEC2B8ne190106IS5_TnNS_9enable_ifIXsr4_AndINS_17integral_constantIbXntu9__is_sameu14__remove_cvrefIT_ES6_EEEENS_16is_constructibleIS5_JSA_EEEEE5valueEiE4typeELi0EEEOSA_
.Lfunc_begin71:
	.loc	33 340 0 is_stmt 1              # emscripten/cache/sysroot/include/c++/v1/tuple:340:0
	.functype	_ZNSt3__212__tuple_leafILm0ENS_10unique_ptrINS_15__thread_structENS_14default_deleteIS2_EEEELb0EEC2B8ne190106IS5_TnNS_9enable_ifIXsr4_AndINS_17integral_constantIbXntu9__is_sameu14__remove_cvrefIT_ES6_EEEENS_16is_constructibleIS5_JSA_EEEEE5valueEiE4typeELi0EEEOSA_ (i32, i32) -> (i32)
	.local  	i32, i32, i32, i32, i32, i32, i32
# %bb.0:                                # %entry
	global.get	__stack_pointer
	local.set	2
	i32.const	16
	local.set	3
	local.get	2
	local.get	3
	i32.sub 
	local.set	4
	local.get	4
	global.set	__stack_pointer
	local.get	4
	local.get	0
	i32.store	12
	local.get	4
	local.get	1
	i32.store	8
	local.get	4
	i32.load	12
	local.set	5
.Ltmp194:
	.loc	33 340 36 prologue_end          # emscripten/cache/sysroot/include/c++/v1/tuple:340:36
	local.get	4
	i32.load	8
	local.set	6
	.loc	33 340 9 is_stmt 0              # emscripten/cache/sysroot/include/c++/v1/tuple:340:9
	local.get	5
	local.get	6
	call	_ZNSt3__210unique_ptrINS_15__thread_structENS_14default_deleteIS1_EEEC2B8ne190106EOS4_
	drop
	.loc	33 343 3 is_stmt 1              # emscripten/cache/sysroot/include/c++/v1/tuple:343:3
	i32.const	16
	local.set	7
	local.get	4
	local.get	7
	i32.add 
	local.set	8
	local.get	8
	global.set	__stack_pointer
	local.get	5
	return
	end_function
.Ltmp195:
.Lfunc_end71:
                                        # -- End function
	.section	.text._ZNSt3__212__tuple_leafILm1EPFvRNS_6atomicIiEEiiELb0EEC2B8ne190106IRS4_TnNS_9enable_ifIXsr4_AndINS_17integral_constantIbXntu9__is_sameu14__remove_cvrefIT_ES6_EEEENS_16is_constructibleIS5_JSB_EEEEE5valueEiE4typeELi0EEEOSB_,"G",@,_ZNSt3__212__tuple_leafILm1EPFvRNS_6atomicIiEEiiELb0EEC2B8ne190106IRS4_TnNS_9enable_ifIXsr4_AndINS_17integral_constantIbXntu9__is_sameu14__remove_cvrefIT_ES6_EEEENS_16is_constructibleIS5_JSB_EEEEE5valueEiE4typeELi0EEEOSB_,comdat
	.hidden	_ZNSt3__212__tuple_leafILm1EPFvRNS_6atomicIiEEiiELb0EEC2B8ne190106IRS4_TnNS_9enable_ifIXsr4_AndINS_17integral_constantIbXntu9__is_sameu14__remove_cvrefIT_ES6_EEEENS_16is_constructibleIS5_JSB_EEEEE5valueEiE4typeELi0EEEOSB_ # -- Begin function _ZNSt3__212__tuple_leafILm1EPFvRNS_6atomicIiEEiiELb0EEC2B8ne190106IRS4_TnNS_9enable_ifIXsr4_AndINS_17integral_constantIbXntu9__is_sameu14__remove_cvrefIT_ES6_EEEENS_16is_constructibleIS5_JSB_EEEEE5valueEiE4typeELi0EEEOSB_
	.weak	_ZNSt3__212__tuple_leafILm1EPFvRNS_6atomicIiEEiiELb0EEC2B8ne190106IRS4_TnNS_9enable_ifIXsr4_AndINS_17integral_constantIbXntu9__is_sameu14__remove_cvrefIT_ES6_EEEENS_16is_constructibleIS5_JSB_EEEEE5valueEiE4typeELi0EEEOSB_
	.type	_ZNSt3__212__tuple_leafILm1EPFvRNS_6atomicIiEEiiELb0EEC2B8ne190106IRS4_TnNS_9enable_ifIXsr4_AndINS_17integral_constantIbXntu9__is_sameu14__remove_cvrefIT_ES6_EEEENS_16is_constructibleIS5_JSB_EEEEE5valueEiE4typeELi0EEEOSB_,@function
_ZNSt3__212__tuple_leafILm1EPFvRNS_6atomicIiEEiiELb0EEC2B8ne190106IRS4_TnNS_9enable_ifIXsr4_AndINS_17integral_constantIbXntu9__is_sameu14__remove_cvrefIT_ES6_EEEENS_16is_constructibleIS5_JSB_EEEEE5valueEiE4typeELi0EEEOSB_: # @_ZNSt3__212__tuple_leafILm1EPFvRNS_6atomicIiEEiiELb0EEC2B8ne190106IRS4_TnNS_9enable_ifIXsr4_AndINS_17integral_constantIbXntu9__is_sameu14__remove_cvrefIT_ES6_EEEENS_16is_constructibleIS5_JSB_EEEEE5valueEiE4typeELi0EEEOSB_
.Lfunc_begin72:
	.loc	33 340 0                        # emscripten/cache/sysroot/include/c++/v1/tuple:340:0
	.functype	_ZNSt3__212__tuple_leafILm1EPFvRNS_6atomicIiEEiiELb0EEC2B8ne190106IRS4_TnNS_9enable_ifIXsr4_AndINS_17integral_constantIbXntu9__is_sameu14__remove_cvrefIT_ES6_EEEENS_16is_constructibleIS5_JSB_EEEEE5valueEiE4typeELi0EEEOSB_ (i32, i32) -> (i32)
	.local  	i32, i32, i32, i32, i32
# %bb.0:                                # %entry
	global.get	__stack_pointer
	local.set	2
	i32.const	16
	local.set	3
	local.get	2
	local.get	3
	i32.sub 
	local.set	4
	local.get	4
	local.get	0
	i32.store	12
	local.get	4
	local.get	1
	i32.store	8
	local.get	4
	i32.load	12
	local.set	5
.Ltmp196:
	.loc	33 340 36 prologue_end          # emscripten/cache/sysroot/include/c++/v1/tuple:340:36
	local.get	4
	i32.load	8
	local.set	6
	.loc	33 340 9 is_stmt 0              # emscripten/cache/sysroot/include/c++/v1/tuple:340:9
	local.get	5
	local.get	6
	i32.store	0
	.loc	33 343 3 is_stmt 1              # emscripten/cache/sysroot/include/c++/v1/tuple:343:3
	local.get	5
	return
	end_function
.Ltmp197:
.Lfunc_end72:
                                        # -- End function
	.section	.text._ZNSt3__212__tuple_leafILm2ENS_17reference_wrapperINS_6atomicIiEEEELb0EEC2B8ne190106IS4_TnNS_9enable_ifIXsr4_AndINS_17integral_constantIbXntu9__is_sameu14__remove_cvrefIT_ES5_EEEENS_16is_constructibleIS4_JS9_EEEEE5valueEiE4typeELi0EEEOS9_,"G",@,_ZNSt3__212__tuple_leafILm2ENS_17reference_wrapperINS_6atomicIiEEEELb0EEC2B8ne190106IS4_TnNS_9enable_ifIXsr4_AndINS_17integral_constantIbXntu9__is_sameu14__remove_cvrefIT_ES5_EEEENS_16is_constructibleIS4_JS9_EEEEE5valueEiE4typeELi0EEEOS9_,comdat
	.hidden	_ZNSt3__212__tuple_leafILm2ENS_17reference_wrapperINS_6atomicIiEEEELb0EEC2B8ne190106IS4_TnNS_9enable_ifIXsr4_AndINS_17integral_constantIbXntu9__is_sameu14__remove_cvrefIT_ES5_EEEENS_16is_constructibleIS4_JS9_EEEEE5valueEiE4typeELi0EEEOS9_ # -- Begin function _ZNSt3__212__tuple_leafILm2ENS_17reference_wrapperINS_6atomicIiEEEELb0EEC2B8ne190106IS4_TnNS_9enable_ifIXsr4_AndINS_17integral_constantIbXntu9__is_sameu14__remove_cvrefIT_ES5_EEEENS_16is_constructibleIS4_JS9_EEEEE5valueEiE4typeELi0EEEOS9_
	.weak	_ZNSt3__212__tuple_leafILm2ENS_17reference_wrapperINS_6atomicIiEEEELb0EEC2B8ne190106IS4_TnNS_9enable_ifIXsr4_AndINS_17integral_constantIbXntu9__is_sameu14__remove_cvrefIT_ES5_EEEENS_16is_constructibleIS4_JS9_EEEEE5valueEiE4typeELi0EEEOS9_
	.type	_ZNSt3__212__tuple_leafILm2ENS_17reference_wrapperINS_6atomicIiEEEELb0EEC2B8ne190106IS4_TnNS_9enable_ifIXsr4_AndINS_17integral_constantIbXntu9__is_sameu14__remove_cvrefIT_ES5_EEEENS_16is_constructibleIS4_JS9_EEEEE5valueEiE4typeELi0EEEOS9_,@function
_ZNSt3__212__tuple_leafILm2ENS_17reference_wrapperINS_6atomicIiEEEELb0EEC2B8ne190106IS4_TnNS_9enable_ifIXsr4_AndINS_17integral_constantIbXntu9__is_sameu14__remove_cvrefIT_ES5_EEEENS_16is_constructibleIS4_JS9_EEEEE5valueEiE4typeELi0EEEOS9_: # @_ZNSt3__212__tuple_leafILm2ENS_17reference_wrapperINS_6atomicIiEEEELb0EEC2B8ne190106IS4_TnNS_9enable_ifIXsr4_AndINS_17integral_constantIbXntu9__is_sameu14__remove_cvrefIT_ES5_EEEENS_16is_constructibleIS4_JS9_EEEEE5valueEiE4typeELi0EEEOS9_
.Lfunc_begin73:
	.loc	33 340 0                        # emscripten/cache/sysroot/include/c++/v1/tuple:340:0
	.functype	_ZNSt3__212__tuple_leafILm2ENS_17reference_wrapperINS_6atomicIiEEEELb0EEC2B8ne190106IS4_TnNS_9enable_ifIXsr4_AndINS_17integral_constantIbXntu9__is_sameu14__remove_cvrefIT_ES5_EEEENS_16is_constructibleIS4_JS9_EEEEE5valueEiE4typeELi0EEEOS9_ (i32, i32) -> (i32)
	.local  	i32, i32, i32, i32, i32, i32
# %bb.0:                                # %entry
	global.get	__stack_pointer
	local.set	2
	i32.const	16
	local.set	3
	local.get	2
	local.get	3
	i32.sub 
	local.set	4
	local.get	4
	local.get	0
	i32.store	12
	local.get	4
	local.get	1
	i32.store	8
	local.get	4
	i32.load	12
	local.set	5
.Ltmp198:
	.loc	33 340 36 prologue_end          # emscripten/cache/sysroot/include/c++/v1/tuple:340:36
	local.get	4
	i32.load	8
	local.set	6
	.loc	33 340 9 is_stmt 0              # emscripten/cache/sysroot/include/c++/v1/tuple:340:9
	local.get	6
	i32.load	0
	local.set	7
	local.get	5
	local.get	7
	i32.store	0
	.loc	33 343 3 is_stmt 1              # emscripten/cache/sysroot/include/c++/v1/tuple:343:3
	local.get	5
	return
	end_function
.Ltmp199:
.Lfunc_end73:
                                        # -- End function
	.section	.text._ZNSt3__212__tuple_leafILm3EiLb0EEC2B8ne190106IRiTnNS_9enable_ifIXsr4_AndINS_17integral_constantIbXntu9__is_sameu14__remove_cvrefIT_ES1_EEEENS_16is_constructibleIiJS6_EEEEE5valueEiE4typeELi0EEEOS6_,"G",@,_ZNSt3__212__tuple_leafILm3EiLb0EEC2B8ne190106IRiTnNS_9enable_ifIXsr4_AndINS_17integral_constantIbXntu9__is_sameu14__remove_cvrefIT_ES1_EEEENS_16is_constructibleIiJS6_EEEEE5valueEiE4typeELi0EEEOS6_,comdat
	.hidden	_ZNSt3__212__tuple_leafILm3EiLb0EEC2B8ne190106IRiTnNS_9enable_ifIXsr4_AndINS_17integral_constantIbXntu9__is_sameu14__remove_cvrefIT_ES1_EEEENS_16is_constructibleIiJS6_EEEEE5valueEiE4typeELi0EEEOS6_ # -- Begin function _ZNSt3__212__tuple_leafILm3EiLb0EEC2B8ne190106IRiTnNS_9enable_ifIXsr4_AndINS_17integral_constantIbXntu9__is_sameu14__remove_cvrefIT_ES1_EEEENS_16is_constructibleIiJS6_EEEEE5valueEiE4typeELi0EEEOS6_
	.weak	_ZNSt3__212__tuple_leafILm3EiLb0EEC2B8ne190106IRiTnNS_9enable_ifIXsr4_AndINS_17integral_constantIbXntu9__is_sameu14__remove_cvrefIT_ES1_EEEENS_16is_constructibleIiJS6_EEEEE5valueEiE4typeELi0EEEOS6_
	.type	_ZNSt3__212__tuple_leafILm3EiLb0EEC2B8ne190106IRiTnNS_9enable_ifIXsr4_AndINS_17integral_constantIbXntu9__is_sameu14__remove_cvrefIT_ES1_EEEENS_16is_constructibleIiJS6_EEEEE5valueEiE4typeELi0EEEOS6_,@function
_ZNSt3__212__tuple_leafILm3EiLb0EEC2B8ne190106IRiTnNS_9enable_ifIXsr4_AndINS_17integral_constantIbXntu9__is_sameu14__remove_cvrefIT_ES1_EEEENS_16is_constructibleIiJS6_EEEEE5valueEiE4typeELi0EEEOS6_: # @_ZNSt3__212__tuple_leafILm3EiLb0EEC2B8ne190106IRiTnNS_9enable_ifIXsr4_AndINS_17integral_constantIbXntu9__is_sameu14__remove_cvrefIT_ES1_EEEENS_16is_constructibleIiJS6_EEEEE5valueEiE4typeELi0EEEOS6_
.Lfunc_begin74:
	.loc	33 340 0                        # emscripten/cache/sysroot/include/c++/v1/tuple:340:0
	.functype	_ZNSt3__212__tuple_leafILm3EiLb0EEC2B8ne190106IRiTnNS_9enable_ifIXsr4_AndINS_17integral_constantIbXntu9__is_sameu14__remove_cvrefIT_ES1_EEEENS_16is_constructibleIiJS6_EEEEE5valueEiE4typeELi0EEEOS6_ (i32, i32) -> (i32)
	.local  	i32, i32, i32, i32, i32, i32
# %bb.0:                                # %entry
	global.get	__stack_pointer
	local.set	2
	i32.const	16
	local.set	3
	local.get	2
	local.get	3
	i32.sub 
	local.set	4
	local.get	4
	local.get	0
	i32.store	12
	local.get	4
	local.get	1
	i32.store	8
	local.get	4
	i32.load	12
	local.set	5
.Ltmp200:
	.loc	33 340 36 prologue_end          # emscripten/cache/sysroot/include/c++/v1/tuple:340:36
	local.get	4
	i32.load	8
	local.set	6
	.loc	33 340 18 is_stmt 0             # emscripten/cache/sysroot/include/c++/v1/tuple:340:18
	local.get	6
	i32.load	0
	local.set	7
	.loc	33 340 9                        # emscripten/cache/sysroot/include/c++/v1/tuple:340:9
	local.get	5
	local.get	7
	i32.store	0
	.loc	33 343 3 is_stmt 1              # emscripten/cache/sysroot/include/c++/v1/tuple:343:3
	local.get	5
	return
	end_function
.Ltmp201:
.Lfunc_end74:
                                        # -- End function
	.section	.text._ZNSt3__212__tuple_leafILm4EiLb0EEC2B8ne190106IRiTnNS_9enable_ifIXsr4_AndINS_17integral_constantIbXntu9__is_sameu14__remove_cvrefIT_ES1_EEEENS_16is_constructibleIiJS6_EEEEE5valueEiE4typeELi0EEEOS6_,"G",@,_ZNSt3__212__tuple_leafILm4EiLb0EEC2B8ne190106IRiTnNS_9enable_ifIXsr4_AndINS_17integral_constantIbXntu9__is_sameu14__remove_cvrefIT_ES1_EEEENS_16is_constructibleIiJS6_EEEEE5valueEiE4typeELi0EEEOS6_,comdat
	.hidden	_ZNSt3__212__tuple_leafILm4EiLb0EEC2B8ne190106IRiTnNS_9enable_ifIXsr4_AndINS_17integral_constantIbXntu9__is_sameu14__remove_cvrefIT_ES1_EEEENS_16is_constructibleIiJS6_EEEEE5valueEiE4typeELi0EEEOS6_ # -- Begin function _ZNSt3__212__tuple_leafILm4EiLb0EEC2B8ne190106IRiTnNS_9enable_ifIXsr4_AndINS_17integral_constantIbXntu9__is_sameu14__remove_cvrefIT_ES1_EEEENS_16is_constructibleIiJS6_EEEEE5valueEiE4typeELi0EEEOS6_
	.weak	_ZNSt3__212__tuple_leafILm4EiLb0EEC2B8ne190106IRiTnNS_9enable_ifIXsr4_AndINS_17integral_constantIbXntu9__is_sameu14__remove_cvrefIT_ES1_EEEENS_16is_constructibleIiJS6_EEEEE5valueEiE4typeELi0EEEOS6_
	.type	_ZNSt3__212__tuple_leafILm4EiLb0EEC2B8ne190106IRiTnNS_9enable_ifIXsr4_AndINS_17integral_constantIbXntu9__is_sameu14__remove_cvrefIT_ES1_EEEENS_16is_constructibleIiJS6_EEEEE5valueEiE4typeELi0EEEOS6_,@function
_ZNSt3__212__tuple_leafILm4EiLb0EEC2B8ne190106IRiTnNS_9enable_ifIXsr4_AndINS_17integral_constantIbXntu9__is_sameu14__remove_cvrefIT_ES1_EEEENS_16is_constructibleIiJS6_EEEEE5valueEiE4typeELi0EEEOS6_: # @_ZNSt3__212__tuple_leafILm4EiLb0EEC2B8ne190106IRiTnNS_9enable_ifIXsr4_AndINS_17integral_constantIbXntu9__is_sameu14__remove_cvrefIT_ES1_EEEENS_16is_constructibleIiJS6_EEEEE5valueEiE4typeELi0EEEOS6_
.Lfunc_begin75:
	.loc	33 340 0                        # emscripten/cache/sysroot/include/c++/v1/tuple:340:0
	.functype	_ZNSt3__212__tuple_leafILm4EiLb0EEC2B8ne190106IRiTnNS_9enable_ifIXsr4_AndINS_17integral_constantIbXntu9__is_sameu14__remove_cvrefIT_ES1_EEEENS_16is_constructibleIiJS6_EEEEE5valueEiE4typeELi0EEEOS6_ (i32, i32) -> (i32)
	.local  	i32, i32, i32, i32, i32, i32
# %bb.0:                                # %entry
	global.get	__stack_pointer
	local.set	2
	i32.const	16
	local.set	3
	local.get	2
	local.get	3
	i32.sub 
	local.set	4
	local.get	4
	local.get	0
	i32.store	12
	local.get	4
	local.get	1
	i32.store	8
	local.get	4
	i32.load	12
	local.set	5
.Ltmp202:
	.loc	33 340 36 prologue_end          # emscripten/cache/sysroot/include/c++/v1/tuple:340:36
	local.get	4
	i32.load	8
	local.set	6
	.loc	33 340 18 is_stmt 0             # emscripten/cache/sysroot/include/c++/v1/tuple:340:18
	local.get	6
	i32.load	0
	local.set	7
	.loc	33 340 9                        # emscripten/cache/sysroot/include/c++/v1/tuple:340:9
	local.get	5
	local.get	7
	i32.store	0
	.loc	33 343 3 is_stmt 1              # emscripten/cache/sysroot/include/c++/v1/tuple:343:3
	local.get	5
	return
	end_function
.Ltmp203:
.Lfunc_end75:
                                        # -- End function
	.section	.text._ZNSt3__210unique_ptrINS_15__thread_structENS_14default_deleteIS1_EEEC2B8ne190106EOS4_,"G",@,_ZNSt3__210unique_ptrINS_15__thread_structENS_14default_deleteIS1_EEEC2B8ne190106EOS4_,comdat
	.hidden	_ZNSt3__210unique_ptrINS_15__thread_structENS_14default_deleteIS1_EEEC2B8ne190106EOS4_ # -- Begin function _ZNSt3__210unique_ptrINS_15__thread_structENS_14default_deleteIS1_EEEC2B8ne190106EOS4_
	.weak	_ZNSt3__210unique_ptrINS_15__thread_structENS_14default_deleteIS1_EEEC2B8ne190106EOS4_
	.type	_ZNSt3__210unique_ptrINS_15__thread_structENS_14default_deleteIS1_EEEC2B8ne190106EOS4_,@function
_ZNSt3__210unique_ptrINS_15__thread_structENS_14default_deleteIS1_EEEC2B8ne190106EOS4_: # @_ZNSt3__210unique_ptrINS_15__thread_structENS_14default_deleteIS1_EEEC2B8ne190106EOS4_
.Lfunc_begin76:
	.loc	29 216 0                        # emscripten/cache/sysroot/include/c++/v1/__memory/unique_ptr.h:216:0
	.functype	_ZNSt3__210unique_ptrINS_15__thread_structENS_14default_deleteIS1_EEEC2B8ne190106EOS4_ (i32, i32) -> (i32)
	.local  	i32, i32, i32, i32, i32, i32, i32, i32, i32, i32, i32, i32, i32
# %bb.0:                                # %entry
	global.get	__stack_pointer
	local.set	2
	i32.const	16
	local.set	3
	local.get	2
	local.get	3
	i32.sub 
	local.set	4
	local.get	4
	global.set	__stack_pointer
	local.get	4
	local.get	0
	i32.store	12
	local.get	4
	local.get	1
	i32.store	8
	local.get	4
	i32.load	12
	local.set	5
.Ltmp204:
	.loc	29 216 16 prologue_end          # emscripten/cache/sysroot/include/c++/v1/__memory/unique_ptr.h:216:16
	local.get	4
	i32.load	8
	local.set	6
	.loc	29 216 20 is_stmt 0             # emscripten/cache/sysroot/include/c++/v1/__memory/unique_ptr.h:216:20
	local.get	6
	call	_ZNSt3__210unique_ptrINS_15__thread_structENS_14default_deleteIS1_EEE7releaseB8ne190106Ev
	local.set	7
	.loc	29 216 16                       # emscripten/cache/sysroot/include/c++/v1/__memory/unique_ptr.h:216:16
	local.get	4
	local.get	7
	i32.store	4
	.loc	29 216 58                       # emscripten/cache/sysroot/include/c++/v1/__memory/unique_ptr.h:216:58
	local.get	4
	i32.load	8
	local.set	8
	.loc	29 216 62                       # emscripten/cache/sysroot/include/c++/v1/__memory/unique_ptr.h:216:62
	local.get	8
	call	_ZNSt3__210unique_ptrINS_15__thread_structENS_14default_deleteIS1_EEE11get_deleterB8ne190106Ev
	local.set	9
	.loc	29 216 9                        # emscripten/cache/sysroot/include/c++/v1/__memory/unique_ptr.h:216:9
	i32.const	4
	local.set	10
	local.get	4
	local.get	10
	i32.add 
	local.set	11
	local.get	11
	local.set	12
	local.get	5
	local.get	12
	local.get	9
	call	_ZNSt3__217__compressed_pairIPNS_15__thread_structENS_14default_deleteIS1_EEEC2B8ne190106IS2_S4_EEOT_OT0_
	drop
	.loc	29 216 79                       # emscripten/cache/sysroot/include/c++/v1/__memory/unique_ptr.h:216:79
	i32.const	16
	local.set	13
	local.get	4
	local.get	13
	i32.add 
	local.set	14
	local.get	14
	global.set	__stack_pointer
	local.get	5
	return
	end_function
.Ltmp205:
.Lfunc_end76:
                                        # -- End function
	.section	.text._ZNSt3__210unique_ptrINS_15__thread_structENS_14default_deleteIS1_EEE7releaseB8ne190106Ev,"G",@,_ZNSt3__210unique_ptrINS_15__thread_structENS_14default_deleteIS1_EEE7releaseB8ne190106Ev,comdat
	.hidden	_ZNSt3__210unique_ptrINS_15__thread_structENS_14default_deleteIS1_EEE7releaseB8ne190106Ev # -- Begin function _ZNSt3__210unique_ptrINS_15__thread_structENS_14default_deleteIS1_EEE7releaseB8ne190106Ev
	.weak	_ZNSt3__210unique_ptrINS_15__thread_structENS_14default_deleteIS1_EEE7releaseB8ne190106Ev
	.type	_ZNSt3__210unique_ptrINS_15__thread_structENS_14default_deleteIS1_EEE7releaseB8ne190106Ev,@function
_ZNSt3__210unique_ptrINS_15__thread_structENS_14default_deleteIS1_EEE7releaseB8ne190106Ev: # @_ZNSt3__210unique_ptrINS_15__thread_structENS_14default_deleteIS1_EEE7releaseB8ne190106Ev
.Lfunc_begin77:
	.loc	29 282 0 is_stmt 1              # emscripten/cache/sysroot/include/c++/v1/__memory/unique_ptr.h:282:0
	.functype	_ZNSt3__210unique_ptrINS_15__thread_structENS_14default_deleteIS1_EEE7releaseB8ne190106Ev (i32) -> (i32)
	.local  	i32, i32, i32, i32, i32, i32, i32, i32, i32, i32, i32
# %bb.0:                                # %entry
	global.get	__stack_pointer
	local.set	1
	i32.const	16
	local.set	2
	local.get	1
	local.get	2
	i32.sub 
	local.set	3
	local.get	3
	global.set	__stack_pointer
	local.get	3
	local.get	0
	i32.store	12
	local.get	3
	i32.load	12
	local.set	4
.Ltmp206:
	.loc	29 283 29 prologue_end          # emscripten/cache/sysroot/include/c++/v1/__memory/unique_ptr.h:283:29
	local.get	4
	call	_ZNSt3__217__compressed_pairIPNS_15__thread_structENS_14default_deleteIS1_EEE5firstB8ne190106Ev
	local.set	5
	local.get	5
	i32.load	0
	local.set	6
	.loc	29 283 13 is_stmt 0             # emscripten/cache/sysroot/include/c++/v1/__memory/unique_ptr.h:283:13
	local.get	3
	local.get	6
	i32.store	8
	.loc	29 284 12 is_stmt 1             # emscripten/cache/sysroot/include/c++/v1/__memory/unique_ptr.h:284:12
	local.get	4
	call	_ZNSt3__217__compressed_pairIPNS_15__thread_structENS_14default_deleteIS1_EEE5firstB8ne190106Ev
	local.set	7
	.loc	29 284 20 is_stmt 0             # emscripten/cache/sysroot/include/c++/v1/__memory/unique_ptr.h:284:20
	i32.const	0
	local.set	8
	local.get	7
	local.get	8
	i32.store	0
	.loc	29 285 12 is_stmt 1             # emscripten/cache/sysroot/include/c++/v1/__memory/unique_ptr.h:285:12
	local.get	3
	i32.load	8
	local.set	9
	.loc	29 285 5 is_stmt 0              # emscripten/cache/sysroot/include/c++/v1/__memory/unique_ptr.h:285:5
	i32.const	16
	local.set	10
	local.get	3
	local.get	10
	i32.add 
	local.set	11
	local.get	11
	global.set	__stack_pointer
	local.get	9
	return
	end_function
.Ltmp207:
.Lfunc_end77:
                                        # -- End function
	.section	.text._ZNSt3__210unique_ptrINS_15__thread_structENS_14default_deleteIS1_EEE11get_deleterB8ne190106Ev,"G",@,_ZNSt3__210unique_ptrINS_15__thread_structENS_14default_deleteIS1_EEE11get_deleterB8ne190106Ev,comdat
	.hidden	_ZNSt3__210unique_ptrINS_15__thread_structENS_14default_deleteIS1_EEE11get_deleterB8ne190106Ev # -- Begin function _ZNSt3__210unique_ptrINS_15__thread_structENS_14default_deleteIS1_EEE11get_deleterB8ne190106Ev
	.weak	_ZNSt3__210unique_ptrINS_15__thread_structENS_14default_deleteIS1_EEE11get_deleterB8ne190106Ev
	.type	_ZNSt3__210unique_ptrINS_15__thread_structENS_14default_deleteIS1_EEE11get_deleterB8ne190106Ev,@function
_ZNSt3__210unique_ptrINS_15__thread_structENS_14default_deleteIS1_EEE11get_deleterB8ne190106Ev: # @_ZNSt3__210unique_ptrINS_15__thread_structENS_14default_deleteIS1_EEE11get_deleterB8ne190106Ev
.Lfunc_begin78:
	.loc	29 274 0 is_stmt 1              # emscripten/cache/sysroot/include/c++/v1/__memory/unique_ptr.h:274:0
	.functype	_ZNSt3__210unique_ptrINS_15__thread_structENS_14default_deleteIS1_EEE11get_deleterB8ne190106Ev (i32) -> (i32)
	.local  	i32, i32, i32, i32, i32, i32, i32
# %bb.0:                                # %entry
	global.get	__stack_pointer
	local.set	1
	i32.const	16
	local.set	2
	local.get	1
	local.get	2
	i32.sub 
	local.set	3
	local.get	3
	global.set	__stack_pointer
	local.get	3
	local.get	0
	i32.store	12
	local.get	3
	i32.load	12
	local.set	4
.Ltmp208:
	.loc	29 274 109 prologue_end         # emscripten/cache/sysroot/include/c++/v1/__memory/unique_ptr.h:274:109
	local.get	4
	call	_ZNSt3__217__compressed_pairIPNS_15__thread_structENS_14default_deleteIS1_EEE6secondB8ne190106Ev
	local.set	5
	.loc	29 274 95 is_stmt 0             # emscripten/cache/sysroot/include/c++/v1/__memory/unique_ptr.h:274:95
	i32.const	16
	local.set	6
	local.get	3
	local.get	6
	i32.add 
	local.set	7
	local.get	7
	global.set	__stack_pointer
	local.get	5
	return
	end_function
.Ltmp209:
.Lfunc_end78:
                                        # -- End function
	.section	.text._ZNSt3__217__compressed_pairIPNS_15__thread_structENS_14default_deleteIS1_EEEC2B8ne190106IS2_S4_EEOT_OT0_,"G",@,_ZNSt3__217__compressed_pairIPNS_15__thread_structENS_14default_deleteIS1_EEEC2B8ne190106IS2_S4_EEOT_OT0_,comdat
	.hidden	_ZNSt3__217__compressed_pairIPNS_15__thread_structENS_14default_deleteIS1_EEEC2B8ne190106IS2_S4_EEOT_OT0_ # -- Begin function _ZNSt3__217__compressed_pairIPNS_15__thread_structENS_14default_deleteIS1_EEEC2B8ne190106IS2_S4_EEOT_OT0_
	.weak	_ZNSt3__217__compressed_pairIPNS_15__thread_structENS_14default_deleteIS1_EEEC2B8ne190106IS2_S4_EEOT_OT0_
	.type	_ZNSt3__217__compressed_pairIPNS_15__thread_structENS_14default_deleteIS1_EEEC2B8ne190106IS2_S4_EEOT_OT0_,@function
_ZNSt3__217__compressed_pairIPNS_15__thread_structENS_14default_deleteIS1_EEEC2B8ne190106IS2_S4_EEOT_OT0_: # @_ZNSt3__217__compressed_pairIPNS_15__thread_structENS_14default_deleteIS1_EEEC2B8ne190106IS2_S4_EEOT_OT0_
.Lfunc_begin79:
	.loc	16 119 0 is_stmt 1              # emscripten/cache/sysroot/include/c++/v1/__memory/compressed_pair.h:119:0
	.functype	_ZNSt3__217__compressed_pairIPNS_15__thread_structENS_14default_deleteIS1_EEEC2B8ne190106IS2_S4_EEOT_OT0_ (i32, i32, i32) -> (i32)
	.local  	i32, i32, i32, i32, i32, i32, i32, i32
# %bb.0:                                # %entry
	global.get	__stack_pointer
	local.set	3
	i32.const	16
	local.set	4
	local.get	3
	local.get	4
	i32.sub 
	local.set	5
	local.get	5
	global.set	__stack_pointer
	local.get	5
	local.get	0
	i32.store	12
	local.get	5
	local.get	1
	i32.store	8
	local.get	5
	local.get	2
	i32.store	4
	local.get	5
	i32.load	12
	local.set	6
.Ltmp210:
	.loc	16 119 34 prologue_end          # emscripten/cache/sysroot/include/c++/v1/__memory/compressed_pair.h:119:34
	local.get	5
	i32.load	8
	local.set	7
	.loc	16 119 9 is_stmt 0              # emscripten/cache/sysroot/include/c++/v1/__memory/compressed_pair.h:119:9
	local.get	6
	local.get	7
	call	_ZNSt3__222__compressed_pair_elemIPNS_15__thread_structELi0ELb0EEC2B8ne190106IS2_TnNS_9enable_ifIXntsr7is_sameIS3_u7__decayIT_EEE5valueEiE4typeELi0EEEOS6_
	drop
	.loc	16 119 67                       # emscripten/cache/sysroot/include/c++/v1/__memory/compressed_pair.h:119:67
	local.get	5
	i32.load	4
	local.set	8
	.loc	16 119 42                       # emscripten/cache/sysroot/include/c++/v1/__memory/compressed_pair.h:119:42
	local.get	6
	local.get	8
	call	_ZNSt3__222__compressed_pair_elemINS_14default_deleteINS_15__thread_structEEELi1ELb1EEC2B8ne190106IS3_TnNS_9enable_ifIXntsr7is_sameIS4_u7__decayIT_EEE5valueEiE4typeELi0EEEOS7_
	drop
	.loc	16 119 75                       # emscripten/cache/sysroot/include/c++/v1/__memory/compressed_pair.h:119:75
	i32.const	16
	local.set	9
	local.get	5
	local.get	9
	i32.add 
	local.set	10
	local.get	10
	global.set	__stack_pointer
	local.get	6
	return
	end_function
.Ltmp211:
.Lfunc_end79:
                                        # -- End function
	.section	.text._ZNSt3__217__compressed_pairIPNS_15__thread_structENS_14default_deleteIS1_EEE5firstB8ne190106Ev,"G",@,_ZNSt3__217__compressed_pairIPNS_15__thread_structENS_14default_deleteIS1_EEE5firstB8ne190106Ev,comdat
	.hidden	_ZNSt3__217__compressed_pairIPNS_15__thread_structENS_14default_deleteIS1_EEE5firstB8ne190106Ev # -- Begin function _ZNSt3__217__compressed_pairIPNS_15__thread_structENS_14default_deleteIS1_EEE5firstB8ne190106Ev
	.weak	_ZNSt3__217__compressed_pairIPNS_15__thread_structENS_14default_deleteIS1_EEE5firstB8ne190106Ev
	.type	_ZNSt3__217__compressed_pairIPNS_15__thread_structENS_14default_deleteIS1_EEE5firstB8ne190106Ev,@function
_ZNSt3__217__compressed_pairIPNS_15__thread_structENS_14default_deleteIS1_EEE5firstB8ne190106Ev: # @_ZNSt3__217__compressed_pairIPNS_15__thread_structENS_14default_deleteIS1_EEE5firstB8ne190106Ev
.Lfunc_begin80:
	.loc	16 129 0 is_stmt 1              # emscripten/cache/sysroot/include/c++/v1/__memory/compressed_pair.h:129:0
	.functype	_ZNSt3__217__compressed_pairIPNS_15__thread_structENS_14default_deleteIS1_EEE5firstB8ne190106Ev (i32) -> (i32)
	.local  	i32, i32, i32, i32, i32, i32, i32
# %bb.0:                                # %entry
	global.get	__stack_pointer
	local.set	1
	i32.const	16
	local.set	2
	local.get	1
	local.get	2
	i32.sub 
	local.set	3
	local.get	3
	global.set	__stack_pointer
	local.get	3
	local.get	0
	i32.store	12
	local.get	3
	i32.load	12
	local.set	4
.Ltmp212:
	.loc	16 130 40 prologue_end          # emscripten/cache/sysroot/include/c++/v1/__memory/compressed_pair.h:130:40
	local.get	4
	call	_ZNSt3__222__compressed_pair_elemIPNS_15__thread_structELi0ELb0EE5__getB8ne190106Ev
	local.set	5
	.loc	16 130 5 is_stmt 0              # emscripten/cache/sysroot/include/c++/v1/__memory/compressed_pair.h:130:5
	i32.const	16
	local.set	6
	local.get	3
	local.get	6
	i32.add 
	local.set	7
	local.get	7
	global.set	__stack_pointer
	local.get	5
	return
	end_function
.Ltmp213:
.Lfunc_end80:
                                        # -- End function
	.section	.text._ZNSt3__222__compressed_pair_elemIPNS_15__thread_structELi0ELb0EE5__getB8ne190106Ev,"G",@,_ZNSt3__222__compressed_pair_elemIPNS_15__thread_structELi0ELb0EE5__getB8ne190106Ev,comdat
	.hidden	_ZNSt3__222__compressed_pair_elemIPNS_15__thread_structELi0ELb0EE5__getB8ne190106Ev # -- Begin function _ZNSt3__222__compressed_pair_elemIPNS_15__thread_structELi0ELb0EE5__getB8ne190106Ev
	.weak	_ZNSt3__222__compressed_pair_elemIPNS_15__thread_structELi0ELb0EE5__getB8ne190106Ev
	.type	_ZNSt3__222__compressed_pair_elemIPNS_15__thread_structELi0ELb0EE5__getB8ne190106Ev,@function
_ZNSt3__222__compressed_pair_elemIPNS_15__thread_structELi0ELb0EE5__getB8ne190106Ev: # @_ZNSt3__222__compressed_pair_elemIPNS_15__thread_structELi0ELb0EE5__getB8ne190106Ev
.Lfunc_begin81:
	.loc	16 62 0 is_stmt 1               # emscripten/cache/sysroot/include/c++/v1/__memory/compressed_pair.h:62:0
	.functype	_ZNSt3__222__compressed_pair_elemIPNS_15__thread_structELi0ELb0EE5__getB8ne190106Ev (i32) -> (i32)
	.local  	i32, i32, i32, i32
# %bb.0:                                # %entry
	global.get	__stack_pointer
	local.set	1
	i32.const	16
	local.set	2
	local.get	1
	local.get	2
	i32.sub 
	local.set	3
	local.get	3
	local.get	0
	i32.store	12
	local.get	3
	i32.load	12
	local.set	4
.Ltmp214:
	.loc	16 62 85 prologue_end           # emscripten/cache/sysroot/include/c++/v1/__memory/compressed_pair.h:62:85
	local.get	4
	return
	end_function
.Ltmp215:
.Lfunc_end81:
                                        # -- End function
	.section	.text._ZNSt3__217__compressed_pairIPNS_15__thread_structENS_14default_deleteIS1_EEE6secondB8ne190106Ev,"G",@,_ZNSt3__217__compressed_pairIPNS_15__thread_structENS_14default_deleteIS1_EEE6secondB8ne190106Ev,comdat
	.hidden	_ZNSt3__217__compressed_pairIPNS_15__thread_structENS_14default_deleteIS1_EEE6secondB8ne190106Ev # -- Begin function _ZNSt3__217__compressed_pairIPNS_15__thread_structENS_14default_deleteIS1_EEE6secondB8ne190106Ev
	.weak	_ZNSt3__217__compressed_pairIPNS_15__thread_structENS_14default_deleteIS1_EEE6secondB8ne190106Ev
	.type	_ZNSt3__217__compressed_pairIPNS_15__thread_structENS_14default_deleteIS1_EEE6secondB8ne190106Ev,@function
_ZNSt3__217__compressed_pairIPNS_15__thread_structENS_14default_deleteIS1_EEE6secondB8ne190106Ev: # @_ZNSt3__217__compressed_pairIPNS_15__thread_structENS_14default_deleteIS1_EEE6secondB8ne190106Ev
.Lfunc_begin82:
	.loc	16 137 0                        # emscripten/cache/sysroot/include/c++/v1/__memory/compressed_pair.h:137:0
	.functype	_ZNSt3__217__compressed_pairIPNS_15__thread_structENS_14default_deleteIS1_EEE6secondB8ne190106Ev (i32) -> (i32)
	.local  	i32, i32, i32, i32, i32, i32, i32
# %bb.0:                                # %entry
	global.get	__stack_pointer
	local.set	1
	i32.const	16
	local.set	2
	local.get	1
	local.get	2
	i32.sub 
	local.set	3
	local.get	3
	global.set	__stack_pointer
	local.get	3
	local.get	0
	i32.store	12
	local.get	3
	i32.load	12
	local.set	4
.Ltmp216:
	.loc	16 138 40 prologue_end          # emscripten/cache/sysroot/include/c++/v1/__memory/compressed_pair.h:138:40
	local.get	4
	call	_ZNSt3__222__compressed_pair_elemINS_14default_deleteINS_15__thread_structEEELi1ELb1EE5__getB8ne190106Ev
	local.set	5
	.loc	16 138 5 is_stmt 0              # emscripten/cache/sysroot/include/c++/v1/__memory/compressed_pair.h:138:5
	i32.const	16
	local.set	6
	local.get	3
	local.get	6
	i32.add 
	local.set	7
	local.get	7
	global.set	__stack_pointer
	local.get	5
	return
	end_function
.Ltmp217:
.Lfunc_end82:
                                        # -- End function
	.section	.text._ZNSt3__222__compressed_pair_elemINS_14default_deleteINS_15__thread_structEEELi1ELb1EE5__getB8ne190106Ev,"G",@,_ZNSt3__222__compressed_pair_elemINS_14default_deleteINS_15__thread_structEEELi1ELb1EE5__getB8ne190106Ev,comdat
	.hidden	_ZNSt3__222__compressed_pair_elemINS_14default_deleteINS_15__thread_structEEELi1ELb1EE5__getB8ne190106Ev # -- Begin function _ZNSt3__222__compressed_pair_elemINS_14default_deleteINS_15__thread_structEEELi1ELb1EE5__getB8ne190106Ev
	.weak	_ZNSt3__222__compressed_pair_elemINS_14default_deleteINS_15__thread_structEEELi1ELb1EE5__getB8ne190106Ev
	.type	_ZNSt3__222__compressed_pair_elemINS_14default_deleteINS_15__thread_structEEELi1ELb1EE5__getB8ne190106Ev,@function
_ZNSt3__222__compressed_pair_elemINS_14default_deleteINS_15__thread_structEEELi1ELb1EE5__getB8ne190106Ev: # @_ZNSt3__222__compressed_pair_elemINS_14default_deleteINS_15__thread_structEEELi1ELb1EE5__getB8ne190106Ev
.Lfunc_begin83:
	.loc	16 91 0 is_stmt 1               # emscripten/cache/sysroot/include/c++/v1/__memory/compressed_pair.h:91:0
	.functype	_ZNSt3__222__compressed_pair_elemINS_14default_deleteINS_15__thread_structEEELi1ELb1EE5__getB8ne190106Ev (i32) -> (i32)
	.local  	i32, i32, i32, i32
# %bb.0:                                # %entry
	global.get	__stack_pointer
	local.set	1
	i32.const	16
	local.set	2
	local.get	1
	local.get	2
	i32.sub 
	local.set	3
	local.get	3
	local.get	0
	i32.store	12
	local.get	3
	i32.load	12
	local.set	4
.Ltmp218:
	.loc	16 91 85 prologue_end           # emscripten/cache/sysroot/include/c++/v1/__memory/compressed_pair.h:91:85
	local.get	4
	return
	end_function
.Ltmp219:
.Lfunc_end83:
                                        # -- End function
	.section	.text._ZNSt3__222__compressed_pair_elemIPNS_15__thread_structELi0ELb0EEC2B8ne190106IS2_TnNS_9enable_ifIXntsr7is_sameIS3_u7__decayIT_EEE5valueEiE4typeELi0EEEOS6_,"G",@,_ZNSt3__222__compressed_pair_elemIPNS_15__thread_structELi0ELb0EEC2B8ne190106IS2_TnNS_9enable_ifIXntsr7is_sameIS3_u7__decayIT_EEE5valueEiE4typeELi0EEEOS6_,comdat
	.hidden	_ZNSt3__222__compressed_pair_elemIPNS_15__thread_structELi0ELb0EEC2B8ne190106IS2_TnNS_9enable_ifIXntsr7is_sameIS3_u7__decayIT_EEE5valueEiE4typeELi0EEEOS6_ # -- Begin function _ZNSt3__222__compressed_pair_elemIPNS_15__thread_structELi0ELb0EEC2B8ne190106IS2_TnNS_9enable_ifIXntsr7is_sameIS3_u7__decayIT_EEE5valueEiE4typeELi0EEEOS6_
	.weak	_ZNSt3__222__compressed_pair_elemIPNS_15__thread_structELi0ELb0EEC2B8ne190106IS2_TnNS_9enable_ifIXntsr7is_sameIS3_u7__decayIT_EEE5valueEiE4typeELi0EEEOS6_
	.type	_ZNSt3__222__compressed_pair_elemIPNS_15__thread_structELi0ELb0EEC2B8ne190106IS2_TnNS_9enable_ifIXntsr7is_sameIS3_u7__decayIT_EEE5valueEiE4typeELi0EEEOS6_,@function
_ZNSt3__222__compressed_pair_elemIPNS_15__thread_structELi0ELb0EEC2B8ne190106IS2_TnNS_9enable_ifIXntsr7is_sameIS3_u7__decayIT_EEE5valueEiE4typeELi0EEEOS6_: # @_ZNSt3__222__compressed_pair_elemIPNS_15__thread_structELi0ELb0EEC2B8ne190106IS2_TnNS_9enable_ifIXntsr7is_sameIS3_u7__decayIT_EEE5valueEiE4typeELi0EEEOS6_
.Lfunc_begin84:
	.loc	16 53 0                         # emscripten/cache/sysroot/include/c++/v1/__memory/compressed_pair.h:53:0
	.functype	_ZNSt3__222__compressed_pair_elemIPNS_15__thread_structELi0ELb0EEC2B8ne190106IS2_TnNS_9enable_ifIXntsr7is_sameIS3_u7__decayIT_EEE5valueEiE4typeELi0EEEOS6_ (i32, i32) -> (i32)
	.local  	i32, i32, i32, i32, i32, i32
# %bb.0:                                # %entry
	global.get	__stack_pointer
	local.set	2
	i32.const	16
	local.set	3
	local.get	2
	local.get	3
	i32.sub 
	local.set	4
	local.get	4
	local.get	0
	i32.store	12
	local.get	4
	local.get	1
	i32.store	8
	local.get	4
	i32.load	12
	local.set	5
.Ltmp220:
	.loc	16 53 36 prologue_end           # emscripten/cache/sysroot/include/c++/v1/__memory/compressed_pair.h:53:36
	local.get	4
	i32.load	8
	local.set	6
	.loc	16 53 18 is_stmt 0              # emscripten/cache/sysroot/include/c++/v1/__memory/compressed_pair.h:53:18
	local.get	6
	i32.load	0
	local.set	7
	.loc	16 53 9                         # emscripten/cache/sysroot/include/c++/v1/__memory/compressed_pair.h:53:9
	local.get	5
	local.get	7
	i32.store	0
	.loc	16 53 43                        # emscripten/cache/sysroot/include/c++/v1/__memory/compressed_pair.h:53:43
	local.get	5
	return
	end_function
.Ltmp221:
.Lfunc_end84:
                                        # -- End function
	.section	.text._ZNSt3__222__compressed_pair_elemINS_14default_deleteINS_15__thread_structEEELi1ELb1EEC2B8ne190106IS3_TnNS_9enable_ifIXntsr7is_sameIS4_u7__decayIT_EEE5valueEiE4typeELi0EEEOS7_,"G",@,_ZNSt3__222__compressed_pair_elemINS_14default_deleteINS_15__thread_structEEELi1ELb1EEC2B8ne190106IS3_TnNS_9enable_ifIXntsr7is_sameIS4_u7__decayIT_EEE5valueEiE4typeELi0EEEOS7_,comdat
	.hidden	_ZNSt3__222__compressed_pair_elemINS_14default_deleteINS_15__thread_structEEELi1ELb1EEC2B8ne190106IS3_TnNS_9enable_ifIXntsr7is_sameIS4_u7__decayIT_EEE5valueEiE4typeELi0EEEOS7_ # -- Begin function _ZNSt3__222__compressed_pair_elemINS_14default_deleteINS_15__thread_structEEELi1ELb1EEC2B8ne190106IS3_TnNS_9enable_ifIXntsr7is_sameIS4_u7__decayIT_EEE5valueEiE4typeELi0EEEOS7_
	.weak	_ZNSt3__222__compressed_pair_elemINS_14default_deleteINS_15__thread_structEEELi1ELb1EEC2B8ne190106IS3_TnNS_9enable_ifIXntsr7is_sameIS4_u7__decayIT_EEE5valueEiE4typeELi0EEEOS7_
	.type	_ZNSt3__222__compressed_pair_elemINS_14default_deleteINS_15__thread_structEEELi1ELb1EEC2B8ne190106IS3_TnNS_9enable_ifIXntsr7is_sameIS4_u7__decayIT_EEE5valueEiE4typeELi0EEEOS7_,@function
_ZNSt3__222__compressed_pair_elemINS_14default_deleteINS_15__thread_structEEELi1ELb1EEC2B8ne190106IS3_TnNS_9enable_ifIXntsr7is_sameIS4_u7__decayIT_EEE5valueEiE4typeELi0EEEOS7_: # @_ZNSt3__222__compressed_pair_elemINS_14default_deleteINS_15__thread_structEEELi1ELb1EEC2B8ne190106IS3_TnNS_9enable_ifIXntsr7is_sameIS4_u7__decayIT_EEE5valueEiE4typeELi0EEEOS7_
.Lfunc_begin85:
	.loc	16 82 0 is_stmt 1               # emscripten/cache/sysroot/include/c++/v1/__memory/compressed_pair.h:82:0
	.functype	_ZNSt3__222__compressed_pair_elemINS_14default_deleteINS_15__thread_structEEELi1ELb1EEC2B8ne190106IS3_TnNS_9enable_ifIXntsr7is_sameIS4_u7__decayIT_EEE5valueEiE4typeELi0EEEOS7_ (i32, i32) -> (i32)
	.local  	i32, i32, i32, i32
# %bb.0:                                # %entry
	global.get	__stack_pointer
	local.set	2
	i32.const	16
	local.set	3
	local.get	2
	local.get	3
	i32.sub 
	local.set	4
	local.get	4
	local.get	0
	i32.store	12
	local.get	4
	local.get	1
	i32.store	8
	local.get	4
	i32.load	12
	local.set	5
.Ltmp222:
	.loc	16 82 47 prologue_end           # emscripten/cache/sysroot/include/c++/v1/__memory/compressed_pair.h:82:47
	local.get	5
	return
	end_function
.Ltmp223:
.Lfunc_end85:
                                        # -- End function
	.section	.text._ZNSt3__217__compressed_pairIPNS_5tupleIJNS_10unique_ptrINS_15__thread_structENS_14default_deleteIS3_EEEEPFvRNS_6atomicIiEEiiENS_17reference_wrapperIS8_EEiiEEENS4_ISE_EEEC2B8ne190106IRSF_NS_16__value_init_tagEEEOT_OT0_,"G",@,_ZNSt3__217__compressed_pairIPNS_5tupleIJNS_10unique_ptrINS_15__thread_structENS_14default_deleteIS3_EEEEPFvRNS_6atomicIiEEiiENS_17reference_wrapperIS8_EEiiEEENS4_ISE_EEEC2B8ne190106IRSF_NS_16__value_init_tagEEEOT_OT0_,comdat
	.hidden	_ZNSt3__217__compressed_pairIPNS_5tupleIJNS_10unique_ptrINS_15__thread_structENS_14default_deleteIS3_EEEEPFvRNS_6atomicIiEEiiENS_17reference_wrapperIS8_EEiiEEENS4_ISE_EEEC2B8ne190106IRSF_NS_16__value_init_tagEEEOT_OT0_ # -- Begin function _ZNSt3__217__compressed_pairIPNS_5tupleIJNS_10unique_ptrINS_15__thread_structENS_14default_deleteIS3_EEEEPFvRNS_6atomicIiEEiiENS_17reference_wrapperIS8_EEiiEEENS4_ISE_EEEC2B8ne190106IRSF_NS_16__value_init_tagEEEOT_OT0_
	.weak	_ZNSt3__217__compressed_pairIPNS_5tupleIJNS_10unique_ptrINS_15__thread_structENS_14default_deleteIS3_EEEEPFvRNS_6atomicIiEEiiENS_17reference_wrapperIS8_EEiiEEENS4_ISE_EEEC2B8ne190106IRSF_NS_16__value_init_tagEEEOT_OT0_
	.type	_ZNSt3__217__compressed_pairIPNS_5tupleIJNS_10unique_ptrINS_15__thread_structENS_14default_deleteIS3_EEEEPFvRNS_6atomicIiEEiiENS_17reference_wrapperIS8_EEiiEEENS4_ISE_EEEC2B8ne190106IRSF_NS_16__value_init_tagEEEOT_OT0_,@function
_ZNSt3__217__compressed_pairIPNS_5tupleIJNS_10unique_ptrINS_15__thread_structENS_14default_deleteIS3_EEEEPFvRNS_6atomicIiEEiiENS_17reference_wrapperIS8_EEiiEEENS4_ISE_EEEC2B8ne190106IRSF_NS_16__value_init_tagEEEOT_OT0_: # @_ZNSt3__217__compressed_pairIPNS_5tupleIJNS_10unique_ptrINS_15__thread_structENS_14default_deleteIS3_EEEEPFvRNS_6atomicIiEEiiENS_17reference_wrapperIS8_EEiiEEENS4_ISE_EEEC2B8ne190106IRSF_NS_16__value_init_tagEEEOT_OT0_
.Lfunc_begin86:
	.loc	16 119 0                        # emscripten/cache/sysroot/include/c++/v1/__memory/compressed_pair.h:119:0
	.functype	_ZNSt3__217__compressed_pairIPNS_5tupleIJNS_10unique_ptrINS_15__thread_structENS_14default_deleteIS3_EEEEPFvRNS_6atomicIiEEiiENS_17reference_wrapperIS8_EEiiEEENS4_ISE_EEEC2B8ne190106IRSF_NS_16__value_init_tagEEEOT_OT0_ (i32, i32, i32) -> (i32)
	.local  	i32, i32, i32, i32, i32, i32, i32
# %bb.0:                                # %entry
	global.get	__stack_pointer
	local.set	3
	i32.const	16
	local.set	4
	local.get	3
	local.get	4
	i32.sub 
	local.set	5
	local.get	5
	global.set	__stack_pointer
	local.get	5
	local.get	0
	i32.store	12
	local.get	5
	local.get	1
	i32.store	8
	local.get	5
	local.get	2
	i32.store	4
	local.get	5
	i32.load	12
	local.set	6
.Ltmp224:
	.loc	16 119 34 prologue_end          # emscripten/cache/sysroot/include/c++/v1/__memory/compressed_pair.h:119:34
	local.get	5
	i32.load	8
	local.set	7
	.loc	16 119 9 is_stmt 0              # emscripten/cache/sysroot/include/c++/v1/__memory/compressed_pair.h:119:9
	local.get	6
	local.get	7
	call	_ZNSt3__222__compressed_pair_elemIPNS_5tupleIJNS_10unique_ptrINS_15__thread_structENS_14default_deleteIS3_EEEEPFvRNS_6atomicIiEEiiENS_17reference_wrapperIS8_EEiiEEELi0ELb0EEC2B8ne190106IRSF_TnNS_9enable_ifIXntsr7is_sameISG_u7__decayIT_EEE5valueEiE4typeELi0EEEOSK_
	drop
	.loc	16 119 42                       # emscripten/cache/sysroot/include/c++/v1/__memory/compressed_pair.h:119:42
	local.get	6
	call	_ZNSt3__222__compressed_pair_elemINS_14default_deleteINS_5tupleIJNS_10unique_ptrINS_15__thread_structENS1_IS4_EEEEPFvRNS_6atomicIiEEiiENS_17reference_wrapperIS8_EEiiEEEEELi1ELb1EEC2B8ne190106ENS_16__value_init_tagE
	drop
	.loc	16 119 75                       # emscripten/cache/sysroot/include/c++/v1/__memory/compressed_pair.h:119:75
	i32.const	16
	local.set	8
	local.get	5
	local.get	8
	i32.add 
	local.set	9
	local.get	9
	global.set	__stack_pointer
	local.get	6
	return
	end_function
.Ltmp225:
.Lfunc_end86:
                                        # -- End function
	.section	.text._ZNSt3__222__compressed_pair_elemIPNS_5tupleIJNS_10unique_ptrINS_15__thread_structENS_14default_deleteIS3_EEEEPFvRNS_6atomicIiEEiiENS_17reference_wrapperIS8_EEiiEEELi0ELb0EEC2B8ne190106IRSF_TnNS_9enable_ifIXntsr7is_sameISG_u7__decayIT_EEE5valueEiE4typeELi0EEEOSK_,"G",@,_ZNSt3__222__compressed_pair_elemIPNS_5tupleIJNS_10unique_ptrINS_15__thread_structENS_14default_deleteIS3_EEEEPFvRNS_6atomicIiEEiiENS_17reference_wrapperIS8_EEiiEEELi0ELb0EEC2B8ne190106IRSF_TnNS_9enable_ifIXntsr7is_sameISG_u7__decayIT_EEE5valueEiE4typeELi0EEEOSK_,comdat
	.hidden	_ZNSt3__222__compressed_pair_elemIPNS_5tupleIJNS_10unique_ptrINS_15__thread_structENS_14default_deleteIS3_EEEEPFvRNS_6atomicIiEEiiENS_17reference_wrapperIS8_EEiiEEELi0ELb0EEC2B8ne190106IRSF_TnNS_9enable_ifIXntsr7is_sameISG_u7__decayIT_EEE5valueEiE4typeELi0EEEOSK_ # -- Begin function _ZNSt3__222__compressed_pair_elemIPNS_5tupleIJNS_10unique_ptrINS_15__thread_structENS_14default_deleteIS3_EEEEPFvRNS_6atomicIiEEiiENS_17reference_wrapperIS8_EEiiEEELi0ELb0EEC2B8ne190106IRSF_TnNS_9enable_ifIXntsr7is_sameISG_u7__decayIT_EEE5valueEiE4typeELi0EEEOSK_
	.weak	_ZNSt3__222__compressed_pair_elemIPNS_5tupleIJNS_10unique_ptrINS_15__thread_structENS_14default_deleteIS3_EEEEPFvRNS_6atomicIiEEiiENS_17reference_wrapperIS8_EEiiEEELi0ELb0EEC2B8ne190106IRSF_TnNS_9enable_ifIXntsr7is_sameISG_u7__decayIT_EEE5valueEiE4typeELi0EEEOSK_
	.type	_ZNSt3__222__compressed_pair_elemIPNS_5tupleIJNS_10unique_ptrINS_15__thread_structENS_14default_deleteIS3_EEEEPFvRNS_6atomicIiEEiiENS_17reference_wrapperIS8_EEiiEEELi0ELb0EEC2B8ne190106IRSF_TnNS_9enable_ifIXntsr7is_sameISG_u7__decayIT_EEE5valueEiE4typeELi0EEEOSK_,@function
_ZNSt3__222__compressed_pair_elemIPNS_5tupleIJNS_10unique_ptrINS_15__thread_structENS_14default_deleteIS3_EEEEPFvRNS_6atomicIiEEiiENS_17reference_wrapperIS8_EEiiEEELi0ELb0EEC2B8ne190106IRSF_TnNS_9enable_ifIXntsr7is_sameISG_u7__decayIT_EEE5valueEiE4typeELi0EEEOSK_: # @_ZNSt3__222__compressed_pair_elemIPNS_5tupleIJNS_10unique_ptrINS_15__thread_structENS_14default_deleteIS3_EEEEPFvRNS_6atomicIiEEiiENS_17reference_wrapperIS8_EEiiEEELi0ELb0EEC2B8ne190106IRSF_TnNS_9enable_ifIXntsr7is_sameISG_u7__decayIT_EEE5valueEiE4typeELi0EEEOSK_
.Lfunc_begin87:
	.loc	16 53 0 is_stmt 1               # emscripten/cache/sysroot/include/c++/v1/__memory/compressed_pair.h:53:0
	.functype	_ZNSt3__222__compressed_pair_elemIPNS_5tupleIJNS_10unique_ptrINS_15__thread_structENS_14default_deleteIS3_EEEEPFvRNS_6atomicIiEEiiENS_17reference_wrapperIS8_EEiiEEELi0ELb0EEC2B8ne190106IRSF_TnNS_9enable_ifIXntsr7is_sameISG_u7__decayIT_EEE5valueEiE4typeELi0EEEOSK_ (i32, i32) -> (i32)
	.local  	i32, i32, i32, i32, i32, i32
# %bb.0:                                # %entry
	global.get	__stack_pointer
	local.set	2
	i32.const	16
	local.set	3
	local.get	2
	local.get	3
	i32.sub 
	local.set	4
	local.get	4
	local.get	0
	i32.store	12
	local.get	4
	local.get	1
	i32.store	8
	local.get	4
	i32.load	12
	local.set	5
.Ltmp226:
	.loc	16 53 36 prologue_end           # emscripten/cache/sysroot/include/c++/v1/__memory/compressed_pair.h:53:36
	local.get	4
	i32.load	8
	local.set	6
	.loc	16 53 18 is_stmt 0              # emscripten/cache/sysroot/include/c++/v1/__memory/compressed_pair.h:53:18
	local.get	6
	i32.load	0
	local.set	7
	.loc	16 53 9                         # emscripten/cache/sysroot/include/c++/v1/__memory/compressed_pair.h:53:9
	local.get	5
	local.get	7
	i32.store	0
	.loc	16 53 43                        # emscripten/cache/sysroot/include/c++/v1/__memory/compressed_pair.h:53:43
	local.get	5
	return
	end_function
.Ltmp227:
.Lfunc_end87:
                                        # -- End function
	.section	.text._ZNSt3__222__compressed_pair_elemINS_14default_deleteINS_5tupleIJNS_10unique_ptrINS_15__thread_structENS1_IS4_EEEEPFvRNS_6atomicIiEEiiENS_17reference_wrapperIS8_EEiiEEEEELi1ELb1EEC2B8ne190106ENS_16__value_init_tagE,"G",@,_ZNSt3__222__compressed_pair_elemINS_14default_deleteINS_5tupleIJNS_10unique_ptrINS_15__thread_structENS1_IS4_EEEEPFvRNS_6atomicIiEEiiENS_17reference_wrapperIS8_EEiiEEEEELi1ELb1EEC2B8ne190106ENS_16__value_init_tagE,comdat
	.hidden	_ZNSt3__222__compressed_pair_elemINS_14default_deleteINS_5tupleIJNS_10unique_ptrINS_15__thread_structENS1_IS4_EEEEPFvRNS_6atomicIiEEiiENS_17reference_wrapperIS8_EEiiEEEEELi1ELb1EEC2B8ne190106ENS_16__value_init_tagE # -- Begin function _ZNSt3__222__compressed_pair_elemINS_14default_deleteINS_5tupleIJNS_10unique_ptrINS_15__thread_structENS1_IS4_EEEEPFvRNS_6atomicIiEEiiENS_17reference_wrapperIS8_EEiiEEEEELi1ELb1EEC2B8ne190106ENS_16__value_init_tagE
	.weak	_ZNSt3__222__compressed_pair_elemINS_14default_deleteINS_5tupleIJNS_10unique_ptrINS_15__thread_structENS1_IS4_EEEEPFvRNS_6atomicIiEEiiENS_17reference_wrapperIS8_EEiiEEEEELi1ELb1EEC2B8ne190106ENS_16__value_init_tagE
	.type	_ZNSt3__222__compressed_pair_elemINS_14default_deleteINS_5tupleIJNS_10unique_ptrINS_15__thread_structENS1_IS4_EEEEPFvRNS_6atomicIiEEiiENS_17reference_wrapperIS8_EEiiEEEEELi1ELb1EEC2B8ne190106ENS_16__value_init_tagE,@function
_ZNSt3__222__compressed_pair_elemINS_14default_deleteINS_5tupleIJNS_10unique_ptrINS_15__thread_structENS1_IS4_EEEEPFvRNS_6atomicIiEEiiENS_17reference_wrapperIS8_EEiiEEEEELi1ELb1EEC2B8ne190106ENS_16__value_init_tagE: # @_ZNSt3__222__compressed_pair_elemINS_14default_deleteINS_5tupleIJNS_10unique_ptrINS_15__thread_structENS1_IS4_EEEEPFvRNS_6atomicIiEEiiENS_17reference_wrapperIS8_EEiiEEEEELi1ELb1EEC2B8ne190106ENS_16__value_init_tagE
.Lfunc_begin88:
	.loc	16 78 0 is_stmt 1               # emscripten/cache/sysroot/include/c++/v1/__memory/compressed_pair.h:78:0
	.functype	_ZNSt3__222__compressed_pair_elemINS_14default_deleteINS_5tupleIJNS_10unique_ptrINS_15__thread_structENS1_IS4_EEEEPFvRNS_6atomicIiEEiiENS_17reference_wrapperIS8_EEiiEEEEELi1ELb1EEC2B8ne190106ENS_16__value_init_tagE (i32) -> (i32)
	.local  	i32, i32, i32, i32
# %bb.0:                                # %entry
	global.get	__stack_pointer
	local.set	1
	i32.const	16
	local.set	2
	local.get	1
	local.get	2
	i32.sub 
	local.set	3
	local.get	3
	local.get	0
	i32.store	8
	local.get	3
	i32.load	8
	local.set	4
.Ltmp228:
	.loc	16 78 111 prologue_end          # emscripten/cache/sysroot/include/c++/v1/__memory/compressed_pair.h:78:111
	local.get	4
	return
	end_function
.Ltmp229:
.Lfunc_end88:
                                        # -- End function
	.section	.text._ZNSt3__221__thread_specific_ptrINS_15__thread_structEE11set_pointerEPS1_,"G",@,_ZNSt3__221__thread_specific_ptrINS_15__thread_structEE11set_pointerEPS1_,comdat
	.hidden	_ZNSt3__221__thread_specific_ptrINS_15__thread_structEE11set_pointerEPS1_ # -- Begin function _ZNSt3__221__thread_specific_ptrINS_15__thread_structEE11set_pointerEPS1_
	.weak	_ZNSt3__221__thread_specific_ptrINS_15__thread_structEE11set_pointerEPS1_
	.type	_ZNSt3__221__thread_specific_ptrINS_15__thread_structEE11set_pointerEPS1_,@function
_ZNSt3__221__thread_specific_ptrINS_15__thread_structEE11set_pointerEPS1_: # @_ZNSt3__221__thread_specific_ptrINS_15__thread_structEE11set_pointerEPS1_
.Lfunc_begin89:
	.loc	2 108 0                         # emscripten/cache/sysroot/include/c++/v1/__thread/thread.h:108:0
	.functype	_ZNSt3__221__thread_specific_ptrINS_15__thread_structEE11set_pointerEPS1_ (i32, i32) -> ()
	.local  	i32, i32, i32, i32, i32, i32, i32, i32
# %bb.0:                                # %entry
	global.get	__stack_pointer
	local.set	2
	i32.const	16
	local.set	3
	local.get	2
	local.get	3
	i32.sub 
	local.set	4
	local.get	4
	global.set	__stack_pointer
	local.get	4
	local.get	0
	i32.store	12
	local.get	4
	local.get	1
	i32.store	8
	local.get	4
	i32.load	12
	local.set	5
.Ltmp230:
	.loc	2 110 25 prologue_end           # emscripten/cache/sysroot/include/c++/v1/__thread/thread.h:110:25
	local.get	5
	i32.load	0
	local.set	6
	.loc	2 110 33 is_stmt 0              # emscripten/cache/sysroot/include/c++/v1/__thread/thread.h:110:33
	local.get	4
	i32.load	8
	local.set	7
	.loc	2 110 3                         # emscripten/cache/sysroot/include/c++/v1/__thread/thread.h:110:3
	local.get	6
	local.get	7
	call	_ZNSt3__216__libcpp_tls_setB8ne190106EjPv
	drop
	.loc	2 111 1 is_stmt 1               # emscripten/cache/sysroot/include/c++/v1/__thread/thread.h:111:1
	i32.const	16
	local.set	8
	local.get	4
	local.get	8
	i32.add 
	local.set	9
	local.get	9
	global.set	__stack_pointer
	return
	end_function
.Ltmp231:
.Lfunc_end89:
                                        # -- End function
	.section	.text._ZNSt3__23getB8ne190106ILm0EJNS_10unique_ptrINS_15__thread_structENS_14default_deleteIS2_EEEEPFvRNS_6atomicIiEEiiENS_17reference_wrapperIS7_EEiiEEERNS_13tuple_elementIXT_ENS_5tupleIJDpT0_EEEE4typeERSH_,"G",@,_ZNSt3__23getB8ne190106ILm0EJNS_10unique_ptrINS_15__thread_structENS_14default_deleteIS2_EEEEPFvRNS_6atomicIiEEiiENS_17reference_wrapperIS7_EEiiEEERNS_13tuple_elementIXT_ENS_5tupleIJDpT0_EEEE4typeERSH_,comdat
	.hidden	_ZNSt3__23getB8ne190106ILm0EJNS_10unique_ptrINS_15__thread_structENS_14default_deleteIS2_EEEEPFvRNS_6atomicIiEEiiENS_17reference_wrapperIS7_EEiiEEERNS_13tuple_elementIXT_ENS_5tupleIJDpT0_EEEE4typeERSH_ # -- Begin function _ZNSt3__23getB8ne190106ILm0EJNS_10unique_ptrINS_15__thread_structENS_14default_deleteIS2_EEEEPFvRNS_6atomicIiEEiiENS_17reference_wrapperIS7_EEiiEEERNS_13tuple_elementIXT_ENS_5tupleIJDpT0_EEEE4typeERSH_
	.weak	_ZNSt3__23getB8ne190106ILm0EJNS_10unique_ptrINS_15__thread_structENS_14default_deleteIS2_EEEEPFvRNS_6atomicIiEEiiENS_17reference_wrapperIS7_EEiiEEERNS_13tuple_elementIXT_ENS_5tupleIJDpT0_EEEE4typeERSH_
	.type	_ZNSt3__23getB8ne190106ILm0EJNS_10unique_ptrINS_15__thread_structENS_14default_deleteIS2_EEEEPFvRNS_6atomicIiEEiiENS_17reference_wrapperIS7_EEiiEEERNS_13tuple_elementIXT_ENS_5tupleIJDpT0_EEEE4typeERSH_,@function
_ZNSt3__23getB8ne190106ILm0EJNS_10unique_ptrINS_15__thread_structENS_14default_deleteIS2_EEEEPFvRNS_6atomicIiEEiiENS_17reference_wrapperIS7_EEiiEEERNS_13tuple_elementIXT_ENS_5tupleIJDpT0_EEEE4typeERSH_: # @_ZNSt3__23getB8ne190106ILm0EJNS_10unique_ptrINS_15__thread_structENS_14default_deleteIS2_EEEEPFvRNS_6atomicIiEEiiENS_17reference_wrapperIS7_EEiiEEERNS_13tuple_elementIXT_ENS_5tupleIJDpT0_EEEE4typeERSH_
.Lfunc_begin90:
	.loc	33 1064 0                       # emscripten/cache/sysroot/include/c++/v1/tuple:1064:0
	.functype	_ZNSt3__23getB8ne190106ILm0EJNS_10unique_ptrINS_15__thread_structENS_14default_deleteIS2_EEEEPFvRNS_6atomicIiEEiiENS_17reference_wrapperIS7_EEiiEEERNS_13tuple_elementIXT_ENS_5tupleIJDpT0_EEEE4typeERSH_ (i32) -> (i32)
	.local  	i32, i32, i32, i32, i32, i32, i32
# %bb.0:                                # %entry
	global.get	__stack_pointer
	local.set	1
	i32.const	16
	local.set	2
	local.get	1
	local.get	2
	i32.sub 
	local.set	3
	local.get	3
	global.set	__stack_pointer
	local.get	3
	local.get	0
	i32.store	12
.Ltmp232:
	.loc	33 1066 48 prologue_end         # emscripten/cache/sysroot/include/c++/v1/tuple:1066:48
	local.get	3
	i32.load	12
	local.set	4
	.loc	33 1066 61 is_stmt 0            # emscripten/cache/sysroot/include/c++/v1/tuple:1066:61
	local.get	4
	call	_ZNSt3__212__tuple_leafILm0ENS_10unique_ptrINS_15__thread_structENS_14default_deleteIS2_EEEELb0EE3getB8ne190106Ev
	local.set	5
	.loc	33 1066 3                       # emscripten/cache/sysroot/include/c++/v1/tuple:1066:3
	i32.const	16
	local.set	6
	local.get	3
	local.get	6
	i32.add 
	local.set	7
	local.get	7
	global.set	__stack_pointer
	local.get	5
	return
	end_function
.Ltmp233:
.Lfunc_end90:
                                        # -- End function
	.section	.text._ZNSt3__216__thread_executeB8ne190106INS_10unique_ptrINS_15__thread_structENS_14default_deleteIS2_EEEEPFvRNS_6atomicIiEEiiEJNS_17reference_wrapperIS7_EEiiEJLm2ELm3ELm4EEEEvRNS_5tupleIJT_T0_DpT1_EEENS_15__tuple_indicesIJXspT2_EEEE,"G",@,_ZNSt3__216__thread_executeB8ne190106INS_10unique_ptrINS_15__thread_structENS_14default_deleteIS2_EEEEPFvRNS_6atomicIiEEiiEJNS_17reference_wrapperIS7_EEiiEJLm2ELm3ELm4EEEEvRNS_5tupleIJT_T0_DpT1_EEENS_15__tuple_indicesIJXspT2_EEEE,comdat
	.hidden	_ZNSt3__216__thread_executeB8ne190106INS_10unique_ptrINS_15__thread_structENS_14default_deleteIS2_EEEEPFvRNS_6atomicIiEEiiEJNS_17reference_wrapperIS7_EEiiEJLm2ELm3ELm4EEEEvRNS_5tupleIJT_T0_DpT1_EEENS_15__tuple_indicesIJXspT2_EEEE # -- Begin function _ZNSt3__216__thread_executeB8ne190106INS_10unique_ptrINS_15__thread_structENS_14default_deleteIS2_EEEEPFvRNS_6atomicIiEEiiEJNS_17reference_wrapperIS7_EEiiEJLm2ELm3ELm4EEEEvRNS_5tupleIJT_T0_DpT1_EEENS_15__tuple_indicesIJXspT2_EEEE
	.weak	_ZNSt3__216__thread_executeB8ne190106INS_10unique_ptrINS_15__thread_structENS_14default_deleteIS2_EEEEPFvRNS_6atomicIiEEiiEJNS_17reference_wrapperIS7_EEiiEJLm2ELm3ELm4EEEEvRNS_5tupleIJT_T0_DpT1_EEENS_15__tuple_indicesIJXspT2_EEEE
	.type	_ZNSt3__216__thread_executeB8ne190106INS_10unique_ptrINS_15__thread_structENS_14default_deleteIS2_EEEEPFvRNS_6atomicIiEEiiEJNS_17reference_wrapperIS7_EEiiEJLm2ELm3ELm4EEEEvRNS_5tupleIJT_T0_DpT1_EEENS_15__tuple_indicesIJXspT2_EEEE,@function
_ZNSt3__216__thread_executeB8ne190106INS_10unique_ptrINS_15__thread_structENS_14default_deleteIS2_EEEEPFvRNS_6atomicIiEEiiEJNS_17reference_wrapperIS7_EEiiEJLm2ELm3ELm4EEEEvRNS_5tupleIJT_T0_DpT1_EEENS_15__tuple_indicesIJXspT2_EEEE: # @_ZNSt3__216__thread_executeB8ne190106INS_10unique_ptrINS_15__thread_structENS_14default_deleteIS2_EEEEPFvRNS_6atomicIiEEiiEJNS_17reference_wrapperIS7_EEiiEJLm2ELm3ELm4EEEEvRNS_5tupleIJT_T0_DpT1_EEENS_15__tuple_indicesIJXspT2_EEEE
.Lfunc_begin91:
	.loc	2 191 0 is_stmt 1               # emscripten/cache/sysroot/include/c++/v1/__thread/thread.h:191:0
	.functype	_ZNSt3__216__thread_executeB8ne190106INS_10unique_ptrINS_15__thread_structENS_14default_deleteIS2_EEEEPFvRNS_6atomicIiEEiiEJNS_17reference_wrapperIS7_EEiiEJLm2ELm3ELm4EEEEvRNS_5tupleIJT_T0_DpT1_EEENS_15__tuple_indicesIJXspT2_EEEE (i32) -> ()
	.local  	i32, i32, i32, i32, i32, i32, i32, i32, i32, i32, i32, i32, i32
# %bb.0:                                # %entry
	global.get	__stack_pointer
	local.set	1
	i32.const	16
	local.set	2
	local.get	1
	local.get	2
	i32.sub 
	local.set	3
	local.get	3
	global.set	__stack_pointer
	local.get	3
	local.get	0
	i32.store	8
.Ltmp234:
	.loc	2 192 39 prologue_end           # emscripten/cache/sysroot/include/c++/v1/__thread/thread.h:192:39
	local.get	3
	i32.load	8
	local.set	4
	.loc	2 192 27 is_stmt 0              # emscripten/cache/sysroot/include/c++/v1/__thread/thread.h:192:27
	local.get	4
	call	_ZNSt3__23getB8ne190106ILm1EJNS_10unique_ptrINS_15__thread_structENS_14default_deleteIS2_EEEEPFvRNS_6atomicIiEEiiENS_17reference_wrapperIS7_EEiiEEERNS_13tuple_elementIXT_ENS_5tupleIJDpT0_EEEE4typeERSH_
	local.set	5
	.loc	2 192 75                        # emscripten/cache/sysroot/include/c++/v1/__thread/thread.h:192:75
	local.get	3
	i32.load	8
	local.set	6
	.loc	2 192 56                        # emscripten/cache/sysroot/include/c++/v1/__thread/thread.h:192:56
	local.get	6
	call	_ZNSt3__23getB8ne190106ILm2EJNS_10unique_ptrINS_15__thread_structENS_14default_deleteIS2_EEEEPFvRNS_6atomicIiEEiiENS_17reference_wrapperIS7_EEiiEEERNS_13tuple_elementIXT_ENS_5tupleIJDpT0_EEEE4typeERSH_
	local.set	7
	.loc	2 192 75                        # emscripten/cache/sysroot/include/c++/v1/__thread/thread.h:192:75
	local.get	3
	i32.load	8
	local.set	8
	.loc	2 192 56                        # emscripten/cache/sysroot/include/c++/v1/__thread/thread.h:192:56
	local.get	8
	call	_ZNSt3__23getB8ne190106ILm3EJNS_10unique_ptrINS_15__thread_structENS_14default_deleteIS2_EEEEPFvRNS_6atomicIiEEiiENS_17reference_wrapperIS7_EEiiEEERNS_13tuple_elementIXT_ENS_5tupleIJDpT0_EEEE4typeERSH_
	local.set	9
	.loc	2 192 75                        # emscripten/cache/sysroot/include/c++/v1/__thread/thread.h:192:75
	local.get	3
	i32.load	8
	local.set	10
	.loc	2 192 56                        # emscripten/cache/sysroot/include/c++/v1/__thread/thread.h:192:56
	local.get	10
	call	_ZNSt3__23getB8ne190106ILm4EJNS_10unique_ptrINS_15__thread_structENS_14default_deleteIS2_EEEEPFvRNS_6atomicIiEEiiENS_17reference_wrapperIS7_EEiiEEERNS_13tuple_elementIXT_ENS_5tupleIJDpT0_EEEE4typeERSH_
	local.set	11
	.loc	2 192 3                         # emscripten/cache/sysroot/include/c++/v1/__thread/thread.h:192:3
	local.get	5
	local.get	7
	local.get	9
	local.get	11
	call	_ZNSt3__28__invokeB8ne190106IPFvRNS_6atomicIiEEiiEJNS_17reference_wrapperIS2_EEiiEEEDTclclsr3stdE7declvalIT_EEspclsr3stdE7declvalIT0_EEEEOS8_DpOS9_
	.loc	2 193 1 is_stmt 1               # emscripten/cache/sysroot/include/c++/v1/__thread/thread.h:193:1
	i32.const	16
	local.set	12
	local.get	3
	local.get	12
	i32.add 
	local.set	13
	local.get	13
	global.set	__stack_pointer
	return
	end_function
.Ltmp235:
.Lfunc_end91:
                                        # -- End function
	.section	.text._ZNSt3__216__libcpp_tls_setB8ne190106EjPv,"G",@,_ZNSt3__216__libcpp_tls_setB8ne190106EjPv,comdat
	.hidden	_ZNSt3__216__libcpp_tls_setB8ne190106EjPv # -- Begin function _ZNSt3__216__libcpp_tls_setB8ne190106EjPv
	.weak	_ZNSt3__216__libcpp_tls_setB8ne190106EjPv
	.type	_ZNSt3__216__libcpp_tls_setB8ne190106EjPv,@function
_ZNSt3__216__libcpp_tls_setB8ne190106EjPv: # @_ZNSt3__216__libcpp_tls_setB8ne190106EjPv
.Lfunc_begin92:
	.loc	13 215 0                        # emscripten/cache/sysroot/include/c++/v1/__thread/support/pthread.h:215:0
	.functype	_ZNSt3__216__libcpp_tls_setB8ne190106EjPv (i32, i32) -> (i32)
	.local  	i32, i32, i32, i32, i32, i32, i32, i32
# %bb.0:                                # %entry
	global.get	__stack_pointer
	local.set	2
	i32.const	16
	local.set	3
	local.get	2
	local.get	3
	i32.sub 
	local.set	4
	local.get	4
	global.set	__stack_pointer
	local.get	4
	local.get	0
	i32.store	12
	local.get	4
	local.get	1
	i32.store	8
.Ltmp236:
	.loc	13 216 30 prologue_end          # emscripten/cache/sysroot/include/c++/v1/__thread/support/pthread.h:216:30
	local.get	4
	i32.load	12
	local.set	5
	.loc	13 216 37 is_stmt 0             # emscripten/cache/sysroot/include/c++/v1/__thread/support/pthread.h:216:37
	local.get	4
	i32.load	8
	local.set	6
	.loc	13 216 10                       # emscripten/cache/sysroot/include/c++/v1/__thread/support/pthread.h:216:10
	local.get	5
	local.get	6
	call	pthread_setspecific
	local.set	7
	.loc	13 216 3                        # emscripten/cache/sysroot/include/c++/v1/__thread/support/pthread.h:216:3
	i32.const	16
	local.set	8
	local.get	4
	local.get	8
	i32.add 
	local.set	9
	local.get	9
	global.set	__stack_pointer
	local.get	7
	return
	end_function
.Ltmp237:
.Lfunc_end92:
                                        # -- End function
	.section	.text._ZNSt3__212__tuple_leafILm0ENS_10unique_ptrINS_15__thread_structENS_14default_deleteIS2_EEEELb0EE3getB8ne190106Ev,"G",@,_ZNSt3__212__tuple_leafILm0ENS_10unique_ptrINS_15__thread_structENS_14default_deleteIS2_EEEELb0EE3getB8ne190106Ev,comdat
	.hidden	_ZNSt3__212__tuple_leafILm0ENS_10unique_ptrINS_15__thread_structENS_14default_deleteIS2_EEEELb0EE3getB8ne190106Ev # -- Begin function _ZNSt3__212__tuple_leafILm0ENS_10unique_ptrINS_15__thread_structENS_14default_deleteIS2_EEEELb0EE3getB8ne190106Ev
	.weak	_ZNSt3__212__tuple_leafILm0ENS_10unique_ptrINS_15__thread_structENS_14default_deleteIS2_EEEELb0EE3getB8ne190106Ev
	.type	_ZNSt3__212__tuple_leafILm0ENS_10unique_ptrINS_15__thread_structENS_14default_deleteIS2_EEEELb0EE3getB8ne190106Ev,@function
_ZNSt3__212__tuple_leafILm0ENS_10unique_ptrINS_15__thread_structENS_14default_deleteIS2_EEEELb0EE3getB8ne190106Ev: # @_ZNSt3__212__tuple_leafILm0ENS_10unique_ptrINS_15__thread_structENS_14default_deleteIS2_EEEELb0EE3getB8ne190106Ev
.Lfunc_begin93:
	.loc	33 382 0 is_stmt 1              # emscripten/cache/sysroot/include/c++/v1/tuple:382:0
	.functype	_ZNSt3__212__tuple_leafILm0ENS_10unique_ptrINS_15__thread_structENS_14default_deleteIS2_EEEELb0EE3getB8ne190106Ev (i32) -> (i32)
	.local  	i32, i32, i32, i32
# %bb.0:                                # %entry
	global.get	__stack_pointer
	local.set	1
	i32.const	16
	local.set	2
	local.get	1
	local.get	2
	i32.sub 
	local.set	3
	local.get	3
	local.get	0
	i32.store	12
	local.get	3
	i32.load	12
	local.set	4
.Ltmp238:
	.loc	33 382 78 prologue_end          # emscripten/cache/sysroot/include/c++/v1/tuple:382:78
	local.get	4
	return
	end_function
.Ltmp239:
.Lfunc_end93:
                                        # -- End function
	.section	.text._ZNSt3__28__invokeB8ne190106IPFvRNS_6atomicIiEEiiEJNS_17reference_wrapperIS2_EEiiEEEDTclclsr3stdE7declvalIT_EEspclsr3stdE7declvalIT0_EEEEOS8_DpOS9_,"G",@,_ZNSt3__28__invokeB8ne190106IPFvRNS_6atomicIiEEiiEJNS_17reference_wrapperIS2_EEiiEEEDTclclsr3stdE7declvalIT_EEspclsr3stdE7declvalIT0_EEEEOS8_DpOS9_,comdat
	.hidden	_ZNSt3__28__invokeB8ne190106IPFvRNS_6atomicIiEEiiEJNS_17reference_wrapperIS2_EEiiEEEDTclclsr3stdE7declvalIT_EEspclsr3stdE7declvalIT0_EEEEOS8_DpOS9_ # -- Begin function _ZNSt3__28__invokeB8ne190106IPFvRNS_6atomicIiEEiiEJNS_17reference_wrapperIS2_EEiiEEEDTclclsr3stdE7declvalIT_EEspclsr3stdE7declvalIT0_EEEEOS8_DpOS9_
	.weak	_ZNSt3__28__invokeB8ne190106IPFvRNS_6atomicIiEEiiEJNS_17reference_wrapperIS2_EEiiEEEDTclclsr3stdE7declvalIT_EEspclsr3stdE7declvalIT0_EEEEOS8_DpOS9_
	.type	_ZNSt3__28__invokeB8ne190106IPFvRNS_6atomicIiEEiiEJNS_17reference_wrapperIS2_EEiiEEEDTclclsr3stdE7declvalIT_EEspclsr3stdE7declvalIT0_EEEEOS8_DpOS9_,@function
_ZNSt3__28__invokeB8ne190106IPFvRNS_6atomicIiEEiiEJNS_17reference_wrapperIS2_EEiiEEEDTclclsr3stdE7declvalIT_EEspclsr3stdE7declvalIT0_EEEEOS8_DpOS9_: # @_ZNSt3__28__invokeB8ne190106IPFvRNS_6atomicIiEEiiEJNS_17reference_wrapperIS2_EEiiEEEDTclclsr3stdE7declvalIT_EEspclsr3stdE7declvalIT0_EEEEOS8_DpOS9_
.Lfunc_begin94:
	.file	46 "/home/kay/Documents/Code/toolchain-wasm" "emscripten/cache/sysroot/include/c++/v1/__type_traits/invoke.h"
	.loc	46 149 0                        # emscripten/cache/sysroot/include/c++/v1/__type_traits/invoke.h:149:0
	.functype	_ZNSt3__28__invokeB8ne190106IPFvRNS_6atomicIiEEiiEJNS_17reference_wrapperIS2_EEiiEEEDTclclsr3stdE7declvalIT_EEspclsr3stdE7declvalIT0_EEEEOS8_DpOS9_ (i32, i32, i32, i32) -> ()
	.local  	i32, i32, i32, i32, i32, i32, i32, i32, i32, i32, i32, i32, i32
# %bb.0:                                # %entry
	global.get	__stack_pointer
	local.set	4
	i32.const	16
	local.set	5
	local.get	4
	local.get	5
	i32.sub 
	local.set	6
	local.get	6
	global.set	__stack_pointer
	local.get	6
	local.get	0
	i32.store	12
	local.get	6
	local.get	1
	i32.store	8
	local.get	6
	local.get	2
	i32.store	4
	local.get	6
	local.get	3
	i32.store	0
.Ltmp240:
	.loc	46 149 44 prologue_end          # emscripten/cache/sysroot/include/c++/v1/__type_traits/invoke.h:149:44
	local.get	6
	i32.load	12
	local.set	7
	local.get	7
	i32.load	0
	local.set	8
	.loc	46 149 70 is_stmt 0             # emscripten/cache/sysroot/include/c++/v1/__type_traits/invoke.h:149:70
	local.get	6
	i32.load	8
	local.set	9
	.loc	46 149 49                       # emscripten/cache/sysroot/include/c++/v1/__type_traits/invoke.h:149:49
	local.get	9
	call	_ZNKSt3__217reference_wrapperINS_6atomicIiEEEcvRS2_B8ne190106Ev
	local.set	10
	.loc	46 149 70                       # emscripten/cache/sysroot/include/c++/v1/__type_traits/invoke.h:149:70
	local.get	6
	i32.load	4
	local.set	11
	local.get	11
	i32.load	0
	local.set	12
	local.get	6
	i32.load	0
	local.set	13
	local.get	13
	i32.load	0
	local.set	14
	.loc	46 149 25                       # emscripten/cache/sysroot/include/c++/v1/__type_traits/invoke.h:149:25
	local.get	10
	local.get	12
	local.get	14
	local.get	8
	call_indirect	 __indirect_function_table, (i32, i32, i32) -> ()
	.loc	46 149 18                       # emscripten/cache/sysroot/include/c++/v1/__type_traits/invoke.h:149:18
	i32.const	16
	local.set	15
	local.get	6
	local.get	15
	i32.add 
	local.set	16
	local.get	16
	global.set	__stack_pointer
	return
	end_function
.Ltmp241:
.Lfunc_end94:
                                        # -- End function
	.section	.text._ZNSt3__23getB8ne190106ILm1EJNS_10unique_ptrINS_15__thread_structENS_14default_deleteIS2_EEEEPFvRNS_6atomicIiEEiiENS_17reference_wrapperIS7_EEiiEEERNS_13tuple_elementIXT_ENS_5tupleIJDpT0_EEEE4typeERSH_,"G",@,_ZNSt3__23getB8ne190106ILm1EJNS_10unique_ptrINS_15__thread_structENS_14default_deleteIS2_EEEEPFvRNS_6atomicIiEEiiENS_17reference_wrapperIS7_EEiiEEERNS_13tuple_elementIXT_ENS_5tupleIJDpT0_EEEE4typeERSH_,comdat
	.hidden	_ZNSt3__23getB8ne190106ILm1EJNS_10unique_ptrINS_15__thread_structENS_14default_deleteIS2_EEEEPFvRNS_6atomicIiEEiiENS_17reference_wrapperIS7_EEiiEEERNS_13tuple_elementIXT_ENS_5tupleIJDpT0_EEEE4typeERSH_ # -- Begin function _ZNSt3__23getB8ne190106ILm1EJNS_10unique_ptrINS_15__thread_structENS_14default_deleteIS2_EEEEPFvRNS_6atomicIiEEiiENS_17reference_wrapperIS7_EEiiEEERNS_13tuple_elementIXT_ENS_5tupleIJDpT0_EEEE4typeERSH_
	.weak	_ZNSt3__23getB8ne190106ILm1EJNS_10unique_ptrINS_15__thread_structENS_14default_deleteIS2_EEEEPFvRNS_6atomicIiEEiiENS_17reference_wrapperIS7_EEiiEEERNS_13tuple_elementIXT_ENS_5tupleIJDpT0_EEEE4typeERSH_
	.type	_ZNSt3__23getB8ne190106ILm1EJNS_10unique_ptrINS_15__thread_structENS_14default_deleteIS2_EEEEPFvRNS_6atomicIiEEiiENS_17reference_wrapperIS7_EEiiEEERNS_13tuple_elementIXT_ENS_5tupleIJDpT0_EEEE4typeERSH_,@function
_ZNSt3__23getB8ne190106ILm1EJNS_10unique_ptrINS_15__thread_structENS_14default_deleteIS2_EEEEPFvRNS_6atomicIiEEiiENS_17reference_wrapperIS7_EEiiEEERNS_13tuple_elementIXT_ENS_5tupleIJDpT0_EEEE4typeERSH_: # @_ZNSt3__23getB8ne190106ILm1EJNS_10unique_ptrINS_15__thread_structENS_14default_deleteIS2_EEEEPFvRNS_6atomicIiEEiiENS_17reference_wrapperIS7_EEiiEEERNS_13tuple_elementIXT_ENS_5tupleIJDpT0_EEEE4typeERSH_
.Lfunc_begin95:
	.loc	33 1064 0 is_stmt 1             # emscripten/cache/sysroot/include/c++/v1/tuple:1064:0
	.functype	_ZNSt3__23getB8ne190106ILm1EJNS_10unique_ptrINS_15__thread_structENS_14default_deleteIS2_EEEEPFvRNS_6atomicIiEEiiENS_17reference_wrapperIS7_EEiiEEERNS_13tuple_elementIXT_ENS_5tupleIJDpT0_EEEE4typeERSH_ (i32) -> (i32)
	.local  	i32, i32, i32, i32, i32, i32, i32, i32, i32
# %bb.0:                                # %entry
	global.get	__stack_pointer
	local.set	1
	i32.const	16
	local.set	2
	local.get	1
	local.get	2
	i32.sub 
	local.set	3
	local.get	3
	global.set	__stack_pointer
	local.get	3
	local.get	0
	i32.store	12
.Ltmp242:
	.loc	33 1066 48 prologue_end         # emscripten/cache/sysroot/include/c++/v1/tuple:1066:48
	local.get	3
	i32.load	12
	local.set	4
	i32.const	4
	local.set	5
	local.get	4
	local.get	5
	i32.add 
	local.set	6
	.loc	33 1066 61 is_stmt 0            # emscripten/cache/sysroot/include/c++/v1/tuple:1066:61
	local.get	6
	call	_ZNSt3__212__tuple_leafILm1EPFvRNS_6atomicIiEEiiELb0EE3getB8ne190106Ev
	local.set	7
	.loc	33 1066 3                       # emscripten/cache/sysroot/include/c++/v1/tuple:1066:3
	i32.const	16
	local.set	8
	local.get	3
	local.get	8
	i32.add 
	local.set	9
	local.get	9
	global.set	__stack_pointer
	local.get	7
	return
	end_function
.Ltmp243:
.Lfunc_end95:
                                        # -- End function
	.section	.text._ZNSt3__23getB8ne190106ILm2EJNS_10unique_ptrINS_15__thread_structENS_14default_deleteIS2_EEEEPFvRNS_6atomicIiEEiiENS_17reference_wrapperIS7_EEiiEEERNS_13tuple_elementIXT_ENS_5tupleIJDpT0_EEEE4typeERSH_,"G",@,_ZNSt3__23getB8ne190106ILm2EJNS_10unique_ptrINS_15__thread_structENS_14default_deleteIS2_EEEEPFvRNS_6atomicIiEEiiENS_17reference_wrapperIS7_EEiiEEERNS_13tuple_elementIXT_ENS_5tupleIJDpT0_EEEE4typeERSH_,comdat
	.hidden	_ZNSt3__23getB8ne190106ILm2EJNS_10unique_ptrINS_15__thread_structENS_14default_deleteIS2_EEEEPFvRNS_6atomicIiEEiiENS_17reference_wrapperIS7_EEiiEEERNS_13tuple_elementIXT_ENS_5tupleIJDpT0_EEEE4typeERSH_ # -- Begin function _ZNSt3__23getB8ne190106ILm2EJNS_10unique_ptrINS_15__thread_structENS_14default_deleteIS2_EEEEPFvRNS_6atomicIiEEiiENS_17reference_wrapperIS7_EEiiEEERNS_13tuple_elementIXT_ENS_5tupleIJDpT0_EEEE4typeERSH_
	.weak	_ZNSt3__23getB8ne190106ILm2EJNS_10unique_ptrINS_15__thread_structENS_14default_deleteIS2_EEEEPFvRNS_6atomicIiEEiiENS_17reference_wrapperIS7_EEiiEEERNS_13tuple_elementIXT_ENS_5tupleIJDpT0_EEEE4typeERSH_
	.type	_ZNSt3__23getB8ne190106ILm2EJNS_10unique_ptrINS_15__thread_structENS_14default_deleteIS2_EEEEPFvRNS_6atomicIiEEiiENS_17reference_wrapperIS7_EEiiEEERNS_13tuple_elementIXT_ENS_5tupleIJDpT0_EEEE4typeERSH_,@function
_ZNSt3__23getB8ne190106ILm2EJNS_10unique_ptrINS_15__thread_structENS_14default_deleteIS2_EEEEPFvRNS_6atomicIiEEiiENS_17reference_wrapperIS7_EEiiEEERNS_13tuple_elementIXT_ENS_5tupleIJDpT0_EEEE4typeERSH_: # @_ZNSt3__23getB8ne190106ILm2EJNS_10unique_ptrINS_15__thread_structENS_14default_deleteIS2_EEEEPFvRNS_6atomicIiEEiiENS_17reference_wrapperIS7_EEiiEEERNS_13tuple_elementIXT_ENS_5tupleIJDpT0_EEEE4typeERSH_
.Lfunc_begin96:
	.loc	33 1064 0 is_stmt 1             # emscripten/cache/sysroot/include/c++/v1/tuple:1064:0
	.functype	_ZNSt3__23getB8ne190106ILm2EJNS_10unique_ptrINS_15__thread_structENS_14default_deleteIS2_EEEEPFvRNS_6atomicIiEEiiENS_17reference_wrapperIS7_EEiiEEERNS_13tuple_elementIXT_ENS_5tupleIJDpT0_EEEE4typeERSH_ (i32) -> (i32)
	.local  	i32, i32, i32, i32, i32, i32, i32, i32, i32
# %bb.0:                                # %entry
	global.get	__stack_pointer
	local.set	1
	i32.const	16
	local.set	2
	local.get	1
	local.get	2
	i32.sub 
	local.set	3
	local.get	3
	global.set	__stack_pointer
	local.get	3
	local.get	0
	i32.store	12
.Ltmp244:
	.loc	33 1066 48 prologue_end         # emscripten/cache/sysroot/include/c++/v1/tuple:1066:48
	local.get	3
	i32.load	12
	local.set	4
	i32.const	8
	local.set	5
	local.get	4
	local.get	5
	i32.add 
	local.set	6
	.loc	33 1066 61 is_stmt 0            # emscripten/cache/sysroot/include/c++/v1/tuple:1066:61
	local.get	6
	call	_ZNSt3__212__tuple_leafILm2ENS_17reference_wrapperINS_6atomicIiEEEELb0EE3getB8ne190106Ev
	local.set	7
	.loc	33 1066 3                       # emscripten/cache/sysroot/include/c++/v1/tuple:1066:3
	i32.const	16
	local.set	8
	local.get	3
	local.get	8
	i32.add 
	local.set	9
	local.get	9
	global.set	__stack_pointer
	local.get	7
	return
	end_function
.Ltmp245:
.Lfunc_end96:
                                        # -- End function
	.section	.text._ZNSt3__23getB8ne190106ILm3EJNS_10unique_ptrINS_15__thread_structENS_14default_deleteIS2_EEEEPFvRNS_6atomicIiEEiiENS_17reference_wrapperIS7_EEiiEEERNS_13tuple_elementIXT_ENS_5tupleIJDpT0_EEEE4typeERSH_,"G",@,_ZNSt3__23getB8ne190106ILm3EJNS_10unique_ptrINS_15__thread_structENS_14default_deleteIS2_EEEEPFvRNS_6atomicIiEEiiENS_17reference_wrapperIS7_EEiiEEERNS_13tuple_elementIXT_ENS_5tupleIJDpT0_EEEE4typeERSH_,comdat
	.hidden	_ZNSt3__23getB8ne190106ILm3EJNS_10unique_ptrINS_15__thread_structENS_14default_deleteIS2_EEEEPFvRNS_6atomicIiEEiiENS_17reference_wrapperIS7_EEiiEEERNS_13tuple_elementIXT_ENS_5tupleIJDpT0_EEEE4typeERSH_ # -- Begin function _ZNSt3__23getB8ne190106ILm3EJNS_10unique_ptrINS_15__thread_structENS_14default_deleteIS2_EEEEPFvRNS_6atomicIiEEiiENS_17reference_wrapperIS7_EEiiEEERNS_13tuple_elementIXT_ENS_5tupleIJDpT0_EEEE4typeERSH_
	.weak	_ZNSt3__23getB8ne190106ILm3EJNS_10unique_ptrINS_15__thread_structENS_14default_deleteIS2_EEEEPFvRNS_6atomicIiEEiiENS_17reference_wrapperIS7_EEiiEEERNS_13tuple_elementIXT_ENS_5tupleIJDpT0_EEEE4typeERSH_
	.type	_ZNSt3__23getB8ne190106ILm3EJNS_10unique_ptrINS_15__thread_structENS_14default_deleteIS2_EEEEPFvRNS_6atomicIiEEiiENS_17reference_wrapperIS7_EEiiEEERNS_13tuple_elementIXT_ENS_5tupleIJDpT0_EEEE4typeERSH_,@function
_ZNSt3__23getB8ne190106ILm3EJNS_10unique_ptrINS_15__thread_structENS_14default_deleteIS2_EEEEPFvRNS_6atomicIiEEiiENS_17reference_wrapperIS7_EEiiEEERNS_13tuple_elementIXT_ENS_5tupleIJDpT0_EEEE4typeERSH_: # @_ZNSt3__23getB8ne190106ILm3EJNS_10unique_ptrINS_15__thread_structENS_14default_deleteIS2_EEEEPFvRNS_6atomicIiEEiiENS_17reference_wrapperIS7_EEiiEEERNS_13tuple_elementIXT_ENS_5tupleIJDpT0_EEEE4typeERSH_
.Lfunc_begin97:
	.loc	33 1064 0 is_stmt 1             # emscripten/cache/sysroot/include/c++/v1/tuple:1064:0
	.functype	_ZNSt3__23getB8ne190106ILm3EJNS_10unique_ptrINS_15__thread_structENS_14default_deleteIS2_EEEEPFvRNS_6atomicIiEEiiENS_17reference_wrapperIS7_EEiiEEERNS_13tuple_elementIXT_ENS_5tupleIJDpT0_EEEE4typeERSH_ (i32) -> (i32)
	.local  	i32, i32, i32, i32, i32, i32, i32, i32, i32
# %bb.0:                                # %entry
	global.get	__stack_pointer
	local.set	1
	i32.const	16
	local.set	2
	local.get	1
	local.get	2
	i32.sub 
	local.set	3
	local.get	3
	global.set	__stack_pointer
	local.get	3
	local.get	0
	i32.store	12
.Ltmp246:
	.loc	33 1066 48 prologue_end         # emscripten/cache/sysroot/include/c++/v1/tuple:1066:48
	local.get	3
	i32.load	12
	local.set	4
	i32.const	12
	local.set	5
	local.get	4
	local.get	5
	i32.add 
	local.set	6
	.loc	33 1066 61 is_stmt 0            # emscripten/cache/sysroot/include/c++/v1/tuple:1066:61
	local.get	6
	call	_ZNSt3__212__tuple_leafILm3EiLb0EE3getB8ne190106Ev
	local.set	7
	.loc	33 1066 3                       # emscripten/cache/sysroot/include/c++/v1/tuple:1066:3
	i32.const	16
	local.set	8
	local.get	3
	local.get	8
	i32.add 
	local.set	9
	local.get	9
	global.set	__stack_pointer
	local.get	7
	return
	end_function
.Ltmp247:
.Lfunc_end97:
                                        # -- End function
	.section	.text._ZNSt3__23getB8ne190106ILm4EJNS_10unique_ptrINS_15__thread_structENS_14default_deleteIS2_EEEEPFvRNS_6atomicIiEEiiENS_17reference_wrapperIS7_EEiiEEERNS_13tuple_elementIXT_ENS_5tupleIJDpT0_EEEE4typeERSH_,"G",@,_ZNSt3__23getB8ne190106ILm4EJNS_10unique_ptrINS_15__thread_structENS_14default_deleteIS2_EEEEPFvRNS_6atomicIiEEiiENS_17reference_wrapperIS7_EEiiEEERNS_13tuple_elementIXT_ENS_5tupleIJDpT0_EEEE4typeERSH_,comdat
	.hidden	_ZNSt3__23getB8ne190106ILm4EJNS_10unique_ptrINS_15__thread_structENS_14default_deleteIS2_EEEEPFvRNS_6atomicIiEEiiENS_17reference_wrapperIS7_EEiiEEERNS_13tuple_elementIXT_ENS_5tupleIJDpT0_EEEE4typeERSH_ # -- Begin function _ZNSt3__23getB8ne190106ILm4EJNS_10unique_ptrINS_15__thread_structENS_14default_deleteIS2_EEEEPFvRNS_6atomicIiEEiiENS_17reference_wrapperIS7_EEiiEEERNS_13tuple_elementIXT_ENS_5tupleIJDpT0_EEEE4typeERSH_
	.weak	_ZNSt3__23getB8ne190106ILm4EJNS_10unique_ptrINS_15__thread_structENS_14default_deleteIS2_EEEEPFvRNS_6atomicIiEEiiENS_17reference_wrapperIS7_EEiiEEERNS_13tuple_elementIXT_ENS_5tupleIJDpT0_EEEE4typeERSH_
	.type	_ZNSt3__23getB8ne190106ILm4EJNS_10unique_ptrINS_15__thread_structENS_14default_deleteIS2_EEEEPFvRNS_6atomicIiEEiiENS_17reference_wrapperIS7_EEiiEEERNS_13tuple_elementIXT_ENS_5tupleIJDpT0_EEEE4typeERSH_,@function
_ZNSt3__23getB8ne190106ILm4EJNS_10unique_ptrINS_15__thread_structENS_14default_deleteIS2_EEEEPFvRNS_6atomicIiEEiiENS_17reference_wrapperIS7_EEiiEEERNS_13tuple_elementIXT_ENS_5tupleIJDpT0_EEEE4typeERSH_: # @_ZNSt3__23getB8ne190106ILm4EJNS_10unique_ptrINS_15__thread_structENS_14default_deleteIS2_EEEEPFvRNS_6atomicIiEEiiENS_17reference_wrapperIS7_EEiiEEERNS_13tuple_elementIXT_ENS_5tupleIJDpT0_EEEE4typeERSH_
.Lfunc_begin98:
	.loc	33 1064 0 is_stmt 1             # emscripten/cache/sysroot/include/c++/v1/tuple:1064:0
	.functype	_ZNSt3__23getB8ne190106ILm4EJNS_10unique_ptrINS_15__thread_structENS_14default_deleteIS2_EEEEPFvRNS_6atomicIiEEiiENS_17reference_wrapperIS7_EEiiEEERNS_13tuple_elementIXT_ENS_5tupleIJDpT0_EEEE4typeERSH_ (i32) -> (i32)
	.local  	i32, i32, i32, i32, i32, i32, i32, i32, i32
# %bb.0:                                # %entry
	global.get	__stack_pointer
	local.set	1
	i32.const	16
	local.set	2
	local.get	1
	local.get	2
	i32.sub 
	local.set	3
	local.get	3
	global.set	__stack_pointer
	local.get	3
	local.get	0
	i32.store	12
.Ltmp248:
	.loc	33 1066 48 prologue_end         # emscripten/cache/sysroot/include/c++/v1/tuple:1066:48
	local.get	3
	i32.load	12
	local.set	4
	i32.const	16
	local.set	5
	local.get	4
	local.get	5
	i32.add 
	local.set	6
	.loc	33 1066 61 is_stmt 0            # emscripten/cache/sysroot/include/c++/v1/tuple:1066:61
	local.get	6
	call	_ZNSt3__212__tuple_leafILm4EiLb0EE3getB8ne190106Ev
	local.set	7
	.loc	33 1066 3                       # emscripten/cache/sysroot/include/c++/v1/tuple:1066:3
	i32.const	16
	local.set	8
	local.get	3
	local.get	8
	i32.add 
	local.set	9
	local.get	9
	global.set	__stack_pointer
	local.get	7
	return
	end_function
.Ltmp249:
.Lfunc_end98:
                                        # -- End function
	.section	.text._ZNKSt3__217reference_wrapperINS_6atomicIiEEEcvRS2_B8ne190106Ev,"G",@,_ZNKSt3__217reference_wrapperINS_6atomicIiEEEcvRS2_B8ne190106Ev,comdat
	.hidden	_ZNKSt3__217reference_wrapperINS_6atomicIiEEEcvRS2_B8ne190106Ev # -- Begin function _ZNKSt3__217reference_wrapperINS_6atomicIiEEEcvRS2_B8ne190106Ev
	.weak	_ZNKSt3__217reference_wrapperINS_6atomicIiEEEcvRS2_B8ne190106Ev
	.type	_ZNKSt3__217reference_wrapperINS_6atomicIiEEEcvRS2_B8ne190106Ev,@function
_ZNKSt3__217reference_wrapperINS_6atomicIiEEEcvRS2_B8ne190106Ev: # @_ZNKSt3__217reference_wrapperINS_6atomicIiEEEcvRS2_B8ne190106Ev
.Lfunc_begin99:
	.loc	28 55 0 is_stmt 1               # emscripten/cache/sysroot/include/c++/v1/__functional/reference_wrapper.h:55:0
	.functype	_ZNKSt3__217reference_wrapperINS_6atomicIiEEEcvRS2_B8ne190106Ev (i32) -> (i32)
	.local  	i32, i32, i32, i32, i32
# %bb.0:                                # %entry
	global.get	__stack_pointer
	local.set	1
	i32.const	16
	local.set	2
	local.get	1
	local.get	2
	i32.sub 
	local.set	3
	local.get	3
	local.get	0
	i32.store	12
	local.get	3
	i32.load	12
	local.set	4
.Ltmp250:
	.loc	28 55 98 prologue_end           # emscripten/cache/sysroot/include/c++/v1/__functional/reference_wrapper.h:55:98
	local.get	4
	i32.load	0
	local.set	5
	.loc	28 55 90 is_stmt 0              # emscripten/cache/sysroot/include/c++/v1/__functional/reference_wrapper.h:55:90
	local.get	5
	return
	end_function
.Ltmp251:
.Lfunc_end99:
                                        # -- End function
	.section	.text._ZNSt3__212__tuple_leafILm1EPFvRNS_6atomicIiEEiiELb0EE3getB8ne190106Ev,"G",@,_ZNSt3__212__tuple_leafILm1EPFvRNS_6atomicIiEEiiELb0EE3getB8ne190106Ev,comdat
	.hidden	_ZNSt3__212__tuple_leafILm1EPFvRNS_6atomicIiEEiiELb0EE3getB8ne190106Ev # -- Begin function _ZNSt3__212__tuple_leafILm1EPFvRNS_6atomicIiEEiiELb0EE3getB8ne190106Ev
	.weak	_ZNSt3__212__tuple_leafILm1EPFvRNS_6atomicIiEEiiELb0EE3getB8ne190106Ev
	.type	_ZNSt3__212__tuple_leafILm1EPFvRNS_6atomicIiEEiiELb0EE3getB8ne190106Ev,@function
_ZNSt3__212__tuple_leafILm1EPFvRNS_6atomicIiEEiiELb0EE3getB8ne190106Ev: # @_ZNSt3__212__tuple_leafILm1EPFvRNS_6atomicIiEEiiELb0EE3getB8ne190106Ev
.Lfunc_begin100:
	.loc	33 382 0 is_stmt 1              # emscripten/cache/sysroot/include/c++/v1/tuple:382:0
	.functype	_ZNSt3__212__tuple_leafILm1EPFvRNS_6atomicIiEEiiELb0EE3getB8ne190106Ev (i32) -> (i32)
	.local  	i32, i32, i32, i32
# %bb.0:                                # %entry
	global.get	__stack_pointer
	local.set	1
	i32.const	16
	local.set	2
	local.get	1
	local.get	2
	i32.sub 
	local.set	3
	local.get	3
	local.get	0
	i32.store	12
	local.get	3
	i32.load	12
	local.set	4
.Ltmp252:
	.loc	33 382 78 prologue_end          # emscripten/cache/sysroot/include/c++/v1/tuple:382:78
	local.get	4
	return
	end_function
.Ltmp253:
.Lfunc_end100:
                                        # -- End function
	.section	.text._ZNSt3__212__tuple_leafILm2ENS_17reference_wrapperINS_6atomicIiEEEELb0EE3getB8ne190106Ev,"G",@,_ZNSt3__212__tuple_leafILm2ENS_17reference_wrapperINS_6atomicIiEEEELb0EE3getB8ne190106Ev,comdat
	.hidden	_ZNSt3__212__tuple_leafILm2ENS_17reference_wrapperINS_6atomicIiEEEELb0EE3getB8ne190106Ev # -- Begin function _ZNSt3__212__tuple_leafILm2ENS_17reference_wrapperINS_6atomicIiEEEELb0EE3getB8ne190106Ev
	.weak	_ZNSt3__212__tuple_leafILm2ENS_17reference_wrapperINS_6atomicIiEEEELb0EE3getB8ne190106Ev
	.type	_ZNSt3__212__tuple_leafILm2ENS_17reference_wrapperINS_6atomicIiEEEELb0EE3getB8ne190106Ev,@function
_ZNSt3__212__tuple_leafILm2ENS_17reference_wrapperINS_6atomicIiEEEELb0EE3getB8ne190106Ev: # @_ZNSt3__212__tuple_leafILm2ENS_17reference_wrapperINS_6atomicIiEEEELb0EE3getB8ne190106Ev
.Lfunc_begin101:
	.loc	33 382 0                        # emscripten/cache/sysroot/include/c++/v1/tuple:382:0
	.functype	_ZNSt3__212__tuple_leafILm2ENS_17reference_wrapperINS_6atomicIiEEEELb0EE3getB8ne190106Ev (i32) -> (i32)
	.local  	i32, i32, i32, i32
# %bb.0:                                # %entry
	global.get	__stack_pointer
	local.set	1
	i32.const	16
	local.set	2
	local.get	1
	local.get	2
	i32.sub 
	local.set	3
	local.get	3
	local.get	0
	i32.store	12
	local.get	3
	i32.load	12
	local.set	4
.Ltmp254:
	.loc	33 382 78 prologue_end          # emscripten/cache/sysroot/include/c++/v1/tuple:382:78
	local.get	4
	return
	end_function
.Ltmp255:
.Lfunc_end101:
                                        # -- End function
	.section	.text._ZNSt3__212__tuple_leafILm3EiLb0EE3getB8ne190106Ev,"G",@,_ZNSt3__212__tuple_leafILm3EiLb0EE3getB8ne190106Ev,comdat
	.hidden	_ZNSt3__212__tuple_leafILm3EiLb0EE3getB8ne190106Ev # -- Begin function _ZNSt3__212__tuple_leafILm3EiLb0EE3getB8ne190106Ev
	.weak	_ZNSt3__212__tuple_leafILm3EiLb0EE3getB8ne190106Ev
	.type	_ZNSt3__212__tuple_leafILm3EiLb0EE3getB8ne190106Ev,@function
_ZNSt3__212__tuple_leafILm3EiLb0EE3getB8ne190106Ev: # @_ZNSt3__212__tuple_leafILm3EiLb0EE3getB8ne190106Ev
.Lfunc_begin102:
	.loc	33 382 0                        # emscripten/cache/sysroot/include/c++/v1/tuple:382:0
	.functype	_ZNSt3__212__tuple_leafILm3EiLb0EE3getB8ne190106Ev (i32) -> (i32)
	.local  	i32, i32, i32, i32
# %bb.0:                                # %entry
	global.get	__stack_pointer
	local.set	1
	i32.const	16
	local.set	2
	local.get	1
	local.get	2
	i32.sub 
	local.set	3
	local.get	3
	local.get	0
	i32.store	12
	local.get	3
	i32.load	12
	local.set	4
.Ltmp256:
	.loc	33 382 78 prologue_end          # emscripten/cache/sysroot/include/c++/v1/tuple:382:78
	local.get	4
	return
	end_function
.Ltmp257:
.Lfunc_end102:
                                        # -- End function
	.section	.text._ZNSt3__212__tuple_leafILm4EiLb0EE3getB8ne190106Ev,"G",@,_ZNSt3__212__tuple_leafILm4EiLb0EE3getB8ne190106Ev,comdat
	.hidden	_ZNSt3__212__tuple_leafILm4EiLb0EE3getB8ne190106Ev # -- Begin function _ZNSt3__212__tuple_leafILm4EiLb0EE3getB8ne190106Ev
	.weak	_ZNSt3__212__tuple_leafILm4EiLb0EE3getB8ne190106Ev
	.type	_ZNSt3__212__tuple_leafILm4EiLb0EE3getB8ne190106Ev,@function
_ZNSt3__212__tuple_leafILm4EiLb0EE3getB8ne190106Ev: # @_ZNSt3__212__tuple_leafILm4EiLb0EE3getB8ne190106Ev
.Lfunc_begin103:
	.loc	33 382 0                        # emscripten/cache/sysroot/include/c++/v1/tuple:382:0
	.functype	_ZNSt3__212__tuple_leafILm4EiLb0EE3getB8ne190106Ev (i32) -> (i32)
	.local  	i32, i32, i32, i32
# %bb.0:                                # %entry
	global.get	__stack_pointer
	local.set	1
	i32.const	16
	local.set	2
	local.get	1
	local.get	2
	i32.sub 
	local.set	3
	local.get	3
	local.get	0
	i32.store	12
	local.get	3
	i32.load	12
	local.set	4
.Ltmp258:
	.loc	33 382 78 prologue_end          # emscripten/cache/sysroot/include/c++/v1/tuple:382:78
	local.get	4
	return
	end_function
.Ltmp259:
.Lfunc_end103:
                                        # -- End function
	.section	.text._ZNKSt3__217__compressed_pairIPNS_5tupleIJNS_10unique_ptrINS_15__thread_structENS_14default_deleteIS3_EEEEPFvRNS_6atomicIiEEiiENS_17reference_wrapperIS8_EEiiEEENS4_ISE_EEE5firstB8ne190106Ev,"G",@,_ZNKSt3__217__compressed_pairIPNS_5tupleIJNS_10unique_ptrINS_15__thread_structENS_14default_deleteIS3_EEEEPFvRNS_6atomicIiEEiiENS_17reference_wrapperIS8_EEiiEEENS4_ISE_EEE5firstB8ne190106Ev,comdat
	.hidden	_ZNKSt3__217__compressed_pairIPNS_5tupleIJNS_10unique_ptrINS_15__thread_structENS_14default_deleteIS3_EEEEPFvRNS_6atomicIiEEiiENS_17reference_wrapperIS8_EEiiEEENS4_ISE_EEE5firstB8ne190106Ev # -- Begin function _ZNKSt3__217__compressed_pairIPNS_5tupleIJNS_10unique_ptrINS_15__thread_structENS_14default_deleteIS3_EEEEPFvRNS_6atomicIiEEiiENS_17reference_wrapperIS8_EEiiEEENS4_ISE_EEE5firstB8ne190106Ev
	.weak	_ZNKSt3__217__compressed_pairIPNS_5tupleIJNS_10unique_ptrINS_15__thread_structENS_14default_deleteIS3_EEEEPFvRNS_6atomicIiEEiiENS_17reference_wrapperIS8_EEiiEEENS4_ISE_EEE5firstB8ne190106Ev
	.type	_ZNKSt3__217__compressed_pairIPNS_5tupleIJNS_10unique_ptrINS_15__thread_structENS_14default_deleteIS3_EEEEPFvRNS_6atomicIiEEiiENS_17reference_wrapperIS8_EEiiEEENS4_ISE_EEE5firstB8ne190106Ev,@function
_ZNKSt3__217__compressed_pairIPNS_5tupleIJNS_10unique_ptrINS_15__thread_structENS_14default_deleteIS3_EEEEPFvRNS_6atomicIiEEiiENS_17reference_wrapperIS8_EEiiEEENS4_ISE_EEE5firstB8ne190106Ev: # @_ZNKSt3__217__compressed_pairIPNS_5tupleIJNS_10unique_ptrINS_15__thread_structENS_14default_deleteIS3_EEEEPFvRNS_6atomicIiEEiiENS_17reference_wrapperIS8_EEiiEEENS4_ISE_EEE5firstB8ne190106Ev
.Lfunc_begin104:
	.loc	16 133 0                        # emscripten/cache/sysroot/include/c++/v1/__memory/compressed_pair.h:133:0
	.functype	_ZNKSt3__217__compressed_pairIPNS_5tupleIJNS_10unique_ptrINS_15__thread_structENS_14default_deleteIS3_EEEEPFvRNS_6atomicIiEEiiENS_17reference_wrapperIS8_EEiiEEENS4_ISE_EEE5firstB8ne190106Ev (i32) -> (i32)
	.local  	i32, i32, i32, i32, i32, i32, i32
# %bb.0:                                # %entry
	global.get	__stack_pointer
	local.set	1
	i32.const	16
	local.set	2
	local.get	1
	local.get	2
	i32.sub 
	local.set	3
	local.get	3
	global.set	__stack_pointer
	local.get	3
	local.get	0
	i32.store	12
	local.get	3
	i32.load	12
	local.set	4
.Ltmp260:
	.loc	16 134 46 prologue_end          # emscripten/cache/sysroot/include/c++/v1/__memory/compressed_pair.h:134:46
	local.get	4
	call	_ZNKSt3__222__compressed_pair_elemIPNS_5tupleIJNS_10unique_ptrINS_15__thread_structENS_14default_deleteIS3_EEEEPFvRNS_6atomicIiEEiiENS_17reference_wrapperIS8_EEiiEEELi0ELb0EE5__getB8ne190106Ev
	local.set	5
	.loc	16 134 5 is_stmt 0              # emscripten/cache/sysroot/include/c++/v1/__memory/compressed_pair.h:134:5
	i32.const	16
	local.set	6
	local.get	3
	local.get	6
	i32.add 
	local.set	7
	local.get	7
	global.set	__stack_pointer
	local.get	5
	return
	end_function
.Ltmp261:
.Lfunc_end104:
                                        # -- End function
	.section	.text._ZNKSt3__222__compressed_pair_elemIPNS_5tupleIJNS_10unique_ptrINS_15__thread_structENS_14default_deleteIS3_EEEEPFvRNS_6atomicIiEEiiENS_17reference_wrapperIS8_EEiiEEELi0ELb0EE5__getB8ne190106Ev,"G",@,_ZNKSt3__222__compressed_pair_elemIPNS_5tupleIJNS_10unique_ptrINS_15__thread_structENS_14default_deleteIS3_EEEEPFvRNS_6atomicIiEEiiENS_17reference_wrapperIS8_EEiiEEELi0ELb0EE5__getB8ne190106Ev,comdat
	.hidden	_ZNKSt3__222__compressed_pair_elemIPNS_5tupleIJNS_10unique_ptrINS_15__thread_structENS_14default_deleteIS3_EEEEPFvRNS_6atomicIiEEiiENS_17reference_wrapperIS8_EEiiEEELi0ELb0EE5__getB8ne190106Ev # -- Begin function _ZNKSt3__222__compressed_pair_elemIPNS_5tupleIJNS_10unique_ptrINS_15__thread_structENS_14default_deleteIS3_EEEEPFvRNS_6atomicIiEEiiENS_17reference_wrapperIS8_EEiiEEELi0ELb0EE5__getB8ne190106Ev
	.weak	_ZNKSt3__222__compressed_pair_elemIPNS_5tupleIJNS_10unique_ptrINS_15__thread_structENS_14default_deleteIS3_EEEEPFvRNS_6atomicIiEEiiENS_17reference_wrapperIS8_EEiiEEELi0ELb0EE5__getB8ne190106Ev
	.type	_ZNKSt3__222__compressed_pair_elemIPNS_5tupleIJNS_10unique_ptrINS_15__thread_structENS_14default_deleteIS3_EEEEPFvRNS_6atomicIiEEiiENS_17reference_wrapperIS8_EEiiEEELi0ELb0EE5__getB8ne190106Ev,@function
_ZNKSt3__222__compressed_pair_elemIPNS_5tupleIJNS_10unique_ptrINS_15__thread_structENS_14default_deleteIS3_EEEEPFvRNS_6atomicIiEEiiENS_17reference_wrapperIS8_EEiiEEELi0ELb0EE5__getB8ne190106Ev: # @_ZNKSt3__222__compressed_pair_elemIPNS_5tupleIJNS_10unique_ptrINS_15__thread_structENS_14default_deleteIS3_EEEEPFvRNS_6atomicIiEEiiENS_17reference_wrapperIS8_EEiiEEELi0ELb0EE5__getB8ne190106Ev
.Lfunc_begin105:
	.loc	16 63 0 is_stmt 1               # emscripten/cache/sysroot/include/c++/v1/__memory/compressed_pair.h:63:0
	.functype	_ZNKSt3__222__compressed_pair_elemIPNS_5tupleIJNS_10unique_ptrINS_15__thread_structENS_14default_deleteIS3_EEEEPFvRNS_6atomicIiEEiiENS_17reference_wrapperIS8_EEiiEEELi0ELb0EE5__getB8ne190106Ev (i32) -> (i32)
	.local  	i32, i32, i32, i32
# %bb.0:                                # %entry
	global.get	__stack_pointer
	local.set	1
	i32.const	16
	local.set	2
	local.get	1
	local.get	2
	i32.sub 
	local.set	3
	local.get	3
	local.get	0
	i32.store	12
	local.get	3
	i32.load	12
	local.set	4
.Ltmp262:
	.loc	16 63 85 prologue_end           # emscripten/cache/sysroot/include/c++/v1/__memory/compressed_pair.h:63:85
	local.get	4
	return
	end_function
.Ltmp263:
.Lfunc_end105:
                                        # -- End function
	.section	.text._ZNSt3__217__compressed_pairIPNS_5tupleIJNS_10unique_ptrINS_15__thread_structENS_14default_deleteIS3_EEEEPFvRNS_6atomicIiEEiiENS_17reference_wrapperIS8_EEiiEEENS4_ISE_EEE5firstB8ne190106Ev,"G",@,_ZNSt3__217__compressed_pairIPNS_5tupleIJNS_10unique_ptrINS_15__thread_structENS_14default_deleteIS3_EEEEPFvRNS_6atomicIiEEiiENS_17reference_wrapperIS8_EEiiEEENS4_ISE_EEE5firstB8ne190106Ev,comdat
	.hidden	_ZNSt3__217__compressed_pairIPNS_5tupleIJNS_10unique_ptrINS_15__thread_structENS_14default_deleteIS3_EEEEPFvRNS_6atomicIiEEiiENS_17reference_wrapperIS8_EEiiEEENS4_ISE_EEE5firstB8ne190106Ev # -- Begin function _ZNSt3__217__compressed_pairIPNS_5tupleIJNS_10unique_ptrINS_15__thread_structENS_14default_deleteIS3_EEEEPFvRNS_6atomicIiEEiiENS_17reference_wrapperIS8_EEiiEEENS4_ISE_EEE5firstB8ne190106Ev
	.weak	_ZNSt3__217__compressed_pairIPNS_5tupleIJNS_10unique_ptrINS_15__thread_structENS_14default_deleteIS3_EEEEPFvRNS_6atomicIiEEiiENS_17reference_wrapperIS8_EEiiEEENS4_ISE_EEE5firstB8ne190106Ev
	.type	_ZNSt3__217__compressed_pairIPNS_5tupleIJNS_10unique_ptrINS_15__thread_structENS_14default_deleteIS3_EEEEPFvRNS_6atomicIiEEiiENS_17reference_wrapperIS8_EEiiEEENS4_ISE_EEE5firstB8ne190106Ev,@function
_ZNSt3__217__compressed_pairIPNS_5tupleIJNS_10unique_ptrINS_15__thread_structENS_14default_deleteIS3_EEEEPFvRNS_6atomicIiEEiiENS_17reference_wrapperIS8_EEiiEEENS4_ISE_EEE5firstB8ne190106Ev: # @_ZNSt3__217__compressed_pairIPNS_5tupleIJNS_10unique_ptrINS_15__thread_structENS_14default_deleteIS3_EEEEPFvRNS_6atomicIiEEiiENS_17reference_wrapperIS8_EEiiEEENS4_ISE_EEE5firstB8ne190106Ev
.Lfunc_begin106:
	.loc	16 129 0                        # emscripten/cache/sysroot/include/c++/v1/__memory/compressed_pair.h:129:0
	.functype	_ZNSt3__217__compressed_pairIPNS_5tupleIJNS_10unique_ptrINS_15__thread_structENS_14default_deleteIS3_EEEEPFvRNS_6atomicIiEEiiENS_17reference_wrapperIS8_EEiiEEENS4_ISE_EEE5firstB8ne190106Ev (i32) -> (i32)
	.local  	i32, i32, i32, i32, i32, i32, i32
# %bb.0:                                # %entry
	global.get	__stack_pointer
	local.set	1
	i32.const	16
	local.set	2
	local.get	1
	local.get	2
	i32.sub 
	local.set	3
	local.get	3
	global.set	__stack_pointer
	local.get	3
	local.get	0
	i32.store	12
	local.get	3
	i32.load	12
	local.set	4
.Ltmp264:
	.loc	16 130 40 prologue_end          # emscripten/cache/sysroot/include/c++/v1/__memory/compressed_pair.h:130:40
	local.get	4
	call	_ZNSt3__222__compressed_pair_elemIPNS_5tupleIJNS_10unique_ptrINS_15__thread_structENS_14default_deleteIS3_EEEEPFvRNS_6atomicIiEEiiENS_17reference_wrapperIS8_EEiiEEELi0ELb0EE5__getB8ne190106Ev
	local.set	5
	.loc	16 130 5 is_stmt 0              # emscripten/cache/sysroot/include/c++/v1/__memory/compressed_pair.h:130:5
	i32.const	16
	local.set	6
	local.get	3
	local.get	6
	i32.add 
	local.set	7
	local.get	7
	global.set	__stack_pointer
	local.get	5
	return
	end_function
.Ltmp265:
.Lfunc_end106:
                                        # -- End function
	.section	.text._ZNSt3__222__compressed_pair_elemIPNS_5tupleIJNS_10unique_ptrINS_15__thread_structENS_14default_deleteIS3_EEEEPFvRNS_6atomicIiEEiiENS_17reference_wrapperIS8_EEiiEEELi0ELb0EE5__getB8ne190106Ev,"G",@,_ZNSt3__222__compressed_pair_elemIPNS_5tupleIJNS_10unique_ptrINS_15__thread_structENS_14default_deleteIS3_EEEEPFvRNS_6atomicIiEEiiENS_17reference_wrapperIS8_EEiiEEELi0ELb0EE5__getB8ne190106Ev,comdat
	.hidden	_ZNSt3__222__compressed_pair_elemIPNS_5tupleIJNS_10unique_ptrINS_15__thread_structENS_14default_deleteIS3_EEEEPFvRNS_6atomicIiEEiiENS_17reference_wrapperIS8_EEiiEEELi0ELb0EE5__getB8ne190106Ev # -- Begin function _ZNSt3__222__compressed_pair_elemIPNS_5tupleIJNS_10unique_ptrINS_15__thread_structENS_14default_deleteIS3_EEEEPFvRNS_6atomicIiEEiiENS_17reference_wrapperIS8_EEiiEEELi0ELb0EE5__getB8ne190106Ev
	.weak	_ZNSt3__222__compressed_pair_elemIPNS_5tupleIJNS_10unique_ptrINS_15__thread_structENS_14default_deleteIS3_EEEEPFvRNS_6atomicIiEEiiENS_17reference_wrapperIS8_EEiiEEELi0ELb0EE5__getB8ne190106Ev
	.type	_ZNSt3__222__compressed_pair_elemIPNS_5tupleIJNS_10unique_ptrINS_15__thread_structENS_14default_deleteIS3_EEEEPFvRNS_6atomicIiEEiiENS_17reference_wrapperIS8_EEiiEEELi0ELb0EE5__getB8ne190106Ev,@function
_ZNSt3__222__compressed_pair_elemIPNS_5tupleIJNS_10unique_ptrINS_15__thread_structENS_14default_deleteIS3_EEEEPFvRNS_6atomicIiEEiiENS_17reference_wrapperIS8_EEiiEEELi0ELb0EE5__getB8ne190106Ev: # @_ZNSt3__222__compressed_pair_elemIPNS_5tupleIJNS_10unique_ptrINS_15__thread_structENS_14default_deleteIS3_EEEEPFvRNS_6atomicIiEEiiENS_17reference_wrapperIS8_EEiiEEELi0ELb0EE5__getB8ne190106Ev
.Lfunc_begin107:
	.loc	16 62 0 is_stmt 1               # emscripten/cache/sysroot/include/c++/v1/__memory/compressed_pair.h:62:0
	.functype	_ZNSt3__222__compressed_pair_elemIPNS_5tupleIJNS_10unique_ptrINS_15__thread_structENS_14default_deleteIS3_EEEEPFvRNS_6atomicIiEEiiENS_17reference_wrapperIS8_EEiiEEELi0ELb0EE5__getB8ne190106Ev (i32) -> (i32)
	.local  	i32, i32, i32, i32
# %bb.0:                                # %entry
	global.get	__stack_pointer
	local.set	1
	i32.const	16
	local.set	2
	local.get	1
	local.get	2
	i32.sub 
	local.set	3
	local.get	3
	local.get	0
	i32.store	12
	local.get	3
	i32.load	12
	local.set	4
.Ltmp266:
	.loc	16 62 85 prologue_end           # emscripten/cache/sysroot/include/c++/v1/__memory/compressed_pair.h:62:85
	local.get	4
	return
	end_function
.Ltmp267:
.Lfunc_end107:
                                        # -- End function
	.section	.text._ZNSt3__210unique_ptrINS_5tupleIJNS0_INS_15__thread_structENS_14default_deleteIS2_EEEEPFvRNS_6atomicIiEEiiENS_17reference_wrapperIS7_EEiiEEENS3_ISD_EEE5resetB8ne190106EPSD_,"G",@,_ZNSt3__210unique_ptrINS_5tupleIJNS0_INS_15__thread_structENS_14default_deleteIS2_EEEEPFvRNS_6atomicIiEEiiENS_17reference_wrapperIS7_EEiiEEENS3_ISD_EEE5resetB8ne190106EPSD_,comdat
	.hidden	_ZNSt3__210unique_ptrINS_5tupleIJNS0_INS_15__thread_structENS_14default_deleteIS2_EEEEPFvRNS_6atomicIiEEiiENS_17reference_wrapperIS7_EEiiEEENS3_ISD_EEE5resetB8ne190106EPSD_ # -- Begin function _ZNSt3__210unique_ptrINS_5tupleIJNS0_INS_15__thread_structENS_14default_deleteIS2_EEEEPFvRNS_6atomicIiEEiiENS_17reference_wrapperIS7_EEiiEEENS3_ISD_EEE5resetB8ne190106EPSD_
	.weak	_ZNSt3__210unique_ptrINS_5tupleIJNS0_INS_15__thread_structENS_14default_deleteIS2_EEEEPFvRNS_6atomicIiEEiiENS_17reference_wrapperIS7_EEiiEEENS3_ISD_EEE5resetB8ne190106EPSD_
	.type	_ZNSt3__210unique_ptrINS_5tupleIJNS0_INS_15__thread_structENS_14default_deleteIS2_EEEEPFvRNS_6atomicIiEEiiENS_17reference_wrapperIS7_EEiiEEENS3_ISD_EEE5resetB8ne190106EPSD_,@function
_ZNSt3__210unique_ptrINS_5tupleIJNS0_INS_15__thread_structENS_14default_deleteIS2_EEEEPFvRNS_6atomicIiEEiiENS_17reference_wrapperIS7_EEiiEEENS3_ISD_EEE5resetB8ne190106EPSD_: # @_ZNSt3__210unique_ptrINS_5tupleIJNS0_INS_15__thread_structENS_14default_deleteIS2_EEEEPFvRNS_6atomicIiEEiiENS_17reference_wrapperIS7_EEiiEEENS3_ISD_EEE5resetB8ne190106EPSD_
.Lfunc_begin108:
	.loc	29 288 0                        # emscripten/cache/sysroot/include/c++/v1/__memory/unique_ptr.h:288:0
	.functype	_ZNSt3__210unique_ptrINS_5tupleIJNS0_INS_15__thread_structENS_14default_deleteIS2_EEEEPFvRNS_6atomicIiEEiiENS_17reference_wrapperIS7_EEiiEEENS3_ISD_EEE5resetB8ne190106EPSD_ (i32, i32) -> ()
	.local  	i32, i32, i32, i32, i32, i32, i32, i32, i32, i32, i32, i32, i32, i32, i32, i32, i32
# %bb.0:                                # %entry
	global.get	__stack_pointer
	local.set	2
	i32.const	16
	local.set	3
	local.get	2
	local.get	3
	i32.sub 
	local.set	4
	local.get	4
	global.set	__stack_pointer
	local.get	4
	local.get	0
	i32.store	12
	local.get	4
	local.get	1
	i32.store	8
	local.get	4
	i32.load	12
	local.set	5
.Ltmp268:
	.loc	29 289 29 prologue_end          # emscripten/cache/sysroot/include/c++/v1/__memory/unique_ptr.h:289:29
	local.get	5
	call	_ZNSt3__217__compressed_pairIPNS_5tupleIJNS_10unique_ptrINS_15__thread_structENS_14default_deleteIS3_EEEEPFvRNS_6atomicIiEEiiENS_17reference_wrapperIS8_EEiiEEENS4_ISE_EEE5firstB8ne190106Ev
	local.set	6
	local.get	6
	i32.load	0
	local.set	7
	.loc	29 289 13 is_stmt 0             # emscripten/cache/sysroot/include/c++/v1/__memory/unique_ptr.h:289:13
	local.get	4
	local.get	7
	i32.store	4
	.loc	29 290 22 is_stmt 1             # emscripten/cache/sysroot/include/c++/v1/__memory/unique_ptr.h:290:22
	local.get	4
	i32.load	8
	local.set	8
	.loc	29 290 12 is_stmt 0             # emscripten/cache/sysroot/include/c++/v1/__memory/unique_ptr.h:290:12
	local.get	5
	call	_ZNSt3__217__compressed_pairIPNS_5tupleIJNS_10unique_ptrINS_15__thread_structENS_14default_deleteIS3_EEEEPFvRNS_6atomicIiEEiiENS_17reference_wrapperIS8_EEiiEEENS4_ISE_EEE5firstB8ne190106Ev
	local.set	9
	.loc	29 290 20                       # emscripten/cache/sysroot/include/c++/v1/__memory/unique_ptr.h:290:20
	local.get	9
	local.get	8
	i32.store	0
.Ltmp269:
	.loc	29 291 9 is_stmt 1              # emscripten/cache/sysroot/include/c++/v1/__memory/unique_ptr.h:291:9
	local.get	4
	i32.load	4
	local.set	10
	i32.const	0
	local.set	11
	local.get	10
	local.get	11
	i32.ne  
	local.set	12
	i32.const	1
	local.set	13
	local.get	12
	local.get	13
	i32.and 
	local.set	14
	block   	
	local.get	14
	i32.eqz
	br_if   	0                               # 0: down to label25
# %bb.1:                                # %if.then
	.loc	29 292 14                       # emscripten/cache/sysroot/include/c++/v1/__memory/unique_ptr.h:292:14
	local.get	5
	call	_ZNSt3__217__compressed_pairIPNS_5tupleIJNS_10unique_ptrINS_15__thread_structENS_14default_deleteIS3_EEEEPFvRNS_6atomicIiEEiiENS_17reference_wrapperIS8_EEiiEEENS4_ISE_EEE6secondB8ne190106Ev
	local.set	15
	.loc	29 292 23 is_stmt 0             # emscripten/cache/sysroot/include/c++/v1/__memory/unique_ptr.h:292:23
	local.get	4
	i32.load	4
	local.set	16
	.loc	29 292 7                        # emscripten/cache/sysroot/include/c++/v1/__memory/unique_ptr.h:292:7
	local.get	15
	local.get	16
	call	_ZNKSt3__214default_deleteINS_5tupleIJNS_10unique_ptrINS_15__thread_structENS0_IS3_EEEEPFvRNS_6atomicIiEEiiENS_17reference_wrapperIS7_EEiiEEEEclB8ne190106EPSD_
.Ltmp270:
.LBB108_2:                              # %if.end
	.loc	29 0 7                          # emscripten/cache/sysroot/include/c++/v1/__memory/unique_ptr.h:0:7
	end_block                               # label25:
	.loc	29 293 3 is_stmt 1              # emscripten/cache/sysroot/include/c++/v1/__memory/unique_ptr.h:293:3
	i32.const	16
	local.set	17
	local.get	4
	local.get	17
	i32.add 
	local.set	18
	local.get	18
	global.set	__stack_pointer
	return
	end_function
.Ltmp271:
.Lfunc_end108:
                                        # -- End function
	.section	.text._ZNSt3__217__compressed_pairIPNS_5tupleIJNS_10unique_ptrINS_15__thread_structENS_14default_deleteIS3_EEEEPFvRNS_6atomicIiEEiiENS_17reference_wrapperIS8_EEiiEEENS4_ISE_EEE6secondB8ne190106Ev,"G",@,_ZNSt3__217__compressed_pairIPNS_5tupleIJNS_10unique_ptrINS_15__thread_structENS_14default_deleteIS3_EEEEPFvRNS_6atomicIiEEiiENS_17reference_wrapperIS8_EEiiEEENS4_ISE_EEE6secondB8ne190106Ev,comdat
	.hidden	_ZNSt3__217__compressed_pairIPNS_5tupleIJNS_10unique_ptrINS_15__thread_structENS_14default_deleteIS3_EEEEPFvRNS_6atomicIiEEiiENS_17reference_wrapperIS8_EEiiEEENS4_ISE_EEE6secondB8ne190106Ev # -- Begin function _ZNSt3__217__compressed_pairIPNS_5tupleIJNS_10unique_ptrINS_15__thread_structENS_14default_deleteIS3_EEEEPFvRNS_6atomicIiEEiiENS_17reference_wrapperIS8_EEiiEEENS4_ISE_EEE6secondB8ne190106Ev
	.weak	_ZNSt3__217__compressed_pairIPNS_5tupleIJNS_10unique_ptrINS_15__thread_structENS_14default_deleteIS3_EEEEPFvRNS_6atomicIiEEiiENS_17reference_wrapperIS8_EEiiEEENS4_ISE_EEE6secondB8ne190106Ev
	.type	_ZNSt3__217__compressed_pairIPNS_5tupleIJNS_10unique_ptrINS_15__thread_structENS_14default_deleteIS3_EEEEPFvRNS_6atomicIiEEiiENS_17reference_wrapperIS8_EEiiEEENS4_ISE_EEE6secondB8ne190106Ev,@function
_ZNSt3__217__compressed_pairIPNS_5tupleIJNS_10unique_ptrINS_15__thread_structENS_14default_deleteIS3_EEEEPFvRNS_6atomicIiEEiiENS_17reference_wrapperIS8_EEiiEEENS4_ISE_EEE6secondB8ne190106Ev: # @_ZNSt3__217__compressed_pairIPNS_5tupleIJNS_10unique_ptrINS_15__thread_structENS_14default_deleteIS3_EEEEPFvRNS_6atomicIiEEiiENS_17reference_wrapperIS8_EEiiEEENS4_ISE_EEE6secondB8ne190106Ev
.Lfunc_begin109:
	.loc	16 137 0                        # emscripten/cache/sysroot/include/c++/v1/__memory/compressed_pair.h:137:0
	.functype	_ZNSt3__217__compressed_pairIPNS_5tupleIJNS_10unique_ptrINS_15__thread_structENS_14default_deleteIS3_EEEEPFvRNS_6atomicIiEEiiENS_17reference_wrapperIS8_EEiiEEENS4_ISE_EEE6secondB8ne190106Ev (i32) -> (i32)
	.local  	i32, i32, i32, i32, i32, i32, i32
# %bb.0:                                # %entry
	global.get	__stack_pointer
	local.set	1
	i32.const	16
	local.set	2
	local.get	1
	local.get	2
	i32.sub 
	local.set	3
	local.get	3
	global.set	__stack_pointer
	local.get	3
	local.get	0
	i32.store	12
	local.get	3
	i32.load	12
	local.set	4
.Ltmp272:
	.loc	16 138 40 prologue_end          # emscripten/cache/sysroot/include/c++/v1/__memory/compressed_pair.h:138:40
	local.get	4
	call	_ZNSt3__222__compressed_pair_elemINS_14default_deleteINS_5tupleIJNS_10unique_ptrINS_15__thread_structENS1_IS4_EEEEPFvRNS_6atomicIiEEiiENS_17reference_wrapperIS8_EEiiEEEEELi1ELb1EE5__getB8ne190106Ev
	local.set	5
	.loc	16 138 5 is_stmt 0              # emscripten/cache/sysroot/include/c++/v1/__memory/compressed_pair.h:138:5
	i32.const	16
	local.set	6
	local.get	3
	local.get	6
	i32.add 
	local.set	7
	local.get	7
	global.set	__stack_pointer
	local.get	5
	return
	end_function
.Ltmp273:
.Lfunc_end109:
                                        # -- End function
	.section	.text._ZNKSt3__214default_deleteINS_5tupleIJNS_10unique_ptrINS_15__thread_structENS0_IS3_EEEEPFvRNS_6atomicIiEEiiENS_17reference_wrapperIS7_EEiiEEEEclB8ne190106EPSD_,"G",@,_ZNKSt3__214default_deleteINS_5tupleIJNS_10unique_ptrINS_15__thread_structENS0_IS3_EEEEPFvRNS_6atomicIiEEiiENS_17reference_wrapperIS7_EEiiEEEEclB8ne190106EPSD_,comdat
	.hidden	_ZNKSt3__214default_deleteINS_5tupleIJNS_10unique_ptrINS_15__thread_structENS0_IS3_EEEEPFvRNS_6atomicIiEEiiENS_17reference_wrapperIS7_EEiiEEEEclB8ne190106EPSD_ # -- Begin function _ZNKSt3__214default_deleteINS_5tupleIJNS_10unique_ptrINS_15__thread_structENS0_IS3_EEEEPFvRNS_6atomicIiEEiiENS_17reference_wrapperIS7_EEiiEEEEclB8ne190106EPSD_
	.weak	_ZNKSt3__214default_deleteINS_5tupleIJNS_10unique_ptrINS_15__thread_structENS0_IS3_EEEEPFvRNS_6atomicIiEEiiENS_17reference_wrapperIS7_EEiiEEEEclB8ne190106EPSD_
	.type	_ZNKSt3__214default_deleteINS_5tupleIJNS_10unique_ptrINS_15__thread_structENS0_IS3_EEEEPFvRNS_6atomicIiEEiiENS_17reference_wrapperIS7_EEiiEEEEclB8ne190106EPSD_,@function
_ZNKSt3__214default_deleteINS_5tupleIJNS_10unique_ptrINS_15__thread_structENS0_IS3_EEEEPFvRNS_6atomicIiEEiiENS_17reference_wrapperIS7_EEiiEEEEclB8ne190106EPSD_: # @_ZNKSt3__214default_deleteINS_5tupleIJNS_10unique_ptrINS_15__thread_structENS0_IS3_EEEEPFvRNS_6atomicIiEEiiENS_17reference_wrapperIS7_EEiiEEEEclB8ne190106EPSD_
.Lfunc_begin110:
	.loc	29 77 0 is_stmt 1               # emscripten/cache/sysroot/include/c++/v1/__memory/unique_ptr.h:77:0
	.functype	_ZNKSt3__214default_deleteINS_5tupleIJNS_10unique_ptrINS_15__thread_structENS0_IS3_EEEEPFvRNS_6atomicIiEEiiENS_17reference_wrapperIS7_EEiiEEEEclB8ne190106EPSD_ (i32, i32) -> ()
	.local  	i32, i32, i32, i32, i32, i32, i32, i32, i32, i32, i32
# %bb.0:                                # %entry
	global.get	__stack_pointer
	local.set	2
	i32.const	16
	local.set	3
	local.get	2
	local.get	3
	i32.sub 
	local.set	4
	local.get	4
	global.set	__stack_pointer
	local.get	4
	local.get	0
	i32.store	12
	local.get	4
	local.get	1
	i32.store	8
.Ltmp274:
	.loc	29 80 12 prologue_end           # emscripten/cache/sysroot/include/c++/v1/__memory/unique_ptr.h:80:12
	local.get	4
	i32.load	8
	local.set	5
	.loc	29 80 5 is_stmt 0               # emscripten/cache/sysroot/include/c++/v1/__memory/unique_ptr.h:80:5
	i32.const	0
	local.set	6
	local.get	5
	local.get	6
	i32.eq  
	local.set	7
	i32.const	1
	local.set	8
	local.get	7
	local.get	8
	i32.and 
	local.set	9
	block   	
	local.get	9
	br_if   	0                               # 0: down to label26
# %bb.1:                                # %delete.notnull
	local.get	5
	call	_ZNSt3__25tupleIJNS_10unique_ptrINS_15__thread_structENS_14default_deleteIS2_EEEEPFvRNS_6atomicIiEEiiENS_17reference_wrapperIS7_EEiiEED2Ev
	drop
	i32.const	20
	local.set	10
	local.get	5
	local.get	10
	call	_ZdlPvm
.LBB110_2:                              # %delete.end
	.loc	29 0 5                          # emscripten/cache/sysroot/include/c++/v1/__memory/unique_ptr.h:0:5
	end_block                               # label26:
	.loc	29 81 3 is_stmt 1               # emscripten/cache/sysroot/include/c++/v1/__memory/unique_ptr.h:81:3
	i32.const	16
	local.set	11
	local.get	4
	local.get	11
	i32.add 
	local.set	12
	local.get	12
	global.set	__stack_pointer
	return
	end_function
.Ltmp275:
.Lfunc_end110:
                                        # -- End function
	.section	.text._ZNSt3__222__compressed_pair_elemINS_14default_deleteINS_5tupleIJNS_10unique_ptrINS_15__thread_structENS1_IS4_EEEEPFvRNS_6atomicIiEEiiENS_17reference_wrapperIS8_EEiiEEEEELi1ELb1EE5__getB8ne190106Ev,"G",@,_ZNSt3__222__compressed_pair_elemINS_14default_deleteINS_5tupleIJNS_10unique_ptrINS_15__thread_structENS1_IS4_EEEEPFvRNS_6atomicIiEEiiENS_17reference_wrapperIS8_EEiiEEEEELi1ELb1EE5__getB8ne190106Ev,comdat
	.hidden	_ZNSt3__222__compressed_pair_elemINS_14default_deleteINS_5tupleIJNS_10unique_ptrINS_15__thread_structENS1_IS4_EEEEPFvRNS_6atomicIiEEiiENS_17reference_wrapperIS8_EEiiEEEEELi1ELb1EE5__getB8ne190106Ev # -- Begin function _ZNSt3__222__compressed_pair_elemINS_14default_deleteINS_5tupleIJNS_10unique_ptrINS_15__thread_structENS1_IS4_EEEEPFvRNS_6atomicIiEEiiENS_17reference_wrapperIS8_EEiiEEEEELi1ELb1EE5__getB8ne190106Ev
	.weak	_ZNSt3__222__compressed_pair_elemINS_14default_deleteINS_5tupleIJNS_10unique_ptrINS_15__thread_structENS1_IS4_EEEEPFvRNS_6atomicIiEEiiENS_17reference_wrapperIS8_EEiiEEEEELi1ELb1EE5__getB8ne190106Ev
	.type	_ZNSt3__222__compressed_pair_elemINS_14default_deleteINS_5tupleIJNS_10unique_ptrINS_15__thread_structENS1_IS4_EEEEPFvRNS_6atomicIiEEiiENS_17reference_wrapperIS8_EEiiEEEEELi1ELb1EE5__getB8ne190106Ev,@function
_ZNSt3__222__compressed_pair_elemINS_14default_deleteINS_5tupleIJNS_10unique_ptrINS_15__thread_structENS1_IS4_EEEEPFvRNS_6atomicIiEEiiENS_17reference_wrapperIS8_EEiiEEEEELi1ELb1EE5__getB8ne190106Ev: # @_ZNSt3__222__compressed_pair_elemINS_14default_deleteINS_5tupleIJNS_10unique_ptrINS_15__thread_structENS1_IS4_EEEEPFvRNS_6atomicIiEEiiENS_17reference_wrapperIS8_EEiiEEEEELi1ELb1EE5__getB8ne190106Ev
.Lfunc_begin111:
	.loc	16 91 0                         # emscripten/cache/sysroot/include/c++/v1/__memory/compressed_pair.h:91:0
	.functype	_ZNSt3__222__compressed_pair_elemINS_14default_deleteINS_5tupleIJNS_10unique_ptrINS_15__thread_structENS1_IS4_EEEEPFvRNS_6atomicIiEEiiENS_17reference_wrapperIS8_EEiiEEEEELi1ELb1EE5__getB8ne190106Ev (i32) -> (i32)
	.local  	i32, i32, i32, i32
# %bb.0:                                # %entry
	global.get	__stack_pointer
	local.set	1
	i32.const	16
	local.set	2
	local.get	1
	local.get	2
	i32.sub 
	local.set	3
	local.get	3
	local.get	0
	i32.store	12
	local.get	3
	i32.load	12
	local.set	4
.Ltmp276:
	.loc	16 91 85 prologue_end           # emscripten/cache/sysroot/include/c++/v1/__memory/compressed_pair.h:91:85
	local.get	4
	return
	end_function
.Ltmp277:
.Lfunc_end111:
                                        # -- End function
	.section	.text._ZNSt3__25tupleIJNS_10unique_ptrINS_15__thread_structENS_14default_deleteIS2_EEEEPFvRNS_6atomicIiEEiiENS_17reference_wrapperIS7_EEiiEED2Ev,"G",@,_ZNSt3__25tupleIJNS_10unique_ptrINS_15__thread_structENS_14default_deleteIS2_EEEEPFvRNS_6atomicIiEEiiENS_17reference_wrapperIS7_EEiiEED2Ev,comdat
	.hidden	_ZNSt3__25tupleIJNS_10unique_ptrINS_15__thread_structENS_14default_deleteIS2_EEEEPFvRNS_6atomicIiEEiiENS_17reference_wrapperIS7_EEiiEED2Ev # -- Begin function _ZNSt3__25tupleIJNS_10unique_ptrINS_15__thread_structENS_14default_deleteIS2_EEEEPFvRNS_6atomicIiEEiiENS_17reference_wrapperIS7_EEiiEED2Ev
	.weak	_ZNSt3__25tupleIJNS_10unique_ptrINS_15__thread_structENS_14default_deleteIS2_EEEEPFvRNS_6atomicIiEEiiENS_17reference_wrapperIS7_EEiiEED2Ev
	.type	_ZNSt3__25tupleIJNS_10unique_ptrINS_15__thread_structENS_14default_deleteIS2_EEEEPFvRNS_6atomicIiEEiiENS_17reference_wrapperIS7_EEiiEED2Ev,@function
_ZNSt3__25tupleIJNS_10unique_ptrINS_15__thread_structENS_14default_deleteIS2_EEEEPFvRNS_6atomicIiEEiiENS_17reference_wrapperIS7_EEiiEED2Ev: # @_ZNSt3__25tupleIJNS_10unique_ptrINS_15__thread_structENS_14default_deleteIS2_EEEEPFvRNS_6atomicIiEEiiENS_17reference_wrapperIS7_EEiiEED2Ev
.Lfunc_begin112:
	.loc	33 531 0                        # emscripten/cache/sysroot/include/c++/v1/tuple:531:0
	.functype	_ZNSt3__25tupleIJNS_10unique_ptrINS_15__thread_structENS_14default_deleteIS2_EEEEPFvRNS_6atomicIiEEiiENS_17reference_wrapperIS7_EEiiEED2Ev (i32) -> (i32)
	.local  	i32, i32, i32, i32, i32, i32
# %bb.0:                                # %entry
	global.get	__stack_pointer
	local.set	1
	i32.const	16
	local.set	2
	local.get	1
	local.get	2
	i32.sub 
	local.set	3
	local.get	3
	global.set	__stack_pointer
	local.get	3
	local.get	0
	i32.store	12
	local.get	3
	i32.load	12
	local.set	4
.Ltmp278:
	.loc	33 531 28 prologue_end          # emscripten/cache/sysroot/include/c++/v1/tuple:531:28
	local.get	4
	call	_ZNSt3__212__tuple_implINS_15__tuple_indicesIJLm0ELm1ELm2ELm3ELm4EEEEJNS_10unique_ptrINS_15__thread_structENS_14default_deleteIS4_EEEEPFvRNS_6atomicIiEEiiENS_17reference_wrapperIS9_EEiiEED2Ev
	drop
.Ltmp279:
	.loc	33 531 28 is_stmt 0             # emscripten/cache/sysroot/include/c++/v1/tuple:531:28
	i32.const	16
	local.set	5
	local.get	3
	local.get	5
	i32.add 
	local.set	6
	local.get	6
	global.set	__stack_pointer
	local.get	4
	return
	end_function
.Ltmp280:
.Lfunc_end112:
                                        # -- End function
	.section	.text._ZNSt3__212__tuple_implINS_15__tuple_indicesIJLm0ELm1ELm2ELm3ELm4EEEEJNS_10unique_ptrINS_15__thread_structENS_14default_deleteIS4_EEEEPFvRNS_6atomicIiEEiiENS_17reference_wrapperIS9_EEiiEED2Ev,"G",@,_ZNSt3__212__tuple_implINS_15__tuple_indicesIJLm0ELm1ELm2ELm3ELm4EEEEJNS_10unique_ptrINS_15__thread_structENS_14default_deleteIS4_EEEEPFvRNS_6atomicIiEEiiENS_17reference_wrapperIS9_EEiiEED2Ev,comdat
	.hidden	_ZNSt3__212__tuple_implINS_15__tuple_indicesIJLm0ELm1ELm2ELm3ELm4EEEEJNS_10unique_ptrINS_15__thread_structENS_14default_deleteIS4_EEEEPFvRNS_6atomicIiEEiiENS_17reference_wrapperIS9_EEiiEED2Ev # -- Begin function _ZNSt3__212__tuple_implINS_15__tuple_indicesIJLm0ELm1ELm2ELm3ELm4EEEEJNS_10unique_ptrINS_15__thread_structENS_14default_deleteIS4_EEEEPFvRNS_6atomicIiEEiiENS_17reference_wrapperIS9_EEiiEED2Ev
	.weak	_ZNSt3__212__tuple_implINS_15__tuple_indicesIJLm0ELm1ELm2ELm3ELm4EEEEJNS_10unique_ptrINS_15__thread_structENS_14default_deleteIS4_EEEEPFvRNS_6atomicIiEEiiENS_17reference_wrapperIS9_EEiiEED2Ev
	.type	_ZNSt3__212__tuple_implINS_15__tuple_indicesIJLm0ELm1ELm2ELm3ELm4EEEEJNS_10unique_ptrINS_15__thread_structENS_14default_deleteIS4_EEEEPFvRNS_6atomicIiEEiiENS_17reference_wrapperIS9_EEiiEED2Ev,@function
_ZNSt3__212__tuple_implINS_15__tuple_indicesIJLm0ELm1ELm2ELm3ELm4EEEEJNS_10unique_ptrINS_15__thread_structENS_14default_deleteIS4_EEEEPFvRNS_6atomicIiEEiiENS_17reference_wrapperIS9_EEiiEED2Ev: # @_ZNSt3__212__tuple_implINS_15__tuple_indicesIJLm0ELm1ELm2ELm3ELm4EEEEJNS_10unique_ptrINS_15__thread_structENS_14default_deleteIS4_EEEEPFvRNS_6atomicIiEEiiENS_17reference_wrapperIS9_EEiiEED2Ev
.Lfunc_begin113:
	.loc	33 458 0 is_stmt 1              # emscripten/cache/sysroot/include/c++/v1/tuple:458:0
	.functype	_ZNSt3__212__tuple_implINS_15__tuple_indicesIJLm0ELm1ELm2ELm3ELm4EEEEJNS_10unique_ptrINS_15__thread_structENS_14default_deleteIS4_EEEEPFvRNS_6atomicIiEEiiENS_17reference_wrapperIS9_EEiiEED2Ev (i32) -> (i32)
	.local  	i32, i32, i32, i32, i32, i32
# %bb.0:                                # %entry
	global.get	__stack_pointer
	local.set	1
	i32.const	16
	local.set	2
	local.get	1
	local.get	2
	i32.sub 
	local.set	3
	local.get	3
	global.set	__stack_pointer
	local.get	3
	local.get	0
	i32.store	12
	local.get	3
	i32.load	12
	local.set	4
.Ltmp281:
	.loc	33 458 37 prologue_end          # emscripten/cache/sysroot/include/c++/v1/tuple:458:37
	local.get	4
	call	_ZNSt3__212__tuple_leafILm0ENS_10unique_ptrINS_15__thread_structENS_14default_deleteIS2_EEEELb0EED2Ev
	drop
.Ltmp282:
	.loc	33 458 37 is_stmt 0             # emscripten/cache/sysroot/include/c++/v1/tuple:458:37
	i32.const	16
	local.set	5
	local.get	3
	local.get	5
	i32.add 
	local.set	6
	local.get	6
	global.set	__stack_pointer
	local.get	4
	return
	end_function
.Ltmp283:
.Lfunc_end113:
                                        # -- End function
	.section	.text._ZNSt3__212__tuple_leafILm0ENS_10unique_ptrINS_15__thread_structENS_14default_deleteIS2_EEEELb0EED2Ev,"G",@,_ZNSt3__212__tuple_leafILm0ENS_10unique_ptrINS_15__thread_structENS_14default_deleteIS2_EEEELb0EED2Ev,comdat
	.hidden	_ZNSt3__212__tuple_leafILm0ENS_10unique_ptrINS_15__thread_structENS_14default_deleteIS2_EEEELb0EED2Ev # -- Begin function _ZNSt3__212__tuple_leafILm0ENS_10unique_ptrINS_15__thread_structENS_14default_deleteIS2_EEEELb0EED2Ev
	.weak	_ZNSt3__212__tuple_leafILm0ENS_10unique_ptrINS_15__thread_structENS_14default_deleteIS2_EEEELb0EED2Ev
	.type	_ZNSt3__212__tuple_leafILm0ENS_10unique_ptrINS_15__thread_structENS_14default_deleteIS2_EEEELb0EED2Ev,@function
_ZNSt3__212__tuple_leafILm0ENS_10unique_ptrINS_15__thread_structENS_14default_deleteIS2_EEEELb0EED2Ev: # @_ZNSt3__212__tuple_leafILm0ENS_10unique_ptrINS_15__thread_structENS_14default_deleteIS2_EEEELb0EED2Ev
.Lfunc_begin114:
	.loc	33 300 0 is_stmt 1              # emscripten/cache/sysroot/include/c++/v1/tuple:300:0
	.functype	_ZNSt3__212__tuple_leafILm0ENS_10unique_ptrINS_15__thread_structENS_14default_deleteIS2_EEEELb0EED2Ev (i32) -> (i32)
	.local  	i32, i32, i32, i32, i32, i32
# %bb.0:                                # %entry
	global.get	__stack_pointer
	local.set	1
	i32.const	16
	local.set	2
	local.get	1
	local.get	2
	i32.sub 
	local.set	3
	local.get	3
	global.set	__stack_pointer
	local.get	3
	local.get	0
	i32.store	12
	local.get	3
	i32.load	12
	local.set	4
.Ltmp284:
	.loc	33 300 7 prologue_end           # emscripten/cache/sysroot/include/c++/v1/tuple:300:7
	local.get	4
	call	_ZNSt3__210unique_ptrINS_15__thread_structENS_14default_deleteIS1_EEED2B8ne190106Ev
	drop
.Ltmp285:
	.loc	33 300 7 is_stmt 0              # emscripten/cache/sysroot/include/c++/v1/tuple:300:7
	i32.const	16
	local.set	5
	local.get	3
	local.get	5
	i32.add 
	local.set	6
	local.get	6
	global.set	__stack_pointer
	local.get	4
	return
	end_function
.Ltmp286:
.Lfunc_end114:
                                        # -- End function
	.section	.text._ZNSt3__210unique_ptrINS_15__thread_structENS_14default_deleteIS1_EEE5resetB8ne190106EPS1_,"G",@,_ZNSt3__210unique_ptrINS_15__thread_structENS_14default_deleteIS1_EEE5resetB8ne190106EPS1_,comdat
	.hidden	_ZNSt3__210unique_ptrINS_15__thread_structENS_14default_deleteIS1_EEE5resetB8ne190106EPS1_ # -- Begin function _ZNSt3__210unique_ptrINS_15__thread_structENS_14default_deleteIS1_EEE5resetB8ne190106EPS1_
	.weak	_ZNSt3__210unique_ptrINS_15__thread_structENS_14default_deleteIS1_EEE5resetB8ne190106EPS1_
	.type	_ZNSt3__210unique_ptrINS_15__thread_structENS_14default_deleteIS1_EEE5resetB8ne190106EPS1_,@function
_ZNSt3__210unique_ptrINS_15__thread_structENS_14default_deleteIS1_EEE5resetB8ne190106EPS1_: # @_ZNSt3__210unique_ptrINS_15__thread_structENS_14default_deleteIS1_EEE5resetB8ne190106EPS1_
.Lfunc_begin115:
	.loc	29 288 0 is_stmt 1              # emscripten/cache/sysroot/include/c++/v1/__memory/unique_ptr.h:288:0
	.functype	_ZNSt3__210unique_ptrINS_15__thread_structENS_14default_deleteIS1_EEE5resetB8ne190106EPS1_ (i32, i32) -> ()
	.local  	i32, i32, i32, i32, i32, i32, i32, i32, i32, i32, i32, i32, i32, i32, i32, i32, i32
# %bb.0:                                # %entry
	global.get	__stack_pointer
	local.set	2
	i32.const	16
	local.set	3
	local.get	2
	local.get	3
	i32.sub 
	local.set	4
	local.get	4
	global.set	__stack_pointer
	local.get	4
	local.get	0
	i32.store	12
	local.get	4
	local.get	1
	i32.store	8
	local.get	4
	i32.load	12
	local.set	5
.Ltmp287:
	.loc	29 289 29 prologue_end          # emscripten/cache/sysroot/include/c++/v1/__memory/unique_ptr.h:289:29
	local.get	5
	call	_ZNSt3__217__compressed_pairIPNS_15__thread_structENS_14default_deleteIS1_EEE5firstB8ne190106Ev
	local.set	6
	local.get	6
	i32.load	0
	local.set	7
	.loc	29 289 13 is_stmt 0             # emscripten/cache/sysroot/include/c++/v1/__memory/unique_ptr.h:289:13
	local.get	4
	local.get	7
	i32.store	4
	.loc	29 290 22 is_stmt 1             # emscripten/cache/sysroot/include/c++/v1/__memory/unique_ptr.h:290:22
	local.get	4
	i32.load	8
	local.set	8
	.loc	29 290 12 is_stmt 0             # emscripten/cache/sysroot/include/c++/v1/__memory/unique_ptr.h:290:12
	local.get	5
	call	_ZNSt3__217__compressed_pairIPNS_15__thread_structENS_14default_deleteIS1_EEE5firstB8ne190106Ev
	local.set	9
	.loc	29 290 20                       # emscripten/cache/sysroot/include/c++/v1/__memory/unique_ptr.h:290:20
	local.get	9
	local.get	8
	i32.store	0
.Ltmp288:
	.loc	29 291 9 is_stmt 1              # emscripten/cache/sysroot/include/c++/v1/__memory/unique_ptr.h:291:9
	local.get	4
	i32.load	4
	local.set	10
	i32.const	0
	local.set	11
	local.get	10
	local.get	11
	i32.ne  
	local.set	12
	i32.const	1
	local.set	13
	local.get	12
	local.get	13
	i32.and 
	local.set	14
	block   	
	local.get	14
	i32.eqz
	br_if   	0                               # 0: down to label27
# %bb.1:                                # %if.then
	.loc	29 292 14                       # emscripten/cache/sysroot/include/c++/v1/__memory/unique_ptr.h:292:14
	local.get	5
	call	_ZNSt3__217__compressed_pairIPNS_15__thread_structENS_14default_deleteIS1_EEE6secondB8ne190106Ev
	local.set	15
	.loc	29 292 23 is_stmt 0             # emscripten/cache/sysroot/include/c++/v1/__memory/unique_ptr.h:292:23
	local.get	4
	i32.load	4
	local.set	16
	.loc	29 292 7                        # emscripten/cache/sysroot/include/c++/v1/__memory/unique_ptr.h:292:7
	local.get	15
	local.get	16
	call	_ZNKSt3__214default_deleteINS_15__thread_structEEclB8ne190106EPS1_
.Ltmp289:
.LBB115_2:                              # %if.end
	.loc	29 0 7                          # emscripten/cache/sysroot/include/c++/v1/__memory/unique_ptr.h:0:7
	end_block                               # label27:
	.loc	29 293 3 is_stmt 1              # emscripten/cache/sysroot/include/c++/v1/__memory/unique_ptr.h:293:3
	i32.const	16
	local.set	17
	local.get	4
	local.get	17
	i32.add 
	local.set	18
	local.get	18
	global.set	__stack_pointer
	return
	end_function
.Ltmp290:
.Lfunc_end115:
                                        # -- End function
	.section	.text._ZNKSt3__214default_deleteINS_15__thread_structEEclB8ne190106EPS1_,"G",@,_ZNKSt3__214default_deleteINS_15__thread_structEEclB8ne190106EPS1_,comdat
	.hidden	_ZNKSt3__214default_deleteINS_15__thread_structEEclB8ne190106EPS1_ # -- Begin function _ZNKSt3__214default_deleteINS_15__thread_structEEclB8ne190106EPS1_
	.weak	_ZNKSt3__214default_deleteINS_15__thread_structEEclB8ne190106EPS1_
	.type	_ZNKSt3__214default_deleteINS_15__thread_structEEclB8ne190106EPS1_,@function
_ZNKSt3__214default_deleteINS_15__thread_structEEclB8ne190106EPS1_: # @_ZNKSt3__214default_deleteINS_15__thread_structEEclB8ne190106EPS1_
.Lfunc_begin116:
	.loc	29 77 0                         # emscripten/cache/sysroot/include/c++/v1/__memory/unique_ptr.h:77:0
	.functype	_ZNKSt3__214default_deleteINS_15__thread_structEEclB8ne190106EPS1_ (i32, i32) -> ()
	.local  	i32, i32, i32, i32, i32, i32, i32, i32, i32, i32, i32
# %bb.0:                                # %entry
	global.get	__stack_pointer
	local.set	2
	i32.const	16
	local.set	3
	local.get	2
	local.get	3
	i32.sub 
	local.set	4
	local.get	4
	global.set	__stack_pointer
	local.get	4
	local.get	0
	i32.store	12
	local.get	4
	local.get	1
	i32.store	8
.Ltmp291:
	.loc	29 80 12 prologue_end           # emscripten/cache/sysroot/include/c++/v1/__memory/unique_ptr.h:80:12
	local.get	4
	i32.load	8
	local.set	5
	.loc	29 80 5 is_stmt 0               # emscripten/cache/sysroot/include/c++/v1/__memory/unique_ptr.h:80:5
	i32.const	0
	local.set	6
	local.get	5
	local.get	6
	i32.eq  
	local.set	7
	i32.const	1
	local.set	8
	local.get	7
	local.get	8
	i32.and 
	local.set	9
	block   	
	local.get	9
	br_if   	0                               # 0: down to label28
# %bb.1:                                # %delete.notnull
	local.get	5
	call	_ZNSt3__215__thread_structD1Ev
	drop
	i32.const	4
	local.set	10
	local.get	5
	local.get	10
	call	_ZdlPvm
.LBB116_2:                              # %delete.end
	.loc	29 0 5                          # emscripten/cache/sysroot/include/c++/v1/__memory/unique_ptr.h:0:5
	end_block                               # label28:
	.loc	29 81 3 is_stmt 1               # emscripten/cache/sysroot/include/c++/v1/__memory/unique_ptr.h:81:3
	i32.const	16
	local.set	11
	local.get	4
	local.get	11
	i32.add 
	local.set	12
	local.get	12
	global.set	__stack_pointer
	return
	end_function
.Ltmp292:
.Lfunc_end116:
                                        # -- End function
	.section	.text._ZNSt3__26vectorINS_6threadENS_9allocatorIS1_EEE9__end_capB8ne190106Ev,"G",@,_ZNSt3__26vectorINS_6threadENS_9allocatorIS1_EEE9__end_capB8ne190106Ev,comdat
	.hidden	_ZNSt3__26vectorINS_6threadENS_9allocatorIS1_EEE9__end_capB8ne190106Ev # -- Begin function _ZNSt3__26vectorINS_6threadENS_9allocatorIS1_EEE9__end_capB8ne190106Ev
	.weak	_ZNSt3__26vectorINS_6threadENS_9allocatorIS1_EEE9__end_capB8ne190106Ev
	.type	_ZNSt3__26vectorINS_6threadENS_9allocatorIS1_EEE9__end_capB8ne190106Ev,@function
_ZNSt3__26vectorINS_6threadENS_9allocatorIS1_EEE9__end_capB8ne190106Ev: # @_ZNSt3__26vectorINS_6threadENS_9allocatorIS1_EEE9__end_capB8ne190106Ev
.Lfunc_begin117:
	.loc	3 971 0                         # emscripten/cache/sysroot/include/c++/v1/vector:971:0
	.functype	_ZNSt3__26vectorINS_6threadENS_9allocatorIS1_EEE9__end_capB8ne190106Ev (i32) -> (i32)
	.local  	i32, i32, i32, i32, i32, i32, i32, i32, i32
# %bb.0:                                # %entry
	global.get	__stack_pointer
	local.set	1
	i32.const	16
	local.set	2
	local.get	1
	local.get	2
	i32.sub 
	local.set	3
	local.get	3
	global.set	__stack_pointer
	local.get	3
	local.get	0
	i32.store	12
	local.get	3
	i32.load	12
	local.set	4
.Ltmp293:
	.loc	3 972 18 prologue_end           # emscripten/cache/sysroot/include/c++/v1/vector:972:18
	i32.const	8
	local.set	5
	local.get	4
	local.get	5
	i32.add 
	local.set	6
	.loc	3 972 29 is_stmt 0              # emscripten/cache/sysroot/include/c++/v1/vector:972:29
	local.get	6
	call	_ZNSt3__217__compressed_pairIPNS_6threadENS_9allocatorIS1_EEE5firstB8ne190106Ev
	local.set	7
	.loc	3 972 5                         # emscripten/cache/sysroot/include/c++/v1/vector:972:5
	i32.const	16
	local.set	8
	local.get	3
	local.get	8
	i32.add 
	local.set	9
	local.get	9
	global.set	__stack_pointer
	local.get	7
	return
	end_function
.Ltmp294:
.Lfunc_end117:
                                        # -- End function
	.section	.text._ZNSt3__26vectorINS_6threadENS_9allocatorIS1_EEE22__construct_one_at_endB8ne190106IJS1_EEEvDpOT_,"G",@,_ZNSt3__26vectorINS_6threadENS_9allocatorIS1_EEE22__construct_one_at_endB8ne190106IJS1_EEEvDpOT_,comdat
	.hidden	_ZNSt3__26vectorINS_6threadENS_9allocatorIS1_EEE22__construct_one_at_endB8ne190106IJS1_EEEvDpOT_ # -- Begin function _ZNSt3__26vectorINS_6threadENS_9allocatorIS1_EEE22__construct_one_at_endB8ne190106IJS1_EEEvDpOT_
	.weak	_ZNSt3__26vectorINS_6threadENS_9allocatorIS1_EEE22__construct_one_at_endB8ne190106IJS1_EEEvDpOT_
	.type	_ZNSt3__26vectorINS_6threadENS_9allocatorIS1_EEE22__construct_one_at_endB8ne190106IJS1_EEEvDpOT_,@function
_ZNSt3__26vectorINS_6threadENS_9allocatorIS1_EEE22__construct_one_at_endB8ne190106IJS1_EEEvDpOT_: # @_ZNSt3__26vectorINS_6threadENS_9allocatorIS1_EEE22__construct_one_at_endB8ne190106IJS1_EEEvDpOT_
.Lfunc_begin118:
	.loc	3 959 0 is_stmt 1               # emscripten/cache/sysroot/include/c++/v1/vector:959:0
	.functype	_ZNSt3__26vectorINS_6threadENS_9allocatorIS1_EEE22__construct_one_at_endB8ne190106IJS1_EEEvDpOT_ (i32, i32) -> ()
	.local  	i32, i32, i32, i32, i32, i32, i32, i32, i32, i32, i32, i32, i32, i32, i32, i32, i32, i32, i32, i32
# %bb.0:                                # %entry
	global.get	__stack_pointer
	local.set	2
	i32.const	32
	local.set	3
	local.get	2
	local.get	3
	i32.sub 
	local.set	4
	local.get	4
	global.set	__stack_pointer
	local.get	4
	local.get	0
	i32.store	28
	local.get	4
	local.get	1
	i32.store	24
	local.get	4
	i32.load	28
	local.set	5
.Ltmp295:
	.loc	3 960 27 prologue_end           # emscripten/cache/sysroot/include/c++/v1/vector:960:27
	i32.const	12
	local.set	6
	local.get	4
	local.get	6
	i32.add 
	local.set	7
	local.get	7
	local.set	8
	i32.const	1
	local.set	9
	local.get	8
	local.get	5
	local.get	9
	call	_ZNSt3__26vectorINS_6threadENS_9allocatorIS1_EEE21_ConstructTransactionC2B8ne190106ERS4_m
	drop
	.loc	3 961 37                        # emscripten/cache/sysroot/include/c++/v1/vector:961:37
	local.get	5
	call	_ZNSt3__26vectorINS_6threadENS_9allocatorIS1_EEE7__allocB8ne190106Ev
	local.set	10
	.loc	3 961 71 is_stmt 0              # emscripten/cache/sysroot/include/c++/v1/vector:961:71
	local.get	4
	i32.load	16
	local.set	11
	.loc	3 961 48                        # emscripten/cache/sysroot/include/c++/v1/vector:961:48
	local.get	11
	call	_ZNSt3__212__to_addressB8ne190106INS_6threadEEEPT_S3_
	local.set	12
	.loc	3 961 100                       # emscripten/cache/sysroot/include/c++/v1/vector:961:100
	local.get	4
	i32.load	24
	local.set	13
	.loc	3 961 5                         # emscripten/cache/sysroot/include/c++/v1/vector:961:5
	local.get	10
	local.get	12
	local.get	13
	call	_ZNSt3__216allocator_traitsINS_9allocatorINS_6threadEEEE9constructB8ne190106IS2_JS2_ETnNS_9enable_ifIXsr15__has_constructIS3_PT_DpT0_EE5valueEiE4typeELi0EEEvRS3_S8_DpOS9_
	.loc	3 962 5 is_stmt 1               # emscripten/cache/sysroot/include/c++/v1/vector:962:5
	local.get	4
	i32.load	16
	local.set	14
	i32.const	4
	local.set	15
	local.get	14
	local.get	15
	i32.add 
	local.set	16
	local.get	4
	local.get	16
	i32.store	16
	.loc	3 963 3                         # emscripten/cache/sysroot/include/c++/v1/vector:963:3
	i32.const	12
	local.set	17
	local.get	4
	local.get	17
	i32.add 
	local.set	18
	local.get	18
	local.set	19
	local.get	19
	call	_ZNSt3__26vectorINS_6threadENS_9allocatorIS1_EEE21_ConstructTransactionD2B8ne190106Ev
	drop
	i32.const	32
	local.set	20
	local.get	4
	local.get	20
	i32.add 
	local.set	21
	local.get	21
	global.set	__stack_pointer
	return
	end_function
.Ltmp296:
.Lfunc_end118:
                                        # -- End function
	.section	.text._ZNSt3__26vectorINS_6threadENS_9allocatorIS1_EEE21__push_back_slow_pathIS1_EEPS1_OT_,"G",@,_ZNSt3__26vectorINS_6threadENS_9allocatorIS1_EEE21__push_back_slow_pathIS1_EEPS1_OT_,comdat
	.hidden	_ZNSt3__26vectorINS_6threadENS_9allocatorIS1_EEE21__push_back_slow_pathIS1_EEPS1_OT_ # -- Begin function _ZNSt3__26vectorINS_6threadENS_9allocatorIS1_EEE21__push_back_slow_pathIS1_EEPS1_OT_
	.weak	_ZNSt3__26vectorINS_6threadENS_9allocatorIS1_EEE21__push_back_slow_pathIS1_EEPS1_OT_
	.type	_ZNSt3__26vectorINS_6threadENS_9allocatorIS1_EEE21__push_back_slow_pathIS1_EEPS1_OT_,@function
_ZNSt3__26vectorINS_6threadENS_9allocatorIS1_EEE21__push_back_slow_pathIS1_EEPS1_OT_: # @_ZNSt3__26vectorINS_6threadENS_9allocatorIS1_EEE21__push_back_slow_pathIS1_EEPS1_OT_
.Lfunc_begin119:
	.loc	3 1496 0                        # emscripten/cache/sysroot/include/c++/v1/vector:1496:0
	.functype	_ZNSt3__26vectorINS_6threadENS_9allocatorIS1_EEE21__push_back_slow_pathIS1_EEPS1_OT_ (i32, i32) -> (i32)
	.local  	i32, i32, i32, i32, i32, i32, i32, i32, i32, i32, i32, i32, i32, i32, i32, i32, i32, i32, i32, i32, i32, i32, i32, i32
# %bb.0:                                # %entry
	global.get	__stack_pointer
	local.set	2
	i32.const	32
	local.set	3
	local.get	2
	local.get	3
	i32.sub 
	local.set	4
	local.get	4
	global.set	__stack_pointer
	local.get	4
	local.get	0
	i32.store	28
	local.get	4
	local.get	1
	i32.store	24
	local.get	4
	i32.load	28
	local.set	5
.Ltmp297:
	.loc	3 1497 31 prologue_end          # emscripten/cache/sysroot/include/c++/v1/vector:1497:31
	local.get	5
	call	_ZNSt3__26vectorINS_6threadENS_9allocatorIS1_EEE7__allocB8ne190106Ev
	local.set	6
	.loc	3 1497 19 is_stmt 0             # emscripten/cache/sysroot/include/c++/v1/vector:1497:19
	local.get	4
	local.get	6
	i32.store	20
	.loc	3 1498 63 is_stmt 1             # emscripten/cache/sysroot/include/c++/v1/vector:1498:63
	local.get	5
	call	_ZNKSt3__26vectorINS_6threadENS_9allocatorIS1_EEE4sizeB8ne190106Ev
	local.set	7
	.loc	3 1498 70 is_stmt 0             # emscripten/cache/sysroot/include/c++/v1/vector:1498:70
	i32.const	1
	local.set	8
	local.get	7
	local.get	8
	i32.add 
	local.set	9
	.loc	3 1498 51                       # emscripten/cache/sysroot/include/c++/v1/vector:1498:51
	local.get	5
	local.get	9
	call	_ZNKSt3__26vectorINS_6threadENS_9allocatorIS1_EEE11__recommendB8ne190106Em
	local.set	10
	.loc	3 1498 76                       # emscripten/cache/sysroot/include/c++/v1/vector:1498:76
	local.get	5
	call	_ZNKSt3__26vectorINS_6threadENS_9allocatorIS1_EEE4sizeB8ne190106Ev
	local.set	11
	.loc	3 1498 84                       # emscripten/cache/sysroot/include/c++/v1/vector:1498:84
	local.get	4
	i32.load	20
	local.set	12
	.loc	3 1498 47                       # emscripten/cache/sysroot/include/c++/v1/vector:1498:47
	local.get	4
	local.set	13
	local.get	13
	local.get	10
	local.get	11
	local.get	12
	call	_ZNSt3__214__split_bufferINS_6threadERNS_9allocatorIS1_EEEC2EmmS4_
	drop
	.loc	3 1500 29 is_stmt 1             # emscripten/cache/sysroot/include/c++/v1/vector:1500:29
	local.get	4
	i32.load	20
	local.set	14
	.loc	3 1500 56 is_stmt 0             # emscripten/cache/sysroot/include/c++/v1/vector:1500:56
	local.get	4
	i32.load	8
	local.set	15
	.loc	3 1500 34                       # emscripten/cache/sysroot/include/c++/v1/vector:1500:34
	local.get	15
	call	_ZNSt3__212__to_addressB8ne190106INS_6threadEEEPT_S3_
	local.set	16
	.loc	3 1500 83                       # emscripten/cache/sysroot/include/c++/v1/vector:1500:83
	local.get	4
	i32.load	24
	local.set	17
	.loc	3 1500 3                        # emscripten/cache/sysroot/include/c++/v1/vector:1500:3
	local.get	14
	local.get	16
	local.get	17
	call	_ZNSt3__216allocator_traitsINS_9allocatorINS_6threadEEEE9constructB8ne190106IS2_JS2_ETnNS_9enable_ifIXsr15__has_constructIS3_PT_DpT0_EE5valueEiE4typeELi0EEEvRS3_S8_DpOS9_
	.loc	3 1501 13 is_stmt 1             # emscripten/cache/sysroot/include/c++/v1/vector:1501:13
	local.get	4
	i32.load	8
	local.set	18
	i32.const	4
	local.set	19
	local.get	18
	local.get	19
	i32.add 
	local.set	20
	local.get	4
	local.get	20
	i32.store	8
	.loc	3 1502 3                        # emscripten/cache/sysroot/include/c++/v1/vector:1502:3
	local.get	4
	local.set	21
	local.get	5
	local.get	21
	call	_ZNSt3__26vectorINS_6threadENS_9allocatorIS1_EEE26__swap_out_circular_bufferERNS_14__split_bufferIS1_RS3_EE
	.loc	3 1503 16                       # emscripten/cache/sysroot/include/c++/v1/vector:1503:16
	local.get	5
	i32.load	4
	local.set	22
	.loc	3 1504 1                        # emscripten/cache/sysroot/include/c++/v1/vector:1504:1
	local.get	4
	local.set	23
	local.get	23
	call	_ZNSt3__214__split_bufferINS_6threadERNS_9allocatorIS1_EEED2Ev
	drop
	i32.const	32
	local.set	24
	local.get	4
	local.get	24
	i32.add 
	local.set	25
	local.get	25
	global.set	__stack_pointer
	local.get	22
	return
	end_function
.Ltmp298:
.Lfunc_end119:
                                        # -- End function
	.section	.text._ZNSt3__217__compressed_pairIPNS_6threadENS_9allocatorIS1_EEE5firstB8ne190106Ev,"G",@,_ZNSt3__217__compressed_pairIPNS_6threadENS_9allocatorIS1_EEE5firstB8ne190106Ev,comdat
	.hidden	_ZNSt3__217__compressed_pairIPNS_6threadENS_9allocatorIS1_EEE5firstB8ne190106Ev # -- Begin function _ZNSt3__217__compressed_pairIPNS_6threadENS_9allocatorIS1_EEE5firstB8ne190106Ev
	.weak	_ZNSt3__217__compressed_pairIPNS_6threadENS_9allocatorIS1_EEE5firstB8ne190106Ev
	.type	_ZNSt3__217__compressed_pairIPNS_6threadENS_9allocatorIS1_EEE5firstB8ne190106Ev,@function
_ZNSt3__217__compressed_pairIPNS_6threadENS_9allocatorIS1_EEE5firstB8ne190106Ev: # @_ZNSt3__217__compressed_pairIPNS_6threadENS_9allocatorIS1_EEE5firstB8ne190106Ev
.Lfunc_begin120:
	.loc	16 129 0                        # emscripten/cache/sysroot/include/c++/v1/__memory/compressed_pair.h:129:0
	.functype	_ZNSt3__217__compressed_pairIPNS_6threadENS_9allocatorIS1_EEE5firstB8ne190106Ev (i32) -> (i32)
	.local  	i32, i32, i32, i32, i32, i32, i32
# %bb.0:                                # %entry
	global.get	__stack_pointer
	local.set	1
	i32.const	16
	local.set	2
	local.get	1
	local.get	2
	i32.sub 
	local.set	3
	local.get	3
	global.set	__stack_pointer
	local.get	3
	local.get	0
	i32.store	12
	local.get	3
	i32.load	12
	local.set	4
.Ltmp299:
	.loc	16 130 40 prologue_end          # emscripten/cache/sysroot/include/c++/v1/__memory/compressed_pair.h:130:40
	local.get	4
	call	_ZNSt3__222__compressed_pair_elemIPNS_6threadELi0ELb0EE5__getB8ne190106Ev
	local.set	5
	.loc	16 130 5 is_stmt 0              # emscripten/cache/sysroot/include/c++/v1/__memory/compressed_pair.h:130:5
	i32.const	16
	local.set	6
	local.get	3
	local.get	6
	i32.add 
	local.set	7
	local.get	7
	global.set	__stack_pointer
	local.get	5
	return
	end_function
.Ltmp300:
.Lfunc_end120:
                                        # -- End function
	.section	.text._ZNSt3__222__compressed_pair_elemIPNS_6threadELi0ELb0EE5__getB8ne190106Ev,"G",@,_ZNSt3__222__compressed_pair_elemIPNS_6threadELi0ELb0EE5__getB8ne190106Ev,comdat
	.hidden	_ZNSt3__222__compressed_pair_elemIPNS_6threadELi0ELb0EE5__getB8ne190106Ev # -- Begin function _ZNSt3__222__compressed_pair_elemIPNS_6threadELi0ELb0EE5__getB8ne190106Ev
	.weak	_ZNSt3__222__compressed_pair_elemIPNS_6threadELi0ELb0EE5__getB8ne190106Ev
	.type	_ZNSt3__222__compressed_pair_elemIPNS_6threadELi0ELb0EE5__getB8ne190106Ev,@function
_ZNSt3__222__compressed_pair_elemIPNS_6threadELi0ELb0EE5__getB8ne190106Ev: # @_ZNSt3__222__compressed_pair_elemIPNS_6threadELi0ELb0EE5__getB8ne190106Ev
.Lfunc_begin121:
	.loc	16 62 0 is_stmt 1               # emscripten/cache/sysroot/include/c++/v1/__memory/compressed_pair.h:62:0
	.functype	_ZNSt3__222__compressed_pair_elemIPNS_6threadELi0ELb0EE5__getB8ne190106Ev (i32) -> (i32)
	.local  	i32, i32, i32, i32
# %bb.0:                                # %entry
	global.get	__stack_pointer
	local.set	1
	i32.const	16
	local.set	2
	local.get	1
	local.get	2
	i32.sub 
	local.set	3
	local.get	3
	local.get	0
	i32.store	12
	local.get	3
	i32.load	12
	local.set	4
.Ltmp301:
	.loc	16 62 85 prologue_end           # emscripten/cache/sysroot/include/c++/v1/__memory/compressed_pair.h:62:85
	local.get	4
	return
	end_function
.Ltmp302:
.Lfunc_end121:
                                        # -- End function
	.section	.text._ZNSt3__26vectorINS_6threadENS_9allocatorIS1_EEE21_ConstructTransactionC2B8ne190106ERS4_m,"G",@,_ZNSt3__26vectorINS_6threadENS_9allocatorIS1_EEE21_ConstructTransactionC2B8ne190106ERS4_m,comdat
	.hidden	_ZNSt3__26vectorINS_6threadENS_9allocatorIS1_EEE21_ConstructTransactionC2B8ne190106ERS4_m # -- Begin function _ZNSt3__26vectorINS_6threadENS_9allocatorIS1_EEE21_ConstructTransactionC2B8ne190106ERS4_m
	.weak	_ZNSt3__26vectorINS_6threadENS_9allocatorIS1_EEE21_ConstructTransactionC2B8ne190106ERS4_m
	.type	_ZNSt3__26vectorINS_6threadENS_9allocatorIS1_EEE21_ConstructTransactionC2B8ne190106ERS4_m,@function
_ZNSt3__26vectorINS_6threadENS_9allocatorIS1_EEE21_ConstructTransactionC2B8ne190106ERS4_m: # @_ZNSt3__26vectorINS_6threadENS_9allocatorIS1_EEE21_ConstructTransactionC2B8ne190106ERS4_m
.Lfunc_begin122:
	.loc	3 935 0                         # emscripten/cache/sysroot/include/c++/v1/vector:935:0
	.functype	_ZNSt3__26vectorINS_6threadENS_9allocatorIS1_EEE21_ConstructTransactionC2B8ne190106ERS4_m (i32, i32, i32) -> (i32)
	.local  	i32, i32, i32, i32, i32, i32, i32, i32, i32, i32, i32, i32, i32
# %bb.0:                                # %entry
	global.get	__stack_pointer
	local.set	3
	i32.const	16
	local.set	4
	local.get	3
	local.get	4
	i32.sub 
	local.set	5
	local.get	5
	local.get	0
	i32.store	12
	local.get	5
	local.get	1
	i32.store	8
	local.get	5
	local.get	2
	i32.store	4
	local.get	5
	i32.load	12
	local.set	6
.Ltmp303:
	.loc	3 935 16 prologue_end           # emscripten/cache/sysroot/include/c++/v1/vector:935:16
	local.get	5
	i32.load	8
	local.set	7
	.loc	3 935 11 is_stmt 0              # emscripten/cache/sysroot/include/c++/v1/vector:935:11
	local.get	6
	local.get	7
	i32.store	0
	.loc	3 935 29                        # emscripten/cache/sysroot/include/c++/v1/vector:935:29
	local.get	5
	i32.load	8
	local.set	8
	.loc	3 935 33                        # emscripten/cache/sysroot/include/c++/v1/vector:935:33
	local.get	8
	i32.load	4
	local.set	9
	.loc	3 935 22                        # emscripten/cache/sysroot/include/c++/v1/vector:935:22
	local.get	6
	local.get	9
	i32.store	4
	.loc	3 935 53                        # emscripten/cache/sysroot/include/c++/v1/vector:935:53
	local.get	5
	i32.load	8
	local.set	10
	.loc	3 935 57                        # emscripten/cache/sysroot/include/c++/v1/vector:935:57
	local.get	10
	i32.load	4
	local.set	11
	.loc	3 935 66                        # emscripten/cache/sysroot/include/c++/v1/vector:935:66
	local.get	5
	i32.load	4
	local.set	12
	.loc	3 935 64                        # emscripten/cache/sysroot/include/c++/v1/vector:935:64
	i32.const	2
	local.set	13
	local.get	12
	local.get	13
	i32.shl 
	local.set	14
	local.get	11
	local.get	14
	i32.add 
	local.set	15
	.loc	3 935 42                        # emscripten/cache/sysroot/include/c++/v1/vector:935:42
	local.get	6
	local.get	15
	i32.store	8
	.loc	3 939 5 is_stmt 1               # emscripten/cache/sysroot/include/c++/v1/vector:939:5
	local.get	6
	return
	end_function
.Ltmp304:
.Lfunc_end122:
                                        # -- End function
	.section	.text._ZNSt3__216allocator_traitsINS_9allocatorINS_6threadEEEE9constructB8ne190106IS2_JS2_ETnNS_9enable_ifIXsr15__has_constructIS3_PT_DpT0_EE5valueEiE4typeELi0EEEvRS3_S8_DpOS9_,"G",@,_ZNSt3__216allocator_traitsINS_9allocatorINS_6threadEEEE9constructB8ne190106IS2_JS2_ETnNS_9enable_ifIXsr15__has_constructIS3_PT_DpT0_EE5valueEiE4typeELi0EEEvRS3_S8_DpOS9_,comdat
	.hidden	_ZNSt3__216allocator_traitsINS_9allocatorINS_6threadEEEE9constructB8ne190106IS2_JS2_ETnNS_9enable_ifIXsr15__has_constructIS3_PT_DpT0_EE5valueEiE4typeELi0EEEvRS3_S8_DpOS9_ # -- Begin function _ZNSt3__216allocator_traitsINS_9allocatorINS_6threadEEEE9constructB8ne190106IS2_JS2_ETnNS_9enable_ifIXsr15__has_constructIS3_PT_DpT0_EE5valueEiE4typeELi0EEEvRS3_S8_DpOS9_
	.weak	_ZNSt3__216allocator_traitsINS_9allocatorINS_6threadEEEE9constructB8ne190106IS2_JS2_ETnNS_9enable_ifIXsr15__has_constructIS3_PT_DpT0_EE5valueEiE4typeELi0EEEvRS3_S8_DpOS9_
	.type	_ZNSt3__216allocator_traitsINS_9allocatorINS_6threadEEEE9constructB8ne190106IS2_JS2_ETnNS_9enable_ifIXsr15__has_constructIS3_PT_DpT0_EE5valueEiE4typeELi0EEEvRS3_S8_DpOS9_,@function
_ZNSt3__216allocator_traitsINS_9allocatorINS_6threadEEEE9constructB8ne190106IS2_JS2_ETnNS_9enable_ifIXsr15__has_constructIS3_PT_DpT0_EE5valueEiE4typeELi0EEEvRS3_S8_DpOS9_: # @_ZNSt3__216allocator_traitsINS_9allocatorINS_6threadEEEE9constructB8ne190106IS2_JS2_ETnNS_9enable_ifIXsr15__has_constructIS3_PT_DpT0_EE5valueEiE4typeELi0EEEvRS3_S8_DpOS9_
.Lfunc_begin123:
	.loc	15 317 0                        # emscripten/cache/sysroot/include/c++/v1/__memory/allocator_traits.h:317:0
	.functype	_ZNSt3__216allocator_traitsINS_9allocatorINS_6threadEEEE9constructB8ne190106IS2_JS2_ETnNS_9enable_ifIXsr15__has_constructIS3_PT_DpT0_EE5valueEiE4typeELi0EEEvRS3_S8_DpOS9_ (i32, i32, i32) -> ()
	.local  	i32, i32, i32, i32, i32, i32, i32, i32
# %bb.0:                                # %entry
	global.get	__stack_pointer
	local.set	3
	i32.const	16
	local.set	4
	local.get	3
	local.get	4
	i32.sub 
	local.set	5
	local.get	5
	global.set	__stack_pointer
	local.get	5
	local.get	0
	i32.store	12
	local.get	5
	local.get	1
	i32.store	8
	local.get	5
	local.get	2
	i32.store	4
.Ltmp305:
	.loc	15 319 5 prologue_end           # emscripten/cache/sysroot/include/c++/v1/__memory/allocator_traits.h:319:5
	local.get	5
	i32.load	12
	local.set	6
	.loc	15 319 19 is_stmt 0             # emscripten/cache/sysroot/include/c++/v1/__memory/allocator_traits.h:319:19
	local.get	5
	i32.load	8
	local.set	7
	.loc	15 319 44                       # emscripten/cache/sysroot/include/c++/v1/__memory/allocator_traits.h:319:44
	local.get	5
	i32.load	4
	local.set	8
	.loc	15 319 9                        # emscripten/cache/sysroot/include/c++/v1/__memory/allocator_traits.h:319:9
	local.get	6
	local.get	7
	local.get	8
	call	_ZNSt3__29allocatorINS_6threadEE9constructB8ne190106IS1_JS1_EEEvPT_DpOT0_
	.loc	15 321 3 is_stmt 1              # emscripten/cache/sysroot/include/c++/v1/__memory/allocator_traits.h:321:3
	i32.const	16
	local.set	9
	local.get	5
	local.get	9
	i32.add 
	local.set	10
	local.get	10
	global.set	__stack_pointer
	return
	end_function
.Ltmp306:
.Lfunc_end123:
                                        # -- End function
	.section	.text._ZNSt3__26vectorINS_6threadENS_9allocatorIS1_EEE21_ConstructTransactionD2B8ne190106Ev,"G",@,_ZNSt3__26vectorINS_6threadENS_9allocatorIS1_EEE21_ConstructTransactionD2B8ne190106Ev,comdat
	.hidden	_ZNSt3__26vectorINS_6threadENS_9allocatorIS1_EEE21_ConstructTransactionD2B8ne190106Ev # -- Begin function _ZNSt3__26vectorINS_6threadENS_9allocatorIS1_EEE21_ConstructTransactionD2B8ne190106Ev
	.weak	_ZNSt3__26vectorINS_6threadENS_9allocatorIS1_EEE21_ConstructTransactionD2B8ne190106Ev
	.type	_ZNSt3__26vectorINS_6threadENS_9allocatorIS1_EEE21_ConstructTransactionD2B8ne190106Ev,@function
_ZNSt3__26vectorINS_6threadENS_9allocatorIS1_EEE21_ConstructTransactionD2B8ne190106Ev: # @_ZNSt3__26vectorINS_6threadENS_9allocatorIS1_EEE21_ConstructTransactionD2B8ne190106Ev
.Lfunc_begin124:
	.loc	3 941 0                         # emscripten/cache/sysroot/include/c++/v1/vector:941:0
	.functype	_ZNSt3__26vectorINS_6threadENS_9allocatorIS1_EEE21_ConstructTransactionD2B8ne190106Ev (i32) -> (i32)
	.local  	i32, i32, i32, i32, i32, i32
# %bb.0:                                # %entry
	global.get	__stack_pointer
	local.set	1
	i32.const	16
	local.set	2
	local.get	1
	local.get	2
	i32.sub 
	local.set	3
	local.get	3
	local.get	0
	i32.store	12
	local.get	3
	i32.load	12
	local.set	4
.Ltmp307:
	.loc	3 942 21 prologue_end           # emscripten/cache/sysroot/include/c++/v1/vector:942:21
	local.get	4
	i32.load	4
	local.set	5
	.loc	3 942 7 is_stmt 0               # emscripten/cache/sysroot/include/c++/v1/vector:942:7
	local.get	4
	i32.load	0
	local.set	6
	.loc	3 942 19                        # emscripten/cache/sysroot/include/c++/v1/vector:942:19
	local.get	6
	local.get	5
	i32.store	4
.Ltmp308:
	.loc	3 948 5 is_stmt 1               # emscripten/cache/sysroot/include/c++/v1/vector:948:5
	local.get	4
	return
	end_function
.Ltmp309:
.Lfunc_end124:
                                        # -- End function
	.section	.text._ZNSt3__29allocatorINS_6threadEE9constructB8ne190106IS1_JS1_EEEvPT_DpOT0_,"G",@,_ZNSt3__29allocatorINS_6threadEE9constructB8ne190106IS1_JS1_EEEvPT_DpOT0_,comdat
	.hidden	_ZNSt3__29allocatorINS_6threadEE9constructB8ne190106IS1_JS1_EEEvPT_DpOT0_ # -- Begin function _ZNSt3__29allocatorINS_6threadEE9constructB8ne190106IS1_JS1_EEEvPT_DpOT0_
	.weak	_ZNSt3__29allocatorINS_6threadEE9constructB8ne190106IS1_JS1_EEEvPT_DpOT0_
	.type	_ZNSt3__29allocatorINS_6threadEE9constructB8ne190106IS1_JS1_EEEvPT_DpOT0_,@function
_ZNSt3__29allocatorINS_6threadEE9constructB8ne190106IS1_JS1_EEEvPT_DpOT0_: # @_ZNSt3__29allocatorINS_6threadEE9constructB8ne190106IS1_JS1_EEEvPT_DpOT0_
.Lfunc_begin125:
	.loc	14 164 0                        # emscripten/cache/sysroot/include/c++/v1/__memory/allocator.h:164:0
	.functype	_ZNSt3__29allocatorINS_6threadEE9constructB8ne190106IS1_JS1_EEEvPT_DpOT0_ (i32, i32, i32) -> ()
	.local  	i32, i32, i32, i32, i32, i32, i32
# %bb.0:                                # %entry
	global.get	__stack_pointer
	local.set	3
	i32.const	16
	local.set	4
	local.get	3
	local.get	4
	i32.sub 
	local.set	5
	local.get	5
	global.set	__stack_pointer
	local.get	5
	local.get	0
	i32.store	12
	local.get	5
	local.get	1
	i32.store	8
	local.get	5
	local.get	2
	i32.store	4
.Ltmp310:
	.loc	14 165 19 prologue_end          # emscripten/cache/sysroot/include/c++/v1/__memory/allocator.h:165:19
	local.get	5
	i32.load	8
	local.set	6
	.loc	14 165 48 is_stmt 0             # emscripten/cache/sysroot/include/c++/v1/__memory/allocator.h:165:48
	local.get	5
	i32.load	4
	local.set	7
	.loc	14 165 24                       # emscripten/cache/sysroot/include/c++/v1/__memory/allocator.h:165:24
	local.get	6
	local.get	7
	call	_ZNSt3__26threadC2B8ne190106EOS0_
	drop
	.loc	14 166 3 is_stmt 1              # emscripten/cache/sysroot/include/c++/v1/__memory/allocator.h:166:3
	i32.const	16
	local.set	8
	local.get	5
	local.get	8
	i32.add 
	local.set	9
	local.get	9
	global.set	__stack_pointer
	return
	end_function
.Ltmp311:
.Lfunc_end125:
                                        # -- End function
	.section	.text._ZNSt3__26threadC2B8ne190106EOS0_,"G",@,_ZNSt3__26threadC2B8ne190106EOS0_,comdat
	.hidden	_ZNSt3__26threadC2B8ne190106EOS0_ # -- Begin function _ZNSt3__26threadC2B8ne190106EOS0_
	.weak	_ZNSt3__26threadC2B8ne190106EOS0_
	.type	_ZNSt3__26threadC2B8ne190106EOS0_,@function
_ZNSt3__26threadC2B8ne190106EOS0_:      # @_ZNSt3__26threadC2B8ne190106EOS0_
.Lfunc_begin126:
	.loc	2 167 0                         # emscripten/cache/sysroot/include/c++/v1/__thread/thread.h:167:0
	.functype	_ZNSt3__26threadC2B8ne190106EOS0_ (i32, i32) -> (i32)
	.local  	i32, i32, i32, i32, i32, i32, i32, i32
# %bb.0:                                # %entry
	global.get	__stack_pointer
	local.set	2
	i32.const	16
	local.set	3
	local.get	2
	local.get	3
	i32.sub 
	local.set	4
	local.get	4
	local.get	0
	i32.store	12
	local.get	4
	local.get	1
	i32.store	8
	local.get	4
	i32.load	12
	local.set	5
.Ltmp312:
	.loc	2 167 63 prologue_end           # emscripten/cache/sysroot/include/c++/v1/__thread/thread.h:167:63
	local.get	4
	i32.load	8
	local.set	6
	.loc	2 167 67 is_stmt 0              # emscripten/cache/sysroot/include/c++/v1/__thread/thread.h:167:67
	local.get	6
	i32.load	0
	local.set	7
	.loc	2 167 58                        # emscripten/cache/sysroot/include/c++/v1/__thread/thread.h:167:58
	local.get	5
	local.get	7
	i32.store	0
.Ltmp313:
	.loc	2 167 75                        # emscripten/cache/sysroot/include/c++/v1/__thread/thread.h:167:75
	local.get	4
	i32.load	8
	local.set	8
	.loc	2 167 84                        # emscripten/cache/sysroot/include/c++/v1/__thread/thread.h:167:84
	i32.const	0
	local.set	9
	local.get	8
	local.get	9
	i32.store	0
.Ltmp314:
	.loc	2 167 107                       # emscripten/cache/sysroot/include/c++/v1/__thread/thread.h:167:107
	local.get	5
	return
	end_function
.Ltmp315:
.Lfunc_end126:
                                        # -- End function
	.section	.text._ZNKSt3__26vectorINS_6threadENS_9allocatorIS1_EEE11__recommendB8ne190106Em,"G",@,_ZNKSt3__26vectorINS_6threadENS_9allocatorIS1_EEE11__recommendB8ne190106Em,comdat
	.hidden	_ZNKSt3__26vectorINS_6threadENS_9allocatorIS1_EEE11__recommendB8ne190106Em # -- Begin function _ZNKSt3__26vectorINS_6threadENS_9allocatorIS1_EEE11__recommendB8ne190106Em
	.weak	_ZNKSt3__26vectorINS_6threadENS_9allocatorIS1_EEE11__recommendB8ne190106Em
	.type	_ZNKSt3__26vectorINS_6threadENS_9allocatorIS1_EEE11__recommendB8ne190106Em,@function
_ZNKSt3__26vectorINS_6threadENS_9allocatorIS1_EEE11__recommendB8ne190106Em: # @_ZNKSt3__26vectorINS_6threadENS_9allocatorIS1_EEE11__recommendB8ne190106Em
.Lfunc_begin127:
	.loc	3 1113 0 is_stmt 1              # emscripten/cache/sysroot/include/c++/v1/vector:1113:0
	.functype	_ZNKSt3__26vectorINS_6threadENS_9allocatorIS1_EEE11__recommendB8ne190106Em (i32, i32) -> (i32)
	.local  	i32, i32, i32, i32, i32, i32, i32, i32, i32, i32, i32, i32, i32, i32, i32, i32, i32, i32, i32, i32, i32, i32, i32, i32, i32, i32, i32, i32, i32, i32, i32, i32, i32
# %bb.0:                                # %entry
	global.get	__stack_pointer
	local.set	2
	i32.const	32
	local.set	3
	local.get	2
	local.get	3
	i32.sub 
	local.set	4
	local.get	4
	global.set	__stack_pointer
	local.get	4
	local.get	0
	i32.store	24
	local.get	4
	local.get	1
	i32.store	20
	local.get	4
	i32.load	24
	local.set	5
.Ltmp316:
	.loc	3 1114 26 prologue_end          # emscripten/cache/sysroot/include/c++/v1/vector:1114:26
	local.get	5
	call	_ZNKSt3__26vectorINS_6threadENS_9allocatorIS1_EEE8max_sizeEv
	local.set	6
	.loc	3 1114 19 is_stmt 0             # emscripten/cache/sysroot/include/c++/v1/vector:1114:19
	local.get	4
	local.get	6
	i32.store	16
.Ltmp317:
	.loc	3 1115 7 is_stmt 1              # emscripten/cache/sysroot/include/c++/v1/vector:1115:7
	local.get	4
	i32.load	20
	local.set	7
	.loc	3 1115 20 is_stmt 0             # emscripten/cache/sysroot/include/c++/v1/vector:1115:20
	local.get	4
	i32.load	16
	local.set	8
	.loc	3 1115 18                       # emscripten/cache/sysroot/include/c++/v1/vector:1115:18
	local.get	7
	local.get	8
	i32.gt_u
	local.set	9
	i32.const	1
	local.set	10
	local.get	9
	local.get	10
	i32.and 
	local.set	11
	block   	
	local.get	11
	i32.eqz
	br_if   	0                               # 0: down to label29
# %bb.1:                                # %if.then
	.loc	3 1116 11 is_stmt 1             # emscripten/cache/sysroot/include/c++/v1/vector:1116:11
	local.get	5
	call	_ZNKSt3__26vectorINS_6threadENS_9allocatorIS1_EEE20__throw_length_errorB8ne190106Ev
	unreachable
.Ltmp318:
.LBB127_2:                              # %if.end
	.loc	3 0 11 is_stmt 0                # emscripten/cache/sysroot/include/c++/v1/vector:0:11
	end_block                               # label29:
	.loc	3 1117 27 is_stmt 1             # emscripten/cache/sysroot/include/c++/v1/vector:1117:27
	local.get	5
	call	_ZNKSt3__26vectorINS_6threadENS_9allocatorIS1_EEE8capacityB8ne190106Ev
	local.set	12
	.loc	3 1117 19 is_stmt 0             # emscripten/cache/sysroot/include/c++/v1/vector:1117:19
	local.get	4
	local.get	12
	i32.store	12
.Ltmp319:
	.loc	3 1118 7 is_stmt 1              # emscripten/cache/sysroot/include/c++/v1/vector:1118:7
	local.get	4
	i32.load	12
	local.set	13
	.loc	3 1118 16 is_stmt 0             # emscripten/cache/sysroot/include/c++/v1/vector:1118:16
	local.get	4
	i32.load	16
	local.set	14
	.loc	3 1118 21                       # emscripten/cache/sysroot/include/c++/v1/vector:1118:21
	i32.const	1
	local.set	15
	local.get	14
	local.get	15
	i32.shr_u
	local.set	16
	.loc	3 1118 13                       # emscripten/cache/sysroot/include/c++/v1/vector:1118:13
	local.get	13
	local.get	16
	i32.ge_u
	local.set	17
	i32.const	1
	local.set	18
	local.get	17
	local.get	18
	i32.and 
	local.set	19
	block   	
	block   	
	local.get	19
	i32.eqz
	br_if   	0                               # 0: down to label31
# %bb.3:                                # %if.then4
	.loc	3 1119 12 is_stmt 1             # emscripten/cache/sysroot/include/c++/v1/vector:1119:12
	local.get	4
	i32.load	16
	local.set	20
	.loc	3 1119 5 is_stmt 0              # emscripten/cache/sysroot/include/c++/v1/vector:1119:5
	local.get	4
	local.get	20
	i32.store	28
	br      	1                               # 1: down to label30
.Ltmp320:
.LBB127_4:                              # %if.end5
	.loc	3 0 5                           # emscripten/cache/sysroot/include/c++/v1/vector:0:5
	end_block                               # label31:
	.loc	3 1120 34 is_stmt 1             # emscripten/cache/sysroot/include/c++/v1/vector:1120:34
	local.get	4
	i32.load	12
	local.set	21
	.loc	3 1120 32 is_stmt 0             # emscripten/cache/sysroot/include/c++/v1/vector:1120:32
	i32.const	1
	local.set	22
	local.get	21
	local.get	22
	i32.shl 
	local.set	23
	.loc	3 1120 30                       # emscripten/cache/sysroot/include/c++/v1/vector:1120:30
	local.get	4
	local.get	23
	i32.store	8
	.loc	3 1120 10                       # emscripten/cache/sysroot/include/c++/v1/vector:1120:10
	i32.const	8
	local.set	24
	local.get	4
	local.get	24
	i32.add 
	local.set	25
	local.get	25
	local.set	26
	i32.const	20
	local.set	27
	local.get	4
	local.get	27
	i32.add 
	local.set	28
	local.get	28
	local.set	29
	local.get	26
	local.get	29
	call	_ZNSt3__23maxB8ne190106ImEERKT_S3_S3_
	local.set	30
	local.get	30
	i32.load	0
	local.set	31
	.loc	3 1120 3                        # emscripten/cache/sysroot/include/c++/v1/vector:1120:3
	local.get	4
	local.get	31
	i32.store	28
.LBB127_5:                              # %return
	.loc	3 0 3                           # emscripten/cache/sysroot/include/c++/v1/vector:0:3
	end_block                               # label30:
	.loc	3 1121 1 is_stmt 1              # emscripten/cache/sysroot/include/c++/v1/vector:1121:1
	local.get	4
	i32.load	28
	local.set	32
	i32.const	32
	local.set	33
	local.get	4
	local.get	33
	i32.add 
	local.set	34
	local.get	34
	global.set	__stack_pointer
	local.get	32
	return
	end_function
.Ltmp321:
.Lfunc_end127:
                                        # -- End function
	.section	.text._ZNKSt3__26vectorINS_6threadENS_9allocatorIS1_EEE4sizeB8ne190106Ev,"G",@,_ZNKSt3__26vectorINS_6threadENS_9allocatorIS1_EEE4sizeB8ne190106Ev,comdat
	.hidden	_ZNKSt3__26vectorINS_6threadENS_9allocatorIS1_EEE4sizeB8ne190106Ev # -- Begin function _ZNKSt3__26vectorINS_6threadENS_9allocatorIS1_EEE4sizeB8ne190106Ev
	.weak	_ZNKSt3__26vectorINS_6threadENS_9allocatorIS1_EEE4sizeB8ne190106Ev
	.type	_ZNKSt3__26vectorINS_6threadENS_9allocatorIS1_EEE4sizeB8ne190106Ev,@function
_ZNKSt3__26vectorINS_6threadENS_9allocatorIS1_EEE4sizeB8ne190106Ev: # @_ZNKSt3__26vectorINS_6threadENS_9allocatorIS1_EEE4sizeB8ne190106Ev
.Lfunc_begin128:
	.loc	3 634 0                         # emscripten/cache/sysroot/include/c++/v1/vector:634:0
	.functype	_ZNKSt3__26vectorINS_6threadENS_9allocatorIS1_EEE4sizeB8ne190106Ev (i32) -> (i32)
	.local  	i32, i32, i32, i32, i32, i32, i32, i32, i32
# %bb.0:                                # %entry
	global.get	__stack_pointer
	local.set	1
	i32.const	16
	local.set	2
	local.get	1
	local.get	2
	i32.sub 
	local.set	3
	local.get	3
	local.get	0
	i32.store	12
	local.get	3
	i32.load	12
	local.set	4
.Ltmp322:
	.loc	3 635 41 prologue_end           # emscripten/cache/sysroot/include/c++/v1/vector:635:41
	local.get	4
	i32.load	4
	local.set	5
	.loc	3 635 56 is_stmt 0              # emscripten/cache/sysroot/include/c++/v1/vector:635:56
	local.get	4
	i32.load	0
	local.set	6
	.loc	3 635 48                        # emscripten/cache/sysroot/include/c++/v1/vector:635:48
	local.get	5
	local.get	6
	i32.sub 
	local.set	7
	i32.const	2
	local.set	8
	local.get	7
	local.get	8
	i32.shr_s
	local.set	9
	.loc	3 635 5                         # emscripten/cache/sysroot/include/c++/v1/vector:635:5
	local.get	9
	return
	end_function
.Ltmp323:
.Lfunc_end128:
                                        # -- End function
	.section	.text._ZNSt3__214__split_bufferINS_6threadERNS_9allocatorIS1_EEEC2EmmS4_,"G",@,_ZNSt3__214__split_bufferINS_6threadERNS_9allocatorIS1_EEEC2EmmS4_,comdat
	.hidden	_ZNSt3__214__split_bufferINS_6threadERNS_9allocatorIS1_EEEC2EmmS4_ # -- Begin function _ZNSt3__214__split_bufferINS_6threadERNS_9allocatorIS1_EEEC2EmmS4_
	.weak	_ZNSt3__214__split_bufferINS_6threadERNS_9allocatorIS1_EEEC2EmmS4_
	.type	_ZNSt3__214__split_bufferINS_6threadERNS_9allocatorIS1_EEEC2EmmS4_,@function
_ZNSt3__214__split_bufferINS_6threadERNS_9allocatorIS1_EEEC2EmmS4_: # @_ZNSt3__214__split_bufferINS_6threadERNS_9allocatorIS1_EEEC2EmmS4_
.Lfunc_begin129:
	.loc	21 349 0 is_stmt 1              # emscripten/cache/sysroot/include/c++/v1/__split_buffer:349:0
	.functype	_ZNSt3__214__split_bufferINS_6threadERNS_9allocatorIS1_EEEC2EmmS4_ (i32, i32, i32, i32) -> (i32)
	.local  	i32, i32, i32, i32, i32, i32, i32, i32, i32, i32, i32, i32, i32, i32, i32, i32, i32, i32, i32, i32, i32, i32, i32, i32, i32, i32, i32, i32, i32, i32, i32, i32
# %bb.0:                                # %entry
	global.get	__stack_pointer
	local.set	4
	i32.const	32
	local.set	5
	local.get	4
	local.get	5
	i32.sub 
	local.set	6
	local.get	6
	global.set	__stack_pointer
	local.get	6
	local.get	0
	i32.store	24
	local.get	6
	local.get	1
	i32.store	20
	local.get	6
	local.get	2
	i32.store	16
	local.get	6
	local.get	3
	i32.store	12
	local.get	6
	i32.load	24
	local.set	7
	local.get	6
	local.get	7
	i32.store	28
.Ltmp324:
	.loc	21 349 7 prologue_end           # emscripten/cache/sysroot/include/c++/v1/__split_buffer:349:7
	i32.const	12
	local.set	8
	local.get	7
	local.get	8
	i32.add 
	local.set	9
	.loc	21 349 18 is_stmt 0             # emscripten/cache/sysroot/include/c++/v1/__split_buffer:349:18
	i32.const	0
	local.set	10
	local.get	6
	local.get	10
	i32.store	8
	.loc	21 349 27                       # emscripten/cache/sysroot/include/c++/v1/__split_buffer:349:27
	local.get	6
	i32.load	12
	local.set	11
	.loc	21 349 7                        # emscripten/cache/sysroot/include/c++/v1/__split_buffer:349:7
	i32.const	8
	local.set	12
	local.get	6
	local.get	12
	i32.add 
	local.set	13
	local.get	13
	local.set	14
	local.get	9
	local.get	14
	local.get	11
	call	_ZNSt3__217__compressed_pairIPNS_6threadERNS_9allocatorIS1_EEEC2B8ne190106IDnS5_EEOT_OT0_
	drop
.Ltmp325:
	.loc	21 350 7 is_stmt 1              # emscripten/cache/sysroot/include/c++/v1/__split_buffer:350:7
	local.get	6
	i32.load	20
	local.set	15
	.loc	21 350 13 is_stmt 0             # emscripten/cache/sysroot/include/c++/v1/__split_buffer:350:13
	block   	
	block   	
	local.get	15
	br_if   	0                               # 0: down to label33
# %bb.1:                                # %if.then
.Ltmp326:
	.loc	21 351 14 is_stmt 1             # emscripten/cache/sysroot/include/c++/v1/__split_buffer:351:14
	i32.const	0
	local.set	16
	local.get	7
	local.get	16
	i32.store	0
	.loc	21 352 3                        # emscripten/cache/sysroot/include/c++/v1/__split_buffer:352:3
	br      	1                               # 1: down to label32
.Ltmp327:
.LBB129_2:                              # %if.else
	.loc	21 0 3 is_stmt 0                # emscripten/cache/sysroot/include/c++/v1/__split_buffer:0:3
	end_block                               # label33:
.Ltmp328:
	.loc	21 353 50 is_stmt 1             # emscripten/cache/sysroot/include/c++/v1/__split_buffer:353:50
	local.get	7
	call	_ZNSt3__214__split_bufferINS_6threadERNS_9allocatorIS1_EEE7__allocB8ne190106Ev
	local.set	17
	.loc	21 353 61 is_stmt 0             # emscripten/cache/sysroot/include/c++/v1/__split_buffer:353:61
	local.get	6
	i32.load	20
	local.set	18
	.loc	21 353 25                       # emscripten/cache/sysroot/include/c++/v1/__split_buffer:353:25
	local.get	6
	local.set	19
	local.get	19
	local.get	17
	local.get	18
	call	_ZNSt3__219__allocate_at_leastB8ne190106INS_9allocatorINS_6threadEEEEENS_19__allocation_resultINS_16allocator_traitsIT_E7pointerEEERS6_m
	.loc	21 354 38 is_stmt 1             # emscripten/cache/sysroot/include/c++/v1/__split_buffer:354:38
	local.get	6
	i32.load	0
	local.set	20
	.loc	21 354 23 is_stmt 0             # emscripten/cache/sysroot/include/c++/v1/__split_buffer:354:23
	local.get	7
	local.get	20
	i32.store	0
	.loc	21 355 38 is_stmt 1             # emscripten/cache/sysroot/include/c++/v1/__split_buffer:355:38
	local.get	6
	i32.load	4
	local.set	21
	.loc	21 355 23 is_stmt 0             # emscripten/cache/sysroot/include/c++/v1/__split_buffer:355:23
	local.get	6
	local.get	21
	i32.store	20
.Ltmp329:
.LBB129_3:                              # %if.end
	.loc	21 0 23                         # emscripten/cache/sysroot/include/c++/v1/__split_buffer:0:23
	end_block                               # label32:
	.loc	21 357 23 is_stmt 1             # emscripten/cache/sysroot/include/c++/v1/__split_buffer:357:23
	local.get	7
	i32.load	0
	local.set	22
	.loc	21 357 34 is_stmt 0             # emscripten/cache/sysroot/include/c++/v1/__split_buffer:357:34
	local.get	6
	i32.load	16
	local.set	23
	.loc	21 357 32                       # emscripten/cache/sysroot/include/c++/v1/__split_buffer:357:32
	i32.const	2
	local.set	24
	local.get	23
	local.get	24
	i32.shl 
	local.set	25
	local.get	22
	local.get	25
	i32.add 
	local.set	26
	.loc	21 357 21                       # emscripten/cache/sysroot/include/c++/v1/__split_buffer:357:21
	local.get	7
	local.get	26
	i32.store	8
	.loc	21 357 12                       # emscripten/cache/sysroot/include/c++/v1/__split_buffer:357:12
	local.get	7
	local.get	26
	i32.store	4
	.loc	21 358 23 is_stmt 1             # emscripten/cache/sysroot/include/c++/v1/__split_buffer:358:23
	local.get	7
	i32.load	0
	local.set	27
	.loc	21 358 34 is_stmt 0             # emscripten/cache/sysroot/include/c++/v1/__split_buffer:358:34
	local.get	6
	i32.load	20
	local.set	28
	.loc	21 358 32                       # emscripten/cache/sysroot/include/c++/v1/__split_buffer:358:32
	i32.const	2
	local.set	29
	local.get	28
	local.get	29
	i32.shl 
	local.set	30
	local.get	27
	local.get	30
	i32.add 
	local.set	31
	.loc	21 358 3                        # emscripten/cache/sysroot/include/c++/v1/__split_buffer:358:3
	local.get	7
	call	_ZNSt3__214__split_bufferINS_6threadERNS_9allocatorIS1_EEE9__end_capB8ne190106Ev
	local.set	32
	.loc	21 358 21                       # emscripten/cache/sysroot/include/c++/v1/__split_buffer:358:21
	local.get	32
	local.get	31
	i32.store	0
.Ltmp330:
	.loc	21 359 1 is_stmt 1              # emscripten/cache/sysroot/include/c++/v1/__split_buffer:359:1
	local.get	6
	i32.load	28
	local.set	33
	i32.const	32
	local.set	34
	local.get	6
	local.get	34
	i32.add 
	local.set	35
	local.get	35
	global.set	__stack_pointer
	local.get	33
	return
	end_function
.Ltmp331:
.Lfunc_end129:
                                        # -- End function
	.section	.text._ZNSt3__26vectorINS_6threadENS_9allocatorIS1_EEE26__swap_out_circular_bufferERNS_14__split_bufferIS1_RS3_EE,"G",@,_ZNSt3__26vectorINS_6threadENS_9allocatorIS1_EEE26__swap_out_circular_bufferERNS_14__split_bufferIS1_RS3_EE,comdat
	.hidden	_ZNSt3__26vectorINS_6threadENS_9allocatorIS1_EEE26__swap_out_circular_bufferERNS_14__split_bufferIS1_RS3_EE # -- Begin function _ZNSt3__26vectorINS_6threadENS_9allocatorIS1_EEE26__swap_out_circular_bufferERNS_14__split_bufferIS1_RS3_EE
	.weak	_ZNSt3__26vectorINS_6threadENS_9allocatorIS1_EEE26__swap_out_circular_bufferERNS_14__split_bufferIS1_RS3_EE
	.type	_ZNSt3__26vectorINS_6threadENS_9allocatorIS1_EEE26__swap_out_circular_bufferERNS_14__split_bufferIS1_RS3_EE,@function
_ZNSt3__26vectorINS_6threadENS_9allocatorIS1_EEE26__swap_out_circular_bufferERNS_14__split_bufferIS1_RS3_EE: # @_ZNSt3__26vectorINS_6threadENS_9allocatorIS1_EEE26__swap_out_circular_bufferERNS_14__split_bufferIS1_RS3_EE
.Lfunc_begin130:
	.loc	3 1049 0                        # emscripten/cache/sysroot/include/c++/v1/vector:1049:0
	.functype	_ZNSt3__26vectorINS_6threadENS_9allocatorIS1_EEE26__swap_out_circular_bufferERNS_14__split_bufferIS1_RS3_EE (i32, i32) -> ()
	.local  	i32, i32, i32, i32, i32, i32, i32, i32, i32, i32, i32, i32, i32, i32, i32, i32, i32, i32, i32, i32, i32, i32, i32, i32, i32, i32, i32, i32, i32, i32, i32, i32, i32, i32, i32, i32, i32, i32, i32, i32, i32, i32, i32
# %bb.0:                                # %entry
	global.get	__stack_pointer
	local.set	2
	i32.const	16
	local.set	3
	local.get	2
	local.get	3
	i32.sub 
	local.set	4
	local.get	4
	global.set	__stack_pointer
	local.get	4
	local.get	0
	i32.store	12
	local.get	4
	local.get	1
	i32.store	8
	local.get	4
	i32.load	12
	local.set	5
.Ltmp332:
	.loc	3 1050 3 prologue_end           # emscripten/cache/sysroot/include/c++/v1/vector:1050:3
	local.get	5
	call	_ZNKSt3__26vectorINS_6threadENS_9allocatorIS1_EEE17__annotate_deleteB8ne190106Ev
	.loc	3 1051 22                       # emscripten/cache/sysroot/include/c++/v1/vector:1051:22
	local.get	4
	i32.load	8
	local.set	6
	.loc	3 1051 26 is_stmt 0             # emscripten/cache/sysroot/include/c++/v1/vector:1051:26
	local.get	6
	i32.load	4
	local.set	7
	.loc	3 1051 38                       # emscripten/cache/sysroot/include/c++/v1/vector:1051:38
	local.get	5
	i32.load	4
	local.set	8
	.loc	3 1051 47                       # emscripten/cache/sysroot/include/c++/v1/vector:1051:47
	local.get	5
	i32.load	0
	local.set	9
	.loc	3 1051 45                       # emscripten/cache/sysroot/include/c++/v1/vector:1051:45
	local.get	8
	local.get	9
	i32.sub 
	local.set	10
	i32.const	2
	local.set	11
	local.get	10
	local.get	11
	i32.shr_s
	local.set	12
	.loc	3 1051 35                       # emscripten/cache/sysroot/include/c++/v1/vector:1051:35
	i32.const	0
	local.set	13
	local.get	13
	local.get	12
	i32.sub 
	local.set	14
	i32.const	2
	local.set	15
	local.get	14
	local.get	15
	i32.shl 
	local.set	16
	local.get	7
	local.get	16
	i32.add 
	local.set	17
	.loc	3 1051 8                        # emscripten/cache/sysroot/include/c++/v1/vector:1051:8
	local.get	4
	local.get	17
	i32.store	4
	.loc	3 1053 7 is_stmt 1              # emscripten/cache/sysroot/include/c++/v1/vector:1053:7
	local.get	5
	call	_ZNSt3__26vectorINS_6threadENS_9allocatorIS1_EEE7__allocB8ne190106Ev
	local.set	18
	.loc	3 1053 36 is_stmt 0             # emscripten/cache/sysroot/include/c++/v1/vector:1053:36
	local.get	5
	i32.load	0
	local.set	19
	.loc	3 1053 18                       # emscripten/cache/sysroot/include/c++/v1/vector:1053:18
	local.get	19
	call	_ZNSt3__212__to_addressB8ne190106INS_6threadEEEPT_S3_
	local.set	20
	.loc	3 1053 65                       # emscripten/cache/sysroot/include/c++/v1/vector:1053:65
	local.get	5
	i32.load	4
	local.set	21
	.loc	3 1053 47                       # emscripten/cache/sysroot/include/c++/v1/vector:1053:47
	local.get	21
	call	_ZNSt3__212__to_addressB8ne190106INS_6threadEEEPT_S3_
	local.set	22
	.loc	3 1053 92                       # emscripten/cache/sysroot/include/c++/v1/vector:1053:92
	local.get	4
	i32.load	4
	local.set	23
	.loc	3 1053 74                       # emscripten/cache/sysroot/include/c++/v1/vector:1053:74
	local.get	23
	call	_ZNSt3__212__to_addressB8ne190106INS_6threadEEEPT_S3_
	local.set	24
	.loc	3 1052 3 is_stmt 1              # emscripten/cache/sysroot/include/c++/v1/vector:1052:3
	local.get	18
	local.get	20
	local.get	22
	local.get	24
	call	_ZNSt3__234__uninitialized_allocator_relocateB8ne190106INS_9allocatorINS_6threadEEES2_EEvRT_PT0_S7_S7_
	.loc	3 1054 18                       # emscripten/cache/sysroot/include/c++/v1/vector:1054:18
	local.get	4
	i32.load	4
	local.set	25
	.loc	3 1054 3 is_stmt 0              # emscripten/cache/sysroot/include/c++/v1/vector:1054:3
	local.get	4
	i32.load	8
	local.set	26
	.loc	3 1054 16                       # emscripten/cache/sysroot/include/c++/v1/vector:1054:16
	local.get	26
	local.get	25
	i32.store	4
	.loc	3 1055 18 is_stmt 1             # emscripten/cache/sysroot/include/c++/v1/vector:1055:18
	local.get	5
	i32.load	0
	local.set	27
	.loc	3 1055 16 is_stmt 0             # emscripten/cache/sysroot/include/c++/v1/vector:1055:16
	local.get	5
	local.get	27
	i32.store	4
	.loc	3 1056 29 is_stmt 1             # emscripten/cache/sysroot/include/c++/v1/vector:1056:29
	local.get	4
	i32.load	8
	local.set	28
	.loc	3 1056 33 is_stmt 0             # emscripten/cache/sysroot/include/c++/v1/vector:1056:33
	i32.const	4
	local.set	29
	local.get	28
	local.get	29
	i32.add 
	local.set	30
	.loc	3 1056 3                        # emscripten/cache/sysroot/include/c++/v1/vector:1056:3
	local.get	5
	local.get	30
	call	_ZNSt3__24swapB8ne190106IPNS_6threadEEENS_9enable_ifIXaasr21is_move_constructibleIT_EE5valuesr18is_move_assignableIS4_EE5valueEvE4typeERS4_S7_
	.loc	3 1057 19 is_stmt 1             # emscripten/cache/sysroot/include/c++/v1/vector:1057:19
	i32.const	4
	local.set	31
	local.get	5
	local.get	31
	i32.add 
	local.set	32
	.loc	3 1057 27 is_stmt 0             # emscripten/cache/sysroot/include/c++/v1/vector:1057:27
	local.get	4
	i32.load	8
	local.set	33
	.loc	3 1057 31                       # emscripten/cache/sysroot/include/c++/v1/vector:1057:31
	i32.const	8
	local.set	34
	local.get	33
	local.get	34
	i32.add 
	local.set	35
	.loc	3 1057 3                        # emscripten/cache/sysroot/include/c++/v1/vector:1057:3
	local.get	32
	local.get	35
	call	_ZNSt3__24swapB8ne190106IPNS_6threadEEENS_9enable_ifIXaasr21is_move_constructibleIT_EE5valuesr18is_move_assignableIS4_EE5valueEvE4typeERS4_S7_
	.loc	3 1058 19 is_stmt 1             # emscripten/cache/sysroot/include/c++/v1/vector:1058:19
	local.get	5
	call	_ZNSt3__26vectorINS_6threadENS_9allocatorIS1_EEE9__end_capB8ne190106Ev
	local.set	36
	.loc	3 1058 32 is_stmt 0             # emscripten/cache/sysroot/include/c++/v1/vector:1058:32
	local.get	4
	i32.load	8
	local.set	37
	.loc	3 1058 36                       # emscripten/cache/sysroot/include/c++/v1/vector:1058:36
	local.get	37
	call	_ZNSt3__214__split_bufferINS_6threadERNS_9allocatorIS1_EEE9__end_capB8ne190106Ev
	local.set	38
	.loc	3 1058 3                        # emscripten/cache/sysroot/include/c++/v1/vector:1058:3
	local.get	36
	local.get	38
	call	_ZNSt3__24swapB8ne190106IPNS_6threadEEENS_9enable_ifIXaasr21is_move_constructibleIT_EE5valuesr18is_move_assignableIS4_EE5valueEvE4typeERS4_S7_
	.loc	3 1059 18 is_stmt 1             # emscripten/cache/sysroot/include/c++/v1/vector:1059:18
	local.get	4
	i32.load	8
	local.set	39
	.loc	3 1059 22 is_stmt 0             # emscripten/cache/sysroot/include/c++/v1/vector:1059:22
	local.get	39
	i32.load	4
	local.set	40
	.loc	3 1059 3                        # emscripten/cache/sysroot/include/c++/v1/vector:1059:3
	local.get	4
	i32.load	8
	local.set	41
	.loc	3 1059 16                       # emscripten/cache/sysroot/include/c++/v1/vector:1059:16
	local.get	41
	local.get	40
	i32.store	0
	.loc	3 1060 18 is_stmt 1             # emscripten/cache/sysroot/include/c++/v1/vector:1060:18
	local.get	5
	call	_ZNKSt3__26vectorINS_6threadENS_9allocatorIS1_EEE4sizeB8ne190106Ev
	local.set	42
	.loc	3 1060 3 is_stmt 0              # emscripten/cache/sysroot/include/c++/v1/vector:1060:3
	local.get	5
	local.get	42
	call	_ZNKSt3__26vectorINS_6threadENS_9allocatorIS1_EEE14__annotate_newB8ne190106Em
	.loc	3 1061 1 is_stmt 1              # emscripten/cache/sysroot/include/c++/v1/vector:1061:1
	i32.const	16
	local.set	43
	local.get	4
	local.get	43
	i32.add 
	local.set	44
	local.get	44
	global.set	__stack_pointer
	return
	end_function
.Ltmp333:
.Lfunc_end130:
                                        # -- End function
	.section	.text._ZNSt3__214__split_bufferINS_6threadERNS_9allocatorIS1_EEED2Ev,"G",@,_ZNSt3__214__split_bufferINS_6threadERNS_9allocatorIS1_EEED2Ev,comdat
	.hidden	_ZNSt3__214__split_bufferINS_6threadERNS_9allocatorIS1_EEED2Ev # -- Begin function _ZNSt3__214__split_bufferINS_6threadERNS_9allocatorIS1_EEED2Ev
	.weak	_ZNSt3__214__split_bufferINS_6threadERNS_9allocatorIS1_EEED2Ev
	.type	_ZNSt3__214__split_bufferINS_6threadERNS_9allocatorIS1_EEED2Ev,@function
_ZNSt3__214__split_bufferINS_6threadERNS_9allocatorIS1_EEED2Ev: # @_ZNSt3__214__split_bufferINS_6threadERNS_9allocatorIS1_EEED2Ev
.Lfunc_begin131:
	.loc	21 362 0                        # emscripten/cache/sysroot/include/c++/v1/__split_buffer:362:0
	.functype	_ZNSt3__214__split_bufferINS_6threadERNS_9allocatorIS1_EEED2Ev (i32) -> (i32)
	.local  	i32, i32, i32, i32, i32, i32, i32, i32, i32, i32, i32, i32, i32, i32, i32
# %bb.0:                                # %entry
	global.get	__stack_pointer
	local.set	1
	i32.const	16
	local.set	2
	local.get	1
	local.get	2
	i32.sub 
	local.set	3
	local.get	3
	global.set	__stack_pointer
	local.get	3
	local.get	0
	i32.store	8
	local.get	3
	i32.load	8
	local.set	4
	local.get	3
	local.get	4
	i32.store	12
.Ltmp334:
	.loc	21 363 3 prologue_end           # emscripten/cache/sysroot/include/c++/v1/__split_buffer:363:3
	local.get	4
	call	_ZNSt3__214__split_bufferINS_6threadERNS_9allocatorIS1_EEE5clearB8ne190106Ev
.Ltmp335:
	.loc	21 364 7                        # emscripten/cache/sysroot/include/c++/v1/__split_buffer:364:7
	local.get	4
	i32.load	0
	local.set	5
	i32.const	0
	local.set	6
	local.get	5
	local.get	6
	i32.ne  
	local.set	7
	i32.const	1
	local.set	8
	local.get	7
	local.get	8
	i32.and 
	local.set	9
	block   	
	local.get	9
	i32.eqz
	br_if   	0                               # 0: down to label34
# %bb.1:                                # %if.then
	.loc	21 365 32                       # emscripten/cache/sysroot/include/c++/v1/__split_buffer:365:32
	local.get	4
	call	_ZNSt3__214__split_bufferINS_6threadERNS_9allocatorIS1_EEE7__allocB8ne190106Ev
	local.set	10
	.loc	21 365 43 is_stmt 0             # emscripten/cache/sysroot/include/c++/v1/__split_buffer:365:43
	local.get	4
	i32.load	0
	local.set	11
	.loc	21 365 53                       # emscripten/cache/sysroot/include/c++/v1/__split_buffer:365:53
	local.get	4
	call	_ZNKSt3__214__split_bufferINS_6threadERNS_9allocatorIS1_EEE8capacityB8ne190106Ev
	local.set	12
	.loc	21 365 5                        # emscripten/cache/sysroot/include/c++/v1/__split_buffer:365:5
	local.get	10
	local.get	11
	local.get	12
	call	_ZNSt3__216allocator_traitsINS_9allocatorINS_6threadEEEE10deallocateB8ne190106ERS3_PS2_m
.Ltmp336:
.LBB131_2:                              # %if.end
	.loc	21 0 5                          # emscripten/cache/sysroot/include/c++/v1/__split_buffer:0:5
	end_block                               # label34:
	.loc	21 366 1 is_stmt 1              # emscripten/cache/sysroot/include/c++/v1/__split_buffer:366:1
	local.get	3
	i32.load	12
	local.set	13
	i32.const	16
	local.set	14
	local.get	3
	local.get	14
	i32.add 
	local.set	15
	local.get	15
	global.set	__stack_pointer
	local.get	13
	return
	end_function
.Ltmp337:
.Lfunc_end131:
                                        # -- End function
	.section	.text._ZNKSt3__26vectorINS_6threadENS_9allocatorIS1_EEE8max_sizeEv,"G",@,_ZNKSt3__26vectorINS_6threadENS_9allocatorIS1_EEE8max_sizeEv,comdat
	.hidden	_ZNKSt3__26vectorINS_6threadENS_9allocatorIS1_EEE8max_sizeEv # -- Begin function _ZNKSt3__26vectorINS_6threadENS_9allocatorIS1_EEE8max_sizeEv
	.weak	_ZNKSt3__26vectorINS_6threadENS_9allocatorIS1_EEE8max_sizeEv
	.type	_ZNKSt3__26vectorINS_6threadENS_9allocatorIS1_EEE8max_sizeEv,@function
_ZNKSt3__26vectorINS_6threadENS_9allocatorIS1_EEE8max_sizeEv: # @_ZNKSt3__26vectorINS_6threadENS_9allocatorIS1_EEE8max_sizeEv
.Lfunc_begin132:
	.loc	3 1106 0                        # emscripten/cache/sysroot/include/c++/v1/vector:1106:0
	.functype	_ZNKSt3__26vectorINS_6threadENS_9allocatorIS1_EEE8max_sizeEv (i32) -> (i32)
	.local  	i32, i32, i32, i32, i32, i32, i32, i32, i32, i32, i32, i32, i32, i32, i32, i32, i32
# %bb.0:                                # %entry
	global.get	__stack_pointer
	local.set	1
	i32.const	16
	local.set	2
	local.get	1
	local.get	2
	i32.sub 
	local.set	3
	local.get	3
	global.set	__stack_pointer
	local.get	3
	local.get	0
	i32.store	12
	local.get	3
	i32.load	12
	local.set	4
.Ltmp338:
	.loc	3 1107 61 prologue_end          # emscripten/cache/sysroot/include/c++/v1/vector:1107:61
	local.get	4
	call	_ZNKSt3__26vectorINS_6threadENS_9allocatorIS1_EEE7__allocB8ne190106Ev
	local.set	5
	.loc	3 1107 30 is_stmt 0             # emscripten/cache/sysroot/include/c++/v1/vector:1107:30
	local.get	5
	call	_ZNSt3__216allocator_traitsINS_9allocatorINS_6threadEEEE8max_sizeB8ne190106IS3_TnNS_9enable_ifIXsr14__has_max_sizeIKT_EE5valueEiE4typeELi0EEEmRKS3_
	local.set	6
	local.get	3
	local.get	6
	i32.store	8
	.loc	3 1107 73                       # emscripten/cache/sysroot/include/c++/v1/vector:1107:73
	call	_ZNSt3__214numeric_limitsIlE3maxB8ne190106Ev
	local.set	7
	local.get	3
	local.get	7
	i32.store	4
	.loc	3 1107 10                       # emscripten/cache/sysroot/include/c++/v1/vector:1107:10
	i32.const	8
	local.set	8
	local.get	3
	local.get	8
	i32.add 
	local.set	9
	local.get	9
	local.set	10
	i32.const	4
	local.set	11
	local.get	3
	local.get	11
	i32.add 
	local.set	12
	local.get	12
	local.set	13
	local.get	10
	local.get	13
	call	_ZNSt3__23minB8ne190106ImEERKT_S3_S3_
	local.set	14
	local.get	14
	i32.load	0
	local.set	15
	.loc	3 1107 3                        # emscripten/cache/sysroot/include/c++/v1/vector:1107:3
	i32.const	16
	local.set	16
	local.get	3
	local.get	16
	i32.add 
	local.set	17
	local.get	17
	global.set	__stack_pointer
	local.get	15
	return
	end_function
.Ltmp339:
.Lfunc_end132:
                                        # -- End function
	.section	.text._ZNKSt3__26vectorINS_6threadENS_9allocatorIS1_EEE20__throw_length_errorB8ne190106Ev,"G",@,_ZNKSt3__26vectorINS_6threadENS_9allocatorIS1_EEE20__throw_length_errorB8ne190106Ev,comdat
	.hidden	_ZNKSt3__26vectorINS_6threadENS_9allocatorIS1_EEE20__throw_length_errorB8ne190106Ev # -- Begin function _ZNKSt3__26vectorINS_6threadENS_9allocatorIS1_EEE20__throw_length_errorB8ne190106Ev
	.weak	_ZNKSt3__26vectorINS_6threadENS_9allocatorIS1_EEE20__throw_length_errorB8ne190106Ev
	.type	_ZNKSt3__26vectorINS_6threadENS_9allocatorIS1_EEE20__throw_length_errorB8ne190106Ev,@function
_ZNKSt3__26vectorINS_6threadENS_9allocatorIS1_EEE20__throw_length_errorB8ne190106Ev: # @_ZNKSt3__26vectorINS_6threadENS_9allocatorIS1_EEE20__throw_length_errorB8ne190106Ev
.Lfunc_begin133:
	.loc	3 999 0 is_stmt 1               # emscripten/cache/sysroot/include/c++/v1/vector:999:0
	.functype	_ZNKSt3__26vectorINS_6threadENS_9allocatorIS1_EEE20__throw_length_errorB8ne190106Ev (i32) -> ()
	.local  	i32, i32, i32, i32
# %bb.0:                                # %entry
	global.get	__stack_pointer
	local.set	1
	i32.const	16
	local.set	2
	local.get	1
	local.get	2
	i32.sub 
	local.set	3
	local.get	3
	global.set	__stack_pointer
	local.get	3
	local.get	0
	i32.store	12
.Ltmp340:
	.loc	3 999 78 prologue_end           # emscripten/cache/sysroot/include/c++/v1/vector:999:78
	i32.const	.L.str.4
	local.set	4
	local.get	4
	call	_ZNSt3__220__throw_length_errorB8ne190106EPKc
	unreachable
	end_function
.Ltmp341:
.Lfunc_end133:
                                        # -- End function
	.section	.text._ZNSt3__23maxB8ne190106ImEERKT_S3_S3_,"G",@,_ZNSt3__23maxB8ne190106ImEERKT_S3_S3_,comdat
	.hidden	_ZNSt3__23maxB8ne190106ImEERKT_S3_S3_ # -- Begin function _ZNSt3__23maxB8ne190106ImEERKT_S3_S3_
	.weak	_ZNSt3__23maxB8ne190106ImEERKT_S3_S3_
	.type	_ZNSt3__23maxB8ne190106ImEERKT_S3_S3_,@function
_ZNSt3__23maxB8ne190106ImEERKT_S3_S3_:  # @_ZNSt3__23maxB8ne190106ImEERKT_S3_S3_
.Lfunc_begin134:
	.file	47 "/home/kay/Documents/Code/toolchain-wasm" "emscripten/cache/sysroot/include/c++/v1/__algorithm/max.h"
	.loc	47 35 0                         # emscripten/cache/sysroot/include/c++/v1/__algorithm/max.h:35:0
	.functype	_ZNSt3__23maxB8ne190106ImEERKT_S3_S3_ (i32, i32) -> (i32)
	.local  	i32, i32, i32, i32, i32, i32, i32, i32
# %bb.0:                                # %entry
	global.get	__stack_pointer
	local.set	2
	i32.const	16
	local.set	3
	local.get	2
	local.get	3
	i32.sub 
	local.set	4
	local.get	4
	global.set	__stack_pointer
	local.get	4
	local.get	0
	i32.store	12
	local.get	4
	local.get	1
	i32.store	8
.Ltmp342:
	.loc	47 36 19 prologue_end           # emscripten/cache/sysroot/include/c++/v1/__algorithm/max.h:36:19
	local.get	4
	i32.load	12
	local.set	5
	.loc	47 36 24 is_stmt 0              # emscripten/cache/sysroot/include/c++/v1/__algorithm/max.h:36:24
	local.get	4
	i32.load	8
	local.set	6
	.loc	47 36 10                        # emscripten/cache/sysroot/include/c++/v1/__algorithm/max.h:36:10
	local.get	5
	local.get	6
	call	_ZNSt3__23maxB8ne190106ImNS_6__lessIvvEEEERKT_S5_S5_T0_
	local.set	7
	.loc	47 36 3                         # emscripten/cache/sysroot/include/c++/v1/__algorithm/max.h:36:3
	i32.const	16
	local.set	8
	local.get	4
	local.get	8
	i32.add 
	local.set	9
	local.get	9
	global.set	__stack_pointer
	local.get	7
	return
	end_function
.Ltmp343:
.Lfunc_end134:
                                        # -- End function
	.section	.text._ZNSt3__23minB8ne190106ImEERKT_S3_S3_,"G",@,_ZNSt3__23minB8ne190106ImEERKT_S3_S3_,comdat
	.hidden	_ZNSt3__23minB8ne190106ImEERKT_S3_S3_ # -- Begin function _ZNSt3__23minB8ne190106ImEERKT_S3_S3_
	.weak	_ZNSt3__23minB8ne190106ImEERKT_S3_S3_
	.type	_ZNSt3__23minB8ne190106ImEERKT_S3_S3_,@function
_ZNSt3__23minB8ne190106ImEERKT_S3_S3_:  # @_ZNSt3__23minB8ne190106ImEERKT_S3_S3_
.Lfunc_begin135:
	.file	48 "/home/kay/Documents/Code/toolchain-wasm" "emscripten/cache/sysroot/include/c++/v1/__algorithm/min.h"
	.loc	48 35 0 is_stmt 1               # emscripten/cache/sysroot/include/c++/v1/__algorithm/min.h:35:0
	.functype	_ZNSt3__23minB8ne190106ImEERKT_S3_S3_ (i32, i32) -> (i32)
	.local  	i32, i32, i32, i32, i32, i32, i32, i32
# %bb.0:                                # %entry
	global.get	__stack_pointer
	local.set	2
	i32.const	16
	local.set	3
	local.get	2
	local.get	3
	i32.sub 
	local.set	4
	local.get	4
	global.set	__stack_pointer
	local.get	4
	local.get	0
	i32.store	12
	local.get	4
	local.get	1
	i32.store	8
.Ltmp344:
	.loc	48 36 19 prologue_end           # emscripten/cache/sysroot/include/c++/v1/__algorithm/min.h:36:19
	local.get	4
	i32.load	12
	local.set	5
	.loc	48 36 24 is_stmt 0              # emscripten/cache/sysroot/include/c++/v1/__algorithm/min.h:36:24
	local.get	4
	i32.load	8
	local.set	6
	.loc	48 36 10                        # emscripten/cache/sysroot/include/c++/v1/__algorithm/min.h:36:10
	local.get	5
	local.get	6
	call	_ZNSt3__23minB8ne190106ImNS_6__lessIvvEEEERKT_S5_S5_T0_
	local.set	7
	.loc	48 36 3                         # emscripten/cache/sysroot/include/c++/v1/__algorithm/min.h:36:3
	i32.const	16
	local.set	8
	local.get	4
	local.get	8
	i32.add 
	local.set	9
	local.get	9
	global.set	__stack_pointer
	local.get	7
	return
	end_function
.Ltmp345:
.Lfunc_end135:
                                        # -- End function
	.section	.text._ZNSt3__216allocator_traitsINS_9allocatorINS_6threadEEEE8max_sizeB8ne190106IS3_TnNS_9enable_ifIXsr14__has_max_sizeIKT_EE5valueEiE4typeELi0EEEmRKS3_,"G",@,_ZNSt3__216allocator_traitsINS_9allocatorINS_6threadEEEE8max_sizeB8ne190106IS3_TnNS_9enable_ifIXsr14__has_max_sizeIKT_EE5valueEiE4typeELi0EEEmRKS3_,comdat
	.hidden	_ZNSt3__216allocator_traitsINS_9allocatorINS_6threadEEEE8max_sizeB8ne190106IS3_TnNS_9enable_ifIXsr14__has_max_sizeIKT_EE5valueEiE4typeELi0EEEmRKS3_ # -- Begin function _ZNSt3__216allocator_traitsINS_9allocatorINS_6threadEEEE8max_sizeB8ne190106IS3_TnNS_9enable_ifIXsr14__has_max_sizeIKT_EE5valueEiE4typeELi0EEEmRKS3_
	.weak	_ZNSt3__216allocator_traitsINS_9allocatorINS_6threadEEEE8max_sizeB8ne190106IS3_TnNS_9enable_ifIXsr14__has_max_sizeIKT_EE5valueEiE4typeELi0EEEmRKS3_
	.type	_ZNSt3__216allocator_traitsINS_9allocatorINS_6threadEEEE8max_sizeB8ne190106IS3_TnNS_9enable_ifIXsr14__has_max_sizeIKT_EE5valueEiE4typeELi0EEEmRKS3_,@function
_ZNSt3__216allocator_traitsINS_9allocatorINS_6threadEEEE8max_sizeB8ne190106IS3_TnNS_9enable_ifIXsr14__has_max_sizeIKT_EE5valueEiE4typeELi0EEEmRKS3_: # @_ZNSt3__216allocator_traitsINS_9allocatorINS_6threadEEEE8max_sizeB8ne190106IS3_TnNS_9enable_ifIXsr14__has_max_sizeIKT_EE5valueEiE4typeELi0EEEmRKS3_
.Lfunc_begin136:
	.loc	15 343 0 is_stmt 1              # emscripten/cache/sysroot/include/c++/v1/__memory/allocator_traits.h:343:0
	.functype	_ZNSt3__216allocator_traitsINS_9allocatorINS_6threadEEEE8max_sizeB8ne190106IS3_TnNS_9enable_ifIXsr14__has_max_sizeIKT_EE5valueEiE4typeELi0EEEmRKS3_ (i32) -> (i32)
	.local  	i32, i32, i32, i32, i32, i32, i32
# %bb.0:                                # %entry
	global.get	__stack_pointer
	local.set	1
	i32.const	16
	local.set	2
	local.get	1
	local.get	2
	i32.sub 
	local.set	3
	local.get	3
	global.set	__stack_pointer
	local.get	3
	local.get	0
	i32.store	12
.Ltmp346:
	.loc	15 345 12 prologue_end          # emscripten/cache/sysroot/include/c++/v1/__memory/allocator_traits.h:345:12
	local.get	3
	i32.load	12
	local.set	4
	.loc	15 345 16 is_stmt 0             # emscripten/cache/sysroot/include/c++/v1/__memory/allocator_traits.h:345:16
	local.get	4
	call	_ZNKSt3__29allocatorINS_6threadEE8max_sizeB8ne190106Ev
	local.set	5
	.loc	15 345 5                        # emscripten/cache/sysroot/include/c++/v1/__memory/allocator_traits.h:345:5
	i32.const	16
	local.set	6
	local.get	3
	local.get	6
	i32.add 
	local.set	7
	local.get	7
	global.set	__stack_pointer
	local.get	5
	return
	end_function
.Ltmp347:
.Lfunc_end136:
                                        # -- End function
	.section	.text._ZNKSt3__26vectorINS_6threadENS_9allocatorIS1_EEE7__allocB8ne190106Ev,"G",@,_ZNKSt3__26vectorINS_6threadENS_9allocatorIS1_EEE7__allocB8ne190106Ev,comdat
	.hidden	_ZNKSt3__26vectorINS_6threadENS_9allocatorIS1_EEE7__allocB8ne190106Ev # -- Begin function _ZNKSt3__26vectorINS_6threadENS_9allocatorIS1_EEE7__allocB8ne190106Ev
	.weak	_ZNKSt3__26vectorINS_6threadENS_9allocatorIS1_EEE7__allocB8ne190106Ev
	.type	_ZNKSt3__26vectorINS_6threadENS_9allocatorIS1_EEE7__allocB8ne190106Ev,@function
_ZNKSt3__26vectorINS_6threadENS_9allocatorIS1_EEE7__allocB8ne190106Ev: # @_ZNKSt3__26vectorINS_6threadENS_9allocatorIS1_EEE7__allocB8ne190106Ev
.Lfunc_begin137:
	.loc	3 968 0 is_stmt 1               # emscripten/cache/sysroot/include/c++/v1/vector:968:0
	.functype	_ZNKSt3__26vectorINS_6threadENS_9allocatorIS1_EEE7__allocB8ne190106Ev (i32) -> (i32)
	.local  	i32, i32, i32, i32, i32, i32, i32, i32, i32
# %bb.0:                                # %entry
	global.get	__stack_pointer
	local.set	1
	i32.const	16
	local.set	2
	local.get	1
	local.get	2
	i32.sub 
	local.set	3
	local.get	3
	global.set	__stack_pointer
	local.get	3
	local.get	0
	i32.store	12
	local.get	3
	i32.load	12
	local.set	4
.Ltmp348:
	.loc	3 969 18 prologue_end           # emscripten/cache/sysroot/include/c++/v1/vector:969:18
	i32.const	8
	local.set	5
	local.get	4
	local.get	5
	i32.add 
	local.set	6
	.loc	3 969 29 is_stmt 0              # emscripten/cache/sysroot/include/c++/v1/vector:969:29
	local.get	6
	call	_ZNKSt3__217__compressed_pairIPNS_6threadENS_9allocatorIS1_EEE6secondB8ne190106Ev
	local.set	7
	.loc	3 969 5                         # emscripten/cache/sysroot/include/c++/v1/vector:969:5
	i32.const	16
	local.set	8
	local.get	3
	local.get	8
	i32.add 
	local.set	9
	local.get	9
	global.set	__stack_pointer
	local.get	7
	return
	end_function
.Ltmp349:
.Lfunc_end137:
                                        # -- End function
	.section	.text._ZNSt3__214numeric_limitsIlE3maxB8ne190106Ev,"G",@,_ZNSt3__214numeric_limitsIlE3maxB8ne190106Ev,comdat
	.hidden	_ZNSt3__214numeric_limitsIlE3maxB8ne190106Ev # -- Begin function _ZNSt3__214numeric_limitsIlE3maxB8ne190106Ev
	.weak	_ZNSt3__214numeric_limitsIlE3maxB8ne190106Ev
	.type	_ZNSt3__214numeric_limitsIlE3maxB8ne190106Ev,@function
_ZNSt3__214numeric_limitsIlE3maxB8ne190106Ev: # @_ZNSt3__214numeric_limitsIlE3maxB8ne190106Ev
.Lfunc_begin138:
	.functype	_ZNSt3__214numeric_limitsIlE3maxB8ne190106Ev () -> (i32)
	.local  	i32
# %bb.0:                                # %entry
	.loc	7 469 98 prologue_end is_stmt 1 # emscripten/cache/sysroot/include/c++/v1/limits:469:98
	call	_ZNSt3__223__libcpp_numeric_limitsIlLb1EE3maxB8ne190106Ev
	local.set	0
	.loc	7 469 91 is_stmt 0              # emscripten/cache/sysroot/include/c++/v1/limits:469:91
	local.get	0
	return
	end_function
.Ltmp350:
.Lfunc_end138:
                                        # -- End function
	.section	.text._ZNSt3__23minB8ne190106ImNS_6__lessIvvEEEERKT_S5_S5_T0_,"G",@,_ZNSt3__23minB8ne190106ImNS_6__lessIvvEEEERKT_S5_S5_T0_,comdat
	.hidden	_ZNSt3__23minB8ne190106ImNS_6__lessIvvEEEERKT_S5_S5_T0_ # -- Begin function _ZNSt3__23minB8ne190106ImNS_6__lessIvvEEEERKT_S5_S5_T0_
	.weak	_ZNSt3__23minB8ne190106ImNS_6__lessIvvEEEERKT_S5_S5_T0_
	.type	_ZNSt3__23minB8ne190106ImNS_6__lessIvvEEEERKT_S5_S5_T0_,@function
_ZNSt3__23minB8ne190106ImNS_6__lessIvvEEEERKT_S5_S5_T0_: # @_ZNSt3__23minB8ne190106ImNS_6__lessIvvEEEERKT_S5_S5_T0_
.Lfunc_begin139:
	.loc	48 29 0 is_stmt 1               # emscripten/cache/sysroot/include/c++/v1/__algorithm/min.h:29:0
	.functype	_ZNSt3__23minB8ne190106ImNS_6__lessIvvEEEERKT_S5_S5_T0_ (i32, i32) -> (i32)
	.local  	i32, i32, i32, i32, i32, i32, i32, i32, i32, i32, i32, i32, i32, i32, i32, i32, i32
# %bb.0:                                # %entry
	global.get	__stack_pointer
	local.set	2
	i32.const	16
	local.set	3
	local.get	2
	local.get	3
	i32.sub 
	local.set	4
	local.get	4
	global.set	__stack_pointer
	local.get	4
	local.get	0
	i32.store	8
	local.get	4
	local.get	1
	i32.store	4
.Ltmp351:
	.loc	48 30 17 prologue_end           # emscripten/cache/sysroot/include/c++/v1/__algorithm/min.h:30:17
	local.get	4
	i32.load	4
	local.set	5
	.loc	48 30 22 is_stmt 0              # emscripten/cache/sysroot/include/c++/v1/__algorithm/min.h:30:22
	local.get	4
	i32.load	8
	local.set	6
	.loc	48 30 10                        # emscripten/cache/sysroot/include/c++/v1/__algorithm/min.h:30:10
	i32.const	15
	local.set	7
	local.get	4
	local.get	7
	i32.add 
	local.set	8
	local.get	8
	local.set	9
	local.get	9
	local.get	5
	local.get	6
	call	_ZNKSt3__26__lessIvvEclB8ne190106ImmEEbRKT_RKT0_
	local.set	10
	i32.const	1
	local.set	11
	local.get	10
	local.get	11
	i32.and 
	local.set	12
	block   	
	block   	
	local.get	12
	i32.eqz
	br_if   	0                               # 0: down to label36
# %bb.1:                                # %cond.true
	.loc	48 30 29                        # emscripten/cache/sysroot/include/c++/v1/__algorithm/min.h:30:29
	local.get	4
	i32.load	4
	local.set	13
	local.get	13
	local.set	14
	.loc	48 30 10                        # emscripten/cache/sysroot/include/c++/v1/__algorithm/min.h:30:10
	br      	1                               # 1: down to label35
.LBB139_2:                              # %cond.false
	.loc	48 0 10                         # emscripten/cache/sysroot/include/c++/v1/__algorithm/min.h:0:10
	end_block                               # label36:
	.loc	48 30 35                        # emscripten/cache/sysroot/include/c++/v1/__algorithm/min.h:30:35
	local.get	4
	i32.load	8
	local.set	15
	local.get	15
	local.set	14
.LBB139_3:                              # %cond.end
	.loc	48 0 35                         # emscripten/cache/sysroot/include/c++/v1/__algorithm/min.h:0:35
	end_block                               # label35:
	.loc	48 30 10                        # emscripten/cache/sysroot/include/c++/v1/__algorithm/min.h:30:10
	local.get	14
	local.set	16
	.loc	48 30 3                         # emscripten/cache/sysroot/include/c++/v1/__algorithm/min.h:30:3
	i32.const	16
	local.set	17
	local.get	4
	local.get	17
	i32.add 
	local.set	18
	local.get	18
	global.set	__stack_pointer
	local.get	16
	return
	end_function
.Ltmp352:
.Lfunc_end139:
                                        # -- End function
	.section	.text._ZNKSt3__26__lessIvvEclB8ne190106ImmEEbRKT_RKT0_,"G",@,_ZNKSt3__26__lessIvvEclB8ne190106ImmEEbRKT_RKT0_,comdat
	.hidden	_ZNKSt3__26__lessIvvEclB8ne190106ImmEEbRKT_RKT0_ # -- Begin function _ZNKSt3__26__lessIvvEclB8ne190106ImmEEbRKT_RKT0_
	.weak	_ZNKSt3__26__lessIvvEclB8ne190106ImmEEbRKT_RKT0_
	.type	_ZNKSt3__26__lessIvvEclB8ne190106ImmEEbRKT_RKT0_,@function
_ZNKSt3__26__lessIvvEclB8ne190106ImmEEbRKT_RKT0_: # @_ZNKSt3__26__lessIvvEclB8ne190106ImmEEbRKT_RKT0_
.Lfunc_begin140:
	.file	49 "/home/kay/Documents/Code/toolchain-wasm" "emscripten/cache/sysroot/include/c++/v1/__algorithm/comp.h"
	.loc	49 39 0 is_stmt 1               # emscripten/cache/sysroot/include/c++/v1/__algorithm/comp.h:39:0
	.functype	_ZNKSt3__26__lessIvvEclB8ne190106ImmEEbRKT_RKT0_ (i32, i32, i32) -> (i32)
	.local  	i32, i32, i32, i32, i32, i32, i32, i32, i32, i32
# %bb.0:                                # %entry
	global.get	__stack_pointer
	local.set	3
	i32.const	16
	local.set	4
	local.get	3
	local.get	4
	i32.sub 
	local.set	5
	local.get	5
	local.get	0
	i32.store	12
	local.get	5
	local.get	1
	i32.store	8
	local.get	5
	local.get	2
	i32.store	4
.Ltmp353:
	.loc	49 40 12 prologue_end           # emscripten/cache/sysroot/include/c++/v1/__algorithm/comp.h:40:12
	local.get	5
	i32.load	8
	local.set	6
	local.get	6
	i32.load	0
	local.set	7
	.loc	49 40 20 is_stmt 0              # emscripten/cache/sysroot/include/c++/v1/__algorithm/comp.h:40:20
	local.get	5
	i32.load	4
	local.set	8
	local.get	8
	i32.load	0
	local.set	9
	.loc	49 40 18                        # emscripten/cache/sysroot/include/c++/v1/__algorithm/comp.h:40:18
	local.get	7
	local.get	9
	i32.lt_u
	local.set	10
	.loc	49 40 5                         # emscripten/cache/sysroot/include/c++/v1/__algorithm/comp.h:40:5
	i32.const	1
	local.set	11
	local.get	10
	local.get	11
	i32.and 
	local.set	12
	local.get	12
	return
	end_function
.Ltmp354:
.Lfunc_end140:
                                        # -- End function
	.section	.text._ZNKSt3__29allocatorINS_6threadEE8max_sizeB8ne190106Ev,"G",@,_ZNKSt3__29allocatorINS_6threadEE8max_sizeB8ne190106Ev,comdat
	.hidden	_ZNKSt3__29allocatorINS_6threadEE8max_sizeB8ne190106Ev # -- Begin function _ZNKSt3__29allocatorINS_6threadEE8max_sizeB8ne190106Ev
	.weak	_ZNKSt3__29allocatorINS_6threadEE8max_sizeB8ne190106Ev
	.type	_ZNKSt3__29allocatorINS_6threadEE8max_sizeB8ne190106Ev,@function
_ZNKSt3__29allocatorINS_6threadEE8max_sizeB8ne190106Ev: # @_ZNKSt3__29allocatorINS_6threadEE8max_sizeB8ne190106Ev
.Lfunc_begin141:
	.loc	14 159 0 is_stmt 1              # emscripten/cache/sysroot/include/c++/v1/__memory/allocator.h:159:0
	.functype	_ZNKSt3__29allocatorINS_6threadEE8max_sizeB8ne190106Ev (i32) -> (i32)
	.local  	i32, i32, i32, i32
# %bb.0:                                # %entry
	global.get	__stack_pointer
	local.set	1
	i32.const	16
	local.set	2
	local.get	1
	local.get	2
	i32.sub 
	local.set	3
	local.get	3
	local.get	0
	i32.store	12
.Ltmp355:
	.loc	14 160 5 prologue_end           # emscripten/cache/sysroot/include/c++/v1/__memory/allocator.h:160:5
	i32.const	1073741823
	local.set	4
	local.get	4
	return
	end_function
.Ltmp356:
.Lfunc_end141:
                                        # -- End function
	.section	.text._ZNKSt3__217__compressed_pairIPNS_6threadENS_9allocatorIS1_EEE6secondB8ne190106Ev,"G",@,_ZNKSt3__217__compressed_pairIPNS_6threadENS_9allocatorIS1_EEE6secondB8ne190106Ev,comdat
	.hidden	_ZNKSt3__217__compressed_pairIPNS_6threadENS_9allocatorIS1_EEE6secondB8ne190106Ev # -- Begin function _ZNKSt3__217__compressed_pairIPNS_6threadENS_9allocatorIS1_EEE6secondB8ne190106Ev
	.weak	_ZNKSt3__217__compressed_pairIPNS_6threadENS_9allocatorIS1_EEE6secondB8ne190106Ev
	.type	_ZNKSt3__217__compressed_pairIPNS_6threadENS_9allocatorIS1_EEE6secondB8ne190106Ev,@function
_ZNKSt3__217__compressed_pairIPNS_6threadENS_9allocatorIS1_EEE6secondB8ne190106Ev: # @_ZNKSt3__217__compressed_pairIPNS_6threadENS_9allocatorIS1_EEE6secondB8ne190106Ev
.Lfunc_begin142:
	.loc	16 141 0                        # emscripten/cache/sysroot/include/c++/v1/__memory/compressed_pair.h:141:0
	.functype	_ZNKSt3__217__compressed_pairIPNS_6threadENS_9allocatorIS1_EEE6secondB8ne190106Ev (i32) -> (i32)
	.local  	i32, i32, i32, i32, i32, i32, i32
# %bb.0:                                # %entry
	global.get	__stack_pointer
	local.set	1
	i32.const	16
	local.set	2
	local.get	1
	local.get	2
	i32.sub 
	local.set	3
	local.get	3
	global.set	__stack_pointer
	local.get	3
	local.get	0
	i32.store	12
	local.get	3
	i32.load	12
	local.set	4
.Ltmp357:
	.loc	16 142 46 prologue_end          # emscripten/cache/sysroot/include/c++/v1/__memory/compressed_pair.h:142:46
	local.get	4
	call	_ZNKSt3__222__compressed_pair_elemINS_9allocatorINS_6threadEEELi1ELb1EE5__getB8ne190106Ev
	local.set	5
	.loc	16 142 5 is_stmt 0              # emscripten/cache/sysroot/include/c++/v1/__memory/compressed_pair.h:142:5
	i32.const	16
	local.set	6
	local.get	3
	local.get	6
	i32.add 
	local.set	7
	local.get	7
	global.set	__stack_pointer
	local.get	5
	return
	end_function
.Ltmp358:
.Lfunc_end142:
                                        # -- End function
	.section	.text._ZNKSt3__222__compressed_pair_elemINS_9allocatorINS_6threadEEELi1ELb1EE5__getB8ne190106Ev,"G",@,_ZNKSt3__222__compressed_pair_elemINS_9allocatorINS_6threadEEELi1ELb1EE5__getB8ne190106Ev,comdat
	.hidden	_ZNKSt3__222__compressed_pair_elemINS_9allocatorINS_6threadEEELi1ELb1EE5__getB8ne190106Ev # -- Begin function _ZNKSt3__222__compressed_pair_elemINS_9allocatorINS_6threadEEELi1ELb1EE5__getB8ne190106Ev
	.weak	_ZNKSt3__222__compressed_pair_elemINS_9allocatorINS_6threadEEELi1ELb1EE5__getB8ne190106Ev
	.type	_ZNKSt3__222__compressed_pair_elemINS_9allocatorINS_6threadEEELi1ELb1EE5__getB8ne190106Ev,@function
_ZNKSt3__222__compressed_pair_elemINS_9allocatorINS_6threadEEELi1ELb1EE5__getB8ne190106Ev: # @_ZNKSt3__222__compressed_pair_elemINS_9allocatorINS_6threadEEELi1ELb1EE5__getB8ne190106Ev
.Lfunc_begin143:
	.loc	16 92 0 is_stmt 1               # emscripten/cache/sysroot/include/c++/v1/__memory/compressed_pair.h:92:0
	.functype	_ZNKSt3__222__compressed_pair_elemINS_9allocatorINS_6threadEEELi1ELb1EE5__getB8ne190106Ev (i32) -> (i32)
	.local  	i32, i32, i32, i32
# %bb.0:                                # %entry
	global.get	__stack_pointer
	local.set	1
	i32.const	16
	local.set	2
	local.get	1
	local.get	2
	i32.sub 
	local.set	3
	local.get	3
	local.get	0
	i32.store	12
	local.get	3
	i32.load	12
	local.set	4
.Ltmp359:
	.loc	16 92 85 prologue_end           # emscripten/cache/sysroot/include/c++/v1/__memory/compressed_pair.h:92:85
	local.get	4
	return
	end_function
.Ltmp360:
.Lfunc_end143:
                                        # -- End function
	.section	.text._ZNSt3__223__libcpp_numeric_limitsIlLb1EE3maxB8ne190106Ev,"G",@,_ZNSt3__223__libcpp_numeric_limitsIlLb1EE3maxB8ne190106Ev,comdat
	.hidden	_ZNSt3__223__libcpp_numeric_limitsIlLb1EE3maxB8ne190106Ev # -- Begin function _ZNSt3__223__libcpp_numeric_limitsIlLb1EE3maxB8ne190106Ev
	.weak	_ZNSt3__223__libcpp_numeric_limitsIlLb1EE3maxB8ne190106Ev
	.type	_ZNSt3__223__libcpp_numeric_limitsIlLb1EE3maxB8ne190106Ev,@function
_ZNSt3__223__libcpp_numeric_limitsIlLb1EE3maxB8ne190106Ev: # @_ZNSt3__223__libcpp_numeric_limitsIlLb1EE3maxB8ne190106Ev
.Lfunc_begin144:
	.functype	_ZNSt3__223__libcpp_numeric_limitsIlLb1EE3maxB8ne190106Ev () -> (i32)
	.local  	i32
# %bb.0:                                # %entry
	.loc	7 202 91 prologue_end           # emscripten/cache/sysroot/include/c++/v1/limits:202:91
	i32.const	2147483647
	local.set	0
	local.get	0
	return
	end_function
.Ltmp361:
.Lfunc_end144:
                                        # -- End function
	.section	.text._ZNSt3__220__throw_length_errorB8ne190106EPKc,"G",@,_ZNSt3__220__throw_length_errorB8ne190106EPKc,comdat
	.hidden	_ZNSt3__220__throw_length_errorB8ne190106EPKc # -- Begin function _ZNSt3__220__throw_length_errorB8ne190106EPKc
	.weak	_ZNSt3__220__throw_length_errorB8ne190106EPKc
	.type	_ZNSt3__220__throw_length_errorB8ne190106EPKc,@function
_ZNSt3__220__throw_length_errorB8ne190106EPKc: # @_ZNSt3__220__throw_length_errorB8ne190106EPKc
.Lfunc_begin145:
	.file	50 "/home/kay/Documents/Code/toolchain-wasm" "emscripten/cache/sysroot/include/c++/v1/stdexcept"
	.loc	50 238 0                        # emscripten/cache/sysroot/include/c++/v1/stdexcept:238:0
	.functype	_ZNSt3__220__throw_length_errorB8ne190106EPKc (i32) -> ()
	.local  	i32, i32, i32, i32, i32, i32, i32, i32
# %bb.0:                                # %entry
	global.get	__stack_pointer
	local.set	1
	i32.const	16
	local.set	2
	local.get	1
	local.get	2
	i32.sub 
	local.set	3
	local.get	3
	global.set	__stack_pointer
	local.get	3
	local.get	0
	i32.store	12
.Ltmp362:
	.loc	50 240 3 prologue_end           # emscripten/cache/sysroot/include/c++/v1/stdexcept:240:3
	i32.const	8
	local.set	4
	local.get	4
	call	__cxa_allocate_exception
	local.set	5
	.loc	50 240 22 is_stmt 0             # emscripten/cache/sysroot/include/c++/v1/stdexcept:240:22
	local.get	3
	i32.load	12
	local.set	6
	.loc	50 240 9                        # emscripten/cache/sysroot/include/c++/v1/stdexcept:240:9
	local.get	5
	local.get	6
	call	_ZNSt12length_errorC2B8ne190106EPKc
	drop
	.loc	50 240 3                        # emscripten/cache/sysroot/include/c++/v1/stdexcept:240:3
	i32.const	_ZTISt12length_error
	local.set	7
	i32.const	_ZNSt12length_errorD1Ev
	local.set	8
	local.get	5
	local.get	7
	local.get	8
	call	__cxa_throw
	unreachable
	end_function
.Ltmp363:
.Lfunc_end145:
                                        # -- End function
	.section	.text._ZNSt12length_errorC2B8ne190106EPKc,"G",@,_ZNSt12length_errorC2B8ne190106EPKc,comdat
	.hidden	_ZNSt12length_errorC2B8ne190106EPKc # -- Begin function _ZNSt12length_errorC2B8ne190106EPKc
	.weak	_ZNSt12length_errorC2B8ne190106EPKc
	.type	_ZNSt12length_errorC2B8ne190106EPKc,@function
_ZNSt12length_errorC2B8ne190106EPKc:    # @_ZNSt12length_errorC2B8ne190106EPKc
.Lfunc_begin146:
	.loc	50 151 0 is_stmt 1              # emscripten/cache/sysroot/include/c++/v1/stdexcept:151:0
	.functype	_ZNSt12length_errorC2B8ne190106EPKc (i32, i32) -> (i32)
	.local  	i32, i32, i32, i32, i32, i32, i32, i32, i32, i32
# %bb.0:                                # %entry
	global.get	__stack_pointer
	local.set	2
	i32.const	16
	local.set	3
	local.get	2
	local.get	3
	i32.sub 
	local.set	4
	local.get	4
	global.set	__stack_pointer
	local.get	4
	local.get	0
	i32.store	12
	local.get	4
	local.get	1
	i32.store	8
	local.get	4
	i32.load	12
	local.set	5
.Ltmp364:
	.loc	50 151 78 prologue_end          # emscripten/cache/sysroot/include/c++/v1/stdexcept:151:78
	local.get	4
	i32.load	8
	local.set	6
	.loc	50 151 66 is_stmt 0             # emscripten/cache/sysroot/include/c++/v1/stdexcept:151:66
	local.get	5
	local.get	6
	call	_ZNSt11logic_errorC2EPKc
	drop
	.loc	50 151 83                       # emscripten/cache/sysroot/include/c++/v1/stdexcept:151:83
	i32.const	_ZTVSt12length_error
	local.set	7
	i32.const	8
	local.set	8
	local.get	7
	local.get	8
	i32.add 
	local.set	9
	local.get	5
	local.get	9
	i32.store	0
	.loc	50 151 84                       # emscripten/cache/sysroot/include/c++/v1/stdexcept:151:84
	i32.const	16
	local.set	10
	local.get	4
	local.get	10
	i32.add 
	local.set	11
	local.get	11
	global.set	__stack_pointer
	local.get	5
	return
	end_function
.Ltmp365:
.Lfunc_end146:
                                        # -- End function
	.section	.text._ZNSt3__23maxB8ne190106ImNS_6__lessIvvEEEERKT_S5_S5_T0_,"G",@,_ZNSt3__23maxB8ne190106ImNS_6__lessIvvEEEERKT_S5_S5_T0_,comdat
	.hidden	_ZNSt3__23maxB8ne190106ImNS_6__lessIvvEEEERKT_S5_S5_T0_ # -- Begin function _ZNSt3__23maxB8ne190106ImNS_6__lessIvvEEEERKT_S5_S5_T0_
	.weak	_ZNSt3__23maxB8ne190106ImNS_6__lessIvvEEEERKT_S5_S5_T0_
	.type	_ZNSt3__23maxB8ne190106ImNS_6__lessIvvEEEERKT_S5_S5_T0_,@function
_ZNSt3__23maxB8ne190106ImNS_6__lessIvvEEEERKT_S5_S5_T0_: # @_ZNSt3__23maxB8ne190106ImNS_6__lessIvvEEEERKT_S5_S5_T0_
.Lfunc_begin147:
	.loc	47 29 0 is_stmt 1               # emscripten/cache/sysroot/include/c++/v1/__algorithm/max.h:29:0
	.functype	_ZNSt3__23maxB8ne190106ImNS_6__lessIvvEEEERKT_S5_S5_T0_ (i32, i32) -> (i32)
	.local  	i32, i32, i32, i32, i32, i32, i32, i32, i32, i32, i32, i32, i32, i32, i32, i32, i32
# %bb.0:                                # %entry
	global.get	__stack_pointer
	local.set	2
	i32.const	16
	local.set	3
	local.get	2
	local.get	3
	i32.sub 
	local.set	4
	local.get	4
	global.set	__stack_pointer
	local.get	4
	local.get	0
	i32.store	8
	local.get	4
	local.get	1
	i32.store	4
.Ltmp366:
	.loc	47 30 17 prologue_end           # emscripten/cache/sysroot/include/c++/v1/__algorithm/max.h:30:17
	local.get	4
	i32.load	8
	local.set	5
	.loc	47 30 22 is_stmt 0              # emscripten/cache/sysroot/include/c++/v1/__algorithm/max.h:30:22
	local.get	4
	i32.load	4
	local.set	6
	.loc	47 30 10                        # emscripten/cache/sysroot/include/c++/v1/__algorithm/max.h:30:10
	i32.const	15
	local.set	7
	local.get	4
	local.get	7
	i32.add 
	local.set	8
	local.get	8
	local.set	9
	local.get	9
	local.get	5
	local.get	6
	call	_ZNKSt3__26__lessIvvEclB8ne190106ImmEEbRKT_RKT0_
	local.set	10
	i32.const	1
	local.set	11
	local.get	10
	local.get	11
	i32.and 
	local.set	12
	block   	
	block   	
	local.get	12
	i32.eqz
	br_if   	0                               # 0: down to label38
# %bb.1:                                # %cond.true
	.loc	47 30 29                        # emscripten/cache/sysroot/include/c++/v1/__algorithm/max.h:30:29
	local.get	4
	i32.load	4
	local.set	13
	local.get	13
	local.set	14
	.loc	47 30 10                        # emscripten/cache/sysroot/include/c++/v1/__algorithm/max.h:30:10
	br      	1                               # 1: down to label37
.LBB147_2:                              # %cond.false
	.loc	47 0 10                         # emscripten/cache/sysroot/include/c++/v1/__algorithm/max.h:0:10
	end_block                               # label38:
	.loc	47 30 35                        # emscripten/cache/sysroot/include/c++/v1/__algorithm/max.h:30:35
	local.get	4
	i32.load	8
	local.set	15
	local.get	15
	local.set	14
.LBB147_3:                              # %cond.end
	.loc	47 0 35                         # emscripten/cache/sysroot/include/c++/v1/__algorithm/max.h:0:35
	end_block                               # label37:
	.loc	47 30 10                        # emscripten/cache/sysroot/include/c++/v1/__algorithm/max.h:30:10
	local.get	14
	local.set	16
	.loc	47 30 3                         # emscripten/cache/sysroot/include/c++/v1/__algorithm/max.h:30:3
	i32.const	16
	local.set	17
	local.get	4
	local.get	17
	i32.add 
	local.set	18
	local.get	18
	global.set	__stack_pointer
	local.get	16
	return
	end_function
.Ltmp367:
.Lfunc_end147:
                                        # -- End function
	.section	.text._ZNSt3__217__compressed_pairIPNS_6threadERNS_9allocatorIS1_EEEC2B8ne190106IDnS5_EEOT_OT0_,"G",@,_ZNSt3__217__compressed_pairIPNS_6threadERNS_9allocatorIS1_EEEC2B8ne190106IDnS5_EEOT_OT0_,comdat
	.hidden	_ZNSt3__217__compressed_pairIPNS_6threadERNS_9allocatorIS1_EEEC2B8ne190106IDnS5_EEOT_OT0_ # -- Begin function _ZNSt3__217__compressed_pairIPNS_6threadERNS_9allocatorIS1_EEEC2B8ne190106IDnS5_EEOT_OT0_
	.weak	_ZNSt3__217__compressed_pairIPNS_6threadERNS_9allocatorIS1_EEEC2B8ne190106IDnS5_EEOT_OT0_
	.type	_ZNSt3__217__compressed_pairIPNS_6threadERNS_9allocatorIS1_EEEC2B8ne190106IDnS5_EEOT_OT0_,@function
_ZNSt3__217__compressed_pairIPNS_6threadERNS_9allocatorIS1_EEEC2B8ne190106IDnS5_EEOT_OT0_: # @_ZNSt3__217__compressed_pairIPNS_6threadERNS_9allocatorIS1_EEEC2B8ne190106IDnS5_EEOT_OT0_
.Lfunc_begin148:
	.loc	16 119 0 is_stmt 1              # emscripten/cache/sysroot/include/c++/v1/__memory/compressed_pair.h:119:0
	.functype	_ZNSt3__217__compressed_pairIPNS_6threadERNS_9allocatorIS1_EEEC2B8ne190106IDnS5_EEOT_OT0_ (i32, i32, i32) -> (i32)
	.local  	i32, i32, i32, i32, i32, i32, i32, i32, i32, i32
# %bb.0:                                # %entry
	global.get	__stack_pointer
	local.set	3
	i32.const	16
	local.set	4
	local.get	3
	local.get	4
	i32.sub 
	local.set	5
	local.get	5
	global.set	__stack_pointer
	local.get	5
	local.get	0
	i32.store	12
	local.get	5
	local.get	1
	i32.store	8
	local.get	5
	local.get	2
	i32.store	4
	local.get	5
	i32.load	12
	local.set	6
.Ltmp368:
	.loc	16 119 34 prologue_end          # emscripten/cache/sysroot/include/c++/v1/__memory/compressed_pair.h:119:34
	local.get	5
	i32.load	8
	local.set	7
	.loc	16 119 9 is_stmt 0              # emscripten/cache/sysroot/include/c++/v1/__memory/compressed_pair.h:119:9
	local.get	6
	local.get	7
	call	_ZNSt3__222__compressed_pair_elemIPNS_6threadELi0ELb0EEC2B8ne190106IDnTnNS_9enable_ifIXntsr7is_sameIS3_u7__decayIT_EEE5valueEiE4typeELi0EEEOS6_
	drop
	.loc	16 119 74                       # emscripten/cache/sysroot/include/c++/v1/__memory/compressed_pair.h:119:74
	i32.const	4
	local.set	8
	local.get	6
	local.get	8
	i32.add 
	local.set	9
	.loc	16 119 67                       # emscripten/cache/sysroot/include/c++/v1/__memory/compressed_pair.h:119:67
	local.get	5
	i32.load	4
	local.set	10
	.loc	16 119 42                       # emscripten/cache/sysroot/include/c++/v1/__memory/compressed_pair.h:119:42
	local.get	9
	local.get	10
	call	_ZNSt3__222__compressed_pair_elemIRNS_9allocatorINS_6threadEEELi1ELb0EEC2B8ne190106IS4_TnNS_9enable_ifIXntsr7is_sameIS5_u7__decayIT_EEE5valueEiE4typeELi0EEEOS8_
	drop
	.loc	16 119 75                       # emscripten/cache/sysroot/include/c++/v1/__memory/compressed_pair.h:119:75
	i32.const	16
	local.set	11
	local.get	5
	local.get	11
	i32.add 
	local.set	12
	local.get	12
	global.set	__stack_pointer
	local.get	6
	return
	end_function
.Ltmp369:
.Lfunc_end148:
                                        # -- End function
	.section	.text._ZNSt3__219__allocate_at_leastB8ne190106INS_9allocatorINS_6threadEEEEENS_19__allocation_resultINS_16allocator_traitsIT_E7pointerEEERS6_m,"G",@,_ZNSt3__219__allocate_at_leastB8ne190106INS_9allocatorINS_6threadEEEEENS_19__allocation_resultINS_16allocator_traitsIT_E7pointerEEERS6_m,comdat
	.hidden	_ZNSt3__219__allocate_at_leastB8ne190106INS_9allocatorINS_6threadEEEEENS_19__allocation_resultINS_16allocator_traitsIT_E7pointerEEERS6_m # -- Begin function _ZNSt3__219__allocate_at_leastB8ne190106INS_9allocatorINS_6threadEEEEENS_19__allocation_resultINS_16allocator_traitsIT_E7pointerEEERS6_m
	.weak	_ZNSt3__219__allocate_at_leastB8ne190106INS_9allocatorINS_6threadEEEEENS_19__allocation_resultINS_16allocator_traitsIT_E7pointerEEERS6_m
	.type	_ZNSt3__219__allocate_at_leastB8ne190106INS_9allocatorINS_6threadEEEEENS_19__allocation_resultINS_16allocator_traitsIT_E7pointerEEERS6_m,@function
_ZNSt3__219__allocate_at_leastB8ne190106INS_9allocatorINS_6threadEEEEENS_19__allocation_resultINS_16allocator_traitsIT_E7pointerEEERS6_m: # @_ZNSt3__219__allocate_at_leastB8ne190106INS_9allocatorINS_6threadEEEEENS_19__allocation_resultINS_16allocator_traitsIT_E7pointerEEERS6_m
.Lfunc_begin149:
	.file	51 "/home/kay/Documents/Code/toolchain-wasm" "emscripten/cache/sysroot/include/c++/v1/__memory/allocate_at_least.h"
	.loc	51 40 0 is_stmt 1               # emscripten/cache/sysroot/include/c++/v1/__memory/allocate_at_least.h:40:0
	.functype	_ZNSt3__219__allocate_at_leastB8ne190106INS_9allocatorINS_6threadEEEEENS_19__allocation_resultINS_16allocator_traitsIT_E7pointerEEERS6_m (i32, i32, i32) -> ()
	.local  	i32, i32, i32, i32, i32, i32, i32, i32, i32
# %bb.0:                                # %entry
	global.get	__stack_pointer
	local.set	3
	i32.const	16
	local.set	4
	local.get	3
	local.get	4
	i32.sub 
	local.set	5
	local.get	5
	global.set	__stack_pointer
	local.get	5
	local.get	1
	i32.store	12
	local.get	5
	local.get	2
	i32.store	8
.Ltmp370:
	.loc	51 41 11 prologue_end           # emscripten/cache/sysroot/include/c++/v1/__memory/allocate_at_least.h:41:11
	local.get	5
	i32.load	12
	local.set	6
	.loc	51 41 28 is_stmt 0              # emscripten/cache/sysroot/include/c++/v1/__memory/allocate_at_least.h:41:28
	local.get	5
	i32.load	8
	local.set	7
	.loc	51 41 19                        # emscripten/cache/sysroot/include/c++/v1/__memory/allocate_at_least.h:41:19
	local.get	6
	local.get	7
	call	_ZNSt3__29allocatorINS_6threadEE8allocateB8ne190106Em
	local.set	8
	.loc	51 41 10                        # emscripten/cache/sysroot/include/c++/v1/__memory/allocate_at_least.h:41:10
	local.get	0
	local.get	8
	i32.store	0
	.loc	51 41 34                        # emscripten/cache/sysroot/include/c++/v1/__memory/allocate_at_least.h:41:34
	local.get	5
	i32.load	8
	local.set	9
	.loc	51 41 10                        # emscripten/cache/sysroot/include/c++/v1/__memory/allocate_at_least.h:41:10
	local.get	0
	local.get	9
	i32.store	4
	.loc	51 41 3                         # emscripten/cache/sysroot/include/c++/v1/__memory/allocate_at_least.h:41:3
	i32.const	16
	local.set	10
	local.get	5
	local.get	10
	i32.add 
	local.set	11
	local.get	11
	global.set	__stack_pointer
	return
	end_function
.Ltmp371:
.Lfunc_end149:
                                        # -- End function
	.section	.text._ZNSt3__214__split_bufferINS_6threadERNS_9allocatorIS1_EEE7__allocB8ne190106Ev,"G",@,_ZNSt3__214__split_bufferINS_6threadERNS_9allocatorIS1_EEE7__allocB8ne190106Ev,comdat
	.hidden	_ZNSt3__214__split_bufferINS_6threadERNS_9allocatorIS1_EEE7__allocB8ne190106Ev # -- Begin function _ZNSt3__214__split_bufferINS_6threadERNS_9allocatorIS1_EEE7__allocB8ne190106Ev
	.weak	_ZNSt3__214__split_bufferINS_6threadERNS_9allocatorIS1_EEE7__allocB8ne190106Ev
	.type	_ZNSt3__214__split_bufferINS_6threadERNS_9allocatorIS1_EEE7__allocB8ne190106Ev,@function
_ZNSt3__214__split_bufferINS_6threadERNS_9allocatorIS1_EEE7__allocB8ne190106Ev: # @_ZNSt3__214__split_bufferINS_6threadERNS_9allocatorIS1_EEE7__allocB8ne190106Ev
.Lfunc_begin150:
	.loc	21 114 0 is_stmt 1              # emscripten/cache/sysroot/include/c++/v1/__split_buffer:114:0
	.functype	_ZNSt3__214__split_bufferINS_6threadERNS_9allocatorIS1_EEE7__allocB8ne190106Ev (i32) -> (i32)
	.local  	i32, i32, i32, i32, i32, i32, i32, i32, i32
# %bb.0:                                # %entry
	global.get	__stack_pointer
	local.set	1
	i32.const	16
	local.set	2
	local.get	1
	local.get	2
	i32.sub 
	local.set	3
	local.get	3
	global.set	__stack_pointer
	local.get	3
	local.get	0
	i32.store	12
	local.get	3
	i32.load	12
	local.set	4
.Ltmp372:
	.loc	21 114 96 prologue_end          # emscripten/cache/sysroot/include/c++/v1/__split_buffer:114:96
	i32.const	12
	local.set	5
	local.get	4
	local.get	5
	i32.add 
	local.set	6
	.loc	21 114 107 is_stmt 0            # emscripten/cache/sysroot/include/c++/v1/__split_buffer:114:107
	local.get	6
	call	_ZNSt3__217__compressed_pairIPNS_6threadERNS_9allocatorIS1_EEE6secondB8ne190106Ev
	local.set	7
	.loc	21 114 89                       # emscripten/cache/sysroot/include/c++/v1/__split_buffer:114:89
	i32.const	16
	local.set	8
	local.get	3
	local.get	8
	i32.add 
	local.set	9
	local.get	9
	global.set	__stack_pointer
	local.get	7
	return
	end_function
.Ltmp373:
.Lfunc_end150:
                                        # -- End function
	.section	.text._ZNSt3__214__split_bufferINS_6threadERNS_9allocatorIS1_EEE9__end_capB8ne190106Ev,"G",@,_ZNSt3__214__split_bufferINS_6threadERNS_9allocatorIS1_EEE9__end_capB8ne190106Ev,comdat
	.hidden	_ZNSt3__214__split_bufferINS_6threadERNS_9allocatorIS1_EEE9__end_capB8ne190106Ev # -- Begin function _ZNSt3__214__split_bufferINS_6threadERNS_9allocatorIS1_EEE9__end_capB8ne190106Ev
	.weak	_ZNSt3__214__split_bufferINS_6threadERNS_9allocatorIS1_EEE9__end_capB8ne190106Ev
	.type	_ZNSt3__214__split_bufferINS_6threadERNS_9allocatorIS1_EEE9__end_capB8ne190106Ev,@function
_ZNSt3__214__split_bufferINS_6threadERNS_9allocatorIS1_EEE9__end_capB8ne190106Ev: # @_ZNSt3__214__split_bufferINS_6threadERNS_9allocatorIS1_EEE9__end_capB8ne190106Ev
.Lfunc_begin151:
	.loc	21 119 0 is_stmt 1              # emscripten/cache/sysroot/include/c++/v1/__split_buffer:119:0
	.functype	_ZNSt3__214__split_bufferINS_6threadERNS_9allocatorIS1_EEE9__end_capB8ne190106Ev (i32) -> (i32)
	.local  	i32, i32, i32, i32, i32, i32, i32, i32, i32
# %bb.0:                                # %entry
	global.get	__stack_pointer
	local.set	1
	i32.const	16
	local.set	2
	local.get	1
	local.get	2
	i32.sub 
	local.set	3
	local.get	3
	global.set	__stack_pointer
	local.get	3
	local.get	0
	i32.store	12
	local.get	3
	i32.load	12
	local.set	4
.Ltmp374:
	.loc	21 119 95 prologue_end          # emscripten/cache/sysroot/include/c++/v1/__split_buffer:119:95
	i32.const	12
	local.set	5
	local.get	4
	local.get	5
	i32.add 
	local.set	6
	.loc	21 119 106 is_stmt 0            # emscripten/cache/sysroot/include/c++/v1/__split_buffer:119:106
	local.get	6
	call	_ZNSt3__217__compressed_pairIPNS_6threadERNS_9allocatorIS1_EEE5firstB8ne190106Ev
	local.set	7
	.loc	21 119 88                       # emscripten/cache/sysroot/include/c++/v1/__split_buffer:119:88
	i32.const	16
	local.set	8
	local.get	3
	local.get	8
	i32.add 
	local.set	9
	local.get	9
	global.set	__stack_pointer
	local.get	7
	return
	end_function
.Ltmp375:
.Lfunc_end151:
                                        # -- End function
	.section	.text._ZNSt3__222__compressed_pair_elemIRNS_9allocatorINS_6threadEEELi1ELb0EEC2B8ne190106IS4_TnNS_9enable_ifIXntsr7is_sameIS5_u7__decayIT_EEE5valueEiE4typeELi0EEEOS8_,"G",@,_ZNSt3__222__compressed_pair_elemIRNS_9allocatorINS_6threadEEELi1ELb0EEC2B8ne190106IS4_TnNS_9enable_ifIXntsr7is_sameIS5_u7__decayIT_EEE5valueEiE4typeELi0EEEOS8_,comdat
	.hidden	_ZNSt3__222__compressed_pair_elemIRNS_9allocatorINS_6threadEEELi1ELb0EEC2B8ne190106IS4_TnNS_9enable_ifIXntsr7is_sameIS5_u7__decayIT_EEE5valueEiE4typeELi0EEEOS8_ # -- Begin function _ZNSt3__222__compressed_pair_elemIRNS_9allocatorINS_6threadEEELi1ELb0EEC2B8ne190106IS4_TnNS_9enable_ifIXntsr7is_sameIS5_u7__decayIT_EEE5valueEiE4typeELi0EEEOS8_
	.weak	_ZNSt3__222__compressed_pair_elemIRNS_9allocatorINS_6threadEEELi1ELb0EEC2B8ne190106IS4_TnNS_9enable_ifIXntsr7is_sameIS5_u7__decayIT_EEE5valueEiE4typeELi0EEEOS8_
	.type	_ZNSt3__222__compressed_pair_elemIRNS_9allocatorINS_6threadEEELi1ELb0EEC2B8ne190106IS4_TnNS_9enable_ifIXntsr7is_sameIS5_u7__decayIT_EEE5valueEiE4typeELi0EEEOS8_,@function
_ZNSt3__222__compressed_pair_elemIRNS_9allocatorINS_6threadEEELi1ELb0EEC2B8ne190106IS4_TnNS_9enable_ifIXntsr7is_sameIS5_u7__decayIT_EEE5valueEiE4typeELi0EEEOS8_: # @_ZNSt3__222__compressed_pair_elemIRNS_9allocatorINS_6threadEEELi1ELb0EEC2B8ne190106IS4_TnNS_9enable_ifIXntsr7is_sameIS5_u7__decayIT_EEE5valueEiE4typeELi0EEEOS8_
.Lfunc_begin152:
	.loc	16 53 0 is_stmt 1               # emscripten/cache/sysroot/include/c++/v1/__memory/compressed_pair.h:53:0
	.functype	_ZNSt3__222__compressed_pair_elemIRNS_9allocatorINS_6threadEEELi1ELb0EEC2B8ne190106IS4_TnNS_9enable_ifIXntsr7is_sameIS5_u7__decayIT_EEE5valueEiE4typeELi0EEEOS8_ (i32, i32) -> (i32)
	.local  	i32, i32, i32, i32, i32
# %bb.0:                                # %entry
	global.get	__stack_pointer
	local.set	2
	i32.const	16
	local.set	3
	local.get	2
	local.get	3
	i32.sub 
	local.set	4
	local.get	4
	local.get	0
	i32.store	12
	local.get	4
	local.get	1
	i32.store	8
	local.get	4
	i32.load	12
	local.set	5
.Ltmp376:
	.loc	16 53 36 prologue_end           # emscripten/cache/sysroot/include/c++/v1/__memory/compressed_pair.h:53:36
	local.get	4
	i32.load	8
	local.set	6
	.loc	16 53 9 is_stmt 0               # emscripten/cache/sysroot/include/c++/v1/__memory/compressed_pair.h:53:9
	local.get	5
	local.get	6
	i32.store	0
	.loc	16 53 43                        # emscripten/cache/sysroot/include/c++/v1/__memory/compressed_pair.h:53:43
	local.get	5
	return
	end_function
.Ltmp377:
.Lfunc_end152:
                                        # -- End function
	.section	.text._ZNSt3__29allocatorINS_6threadEE8allocateB8ne190106Em,"G",@,_ZNSt3__29allocatorINS_6threadEE8allocateB8ne190106Em,comdat
	.hidden	_ZNSt3__29allocatorINS_6threadEE8allocateB8ne190106Em # -- Begin function _ZNSt3__29allocatorINS_6threadEE8allocateB8ne190106Em
	.weak	_ZNSt3__29allocatorINS_6threadEE8allocateB8ne190106Em
	.type	_ZNSt3__29allocatorINS_6threadEE8allocateB8ne190106Em,@function
_ZNSt3__29allocatorINS_6threadEE8allocateB8ne190106Em: # @_ZNSt3__29allocatorINS_6threadEE8allocateB8ne190106Em
.Lfunc_begin153:
	.loc	14 112 0 is_stmt 1              # emscripten/cache/sysroot/include/c++/v1/__memory/allocator.h:112:0
	.functype	_ZNSt3__29allocatorINS_6threadEE8allocateB8ne190106Em (i32, i32) -> (i32)
	.local  	i32, i32, i32, i32, i32, i32, i32, i32, i32, i32, i32, i32, i32, i32, i32, i32
# %bb.0:                                # %entry
	global.get	__stack_pointer
	local.set	2
	i32.const	16
	local.set	3
	local.get	2
	local.get	3
	i32.sub 
	local.set	4
	local.get	4
	global.set	__stack_pointer
	local.get	4
	local.get	0
	i32.store	12
	local.get	4
	local.get	1
	i32.store	8
	local.get	4
	i32.load	12
	local.set	5
.Ltmp378:
	.loc	14 113 9 prologue_end           # emscripten/cache/sysroot/include/c++/v1/__memory/allocator.h:113:9
	local.get	4
	i32.load	8
	local.set	6
	.loc	14 113 15 is_stmt 0             # emscripten/cache/sysroot/include/c++/v1/__memory/allocator.h:113:15
	local.get	5
	call	_ZNSt3__216allocator_traitsINS_9allocatorINS_6threadEEEE8max_sizeB8ne190106IS3_TnNS_9enable_ifIXsr14__has_max_sizeIKT_EE5valueEiE4typeELi0EEEmRKS3_
	local.set	7
	.loc	14 113 13                       # emscripten/cache/sysroot/include/c++/v1/__memory/allocator.h:113:13
	local.get	6
	local.get	7
	i32.gt_u
	local.set	8
	i32.const	1
	local.set	9
	local.get	8
	local.get	9
	i32.and 
	local.set	10
	block   	
	local.get	10
	i32.eqz
	br_if   	0                               # 0: down to label39
# %bb.1:                                # %if.then
	.loc	14 114 7 is_stmt 1              # emscripten/cache/sysroot/include/c++/v1/__memory/allocator.h:114:7
	call	_ZSt28__throw_bad_array_new_lengthB8ne190106v
	unreachable
.Ltmp379:
.LBB153_2:                              # %if.end
	.loc	14 0 7 is_stmt 0                # emscripten/cache/sysroot/include/c++/v1/__memory/allocator.h:0:7
	end_block                               # label39:
.Ltmp380:
	.loc	14 118 55 is_stmt 1             # emscripten/cache/sysroot/include/c++/v1/__memory/allocator.h:118:55
	local.get	4
	i32.load	8
	local.set	11
	.loc	14 118 59 is_stmt 0             # emscripten/cache/sysroot/include/c++/v1/__memory/allocator.h:118:59
	i32.const	2
	local.set	12
	local.get	11
	local.get	12
	i32.shl 
	local.set	13
	.loc	14 118 32                       # emscripten/cache/sysroot/include/c++/v1/__memory/allocator.h:118:32
	i32.const	4
	local.set	14
	local.get	13
	local.get	14
	call	_ZNSt3__217__libcpp_allocateB8ne190106Emm
	local.set	15
	.loc	14 118 7                        # emscripten/cache/sysroot/include/c++/v1/__memory/allocator.h:118:7
	i32.const	16
	local.set	16
	local.get	4
	local.get	16
	i32.add 
	local.set	17
	local.get	17
	global.set	__stack_pointer
	local.get	15
	return
	end_function
.Ltmp381:
.Lfunc_end153:
                                        # -- End function
	.section	.text._ZSt28__throw_bad_array_new_lengthB8ne190106v,"G",@,_ZSt28__throw_bad_array_new_lengthB8ne190106v,comdat
	.hidden	_ZSt28__throw_bad_array_new_lengthB8ne190106v # -- Begin function _ZSt28__throw_bad_array_new_lengthB8ne190106v
	.weak	_ZSt28__throw_bad_array_new_lengthB8ne190106v
	.type	_ZSt28__throw_bad_array_new_lengthB8ne190106v,@function
_ZSt28__throw_bad_array_new_lengthB8ne190106v: # @_ZSt28__throw_bad_array_new_lengthB8ne190106v
.Lfunc_begin154:
	.functype	_ZSt28__throw_bad_array_new_lengthB8ne190106v () -> ()
	.local  	i32, i32, i32, i32
# %bb.0:                                # %entry
	.loc	6 173 3 prologue_end is_stmt 1  # emscripten/cache/sysroot/include/c++/v1/new:173:3
	i32.const	4
	local.set	0
	local.get	0
	call	__cxa_allocate_exception
	local.set	1
	.loc	6 173 9 is_stmt 0               # emscripten/cache/sysroot/include/c++/v1/new:173:9
	local.get	1
	call	_ZNSt20bad_array_new_lengthC1Ev
	drop
	.loc	6 173 3                         # emscripten/cache/sysroot/include/c++/v1/new:173:3
	i32.const	_ZTISt20bad_array_new_length
	local.set	2
	i32.const	_ZNSt20bad_array_new_lengthD1Ev
	local.set	3
	local.get	1
	local.get	2
	local.get	3
	call	__cxa_throw
	unreachable
	end_function
.Ltmp382:
.Lfunc_end154:
                                        # -- End function
	.section	.text._ZNSt3__217__libcpp_allocateB8ne190106Emm,"G",@,_ZNSt3__217__libcpp_allocateB8ne190106Emm,comdat
	.hidden	_ZNSt3__217__libcpp_allocateB8ne190106Emm # -- Begin function _ZNSt3__217__libcpp_allocateB8ne190106Emm
	.weak	_ZNSt3__217__libcpp_allocateB8ne190106Emm
	.type	_ZNSt3__217__libcpp_allocateB8ne190106Emm,@function
_ZNSt3__217__libcpp_allocateB8ne190106Emm: # @_ZNSt3__217__libcpp_allocateB8ne190106Emm
.Lfunc_begin155:
	.loc	6 280 0 is_stmt 1               # emscripten/cache/sysroot/include/c++/v1/new:280:0
	.functype	_ZNSt3__217__libcpp_allocateB8ne190106Emm (i32, i32) -> (i32)
	.local  	i32, i32, i32, i32, i32, i32, i32, i32, i32, i32, i32, i32, i32, i32, i32, i32
# %bb.0:                                # %entry
	global.get	__stack_pointer
	local.set	2
	i32.const	16
	local.set	3
	local.get	2
	local.get	3
	i32.sub 
	local.set	4
	local.get	4
	global.set	__stack_pointer
	local.get	4
	local.get	0
	i32.store	8
	local.get	4
	local.get	1
	i32.store	4
.Ltmp383:
	.loc	6 282 32 prologue_end           # emscripten/cache/sysroot/include/c++/v1/new:282:32
	local.get	4
	i32.load	4
	local.set	5
	.loc	6 282 7 is_stmt 0               # emscripten/cache/sysroot/include/c++/v1/new:282:7
	local.get	5
	call	_ZNSt3__224__is_overaligned_for_newB8ne190106Em
	local.set	6
	i32.const	1
	local.set	7
	local.get	6
	local.get	7
	i32.and 
	local.set	8
	block   	
	block   	
	local.get	8
	i32.eqz
	br_if   	0                               # 0: down to label41
# %bb.1:                                # %if.then
.Ltmp384:
	.loc	6 283 62 is_stmt 1              # emscripten/cache/sysroot/include/c++/v1/new:283:62
	local.get	4
	i32.load	4
	local.set	9
	.loc	6 283 23 is_stmt 0              # emscripten/cache/sysroot/include/c++/v1/new:283:23
	local.get	4
	local.get	9
	i32.store	0
	.loc	6 284 34 is_stmt 1              # emscripten/cache/sysroot/include/c++/v1/new:284:34
	local.get	4
	i32.load	8
	local.set	10
	.loc	6 284 42 is_stmt 0              # emscripten/cache/sysroot/include/c++/v1/new:284:42
	local.get	4
	i32.load	0
	local.set	11
	.loc	6 284 12                        # emscripten/cache/sysroot/include/c++/v1/new:284:12
	local.get	10
	local.get	11
	call	_ZNSt3__221__libcpp_operator_newB8ne190106IJmSt11align_val_tEEEPvDpT_
	local.set	12
	.loc	6 284 5                         # emscripten/cache/sysroot/include/c++/v1/new:284:5
	local.get	4
	local.get	12
	i32.store	12
	br      	1                               # 1: down to label40
.Ltmp385:
.LBB155_2:                              # %if.end
	.loc	6 0 5                           # emscripten/cache/sysroot/include/c++/v1/new:0:5
	end_block                               # label41:
	.loc	6 289 32 is_stmt 1              # emscripten/cache/sysroot/include/c++/v1/new:289:32
	local.get	4
	i32.load	8
	local.set	13
	.loc	6 289 10 is_stmt 0              # emscripten/cache/sysroot/include/c++/v1/new:289:10
	local.get	13
	call	_ZNSt3__221__libcpp_operator_newB8ne190106IJmEEEPvDpT_
	local.set	14
	.loc	6 289 3                         # emscripten/cache/sysroot/include/c++/v1/new:289:3
	local.get	4
	local.get	14
	i32.store	12
.LBB155_3:                              # %return
	.loc	6 0 3                           # emscripten/cache/sysroot/include/c++/v1/new:0:3
	end_block                               # label40:
	.loc	6 290 1 is_stmt 1               # emscripten/cache/sysroot/include/c++/v1/new:290:1
	local.get	4
	i32.load	12
	local.set	15
	i32.const	16
	local.set	16
	local.get	4
	local.get	16
	i32.add 
	local.set	17
	local.get	17
	global.set	__stack_pointer
	local.get	15
	return
	end_function
.Ltmp386:
.Lfunc_end155:
                                        # -- End function
	.section	.text._ZNSt3__221__libcpp_operator_newB8ne190106IJmSt11align_val_tEEEPvDpT_,"G",@,_ZNSt3__221__libcpp_operator_newB8ne190106IJmSt11align_val_tEEEPvDpT_,comdat
	.hidden	_ZNSt3__221__libcpp_operator_newB8ne190106IJmSt11align_val_tEEEPvDpT_ # -- Begin function _ZNSt3__221__libcpp_operator_newB8ne190106IJmSt11align_val_tEEEPvDpT_
	.weak	_ZNSt3__221__libcpp_operator_newB8ne190106IJmSt11align_val_tEEEPvDpT_
	.type	_ZNSt3__221__libcpp_operator_newB8ne190106IJmSt11align_val_tEEEPvDpT_,@function
_ZNSt3__221__libcpp_operator_newB8ne190106IJmSt11align_val_tEEEPvDpT_: # @_ZNSt3__221__libcpp_operator_newB8ne190106IJmSt11align_val_tEEEPvDpT_
.Lfunc_begin156:
	.loc	6 263 0                         # emscripten/cache/sysroot/include/c++/v1/new:263:0
	.functype	_ZNSt3__221__libcpp_operator_newB8ne190106IJmSt11align_val_tEEEPvDpT_ (i32, i32) -> (i32)
	.local  	i32, i32, i32, i32, i32, i32, i32, i32
# %bb.0:                                # %entry
	global.get	__stack_pointer
	local.set	2
	i32.const	16
	local.set	3
	local.get	2
	local.get	3
	i32.sub 
	local.set	4
	local.get	4
	global.set	__stack_pointer
	local.get	4
	local.get	0
	i32.store	12
	local.get	4
	local.get	1
	i32.store	8
.Ltmp387:
	.loc	6 265 33 prologue_end           # emscripten/cache/sysroot/include/c++/v1/new:265:33
	local.get	4
	i32.load	12
	local.set	5
	local.get	4
	i32.load	8
	local.set	6
	.loc	6 265 10 is_stmt 0              # emscripten/cache/sysroot/include/c++/v1/new:265:10
	local.get	5
	local.get	6
	call	_ZnwmSt11align_val_t
	local.set	7
	.loc	6 265 3                         # emscripten/cache/sysroot/include/c++/v1/new:265:3
	i32.const	16
	local.set	8
	local.get	4
	local.get	8
	i32.add 
	local.set	9
	local.get	9
	global.set	__stack_pointer
	local.get	7
	return
	end_function
.Ltmp388:
.Lfunc_end156:
                                        # -- End function
	.section	.text._ZNSt3__221__libcpp_operator_newB8ne190106IJmEEEPvDpT_,"G",@,_ZNSt3__221__libcpp_operator_newB8ne190106IJmEEEPvDpT_,comdat
	.hidden	_ZNSt3__221__libcpp_operator_newB8ne190106IJmEEEPvDpT_ # -- Begin function _ZNSt3__221__libcpp_operator_newB8ne190106IJmEEEPvDpT_
	.weak	_ZNSt3__221__libcpp_operator_newB8ne190106IJmEEEPvDpT_
	.type	_ZNSt3__221__libcpp_operator_newB8ne190106IJmEEEPvDpT_,@function
_ZNSt3__221__libcpp_operator_newB8ne190106IJmEEEPvDpT_: # @_ZNSt3__221__libcpp_operator_newB8ne190106IJmEEEPvDpT_
.Lfunc_begin157:
	.loc	6 263 0 is_stmt 1               # emscripten/cache/sysroot/include/c++/v1/new:263:0
	.functype	_ZNSt3__221__libcpp_operator_newB8ne190106IJmEEEPvDpT_ (i32) -> (i32)
	.local  	i32, i32, i32, i32, i32, i32, i32
# %bb.0:                                # %entry
	global.get	__stack_pointer
	local.set	1
	i32.const	16
	local.set	2
	local.get	1
	local.get	2
	i32.sub 
	local.set	3
	local.get	3
	global.set	__stack_pointer
	local.get	3
	local.get	0
	i32.store	12
.Ltmp389:
	.loc	6 265 33 prologue_end           # emscripten/cache/sysroot/include/c++/v1/new:265:33
	local.get	3
	i32.load	12
	local.set	4
	.loc	6 265 10 is_stmt 0              # emscripten/cache/sysroot/include/c++/v1/new:265:10
	local.get	4
	call	_Znwm
	local.set	5
	.loc	6 265 3                         # emscripten/cache/sysroot/include/c++/v1/new:265:3
	i32.const	16
	local.set	6
	local.get	3
	local.get	6
	i32.add 
	local.set	7
	local.get	7
	global.set	__stack_pointer
	local.get	5
	return
	end_function
.Ltmp390:
.Lfunc_end157:
                                        # -- End function
	.section	.text._ZNSt3__217__compressed_pairIPNS_6threadERNS_9allocatorIS1_EEE6secondB8ne190106Ev,"G",@,_ZNSt3__217__compressed_pairIPNS_6threadERNS_9allocatorIS1_EEE6secondB8ne190106Ev,comdat
	.hidden	_ZNSt3__217__compressed_pairIPNS_6threadERNS_9allocatorIS1_EEE6secondB8ne190106Ev # -- Begin function _ZNSt3__217__compressed_pairIPNS_6threadERNS_9allocatorIS1_EEE6secondB8ne190106Ev
	.weak	_ZNSt3__217__compressed_pairIPNS_6threadERNS_9allocatorIS1_EEE6secondB8ne190106Ev
	.type	_ZNSt3__217__compressed_pairIPNS_6threadERNS_9allocatorIS1_EEE6secondB8ne190106Ev,@function
_ZNSt3__217__compressed_pairIPNS_6threadERNS_9allocatorIS1_EEE6secondB8ne190106Ev: # @_ZNSt3__217__compressed_pairIPNS_6threadERNS_9allocatorIS1_EEE6secondB8ne190106Ev
.Lfunc_begin158:
	.loc	16 137 0 is_stmt 1              # emscripten/cache/sysroot/include/c++/v1/__memory/compressed_pair.h:137:0
	.functype	_ZNSt3__217__compressed_pairIPNS_6threadERNS_9allocatorIS1_EEE6secondB8ne190106Ev (i32) -> (i32)
	.local  	i32, i32, i32, i32, i32, i32, i32, i32, i32
# %bb.0:                                # %entry
	global.get	__stack_pointer
	local.set	1
	i32.const	16
	local.set	2
	local.get	1
	local.get	2
	i32.sub 
	local.set	3
	local.get	3
	global.set	__stack_pointer
	local.get	3
	local.get	0
	i32.store	12
	local.get	3
	i32.load	12
	local.set	4
.Ltmp391:
	.loc	16 138 33 prologue_end          # emscripten/cache/sysroot/include/c++/v1/__memory/compressed_pair.h:138:33
	i32.const	4
	local.set	5
	local.get	4
	local.get	5
	i32.add 
	local.set	6
	.loc	16 138 40 is_stmt 0             # emscripten/cache/sysroot/include/c++/v1/__memory/compressed_pair.h:138:40
	local.get	6
	call	_ZNSt3__222__compressed_pair_elemIRNS_9allocatorINS_6threadEEELi1ELb0EE5__getB8ne190106Ev
	local.set	7
	.loc	16 138 5                        # emscripten/cache/sysroot/include/c++/v1/__memory/compressed_pair.h:138:5
	i32.const	16
	local.set	8
	local.get	3
	local.get	8
	i32.add 
	local.set	9
	local.get	9
	global.set	__stack_pointer
	local.get	7
	return
	end_function
.Ltmp392:
.Lfunc_end158:
                                        # -- End function
	.section	.text._ZNSt3__222__compressed_pair_elemIRNS_9allocatorINS_6threadEEELi1ELb0EE5__getB8ne190106Ev,"G",@,_ZNSt3__222__compressed_pair_elemIRNS_9allocatorINS_6threadEEELi1ELb0EE5__getB8ne190106Ev,comdat
	.hidden	_ZNSt3__222__compressed_pair_elemIRNS_9allocatorINS_6threadEEELi1ELb0EE5__getB8ne190106Ev # -- Begin function _ZNSt3__222__compressed_pair_elemIRNS_9allocatorINS_6threadEEELi1ELb0EE5__getB8ne190106Ev
	.weak	_ZNSt3__222__compressed_pair_elemIRNS_9allocatorINS_6threadEEELi1ELb0EE5__getB8ne190106Ev
	.type	_ZNSt3__222__compressed_pair_elemIRNS_9allocatorINS_6threadEEELi1ELb0EE5__getB8ne190106Ev,@function
_ZNSt3__222__compressed_pair_elemIRNS_9allocatorINS_6threadEEELi1ELb0EE5__getB8ne190106Ev: # @_ZNSt3__222__compressed_pair_elemIRNS_9allocatorINS_6threadEEELi1ELb0EE5__getB8ne190106Ev
.Lfunc_begin159:
	.loc	16 62 0 is_stmt 1               # emscripten/cache/sysroot/include/c++/v1/__memory/compressed_pair.h:62:0
	.functype	_ZNSt3__222__compressed_pair_elemIRNS_9allocatorINS_6threadEEELi1ELb0EE5__getB8ne190106Ev (i32) -> (i32)
	.local  	i32, i32, i32, i32, i32
# %bb.0:                                # %entry
	global.get	__stack_pointer
	local.set	1
	i32.const	16
	local.set	2
	local.get	1
	local.get	2
	i32.sub 
	local.set	3
	local.get	3
	local.get	0
	i32.store	12
	local.get	3
	i32.load	12
	local.set	4
.Ltmp393:
	.loc	16 62 92 prologue_end           # emscripten/cache/sysroot/include/c++/v1/__memory/compressed_pair.h:62:92
	local.get	4
	i32.load	0
	local.set	5
	.loc	16 62 85 is_stmt 0              # emscripten/cache/sysroot/include/c++/v1/__memory/compressed_pair.h:62:85
	local.get	5
	return
	end_function
.Ltmp394:
.Lfunc_end159:
                                        # -- End function
	.section	.text._ZNSt3__217__compressed_pairIPNS_6threadERNS_9allocatorIS1_EEE5firstB8ne190106Ev,"G",@,_ZNSt3__217__compressed_pairIPNS_6threadERNS_9allocatorIS1_EEE5firstB8ne190106Ev,comdat
	.hidden	_ZNSt3__217__compressed_pairIPNS_6threadERNS_9allocatorIS1_EEE5firstB8ne190106Ev # -- Begin function _ZNSt3__217__compressed_pairIPNS_6threadERNS_9allocatorIS1_EEE5firstB8ne190106Ev
	.weak	_ZNSt3__217__compressed_pairIPNS_6threadERNS_9allocatorIS1_EEE5firstB8ne190106Ev
	.type	_ZNSt3__217__compressed_pairIPNS_6threadERNS_9allocatorIS1_EEE5firstB8ne190106Ev,@function
_ZNSt3__217__compressed_pairIPNS_6threadERNS_9allocatorIS1_EEE5firstB8ne190106Ev: # @_ZNSt3__217__compressed_pairIPNS_6threadERNS_9allocatorIS1_EEE5firstB8ne190106Ev
.Lfunc_begin160:
	.loc	16 129 0 is_stmt 1              # emscripten/cache/sysroot/include/c++/v1/__memory/compressed_pair.h:129:0
	.functype	_ZNSt3__217__compressed_pairIPNS_6threadERNS_9allocatorIS1_EEE5firstB8ne190106Ev (i32) -> (i32)
	.local  	i32, i32, i32, i32, i32, i32, i32
# %bb.0:                                # %entry
	global.get	__stack_pointer
	local.set	1
	i32.const	16
	local.set	2
	local.get	1
	local.get	2
	i32.sub 
	local.set	3
	local.get	3
	global.set	__stack_pointer
	local.get	3
	local.get	0
	i32.store	12
	local.get	3
	i32.load	12
	local.set	4
.Ltmp395:
	.loc	16 130 40 prologue_end          # emscripten/cache/sysroot/include/c++/v1/__memory/compressed_pair.h:130:40
	local.get	4
	call	_ZNSt3__222__compressed_pair_elemIPNS_6threadELi0ELb0EE5__getB8ne190106Ev
	local.set	5
	.loc	16 130 5 is_stmt 0              # emscripten/cache/sysroot/include/c++/v1/__memory/compressed_pair.h:130:5
	i32.const	16
	local.set	6
	local.get	3
	local.get	6
	i32.add 
	local.set	7
	local.get	7
	global.set	__stack_pointer
	local.get	5
	return
	end_function
.Ltmp396:
.Lfunc_end160:
                                        # -- End function
	.section	.text._ZNSt3__234__uninitialized_allocator_relocateB8ne190106INS_9allocatorINS_6threadEEES2_EEvRT_PT0_S7_S7_,"G",@,_ZNSt3__234__uninitialized_allocator_relocateB8ne190106INS_9allocatorINS_6threadEEES2_EEvRT_PT0_S7_S7_,comdat
	.hidden	_ZNSt3__234__uninitialized_allocator_relocateB8ne190106INS_9allocatorINS_6threadEEES2_EEvRT_PT0_S7_S7_ # -- Begin function _ZNSt3__234__uninitialized_allocator_relocateB8ne190106INS_9allocatorINS_6threadEEES2_EEvRT_PT0_S7_S7_
	.weak	_ZNSt3__234__uninitialized_allocator_relocateB8ne190106INS_9allocatorINS_6threadEEES2_EEvRT_PT0_S7_S7_
	.type	_ZNSt3__234__uninitialized_allocator_relocateB8ne190106INS_9allocatorINS_6threadEEES2_EEvRT_PT0_S7_S7_,@function
_ZNSt3__234__uninitialized_allocator_relocateB8ne190106INS_9allocatorINS_6threadEEES2_EEvRT_PT0_S7_S7_: # @_ZNSt3__234__uninitialized_allocator_relocateB8ne190106INS_9allocatorINS_6threadEEES2_EEvRT_PT0_S7_S7_
.Lfunc_begin161:
	.loc	34 623 0 is_stmt 1              # emscripten/cache/sysroot/include/c++/v1/__memory/uninitialized_algorithms.h:623:0
	.functype	_ZNSt3__234__uninitialized_allocator_relocateB8ne190106INS_9allocatorINS_6threadEEES2_EEvRT_PT0_S7_S7_ (i32, i32, i32, i32) -> ()
	.local  	i32, i32, i32, i32, i32, i32, i32, i32, i32, i32, i32, i32, i32, i32, i32, i32, i32, i32, i32, i32, i32, i32, i64, i32, i32, i32, i32, i32, i32, i32, i32, i32, i32, i32, i32, i32, i32, i32, i32, i32, i32, i32, i32, i32, i32, i32, i32, i32, i32, i32, i32
# %bb.0:                                # %entry
	global.get	__stack_pointer
	local.set	4
	i32.const	64
	local.set	5
	local.get	4
	local.get	5
	i32.sub 
	local.set	6
	local.get	6
	global.set	__stack_pointer
	local.get	6
	local.get	0
	i32.store	60
	local.get	6
	local.get	1
	i32.store	56
	local.get	6
	local.get	2
	i32.store	52
	local.get	6
	local.get	3
	i32.store	48
.Ltmp397:
	.loc	34 629 29 prologue_end          # emscripten/cache/sysroot/include/c++/v1/__memory/uninitialized_algorithms.h:629:29
	local.get	6
	i32.load	48
	local.set	7
	.loc	34 629 10 is_stmt 0             # emscripten/cache/sysroot/include/c++/v1/__memory/uninitialized_algorithms.h:629:10
	local.get	6
	local.get	7
	i32.store	44
	.loc	34 631 81 is_stmt 1             # emscripten/cache/sysroot/include/c++/v1/__memory/uninitialized_algorithms.h:631:81
	local.get	6
	i32.load	60
	local.set	8
	.loc	34 631 37 is_stmt 0             # emscripten/cache/sysroot/include/c++/v1/__memory/uninitialized_algorithms.h:631:37
	i32.const	16
	local.set	9
	local.get	6
	local.get	9
	i32.add 
	local.set	10
	local.get	10
	local.set	11
	i32.const	44
	local.set	12
	local.get	6
	local.get	12
	i32.add 
	local.set	13
	local.get	13
	local.set	14
	i32.const	48
	local.set	15
	local.get	6
	local.get	15
	i32.add 
	local.set	16
	local.get	16
	local.set	17
	local.get	11
	local.get	8
	local.get	14
	local.get	17
	call	_ZNSt3__229_AllocatorDestroyRangeReverseINS_9allocatorINS_6threadEEEPS2_EC2B8ne190106ERS3_RS4_S7_
	drop
	.loc	34 631 9                        # emscripten/cache/sysroot/include/c++/v1/__memory/uninitialized_algorithms.h:631:9
	i32.const	28
	local.set	18
	local.get	6
	local.get	18
	i32.add 
	local.set	19
	local.get	19
	drop
	i32.const	8
	local.set	20
	local.get	6
	local.get	20
	i32.add 
	local.set	21
	i32.const	16
	local.set	22
	local.get	6
	local.get	22
	i32.add 
	local.set	23
	local.get	23
	local.get	20
	i32.add 
	local.set	24
	local.get	24
	i32.load	0
	local.set	25
	local.get	21
	local.get	25
	i32.store	0
	local.get	6
	i64.load	16:p2align=2
	local.set	26
	local.get	6
	local.get	26
	i64.store	0
	i32.const	28
	local.set	27
	local.get	6
	local.get	27
	i32.add 
	local.set	28
	local.get	28
	local.get	6
	call	_ZNSt3__222__make_exception_guardB8ne190106INS_29_AllocatorDestroyRangeReverseINS_9allocatorINS_6threadEEEPS3_EEEENS_28__exception_guard_exceptionsIT_EES8_
	.loc	34 632 19 is_stmt 1             # emscripten/cache/sysroot/include/c++/v1/__memory/uninitialized_algorithms.h:632:19
	local.get	6
	i32.load	56
	local.set	29
	.loc	34 632 10 is_stmt 0             # emscripten/cache/sysroot/include/c++/v1/__memory/uninitialized_algorithms.h:632:10
	local.get	6
	local.get	29
	i32.store	12
.LBB161_1:                              # %while.cond
                                        # =>This Inner Loop Header: Depth=1
	.loc	34 633 12 is_stmt 1             # emscripten/cache/sysroot/include/c++/v1/__memory/uninitialized_algorithms.h:633:12
	block   	
	loop    	                                # label43:
	local.get	6
	i32.load	12
	local.set	30
	.loc	34 633 22 is_stmt 0             # emscripten/cache/sysroot/include/c++/v1/__memory/uninitialized_algorithms.h:633:22
	local.get	6
	i32.load	52
	local.set	31
	.loc	34 633 19                       # emscripten/cache/sysroot/include/c++/v1/__memory/uninitialized_algorithms.h:633:19
	local.get	30
	local.get	31
	i32.ne  
	local.set	32
	.loc	34 633 5                        # emscripten/cache/sysroot/include/c++/v1/__memory/uninitialized_algorithms.h:633:5
	i32.const	1
	local.set	33
	local.get	32
	local.get	33
	i32.and 
	local.set	34
	local.get	34
	i32.eqz
	br_if   	1                               # 1: down to label42
# %bb.2:                                # %while.body
                                        #   in Loop: Header=BB161_1 Depth=1
.Ltmp398:
	.loc	34 635 43 is_stmt 1             # emscripten/cache/sysroot/include/c++/v1/__memory/uninitialized_algorithms.h:635:43
	local.get	6
	i32.load	60
	local.set	35
	.loc	34 635 52 is_stmt 0             # emscripten/cache/sysroot/include/c++/v1/__memory/uninitialized_algorithms.h:635:52
	local.get	6
	i32.load	48
	local.set	36
	.loc	34 635 85                       # emscripten/cache/sysroot/include/c++/v1/__memory/uninitialized_algorithms.h:635:85
	local.get	6
	i32.load	12
	local.set	37
	.loc	34 635 7                        # emscripten/cache/sysroot/include/c++/v1/__memory/uninitialized_algorithms.h:635:7
	local.get	35
	local.get	36
	local.get	37
	call	_ZNSt3__216allocator_traitsINS_9allocatorINS_6threadEEEE9constructB8ne190106IS2_JS2_ETnNS_9enable_ifIXsr15__has_constructIS3_PT_DpT0_EE5valueEiE4typeELi0EEEvRS3_S8_DpOS9_
	.loc	34 639 7 is_stmt 1              # emscripten/cache/sysroot/include/c++/v1/__memory/uninitialized_algorithms.h:639:7
	local.get	6
	i32.load	12
	local.set	38
	i32.const	4
	local.set	39
	local.get	38
	local.get	39
	i32.add 
	local.set	40
	local.get	6
	local.get	40
	i32.store	12
	.loc	34 640 7                        # emscripten/cache/sysroot/include/c++/v1/__memory/uninitialized_algorithms.h:640:7
	local.get	6
	i32.load	48
	local.set	41
	i32.const	4
	local.set	42
	local.get	41
	local.get	42
	i32.add 
	local.set	43
	local.get	6
	local.get	43
	i32.store	48
.Ltmp399:
	.loc	34 633 5                        # emscripten/cache/sysroot/include/c++/v1/__memory/uninitialized_algorithms.h:633:5
	br      	0                               # 0: up to label43
.LBB161_3:                              # %while.end
	end_loop
	end_block                               # label42:
	.loc	34 642 13                       # emscripten/cache/sysroot/include/c++/v1/__memory/uninitialized_algorithms.h:642:13
	i32.const	28
	local.set	44
	local.get	6
	local.get	44
	i32.add 
	local.set	45
	local.get	45
	local.set	46
	local.get	46
	call	_ZNSt3__228__exception_guard_exceptionsINS_29_AllocatorDestroyRangeReverseINS_9allocatorINS_6threadEEEPS3_EEE10__completeB8ne190106Ev
	.loc	34 643 30                       # emscripten/cache/sysroot/include/c++/v1/__memory/uninitialized_algorithms.h:643:30
	local.get	6
	i32.load	60
	local.set	47
	.loc	34 643 39 is_stmt 0             # emscripten/cache/sysroot/include/c++/v1/__memory/uninitialized_algorithms.h:643:39
	local.get	6
	i32.load	56
	local.set	48
	.loc	34 643 48                       # emscripten/cache/sysroot/include/c++/v1/__memory/uninitialized_algorithms.h:643:48
	local.get	6
	i32.load	52
	local.set	49
	.loc	34 643 5                        # emscripten/cache/sysroot/include/c++/v1/__memory/uninitialized_algorithms.h:643:5
	local.get	47
	local.get	48
	local.get	49
	call	_ZNSt3__219__allocator_destroyB8ne190106INS_9allocatorINS_6threadEEEPS2_S4_EEvRT_T0_T1_
.Ltmp400:
	.loc	34 644 3 is_stmt 1              # emscripten/cache/sysroot/include/c++/v1/__memory/uninitialized_algorithms.h:644:3
	i32.const	28
	local.set	50
	local.get	6
	local.get	50
	i32.add 
	local.set	51
	local.get	51
	local.set	52
	local.get	52
	call	_ZNSt3__228__exception_guard_exceptionsINS_29_AllocatorDestroyRangeReverseINS_9allocatorINS_6threadEEEPS3_EEED2B8ne190106Ev
	drop
.Ltmp401:
	.loc	34 647 1                        # emscripten/cache/sysroot/include/c++/v1/__memory/uninitialized_algorithms.h:647:1
	i32.const	64
	local.set	53
	local.get	6
	local.get	53
	i32.add 
	local.set	54
	local.get	54
	global.set	__stack_pointer
	return
	end_function
.Ltmp402:
.Lfunc_end161:
                                        # -- End function
	.section	.text._ZNSt3__24swapB8ne190106IPNS_6threadEEENS_9enable_ifIXaasr21is_move_constructibleIT_EE5valuesr18is_move_assignableIS4_EE5valueEvE4typeERS4_S7_,"G",@,_ZNSt3__24swapB8ne190106IPNS_6threadEEENS_9enable_ifIXaasr21is_move_constructibleIT_EE5valuesr18is_move_assignableIS4_EE5valueEvE4typeERS4_S7_,comdat
	.hidden	_ZNSt3__24swapB8ne190106IPNS_6threadEEENS_9enable_ifIXaasr21is_move_constructibleIT_EE5valuesr18is_move_assignableIS4_EE5valueEvE4typeERS4_S7_ # -- Begin function _ZNSt3__24swapB8ne190106IPNS_6threadEEENS_9enable_ifIXaasr21is_move_constructibleIT_EE5valuesr18is_move_assignableIS4_EE5valueEvE4typeERS4_S7_
	.weak	_ZNSt3__24swapB8ne190106IPNS_6threadEEENS_9enable_ifIXaasr21is_move_constructibleIT_EE5valuesr18is_move_assignableIS4_EE5valueEvE4typeERS4_S7_
	.type	_ZNSt3__24swapB8ne190106IPNS_6threadEEENS_9enable_ifIXaasr21is_move_constructibleIT_EE5valuesr18is_move_assignableIS4_EE5valueEvE4typeERS4_S7_,@function
_ZNSt3__24swapB8ne190106IPNS_6threadEEENS_9enable_ifIXaasr21is_move_constructibleIT_EE5valuesr18is_move_assignableIS4_EE5valueEvE4typeERS4_S7_: # @_ZNSt3__24swapB8ne190106IPNS_6threadEEENS_9enable_ifIXaasr21is_move_constructibleIT_EE5valuesr18is_move_assignableIS4_EE5valueEvE4typeERS4_S7_
.Lfunc_begin162:
	.file	52 "/home/kay/Documents/Code/toolchain-wasm" "emscripten/cache/sysroot/include/c++/v1/__utility/swap.h"
	.loc	52 41 0                         # emscripten/cache/sysroot/include/c++/v1/__utility/swap.h:41:0
	.functype	_ZNSt3__24swapB8ne190106IPNS_6threadEEENS_9enable_ifIXaasr21is_move_constructibleIT_EE5valuesr18is_move_assignableIS4_EE5valueEvE4typeERS4_S7_ (i32, i32) -> ()
	.local  	i32, i32, i32, i32, i32, i32, i32, i32, i32, i32
# %bb.0:                                # %entry
	global.get	__stack_pointer
	local.set	2
	i32.const	16
	local.set	3
	local.get	2
	local.get	3
	i32.sub 
	local.set	4
	local.get	4
	local.get	0
	i32.store	12
	local.get	4
	local.get	1
	i32.store	8
.Ltmp403:
	.loc	52 42 21 prologue_end           # emscripten/cache/sysroot/include/c++/v1/__utility/swap.h:42:21
	local.get	4
	i32.load	12
	local.set	5
	.loc	52 42 11 is_stmt 0              # emscripten/cache/sysroot/include/c++/v1/__utility/swap.h:42:11
	local.get	5
	i32.load	0
	local.set	6
	.loc	52 42 7                         # emscripten/cache/sysroot/include/c++/v1/__utility/swap.h:42:7
	local.get	4
	local.get	6
	i32.store	4
	.loc	52 43 19 is_stmt 1              # emscripten/cache/sysroot/include/c++/v1/__utility/swap.h:43:19
	local.get	4
	i32.load	8
	local.set	7
	.loc	52 43 9 is_stmt 0               # emscripten/cache/sysroot/include/c++/v1/__utility/swap.h:43:9
	local.get	7
	i32.load	0
	local.set	8
	.loc	52 43 3                         # emscripten/cache/sysroot/include/c++/v1/__utility/swap.h:43:3
	local.get	4
	i32.load	12
	local.set	9
	.loc	52 43 7                         # emscripten/cache/sysroot/include/c++/v1/__utility/swap.h:43:7
	local.get	9
	local.get	8
	i32.store	0
	.loc	52 44 9 is_stmt 1               # emscripten/cache/sysroot/include/c++/v1/__utility/swap.h:44:9
	local.get	4
	i32.load	4
	local.set	10
	.loc	52 44 3 is_stmt 0               # emscripten/cache/sysroot/include/c++/v1/__utility/swap.h:44:3
	local.get	4
	i32.load	8
	local.set	11
	.loc	52 44 7                         # emscripten/cache/sysroot/include/c++/v1/__utility/swap.h:44:7
	local.get	11
	local.get	10
	i32.store	0
	.loc	52 45 1 is_stmt 1               # emscripten/cache/sysroot/include/c++/v1/__utility/swap.h:45:1
	return
	end_function
.Ltmp404:
.Lfunc_end162:
                                        # -- End function
	.section	.text._ZNKSt3__26vectorINS_6threadENS_9allocatorIS1_EEE14__annotate_newB8ne190106Em,"G",@,_ZNKSt3__26vectorINS_6threadENS_9allocatorIS1_EEE14__annotate_newB8ne190106Em,comdat
	.hidden	_ZNKSt3__26vectorINS_6threadENS_9allocatorIS1_EEE14__annotate_newB8ne190106Em # -- Begin function _ZNKSt3__26vectorINS_6threadENS_9allocatorIS1_EEE14__annotate_newB8ne190106Em
	.weak	_ZNKSt3__26vectorINS_6threadENS_9allocatorIS1_EEE14__annotate_newB8ne190106Em
	.type	_ZNKSt3__26vectorINS_6threadENS_9allocatorIS1_EEE14__annotate_newB8ne190106Em,@function
_ZNKSt3__26vectorINS_6threadENS_9allocatorIS1_EEE14__annotate_newB8ne190106Em: # @_ZNKSt3__26vectorINS_6threadENS_9allocatorIS1_EEE14__annotate_newB8ne190106Em
.Lfunc_begin163:
	.loc	3 906 0                         # emscripten/cache/sysroot/include/c++/v1/vector:906:0
	.functype	_ZNKSt3__26vectorINS_6threadENS_9allocatorIS1_EEE14__annotate_newB8ne190106Em (i32, i32) -> ()
	.local  	i32, i32, i32
# %bb.0:                                # %entry
	global.get	__stack_pointer
	local.set	2
	i32.const	16
	local.set	3
	local.get	2
	local.get	3
	i32.sub 
	local.set	4
	local.get	4
	local.get	0
	i32.store	12
	local.get	4
	local.get	1
	i32.store	8
.Ltmp405:
	.loc	3 911 3 prologue_end            # emscripten/cache/sysroot/include/c++/v1/vector:911:3
	return
	end_function
.Ltmp406:
.Lfunc_end163:
                                        # -- End function
	.section	.text._ZNSt3__222__make_exception_guardB8ne190106INS_29_AllocatorDestroyRangeReverseINS_9allocatorINS_6threadEEEPS3_EEEENS_28__exception_guard_exceptionsIT_EES8_,"G",@,_ZNSt3__222__make_exception_guardB8ne190106INS_29_AllocatorDestroyRangeReverseINS_9allocatorINS_6threadEEEPS3_EEEENS_28__exception_guard_exceptionsIT_EES8_,comdat
